
f8398918-194c-47dc-95c4-2c493498363b.elf:     file format elf32-littlearm
f8398918-194c-47dc-95c4-2c493498363b.elf
architecture: arm, flags 0x00000150:
HAS_SYMS, DYNAMIC, D_PAGED
start address 0x00000020

Program Header:
0x70000001 off    0x00016f7c vaddr 0x00006f7c paddr 0x00006f7c align 2**2
         filesz 0x000004a0 memsz 0x000004a0 flags r--
    LOAD off    0x00010000 vaddr 0x00000000 paddr 0x00000000 align 2**16
         filesz 0x00005d80 memsz 0x00005d80 flags r-x
    LOAD off    0x00015d80 vaddr 0x00005d80 paddr 0x00005d80 align 2**16
         filesz 0x00001a10 memsz 0x00001a10 flags r--
    LOAD off    0x00018000 vaddr 0x00008000 paddr 0x00008000 align 2**16
         filesz 0x00000098 memsz 0x0000a108 flags rw-
 DYNAMIC off    0x00017558 vaddr 0x00007558 paddr 0x00007558 align 2**2
         filesz 0x00000080 memsz 0x00000080 flags rw-

Dynamic Section:
  HASH                 0x00007748
  STRTAB               0x000076a8
  SYMTAB               0x000075d8
  STRSZ                0x0000009f
  SYMENT               0x00000010
  DEBUG                0x00000000
  REL                  0x00007450
  RELSZ                0x00000108
  RELENT               0x00000008
  FLAGS_1              0x08000000
  RELCOUNT             0x00000017
private flags = 5000400: [Version5 EABI] [hard-float ABI]

Sections:
Idx Name          Size      VMA       LMA       File off  Algn
  0 .ta_head      00000020  00000000  00000000  00010000  2**3
                  CONTENTS, ALLOC, LOAD, DATA
  1 .text         00005d60  00000020  00000020  00010020  2**3
                  CONTENTS, ALLOC, LOAD, READONLY, CODE
  2 .rodata       0000110b  00005d80  00005d80  00015d80  2**2
                  CONTENTS, ALLOC, LOAD, READONLY, DATA
  3 .ARM.extab    000000c0  00006e8c  00006e8c  00016e8c  2**2
                  CONTENTS, ALLOC, LOAD, READONLY, DATA
  4 .ARM.extab.text.__aeabi_ldivmod 0000000c  00006f4c  00006f4c  00016f4c  2**2
                  CONTENTS, ALLOC, LOAD, READONLY, DATA
  5 .ARM.extab.text.__aeabi_uldivmod 0000000c  00006f58  00006f58  00016f58  2**2
                  CONTENTS, ALLOC, LOAD, READONLY, DATA
  6 .ARM.extab.text.utee_panic 0000000c  00006f64  00006f64  00016f64  2**2
                  CONTENTS, ALLOC, LOAD, READONLY, DATA
  7 .ARM.extab.text.unlikely 0000000c  00006f70  00006f70  00016f70  2**2
                  CONTENTS, ALLOC, LOAD, READONLY, DATA
  8 .ARM.exidx    000004a0  00006f7c  00006f7c  00016f7c  2**2
                  CONTENTS, ALLOC, LOAD, READONLY, DATA
  9 .got          00000034  0000741c  0000741c  0001741c  2**2
                  CONTENTS, ALLOC, LOAD, DATA
 10 .dynsym       000000d0  000075d8  000075d8  000175d8  2**2
                  CONTENTS, ALLOC, LOAD, READONLY, DATA
 11 .rel.got      00000050  00007508  00007508  00017508  2**2
                  CONTENTS, ALLOC, LOAD, READONLY, DATA
 12 .dynamic      00000080  00007558  00007558  00017558  2**2
                  CONTENTS, ALLOC, LOAD, DATA
 13 .dynstr       0000009f  000076a8  000076a8  000176a8  2**0
                  CONTENTS, ALLOC, LOAD, READONLY, DATA
 14 .hash         00000048  00007748  00007748  00017748  2**2
                  CONTENTS, ALLOC, LOAD, READONLY, DATA
 15 .data         00000098  00008000  00008000  00018000  2**2
                  CONTENTS, ALLOC, LOAD, DATA
 16 .bss          0000a070  00008098  00008098  00018098  2**2
                  ALLOC
 17 .debug_info   0000d79b  00000000  00000000  00018098  2**0
                  CONTENTS, READONLY, DEBUGGING
 18 .debug_abbrev 00002612  00000000  00000000  00025833  2**0
                  CONTENTS, READONLY, DEBUGGING
 19 .debug_loc    0000cf00  00000000  00000000  00027e45  2**0
                  CONTENTS, READONLY, DEBUGGING
 20 .debug_aranges 000004f0  00000000  00000000  00034d48  2**3
                  CONTENTS, READONLY, DEBUGGING
 21 .debug_ranges 000007b0  00000000  00000000  00035238  2**3
                  CONTENTS, READONLY, DEBUGGING
 22 .debug_macro  00011ba6  00000000  00000000  000359e8  2**0
                  CONTENTS, READONLY, DEBUGGING
 23 .debug_line   0000459d  00000000  00000000  0004758e  2**0
                  CONTENTS, READONLY, DEBUGGING
 24 .debug_str    00010e7d  00000000  00000000  0004bb2b  2**0
                  CONTENTS, READONLY, DEBUGGING
 25 .comment      00000074  00000000  00000000  0005c9a8  2**0
                  CONTENTS, READONLY
 26 .ARM.attributes 00000036  00000000  00000000  0005ca1c  2**0
                  CONTENTS, READONLY
 27 .debug_frame  00001690  00000000  00000000  0005ca54  2**2
                  CONTENTS, READONLY, DEBUGGING
 28 .rel.dyn      000000b8  00007450  00007450  00017450  2**2
                  CONTENTS, ALLOC, LOAD, READONLY, DATA
SYMBOL TABLE:
00000000 l    d  .ta_head	00000000 .ta_head
00000020 l    d  .text	00000000 .text
00005d80 l    d  .rodata	00000000 .rodata
00006e8c l    d  .ARM.extab	00000000 .ARM.extab
00006f4c l    d  .ARM.extab.text.__aeabi_ldivmod	00000000 .ARM.extab.text.__aeabi_ldivmod
00006f58 l    d  .ARM.extab.text.__aeabi_uldivmod	00000000 .ARM.extab.text.__aeabi_uldivmod
00006f64 l    d  .ARM.extab.text.utee_panic	00000000 .ARM.extab.text.utee_panic
00006f70 l    d  .ARM.extab.text.unlikely	00000000 .ARM.extab.text.unlikely
00006f7c l    d  .ARM.exidx	00000000 .ARM.exidx
0000741c l    d  .got	00000000 .got
00007508 l    d  .rel.got	00000000 .rel.got
00007558 l    d  .dynamic	00000000 .dynamic
000075d8 l    d  .dynsym	00000000 .dynsym
000076a8 l    d  .dynstr	00000000 .dynstr
00007748 l    d  .hash	00000000 .hash
00008000 l    d  .data	00000000 .data
00008098 l    d  .bss	00000000 .bss
00000000 l    d  .debug_info	00000000 .debug_info
00000000 l    d  .debug_abbrev	00000000 .debug_abbrev
00000000 l    d  .debug_loc	00000000 .debug_loc
00000000 l    d  .debug_aranges	00000000 .debug_aranges
00000000 l    d  .debug_ranges	00000000 .debug_ranges
00000000 l    d  .debug_macro	00000000 .debug_macro
00000000 l    d  .debug_line	00000000 .debug_line
00000000 l    d  .debug_str	00000000 .debug_str
00000000 l    d  .comment	00000000 .comment
00000000 l    d  .ARM.attributes	00000000 .ARM.attributes
00000000 l    d  .debug_frame	00000000 .debug_frame
00007450 l    d  .rel.dyn	00000000 .rel.dyn
00000000 l    df *ABS*	00000000 user_ta_header.c
00005d84 l     O .rodata	00000004 __compound_literal.5
00005d88 l     O .rodata	00000004 __compound_literal.4
00005d8c l     O .rodata	00000004 __compound_literal.3
00005d90 l     O .rodata	00000001 __compound_literal.2
00005d91 l     O .rodata	00000001 __compound_literal.1
00005d92 l     O .rodata	00000001 __compound_literal.0
00000000 l    df *ABS*	00000000 myta4.c
00006060 l     O .rodata	00000014 __func__.6201
00006074 l     O .rodata	00000015 __func__.6205
00006089 l     O .rodata	00000019 __func__.6211
000060a2 l     O .rodata	0000001a __func__.6215
000060bc l     O .rodata	0000000a __func__.6220
000060c6 l     O .rodata	0000000a __func__.6226
00000000 l    df *ABS*	00000000 trace.c
00000170 l     F .text	0000004e append
00006224 l     O .rodata	00000005 lvl_strs.5573
00006229 l     O .rodata	0000000a __func__.5627
00000000 l    df *ABS*	00000000 snprintk.c
0000626d l     O .rodata	00000011 HEXDIGITS
0000627e l     O .rodata	00000011 hexdigits
00000000 l    df *ABS*	00000000 arm32_aeabi_ldivmod_a32.o
00000000 l    df *ABS*	00000000 trace_ext.c
00000000 l    df *ABS*	00000000 user_ta_entry.c
00000c14 l     F .text	0000001c ta_header_get_session
00000c30 l     F .text	00000068 ta_header_remove_session
00008098 l     O .bss	00000001 init_done
00008074 l     O .data	00000008 ta_sessions
00000000 l    df *ABS*	00000000 utee_syscalls_a32.o
00000000 l    df *ABS*	00000000 gprof_a32.o
00000000 l    df *ABS*	00000000 tee_api.c
000062c7 l     O .rodata	0000000b __func__.6740
000080c0 l     O .bss	00000004 tee_api_instance_data
00000000 l    df *ABS*	00000000 tee_api_arith_mpi.c
000025d0 l     F .text	00000020 api_panic
000015c0 l     F .text	00000020 mpi_panic
000015e0 l     F .text	00000024 get_mpi
00001604 l     F .text	00000010 mpi_is_odd
00001614 l     F .text	00000016 rng_read
0000162a l     F .text	0000001c put_mpi
00001646 l     F .text	0000045a mpi_egcd
00001aa0 l     F .text	00000044 get_const_mpi
00001ae4 l     F .text	00000088 bigint_binary
000080c4 l     O .bss	00002000 data.6740
00001d74 l     F .text	000000e8 bigint_binary_mod
000062e3 l     O .rodata	00000009 __func__.7008
000062ec l     O .rodata	0000000e __func__.6769
000062fa l     O .rodata	0000000e __func__.6868
00006308 l     O .rodata	00000012 __func__.6741
0000631a l     O .rodata	0000000f __func__.6779
00006329 l     O .rodata	0000001f __func__.6797
00006348 l     O .rodata	00000019 __func__.6804
00006361 l     O .rodata	00000012 __func__.6879
00006373 l     O .rodata	00000015 __func__.6834
00006388 l     O .rodata	0000000e __func__.6906
00006396 l     O .rodata	0000000e __func__.6934
000063a4 l     O .rodata	0000000e __func__.6940
000063b2 l     O .rodata	00000011 __func__.6969
000063c3 l     O .rodata	00000018 __func__.6985
000063db l     O .rodata	0000001d __func__.7065
000063f8 l     O .rodata	00000019 __func__.7115
00006411 l     O .rodata	00000015 __func__.7129
00000000 l    df *ABS*	00000000 bignum.c
000025f0 l     F .text	00000038 mpi_get_digit
00002628 l     F .text	0000005c mpi_sub_hlp
00002684 l     F .text	0000049a mpi_mul_hlp
00002b1e l     F .text	00000048 mbedtls_mpi_mod_int.part.3
00003b94 l     F .text	0000006e mpi_write_hlp
00003d30 l     F .text	00000050 mpi_check_small_factors
0000442a l     F .text	00000216 mpi_miller_rabin
00005d9c l     O .rodata	000002a0 small_prime
0000603c l     O .rodata	00000024 gcd_pairs
00000000 l    df *ABS*	00000000 bget_malloc.c
00004dcc l     F .text	00000030 raw_malloc_return_hook.isra.3
00004dfc l     F .text	000000d8 create_free_block.constprop.11
0000693a l     O .rodata	00000012 __func__.5866
0000694c l     O .rodata	00000005 __func__.5722
00006951 l     O .rodata	00000006 __func__.5737
00006957 l     O .rodata	00000005 __func__.5754
0000695c l     O .rodata	00000006 __func__.5746
00006962 l     O .rodata	00000006 __func__.5763
00006968 l     O .rodata	00000007 __func__.5773
0000696f l     O .rodata	0000000d __func__.5902
0000697c l     O .rodata	0000000c __func__.5876
00006988 l     O .rodata	0000000b __func__.5887
00006993 l     O .rodata	00000010 __func__.5954
000069a3 l     O .rodata	0000000e __func__.5908
000069b1 l     O .rodata	00000013 __func__.5814
0000a0c8 l     O .bss	00000038 mstats
0000a100 l     O .bss	00000004 malloc_pool_len
0000a104 l     O .bss	00000004 malloc_pool
0000807c l     O .data	0000001c malloc_poolset
00000000 l    df *ABS*	00000000 mempool.c
00006dcc l     O .rodata	00000013 __func__.5630
00006ddf l     O .rodata	0000000e __func__.5639
00000000 l    df *ABS*	00000000 assert.c
00000000 l    df *ABS*	00000000 aeabi_unwind.c
00000000 l    df *ABS*	00000000 memchr.c
00000000 l    df *ABS*	00000000 strlen.c
00000000 l    df *ABS*	00000000 arm32_aeabi_ldivmod.c
00000000 l    df *ABS*	00000000 tee_api_panic.c
00000000 l    df *ABS*	00000000 snprintf.c
00000000 l    df *ABS*	00000000 memcmp.c
00000000 l    df *ABS*	00000000 memcpy.c
00000000 l    df *ABS*	00000000 memmove.c
00000000 l    df *ABS*	00000000 memset.c
00000000 l    df *ABS*	00000000 
00007558 l     O *ABS*	00000000 _DYNAMIC
0000741c l     O *ABS*	00000000 _GLOBAL_OFFSET_TABLE_
00005d40 l     F .text	00000010 __utee_panic_from_thumb
00005d50 l     F .text	00000010 __utee_check_access_rights_from_thumb
00005d60 l     F .text	00000010 __utee_cache_operation_from_thumb
00005d70 l     F .text	00000010 __utee_log_from_thumb
00000bf0 g     F .text	00000022 putchar
000024e2 g     F .text	00000004 TEE_BigIntConvertToFMM
00002228 g     F .text	00000008 TEE_BigIntSquareMod
00001e5c g     F .text	000000f4 TEE_BigIntShiftRight
000011b8 g     F .text	00000018 utee_storage_obj_create
00002bf8 g     F .text	000000a8 mbedtls_mpi_grow
00005bac g     F .text	000000e8 __l_divmod
00000e38 g     F .text	00000014 utee_return
000015a4 g     F .text	00000004 TEE_Realloc
00000b92 g     F .text	0000003a printf
00000e4c g     F .text	00000014 utee_log
000013c2 g     F .text	00000066 TEE_InvokeTACommand
00002b74 g     F .text	00000024 mbedtls_mpi_init_mempool
00003072 g     F .text	00000046 mbedtls_mpi_write_binary
00000b20 g     F .text	0000000e vsnprintk
000034e0 g     F .text	00000030 mbedtls_mpi_sub_int
00005cf8 g     F .text	00000032 memmove
00005c98 g     F .text	0000001e snprintf
00001d4e g     F .text	00000026 TEE_BigIntCmpS32
00002ca0 g     F .text	000000cc mbedtls_mpi_shrink
00005b04 g     F .text	00000002 __aeabi_unwind_cpp_pr0
00001f9c g     F .text	0000001c TEE_BigIntAdd
00000e8c g     F .text	00000014 utee_get_property_name_to_index
00005d94 g     O .rodata	00000004 ta_heap_size
00000f70 g     F .text	00000018 utee_cryp_state_alloc
00001140 g     F .text	00000018 utee_authenc_enc_final
00003606 g     F .text	0000012c mbedtls_mpi_read_string
00001fd4 g     F .text	00000058 TEE_BigIntNeg
00000020 g       .text	00000000 __text_start
00003148 g     F .text	0000007c mbedtls_mpi_shift_r
00005978 g     F .text	0000004c malloc_buffer_overlaps_heap
000021f0 g     F .text	0000001c TEE_BigIntSubMod
0000496a g     F .text	00000136 mbedtls_mpi_gen_prime
00002f1a g     F .text	00000020 mbedtls_mpi_get_bit
0000300c g     F .text	00000066 mbedtls_mpi_read_binary
000001f0 g     F .text	0000013c trace_printf
00003da8 g     F .text	000000c4 mbedtls_mpi_montmul
00005ce2 g     F .text	00000016 memcpy
00000f9c g     F .text	00000014 utee_cryp_state_free
000024e6 g     F .text	0000004a TEE_BigIntConvertFromFMM
00005c94 g     F .text	00000004 TEE_Panic
00000b60 g     F .text	00000018 __aeabi_uldivmod
00000bcc g     F .text	00000024 puts
00002530 g     F .text	000000a0 TEE_BigIntComputeFMM
000053ec g     F .text	00000020 malloc_get_stats
0000101c g     F .text	00000018 utee_cipher_final
00001544 g     F .text	00000016 TEE_GetREETime
00008004 g     O .data	0000006c ta_props
0000540c g     F .text	00000038 malloc
00001084 g     F .text	00000014 utee_cryp_obj_close
00005cb6 g     F .text	0000000e vsnprintf
00008000 g     O .data	00000004 trace_level
00001d18 g     F .text	00000036 TEE_BigIntCmp
00005d80 g     O .rodata	00000004 ta_num_props
0000525c g     F .text	0000007c bgetr
00001128 g     F .text	00000018 utee_authenc_update_payload
00005a98 g     F .text	0000002e mempool_free
00001c30 g     F .text	00000058 TEE_BigIntConvertToOctetString
000012c0 g     F .text	00000014 utee_cache_operation
00002fbe g     F .text	00000042 mbedtls_mpi_bitlen
000010fc g     F .text	00000018 utee_authenc_init
00001f50 g     F .text	0000002a TEE_BigIntGetBit
00005d98 g     O .rodata	00000003 trace_ext_prefix
00005008 g     F .text	0000005c bgetz
00001494 g     F .text	0000000c TEE_GetInstanceData
000014c2 g     F .text	0000001e TEE_Wait
00001270 g     F .text	00000014 utee_storage_obj_write
00003510 g     F .text	000000d8 mbedtls_mpi_mul_mpi
00005b08 g     F .text	00000002 __aeabi_unwind_cpp_pr2
000015b2 g     F .text	00000006 TEE_CacheFlush
00000048 g     F .text	00000028 TA_DestroyEntryPoint
00002b66 g     F .text	0000000e mbedtls_mpi_init
00002f8c g     F .text	00000032 mbedtls_mpi_lsb
00005ac8 g     F .text	00000028 _assert_log
000024de g     F .text	00000004 TEE_BigIntFMMContextSizeInU32
00001b6c g     F .text	00000044 _TEE_MathAPI_Init
00003420 g     F .text	00000046 mbedtls_mpi_add_mpi
00001248 g     F .text	00000014 utee_storage_next_enum
0000a108 g     O .bss	00008000 ta_heap
00002230 g     F .text	000000a4 TEE_BigIntInvMod
000000b0 g     F .text	00000028 TA_CloseSessionEntryPoint
00003466 g     F .text	0000004a mbedtls_mpi_sub_mpi
00000e60 g     F .text	00000014 __utee_panic
00000f88 g     F .text	00000014 utee_cryp_state_copy
000000d8 g     F .text	00000098 TA_InvokeCommandEntryPoint
00005a08 g     F .text	0000006c mempool_alloc
00001070 g     F .text	00000014 utee_cryp_obj_alloc
00000f5c g     F .text	00000014 utee_set_ta_time
0000105c g     F .text	00000014 utee_cryp_obj_get_attr
00005a74 g     F .text	00000024 mempool_calloc
00005454 g     F .text	00000048 calloc
0000155a g     F .text	0000004a TEE_Malloc
00000f20 g     F .text	00000014 utee_mask_cancellation
00001098 g     F .text	00000014 utee_cryp_obj_reset
0000147c g     F .text	0000000a TEE_CheckMemoryAccessRights
00012108 g       .bss	00000000 __gprof_buf_end
00005b36 g     F .text	00000076 __ul_divmod
00002ee2 g     F .text	00000038 mbedtls_mpi_lset
00000070 g     F .text	00000040 TA_OpenSessionEntryPoint
00001234 g     F .text	00000014 utee_storage_start_enum
000011e4 g     F .text	00000014 utee_storage_obj_rename
0000809c g     O .bss	00000004 ta_param_types
00003ac8 g     F .text	0000002e mbedtls_mpi_div_int
000024a0 g     F .text	00000030 TEE_BigIntIsProbablePrime
000035e8 g     F .text	0000001e mbedtls_mpi_mul_int
00003e90 g     F .text	00000454 mbedtls_mpi_exp_mod
00002df0 g     F .text	0000006c mbedtls_mpi_safe_cond_assign
00000e74 g     F .text	00000018 utee_get_property
00001bb0 g     F .text	00000040 TEE_BigIntInit
000014a0 g     F .text	00000004 TEE_MemMove
00001bf0 g     F .text	00000040 TEE_BigIntConvertFromOctetString
00008070 g     O .data	00000004 _ref__utee_mcount
000031c4 g     F .text	00000068 mbedtls_mpi_cmp_abs
00005b0a g     F .text	0000001c memchr
00001444 g     F .text	0000001c TEE_UnmaskCancellation
00004aa0 g     F .text	0000032c mbedtls_mpi_self_test
000011d0 g     F .text	00000014 utee_storage_obj_del
00001298 g     F .text	00000014 utee_storage_obj_seek
000032be g     F .text	00000030 mbedtls_mpi_cmp_int
00000fc4 g     F .text	00000014 utee_hash_update
000012d4  w    F .text	0000000c __utee_mcount
00002184 g     F .text	00000050 TEE_BigIntMod
00003b5a g     F .text	0000003a mbedtls_mpi_mod_int
00000eb8 g     F .text	00000014 utee_close_ta_session
000020d6 g     F .text	000000ae TEE_BigIntDiv
00002d6c g     F .text	00000056 mbedtls_mpi_copy
000053d8 g     F .text	00000014 malloc_reset_stats
00001004 g     F .text	00000018 utee_cipher_update
0000549c g     F .text	00000038 realloc
00002dc2 g     F .text	0000002e mbedtls_mpi_swap
000059c4 g     F .text	00000044 mempool_alloc_pool
00001188 g     F .text	00000018 utee_asymm_verify
0000202c g     F .text	000000a4 TEE_BigIntMul
000030b8 g     F .text	00000090 mbedtls_mpi_shift_l
0000322c g     F .text	00000092 mbedtls_mpi_cmp_mpi
000014a8 g     F .text	00000004 TEE_MemFill
00005cc4 g     F .text	0000001e memcmp
000057a4 g     F .text	000000f8 malloc_add_pool
000001dc g     F .text	00000014 trace_get_level
000032ee g     F .text	000000b8 mbedtls_mpi_add_abs
000010e8 g     F .text	00000014 utee_cryp_random_number_generate
000024d6 g     F .text	00000008 TEE_BigIntFMMSizeInU32
000024d0 g     F .text	00000004 TEE_BigIntInitFMM
00001170 g     F .text	00000018 utee_asymm_operate
00000c98 g     F .text	0000018c __utee_entry
00005d80 g       .text	00000000 __text_end
000022d4 g     F .text	0000007c TEE_BigIntRelativePrime
00003af6 g     F .text	00000064 mbedtls_mpi_mod_mpi
000052d8 g     F .text	0000009c bpool
00001428 g     F .text	0000001c TEE_GetCancellationFlag
000042e4 g     F .text	00000112 mbedtls_mpi_gcd
0000151c g     F .text	00000028 TEE_SetTAPersistentTime
00005d2a g     F .text	00000010 memset
000014e0 g     F .text	0000003c TEE_GetTAPersistentTime
0000032c g     F .text	000000f8 dhex_dump
00001460 g     F .text	0000001c TEE_MaskCancellation
0000125c g     F .text	00000014 utee_storage_obj_read
000010ac g     F .text	00000014 utee_cryp_obj_populate
000001be g     F .text	0000001e trace_set_level
00001034 g     F .text	00000014 utee_cryp_obj_get_info
000011f8 g     F .text	00000014 utee_storage_alloc_enum
00001220 g     F .text	00000014 utee_storage_reset_enum
00001284 g     F .text	00000014 utee_storage_obj_trunc
00001cc0 g     F .text	00000058 TEE_BigIntConvertToS32
00001fb8 g     F .text	0000001c TEE_BigIntSub
00000ee4 g     F .text	00000014 utee_get_cancellation_flag
00000fb0 g     F .text	00000014 utee_hash_init
00005b00 g     F .text	00000004 tahead_get_trace_level
000012e0 g     F .text	0000004e __utee_from_param
0000132e g     F .text	0000003c __utee_to_param
00003e6c g     F .text	00000024 mbedtls_mpi_montred
000054d4 g     F .text	000002d0 memalign
00001c88 g     F .text	00000038 TEE_BigIntConvertFromS32
000034b0 g     F .text	00000030 mbedtls_mpi_add_int
00001048 g     F .text	00000014 utee_cryp_obj_restrict_usage
0000589c g     F .text	000000dc malloc_buffer_is_within_alloced
000010c0 g     F .text	00000014 utee_cryp_obj_copy
000024d4 g     F .text	00000002 TEE_BigIntInitFMMContext
000010d4 g     F .text	00000014 utee_cryp_derive_key
00001158 g     F .text	00000018 utee_authenc_dec_final
000020d0 g     F .text	00000006 TEE_BigIntSquare
00000020 g     F .text	00000028 TA_CreateEntryPoint
00003d80 g     F .text	00000028 mbedtls_mpi_montg_init
00000b2e g     F .text	0000001a snprintk
00001f7a g     F .text	00000022 TEE_BigIntGetBitCount
0000220c g     F .text	0000001c TEE_BigIntMulMod
00004640 g     F .text	000002ce mbedtls_mpi_inv_mod
000080a0 g     O .bss	00000020 ta_params
00003732 g     F .text	00000396 mbedtls_mpi_div_mpi
00003000 g     F .text	0000000c mbedtls_mpi_size
00004ed4 g     F .text	00000134 bget
00002f3a g     F .text	00000052 mbedtls_mpi_set_bit
00002b98 g     F .text	00000012 mbedtls_mpi_init_static
000015a8 g     F .text	00000004 TEE_Free
0000490e g     F .text	0000005c mbedtls_mpi_is_prime
000015b8 g     F .text	00000006 TEE_CacheInvalidate
00000ff0 g     F .text	00000014 utee_cipher_init
00005af0 g     F .text	00000010 _assert_break
000021d4 g     F .text	0000001c TEE_BigIntAddMod
0000120c g     F .text	00000014 utee_storage_free_enum
00001114 g     F .text	00000014 utee_authenc_update_aad
000014a4 g     F .text	00000004 TEE_MemCompare
00000424 g     F .text	000006fc __vsnprintf
0000136a g     F .text	00000044 TEE_OpenTASession
00000e24 g     F .text	00000014 utee_panic
00000b78 g     F .text	00000014 trace_ext_puts
00000b8c g     F .text	00000006 trace_ext_get_thread_id
00002baa g     F .text	0000004e mbedtls_mpi_free
000015ac g     F .text	00000006 TEE_CacheClean
00000ea0 g     F .text	00000018 utee_open_ta_session
00002e5c g     F .text	00000086 mbedtls_mpi_safe_cond_swap
00000fd8 g     F .text	00000018 utee_hash_final
00005b26 g     F .text	00000010 strlen
00002350 g     F .text	00000150 TEE_BigIntComputeExtendedGcd
00005b06 g     F .text	00000002 __aeabi_unwind_cpp_pr1
000011a0 g     F .text	00000018 utee_storage_obj_open
00000ecc g     F .text	00000018 utee_invoke_ta_command
00000f34 g     F .text	00000014 utee_wait
000014ac g     F .text	00000016 TEE_GetSystemTime
00000000 g     O .ta_head	00000020 ta_head
00005064 g     F .text	000001f8 brel
000033a6 g     F .text	0000007a mbedtls_mpi_sub_abs
00000f48 g     F .text	00000014 utee_get_time
000043f6 g     F .text	00000034 mbedtls_mpi_fill_random
00001486 g     F .text	0000000e TEE_SetInstanceData
00000f0c g     F .text	00000014 utee_unmask_cancellation
00000b48 g     F .text	00000018 __aeabi_ldivmod
00000ef8 g     F .text	00000014 utee_check_access_rights
00003c02 g     F .text	0000012e mbedtls_mpi_write_string
000012ac g     F .text	00000014 utee_cryp_obj_generate_key
000013ae g     F .text	00000014 TEE_CloseTASession
00012108 g       .bss	00000000 __gprof_buf_start
00005444 g     F .text	00000010 free
00005374 g     F .text	00000064 bstats
0000a0c4 g     O .bss	00000004 mbedtls_mpi_mempool



Disassembly of section .text:

00000020 <TA_CreateEntryPoint>:
TA_CreateEntryPoint():
/home/hsk/Desktop/devel/tee-tpm-hyp/optee_examples/myta4/ta/myta4.c:38
      20:	b507      	push	{r0, r1, r2, lr}
/home/hsk/Desktop/devel/tee-tpm-hyp/optee_examples/myta4/ta/myta4.c:39
      22:	2203      	movs	r2, #3
      24:	4b06      	ldr	r3, [pc, #24]	; (40 <TA_CreateEntryPoint+0x20>)
      26:	4807      	ldr	r0, [pc, #28]	; (44 <TA_CreateEntryPoint+0x24>)
      28:	2127      	movs	r1, #39	; 0x27
      2a:	447b      	add	r3, pc
      2c:	9300      	str	r3, [sp, #0]
      2e:	4478      	add	r0, pc
      30:	2301      	movs	r3, #1
      32:	f000 f8dd 	bl	1f0 <trace_printf>
/home/hsk/Desktop/devel/tee-tpm-hyp/optee_examples/myta4/ta/myta4.c:42
      36:	2000      	movs	r0, #0
      38:	b003      	add	sp, #12
      3a:	f85d fb04 	ldr.w	pc, [sp], #4
      3e:	bf00      	nop
      40:	000060a2 	.word	0x000060a2
      44:	0000602e 	.word	0x0000602e

00000048 <TA_DestroyEntryPoint>:
TA_DestroyEntryPoint():
/home/hsk/Desktop/devel/tee-tpm-hyp/optee_examples/myta4/ta/myta4.c:49
      48:	b507      	push	{r0, r1, r2, lr}
/home/hsk/Desktop/devel/tee-tpm-hyp/optee_examples/myta4/ta/myta4.c:50
      4a:	2203      	movs	r2, #3
      4c:	4806      	ldr	r0, [pc, #24]	; (68 <TA_DestroyEntryPoint+0x20>)
      4e:	4b07      	ldr	r3, [pc, #28]	; (6c <TA_DestroyEntryPoint+0x24>)
      50:	2132      	movs	r1, #50	; 0x32
      52:	4478      	add	r0, pc
      54:	447b      	add	r3, pc
      56:	3014      	adds	r0, #20
      58:	9300      	str	r3, [sp, #0]
      5a:	2301      	movs	r3, #1
      5c:	f000 f8c8 	bl	1f0 <trace_printf>
/home/hsk/Desktop/devel/tee-tpm-hyp/optee_examples/myta4/ta/myta4.c:51
      60:	b003      	add	sp, #12
      62:	f85d fb04 	ldr.w	pc, [sp], #4
      66:	bf00      	nop
      68:	0000600a 	.word	0x0000600a
      6c:	00006078 	.word	0x00006078

00000070 <TA_OpenSessionEntryPoint>:
TA_OpenSessionEntryPoint():
/home/hsk/Desktop/devel/tee-tpm-hyp/optee_examples/myta4/ta/myta4.c:62
      70:	b513      	push	{r0, r1, r4, lr}
/home/hsk/Desktop/devel/tee-tpm-hyp/optee_examples/myta4/ta/myta4.c:64
      72:	2203      	movs	r2, #3
      74:	4c0b      	ldr	r4, [pc, #44]	; (a4 <TA_OpenSessionEntryPoint+0x34>)
      76:	4b0c      	ldr	r3, [pc, #48]	; (a8 <TA_OpenSessionEntryPoint+0x38>)
      78:	2140      	movs	r1, #64	; 0x40
      7a:	447c      	add	r4, pc
      7c:	3429      	adds	r4, #41	; 0x29
      7e:	447b      	add	r3, pc
      80:	4620      	mov	r0, r4
      82:	9300      	str	r3, [sp, #0]
      84:	2301      	movs	r3, #1
      86:	f000 f8b3 	bl	1f0 <trace_printf>
/home/hsk/Desktop/devel/tee-tpm-hyp/optee_examples/myta4/ta/myta4.c:67
      8a:	4b08      	ldr	r3, [pc, #32]	; (ac <TA_OpenSessionEntryPoint+0x3c>)
      8c:	4620      	mov	r0, r4
      8e:	2202      	movs	r2, #2
      90:	447b      	add	r3, pc
      92:	2143      	movs	r1, #67	; 0x43
      94:	9300      	str	r3, [sp, #0]
      96:	2301      	movs	r3, #1
      98:	f000 f8aa 	bl	1f0 <trace_printf>
/home/hsk/Desktop/devel/tee-tpm-hyp/optee_examples/myta4/ta/myta4.c:71
      9c:	2000      	movs	r0, #0
      9e:	b002      	add	sp, #8
      a0:	bd10      	pop	{r4, pc}
      a2:	bf00      	nop
      a4:	00005fe2 	.word	0x00005fe2
      a8:	0000604e 	.word	0x0000604e
      ac:	0000604c 	.word	0x0000604c

000000b0 <TA_CloseSessionEntryPoint>:
TA_CloseSessionEntryPoint():
/home/hsk/Desktop/devel/tee-tpm-hyp/optee_examples/myta4/ta/myta4.c:78
      b0:	b507      	push	{r0, r1, r2, lr}
/home/hsk/Desktop/devel/tee-tpm-hyp/optee_examples/myta4/ta/myta4.c:80
      b2:	2202      	movs	r2, #2
      b4:	4806      	ldr	r0, [pc, #24]	; (d0 <TA_CloseSessionEntryPoint+0x20>)
      b6:	4b07      	ldr	r3, [pc, #28]	; (d4 <TA_CloseSessionEntryPoint+0x24>)
      b8:	2150      	movs	r1, #80	; 0x50
      ba:	4478      	add	r0, pc
      bc:	447b      	add	r3, pc
      be:	3042      	adds	r0, #66	; 0x42
      c0:	9300      	str	r3, [sp, #0]
      c2:	2301      	movs	r3, #1
      c4:	f000 f894 	bl	1f0 <trace_printf>
/home/hsk/Desktop/devel/tee-tpm-hyp/optee_examples/myta4/ta/myta4.c:81
      c8:	b003      	add	sp, #12
      ca:	f85d fb04 	ldr.w	pc, [sp], #4
      ce:	bf00      	nop
      d0:	00005fa2 	.word	0x00005fa2
      d4:	0000602e 	.word	0x0000602e

000000d8 <TA_InvokeCommandEntryPoint>:
TA_InvokeCommandEntryPoint():
/home/hsk/Desktop/devel/tee-tpm-hyp/optee_examples/myta4/ta/myta4.c:161
      d8:	b5f7      	push	{r0, r1, r2, r4, r5, r6, r7, lr}
      da:	4617      	mov	r7, r2
      dc:	461e      	mov	r6, r3
/home/hsk/Desktop/devel/tee-tpm-hyp/optee_examples/myta4/ta/myta4.c:164
      de:	460c      	mov	r4, r1
      e0:	b119      	cbz	r1, ea <TA_InvokeCommandEntryPoint+0x12>
      e2:	2901      	cmp	r1, #1
      e4:	d00f      	beq.n	106 <TA_InvokeCommandEntryPoint+0x2e>
dec_value():
/home/hsk/Desktop/devel/tee-tpm-hyp/optee_examples/myta4/ta/myta4.c:145
      e6:	481b      	ldr	r0, [pc, #108]	; (154 <TA_InvokeCommandEntryPoint+0x7c>)
      e8:	e00b      	b.n	102 <TA_InvokeCommandEntryPoint+0x2a>
inc_value():
/home/hsk/Desktop/devel/tee-tpm-hyp/optee_examples/myta4/ta/myta4.c:86
      ea:	481b      	ldr	r0, [pc, #108]	; (158 <TA_InvokeCommandEntryPoint+0x80>)
      ec:	2203      	movs	r2, #3
      ee:	4b1b      	ldr	r3, [pc, #108]	; (15c <TA_InvokeCommandEntryPoint+0x84>)
      f0:	2156      	movs	r1, #86	; 0x56
      f2:	4478      	add	r0, pc
      f4:	447b      	add	r3, pc
      f6:	305c      	adds	r0, #92	; 0x5c
      f8:	9300      	str	r3, [sp, #0]
      fa:	2301      	movs	r3, #1
      fc:	f000 f878 	bl	1f0 <trace_printf>
dec_value():
/home/hsk/Desktop/devel/tee-tpm-hyp/optee_examples/myta4/ta/myta4.c:151
     100:	2000      	movs	r0, #0
TA_InvokeCommandEntryPoint():
/home/hsk/Desktop/devel/tee-tpm-hyp/optee_examples/myta4/ta/myta4.c:172
     102:	b003      	add	sp, #12
     104:	bdf0      	pop	{r4, r5, r6, r7, pc}
dec_value():
/home/hsk/Desktop/devel/tee-tpm-hyp/optee_examples/myta4/ta/myta4.c:142
     106:	4d16      	ldr	r5, [pc, #88]	; (160 <TA_InvokeCommandEntryPoint+0x88>)
     108:	2203      	movs	r2, #3
     10a:	4b16      	ldr	r3, [pc, #88]	; (164 <TA_InvokeCommandEntryPoint+0x8c>)
     10c:	447d      	add	r5, pc
     10e:	3566      	adds	r5, #102	; 0x66
     110:	447b      	add	r3, pc
     112:	4628      	mov	r0, r5
     114:	9300      	str	r3, [sp, #0]
     116:	460b      	mov	r3, r1
     118:	218e      	movs	r1, #142	; 0x8e
     11a:	f000 f869 	bl	1f0 <trace_printf>
/home/hsk/Desktop/devel/tee-tpm-hyp/optee_examples/myta4/ta/myta4.c:144
     11e:	2f03      	cmp	r7, #3
     120:	d1e1      	bne.n	e6 <TA_InvokeCommandEntryPoint+0xe>
/home/hsk/Desktop/devel/tee-tpm-hyp/optee_examples/myta4/ta/myta4.c:147
     122:	6833      	ldr	r3, [r6, #0]
     124:	4628      	mov	r0, r5
     126:	9301      	str	r3, [sp, #4]
     128:	2202      	movs	r2, #2
     12a:	4b0f      	ldr	r3, [pc, #60]	; (168 <TA_InvokeCommandEntryPoint+0x90>)
     12c:	2193      	movs	r1, #147	; 0x93
     12e:	447b      	add	r3, pc
     130:	9300      	str	r3, [sp, #0]
     132:	4623      	mov	r3, r4
     134:	f000 f85c 	bl	1f0 <trace_printf>
/home/hsk/Desktop/devel/tee-tpm-hyp/optee_examples/myta4/ta/myta4.c:148
     138:	6833      	ldr	r3, [r6, #0]
/home/hsk/Desktop/devel/tee-tpm-hyp/optee_examples/myta4/ta/myta4.c:149
     13a:	2202      	movs	r2, #2
     13c:	2195      	movs	r1, #149	; 0x95
/home/hsk/Desktop/devel/tee-tpm-hyp/optee_examples/myta4/ta/myta4.c:148
     13e:	3b01      	subs	r3, #1
     140:	6033      	str	r3, [r6, #0]
/home/hsk/Desktop/devel/tee-tpm-hyp/optee_examples/myta4/ta/myta4.c:149
     142:	9301      	str	r3, [sp, #4]
     144:	4628      	mov	r0, r5
     146:	4b09      	ldr	r3, [pc, #36]	; (16c <TA_InvokeCommandEntryPoint+0x94>)
     148:	447b      	add	r3, pc
     14a:	9300      	str	r3, [sp, #0]
     14c:	4623      	mov	r3, r4
     14e:	f000 f84f 	bl	1f0 <trace_printf>
     152:	e7d5      	b.n	100 <TA_InvokeCommandEntryPoint+0x28>
     154:	ffff0006 	.word	0xffff0006
     158:	00005f6a 	.word	0x00005f6a
     15c:	00005fd8 	.word	0x00005fd8
     160:	00005f50 	.word	0x00005f50
     164:	00005fbc 	.word	0x00005fbc
     168:	00005fc6 	.word	0x00005fc6
     16c:	00005fc2 	.word	0x00005fc2

00000170 <append>:
append():
/home/hsk/Desktop/devel/tee-tpm-hyp/optee_os/lib/libutils/ext/trace.c:198
     170:	b40e      	push	{r1, r2, r3}
/home/hsk/Desktop/devel/tee-tpm-hyp/optee_os/lib/libutils/ext/trace.c:203
     172:	f8d0 3100 	ldr.w	r3, [r0, #256]	; 0x100
/home/hsk/Desktop/devel/tee-tpm-hyp/optee_os/lib/libutils/ext/trace.c:198
     176:	b533      	push	{r0, r1, r4, r5, lr}
     178:	4604      	mov	r4, r0
/home/hsk/Desktop/devel/tee-tpm-hyp/optee_os/lib/libutils/ext/trace.c:203
     17a:	b90b      	cbnz	r3, 180 <append+0x10>
/home/hsk/Desktop/devel/tee-tpm-hyp/optee_os/lib/libutils/ext/trace.c:204
     17c:	f8c4 0100 	str.w	r0, [r4, #256]	; 0x100
/home/hsk/Desktop/devel/tee-tpm-hyp/optee_os/lib/libutils/ext/trace.c:205
     180:	f8d4 0100 	ldr.w	r0, [r4, #256]	; 0x100
/home/hsk/Desktop/devel/tee-tpm-hyp/optee_os/lib/libutils/ext/trace.c:206
     184:	ab06      	add	r3, sp, #24
/home/hsk/Desktop/devel/tee-tpm-hyp/optee_os/lib/libutils/ext/trace.c:207
     186:	9a05      	ldr	r2, [sp, #20]
/home/hsk/Desktop/devel/tee-tpm-hyp/optee_os/lib/libutils/ext/trace.c:205
     188:	1b05      	subs	r5, r0, r4
/home/hsk/Desktop/devel/tee-tpm-hyp/optee_os/lib/libutils/ext/trace.c:206
     18a:	9301      	str	r3, [sp, #4]
/home/hsk/Desktop/devel/tee-tpm-hyp/optee_os/lib/libutils/ext/trace.c:205
     18c:	f5c5 7580 	rsb	r5, r5, #256	; 0x100
/home/hsk/Desktop/devel/tee-tpm-hyp/optee_os/lib/libutils/ext/trace.c:207
     190:	4629      	mov	r1, r5
     192:	f000 fcc5 	bl	b20 <vsnprintk>
/home/hsk/Desktop/devel/tee-tpm-hyp/optee_os/lib/libutils/ext/trace.c:209
     196:	2800      	cmp	r0, #0
     198:	db0f      	blt.n	1ba <append+0x4a>
/home/hsk/Desktop/devel/tee-tpm-hyp/optee_os/lib/libutils/ext/trace.c:213
     19a:	4285      	cmp	r5, r0
     19c:	dd0d      	ble.n	1ba <append+0x4a>
/home/hsk/Desktop/devel/tee-tpm-hyp/optee_os/lib/libutils/ext/trace.c:217
     19e:	4285      	cmp	r5, r0
     1a0:	bfa8      	it	ge
     1a2:	4605      	movge	r5, r0
     1a4:	f8d4 0100 	ldr.w	r0, [r4, #256]	; 0x100
     1a8:	4405      	add	r5, r0
/home/hsk/Desktop/devel/tee-tpm-hyp/optee_os/lib/libutils/ext/trace.c:218
     1aa:	2001      	movs	r0, #1
/home/hsk/Desktop/devel/tee-tpm-hyp/optee_os/lib/libutils/ext/trace.c:217
     1ac:	f8c4 5100 	str.w	r5, [r4, #256]	; 0x100
/home/hsk/Desktop/devel/tee-tpm-hyp/optee_os/lib/libutils/ext/trace.c:219
     1b0:	b002      	add	sp, #8
     1b2:	e8bd 4030 	ldmia.w	sp!, {r4, r5, lr}
     1b6:	b003      	add	sp, #12
     1b8:	4770      	bx	lr
/home/hsk/Desktop/devel/tee-tpm-hyp/optee_os/lib/libutils/ext/trace.c:211
     1ba:	2000      	movs	r0, #0
     1bc:	e7f8      	b.n	1b0 <append+0x40>

000001be <trace_set_level>:
trace_set_level():
/home/hsk/Desktop/devel/tee-tpm-hyp/optee_os/lib/libutils/ext/trace.c:25
     1be:	4b05      	ldr	r3, [pc, #20]	; (1d4 <trace_set_level+0x16>)
/home/hsk/Desktop/devel/tee-tpm-hyp/optee_os/lib/libutils/ext/trace.c:26
     1c0:	2804      	cmp	r0, #4
     1c2:	4a05      	ldr	r2, [pc, #20]	; (1d8 <trace_set_level+0x1a>)
/home/hsk/Desktop/devel/tee-tpm-hyp/optee_os/lib/libutils/ext/trace.c:25
     1c4:	447b      	add	r3, pc
     1c6:	589b      	ldr	r3, [r3, r2]
/home/hsk/Desktop/devel/tee-tpm-hyp/optee_os/lib/libutils/ext/trace.c:26
     1c8:	d801      	bhi.n	1ce <trace_set_level+0x10>
/home/hsk/Desktop/devel/tee-tpm-hyp/optee_os/lib/libutils/ext/trace.c:27
     1ca:	6018      	str	r0, [r3, #0]
     1cc:	4770      	bx	lr
/home/hsk/Desktop/devel/tee-tpm-hyp/optee_os/lib/libutils/ext/trace.c:29
     1ce:	2204      	movs	r2, #4
     1d0:	601a      	str	r2, [r3, #0]
/home/hsk/Desktop/devel/tee-tpm-hyp/optee_os/lib/libutils/ext/trace.c:30
     1d2:	4770      	bx	lr
     1d4:	00007254 	.word	0x00007254
     1d8:	00000010 	.word	0x00000010

000001dc <trace_get_level>:
trace_get_level():
/home/hsk/Desktop/devel/tee-tpm-hyp/optee_os/lib/libutils/ext/trace.c:33
     1dc:	4b02      	ldr	r3, [pc, #8]	; (1e8 <trace_get_level+0xc>)
/home/hsk/Desktop/devel/tee-tpm-hyp/optee_os/lib/libutils/ext/trace.c:34
     1de:	4a03      	ldr	r2, [pc, #12]	; (1ec <trace_get_level+0x10>)
/home/hsk/Desktop/devel/tee-tpm-hyp/optee_os/lib/libutils/ext/trace.c:33
     1e0:	447b      	add	r3, pc
/home/hsk/Desktop/devel/tee-tpm-hyp/optee_os/lib/libutils/ext/trace.c:34
     1e2:	589b      	ldr	r3, [r3, r2]
/home/hsk/Desktop/devel/tee-tpm-hyp/optee_os/lib/libutils/ext/trace.c:35
     1e4:	6818      	ldr	r0, [r3, #0]
     1e6:	4770      	bx	lr
     1e8:	00007238 	.word	0x00007238
     1ec:	00000010 	.word	0x00000010

000001f0 <trace_printf>:
trace_printf():
/home/hsk/Desktop/devel/tee-tpm-hyp/optee_os/lib/libutils/ext/trace.c:97
     1f0:	e92d 47f0 	stmdb	sp!, {r4, r5, r6, r7, r8, r9, sl, lr}
     1f4:	4607      	mov	r7, r0
     1f6:	f8df 910c 	ldr.w	r9, [pc, #268]	; 304 <trace_printf+0x114>
     1fa:	b0c6      	sub	sp, #280	; 0x118
     1fc:	4688      	mov	r8, r1
     1fe:	44f9      	add	r9, pc
     200:	4614      	mov	r4, r2
/home/hsk/Desktop/devel/tee-tpm-hyp/optee_os/lib/libutils/ext/trace.c:103
     202:	469a      	mov	sl, r3
     204:	2b00      	cmp	r3, #0
     206:	d06a      	beq.n	2de <trace_printf+0xee>
/home/hsk/Desktop/devel/tee-tpm-hyp/optee_os/lib/libutils/ext/trace.c:103 (discriminator 1)
     208:	4b3f      	ldr	r3, [pc, #252]	; (308 <trace_printf+0x118>)
     20a:	f859 3003 	ldr.w	r3, [r9, r3]
     20e:	681b      	ldr	r3, [r3, #0]
     210:	4293      	cmp	r3, r2
     212:	db61      	blt.n	2d8 <trace_printf+0xe8>
trace_level_to_string():
/home/hsk/Desktop/devel/tee-tpm-hyp/optee_os/lib/libutils/ext/trace.c:47
     214:	4613      	mov	r3, r2
     216:	2a05      	cmp	r2, #5
/home/hsk/Desktop/devel/tee-tpm-hyp/optee_os/lib/libutils/ext/trace.c:55
     218:	4a3c      	ldr	r2, [pc, #240]	; (30c <trace_printf+0x11c>)
/home/hsk/Desktop/devel/tee-tpm-hyp/optee_os/lib/libutils/ext/trace.c:47
     21a:	bf28      	it	cs
     21c:	2300      	movcs	r3, #0
/home/hsk/Desktop/devel/tee-tpm-hyp/optee_os/lib/libutils/ext/trace.c:55
     21e:	447a      	add	r2, pc
     220:	5cd3      	ldrb	r3, [r2, r3]
trace_printf():
/home/hsk/Desktop/devel/tee-tpm-hyp/optee_os/lib/libutils/ext/trace.c:107
     222:	4a3b      	ldr	r2, [pc, #236]	; (310 <trace_printf+0x120>)
     224:	ad06      	add	r5, sp, #24
     226:	f44f 7180 	mov.w	r1, #256	; 0x100
     22a:	4628      	mov	r0, r5
     22c:	447a      	add	r2, pc
     22e:	f000 fc7e 	bl	b2e <snprintk>
/home/hsk/Desktop/devel/tee-tpm-hyp/optee_os/lib/libutils/ext/trace.c:109
     232:	1e06      	subs	r6, r0, #0
     234:	db50      	blt.n	2d8 <trace_printf+0xe8>
/home/hsk/Desktop/devel/tee-tpm-hyp/optee_os/lib/libutils/ext/trace.c:114
     236:	4b37      	ldr	r3, [pc, #220]	; (314 <trace_printf+0x124>)
     238:	f5c6 7180 	rsb	r1, r6, #256	; 0x100
     23c:	4a36      	ldr	r2, [pc, #216]	; (318 <trace_printf+0x128>)
     23e:	19a8      	adds	r0, r5, r6
     240:	447a      	add	r2, pc
     242:	f859 3003 	ldr.w	r3, [r9, r3]
     246:	9303      	str	r3, [sp, #12]
     248:	f000 fc71 	bl	b2e <snprintk>
/home/hsk/Desktop/devel/tee-tpm-hyp/optee_os/lib/libutils/ext/trace.c:116
     24c:	2800      	cmp	r0, #0
     24e:	db43      	blt.n	2d8 <trace_printf+0xe8>
/home/hsk/Desktop/devel/tee-tpm-hyp/optee_os/lib/libutils/ext/trace.c:118
     250:	4406      	add	r6, r0
/home/hsk/Desktop/devel/tee-tpm-hyp/optee_os/lib/libutils/ext/trace.c:120
     252:	f1ba 0f00 	cmp.w	sl, #0
     256:	d04b      	beq.n	2f0 <trace_printf+0x100>
/home/hsk/Desktop/devel/tee-tpm-hyp/optee_os/lib/libutils/ext/trace.c:120 (discriminator 1)
     258:	231a      	movs	r3, #26
     25a:	fa23 f404 	lsr.w	r4, r3, r4
     25e:	07e3      	lsls	r3, r4, #31
     260:	d546      	bpl.n	2f0 <trace_printf+0x100>
print_thread_id():
/home/hsk/Desktop/devel/tee-tpm-hyp/optee_os/lib/libutils/ext/trace.c:65
     262:	f000 fc93 	bl	b8c <trace_ext_get_thread_id>
trace_printf():
/home/hsk/Desktop/devel/tee-tpm-hyp/optee_os/lib/libutils/ext/trace.c:122
     266:	19ac      	adds	r4, r5, r6
     268:	f5c6 7980 	rsb	r9, r6, #256	; 0x100
print_thread_id():
/home/hsk/Desktop/devel/tee-tpm-hyp/optee_os/lib/libutils/ext/trace.c:67
     26c:	2800      	cmp	r0, #0
     26e:	db38      	blt.n	2e2 <trace_printf+0xf2>
/home/hsk/Desktop/devel/tee-tpm-hyp/optee_os/lib/libutils/ext/trace.c:68
     270:	4a2a      	ldr	r2, [pc, #168]	; (31c <trace_printf+0x12c>)
     272:	2301      	movs	r3, #1
     274:	9000      	str	r0, [sp, #0]
     276:	447a      	add	r2, pc
/home/hsk/Desktop/devel/tee-tpm-hyp/optee_os/lib/libutils/ext/trace.c:70
     278:	4649      	mov	r1, r9
     27a:	4620      	mov	r0, r4
     27c:	f000 fc57 	bl	b2e <snprintk>
trace_printf():
/home/hsk/Desktop/devel/tee-tpm-hyp/optee_os/lib/libutils/ext/trace.c:129
     280:	2800      	cmp	r0, #0
     282:	db29      	blt.n	2d8 <trace_printf+0xe8>
/home/hsk/Desktop/devel/tee-tpm-hyp/optee_os/lib/libutils/ext/trace.c:131
     284:	1984      	adds	r4, r0, r6
/home/hsk/Desktop/devel/tee-tpm-hyp/optee_os/lib/libutils/ext/trace.c:133
     286:	b167      	cbz	r7, 2a2 <trace_printf+0xb2>
/home/hsk/Desktop/devel/tee-tpm-hyp/optee_os/lib/libutils/ext/trace.c:134
     288:	4a25      	ldr	r2, [pc, #148]	; (320 <trace_printf+0x130>)
     28a:	463b      	mov	r3, r7
     28c:	f8cd 8000 	str.w	r8, [sp]
     290:	f5c4 7180 	rsb	r1, r4, #256	; 0x100
     294:	447a      	add	r2, pc
     296:	1928      	adds	r0, r5, r4
     298:	f000 fc49 	bl	b2e <snprintk>
/home/hsk/Desktop/devel/tee-tpm-hyp/optee_os/lib/libutils/ext/trace.c:136
     29c:	2800      	cmp	r0, #0
     29e:	db1b      	blt.n	2d8 <trace_printf+0xe8>
/home/hsk/Desktop/devel/tee-tpm-hyp/optee_os/lib/libutils/ext/trace.c:138
     2a0:	4404      	add	r4, r0
/home/hsk/Desktop/devel/tee-tpm-hyp/optee_os/lib/libutils/ext/trace.c:148
     2a2:	ab4f      	add	r3, sp, #316	; 0x13c
/home/hsk/Desktop/devel/tee-tpm-hyp/optee_os/lib/libutils/ext/trace.c:149
     2a4:	f5c4 7180 	rsb	r1, r4, #256	; 0x100
     2a8:	1928      	adds	r0, r5, r4
     2aa:	9a4e      	ldr	r2, [sp, #312]	; 0x138
/home/hsk/Desktop/devel/tee-tpm-hyp/optee_os/lib/libutils/ext/trace.c:148
     2ac:	9305      	str	r3, [sp, #20]
/home/hsk/Desktop/devel/tee-tpm-hyp/optee_os/lib/libutils/ext/trace.c:149
     2ae:	f000 fc37 	bl	b20 <vsnprintk>
/home/hsk/Desktop/devel/tee-tpm-hyp/optee_os/lib/libutils/ext/trace.c:151
     2b2:	2800      	cmp	r0, #0
/home/hsk/Desktop/devel/tee-tpm-hyp/optee_os/lib/libutils/ext/trace.c:157
     2b4:	f04f 030a 	mov.w	r3, #10
/home/hsk/Desktop/devel/tee-tpm-hyp/optee_os/lib/libutils/ext/trace.c:152
     2b8:	bfc8      	it	gt
     2ba:	1824      	addgt	r4, r4, r0
     2bc:	2cfe      	cmp	r4, #254	; 0xfe
     2be:	bf28      	it	cs
     2c0:	24fe      	movcs	r4, #254	; 0xfe
/home/hsk/Desktop/devel/tee-tpm-hyp/optee_os/lib/libutils/ext/trace.c:157
     2c2:	552b      	strb	r3, [r5, r4]
/home/hsk/Desktop/devel/tee-tpm-hyp/optee_os/lib/libutils/ext/trace.c:158
     2c4:	b114      	cbz	r4, 2cc <trace_printf+0xdc>
/home/hsk/Desktop/devel/tee-tpm-hyp/optee_os/lib/libutils/ext/trace.c:158 (discriminator 1)
     2c6:	5d2b      	ldrb	r3, [r5, r4]
     2c8:	2b0a      	cmp	r3, #10
     2ca:	d019      	beq.n	300 <trace_printf+0x110>
/home/hsk/Desktop/devel/tee-tpm-hyp/optee_os/lib/libutils/ext/trace.c:161
     2cc:	442c      	add	r4, r5
/home/hsk/Desktop/devel/tee-tpm-hyp/optee_os/lib/libutils/ext/trace.c:163
     2ce:	4628      	mov	r0, r5
/home/hsk/Desktop/devel/tee-tpm-hyp/optee_os/lib/libutils/ext/trace.c:161
     2d0:	2300      	movs	r3, #0
     2d2:	70a3      	strb	r3, [r4, #2]
/home/hsk/Desktop/devel/tee-tpm-hyp/optee_os/lib/libutils/ext/trace.c:163
     2d4:	f000 fc50 	bl	b78 <trace_ext_puts>
/home/hsk/Desktop/devel/tee-tpm-hyp/optee_os/lib/libutils/ext/trace.c:164
     2d8:	b046      	add	sp, #280	; 0x118
     2da:	e8bd 87f0 	ldmia.w	sp!, {r4, r5, r6, r7, r8, r9, sl, pc}
trace_level_to_string():
/home/hsk/Desktop/devel/tee-tpm-hyp/optee_os/lib/libutils/ext/trace.c:50
     2de:	234d      	movs	r3, #77	; 0x4d
     2e0:	e79f      	b.n	222 <trace_printf+0x32>
print_thread_id():
/home/hsk/Desktop/devel/tee-tpm-hyp/optee_os/lib/libutils/ext/trace.c:70
     2e2:	4b10      	ldr	r3, [pc, #64]	; (324 <trace_printf+0x134>)
     2e4:	4a10      	ldr	r2, [pc, #64]	; (328 <trace_printf+0x138>)
     2e6:	447b      	add	r3, pc
     2e8:	9300      	str	r3, [sp, #0]
     2ea:	447a      	add	r2, pc
     2ec:	2301      	movs	r3, #1
     2ee:	e7c3      	b.n	278 <trace_printf+0x88>
trace_printf():
/home/hsk/Desktop/devel/tee-tpm-hyp/optee_os/lib/libutils/ext/trace.c:142
     2f0:	2efe      	cmp	r6, #254	; 0xfe
     2f2:	d8f1      	bhi.n	2d8 <trace_printf+0xe8>
/home/hsk/Desktop/devel/tee-tpm-hyp/optee_os/lib/libutils/ext/trace.c:144
     2f4:	1c74      	adds	r4, r6, #1
     2f6:	2320      	movs	r3, #32
     2f8:	55ab      	strb	r3, [r5, r6]
/home/hsk/Desktop/devel/tee-tpm-hyp/optee_os/lib/libutils/ext/trace.c:145
     2fa:	2300      	movs	r3, #0
     2fc:	552b      	strb	r3, [r5, r4]
     2fe:	e7d0      	b.n	2a2 <trace_printf+0xb2>
/home/hsk/Desktop/devel/tee-tpm-hyp/optee_os/lib/libutils/ext/trace.c:159
     300:	3c01      	subs	r4, #1
     302:	e7df      	b.n	2c4 <trace_printf+0xd4>
     304:	0000721a 	.word	0x0000721a
     308:	00000010 	.word	0x00000010
     30c:	00006002 	.word	0x00006002
     310:	00006003 	.word	0x00006003
     314:	00000014 	.word	0x00000014
     318:	00005ff3 	.word	0x00005ff3
     31c:	00005fc1 	.word	0x00005fc1
     320:	00005fae 	.word	0x00005fae
     324:	00005e03 	.word	0x00005e03
     328:	00005f53 	.word	0x00005f53

0000032c <dhex_dump>:
dhex_dump():
/home/hsk/Desktop/devel/tee-tpm-hyp/optee_os/lib/libutils/ext/trace.c:225
     32c:	e92d 4ff0 	stmdb	sp!, {r4, r5, r6, r7, r8, r9, sl, fp, lr}
     330:	4617      	mov	r7, r2
     332:	4a33      	ldr	r2, [pc, #204]	; (400 <dhex_dump+0xd4>)
     334:	4689      	mov	r9, r1
/home/hsk/Desktop/devel/tee-tpm-hyp/optee_os/lib/libutils/ext/trace.c:231
     336:	4933      	ldr	r1, [pc, #204]	; (404 <dhex_dump+0xd8>)
/home/hsk/Desktop/devel/tee-tpm-hyp/optee_os/lib/libutils/ext/trace.c:225
     338:	447a      	add	r2, pc
     33a:	b0c7      	sub	sp, #284	; 0x11c
     33c:	4680      	mov	r8, r0
/home/hsk/Desktop/devel/tee-tpm-hyp/optee_os/lib/libutils/ext/trace.c:231
     33e:	5852      	ldr	r2, [r2, r1]
     340:	6812      	ldr	r2, [r2, #0]
     342:	42ba      	cmp	r2, r7
     344:	db1d      	blt.n	382 <dhex_dump+0x56>
     346:	461e      	mov	r6, r3
/home/hsk/Desktop/devel/tee-tpm-hyp/optee_os/lib/libutils/ext/trace.c:240
     348:	4b2f      	ldr	r3, [pc, #188]	; (408 <dhex_dump+0xdc>)
/home/hsk/Desktop/devel/tee-tpm-hyp/optee_os/lib/libutils/ext/trace.c:232
     34a:	ac05      	add	r4, sp, #20
/home/hsk/Desktop/devel/tee-tpm-hyp/optee_os/lib/libutils/ext/trace.c:235
     34c:	f8df b0bc 	ldr.w	fp, [pc, #188]	; 40c <dhex_dump+0xe0>
/home/hsk/Desktop/devel/tee-tpm-hyp/optee_os/lib/libutils/ext/trace.c:240
     350:	447b      	add	r3, pc
     352:	9302      	str	r3, [sp, #8]
/home/hsk/Desktop/devel/tee-tpm-hyp/optee_os/lib/libutils/ext/trace.c:248
     354:	4b2e      	ldr	r3, [pc, #184]	; (410 <dhex_dump+0xe4>)
/home/hsk/Desktop/devel/tee-tpm-hyp/optee_os/lib/libutils/ext/trace.c:235
     356:	44fb      	add	fp, pc
/home/hsk/Desktop/devel/tee-tpm-hyp/optee_os/lib/libutils/ext/trace.c:232
     358:	2500      	movs	r5, #0
     35a:	f8c4 5100 	str.w	r5, [r4, #256]	; 0x100
/home/hsk/Desktop/devel/tee-tpm-hyp/optee_os/lib/libutils/ext/trace.c:248
     35e:	447b      	add	r3, pc
     360:	9303      	str	r3, [sp, #12]
/home/hsk/Desktop/devel/tee-tpm-hyp/optee_os/lib/libutils/ext/trace.c:233 (discriminator 1)
     362:	9b50      	ldr	r3, [sp, #320]	; 0x140
     364:	429d      	cmp	r5, r3
     366:	db0f      	blt.n	388 <dhex_dump+0x5c>
/home/hsk/Desktop/devel/tee-tpm-hyp/optee_os/lib/libutils/ext/trace.c:253
     368:	f8d4 3100 	ldr.w	r3, [r4, #256]	; 0x100
     36c:	b14b      	cbz	r3, 382 <dhex_dump+0x56>
/home/hsk/Desktop/devel/tee-tpm-hyp/optee_os/lib/libutils/ext/trace.c:255
     36e:	4b29      	ldr	r3, [pc, #164]	; (414 <dhex_dump+0xe8>)
     370:	463a      	mov	r2, r7
     372:	9401      	str	r4, [sp, #4]
     374:	4649      	mov	r1, r9
     376:	447b      	add	r3, pc
     378:	4640      	mov	r0, r8
     37a:	9300      	str	r3, [sp, #0]
     37c:	2301      	movs	r3, #1
     37e:	f7ff ff37 	bl	1f0 <trace_printf>
/home/hsk/Desktop/devel/tee-tpm-hyp/optee_os/lib/libutils/ext/trace.c:263
     382:	b047      	add	sp, #284	; 0x11c
     384:	e8bd 8ff0 	ldmia.w	sp!, {r4, r5, r6, r7, r8, r9, sl, fp, pc}
/home/hsk/Desktop/devel/tee-tpm-hyp/optee_os/lib/libutils/ext/trace.c:234
     388:	f015 0a0f 	ands.w	sl, r5, #15
     38c:	d013      	beq.n	3b6 <dhex_dump+0x8a>
/home/hsk/Desktop/devel/tee-tpm-hyp/optee_os/lib/libutils/ext/trace.c:240
     38e:	f816 2b01 	ldrb.w	r2, [r6], #1
     392:	4620      	mov	r0, r4
     394:	9902      	ldr	r1, [sp, #8]
     396:	f7ff feeb 	bl	170 <append>
/home/hsk/Desktop/devel/tee-tpm-hyp/optee_os/lib/libutils/ext/trace.c:241
     39a:	b9a8      	cbnz	r0, 3c8 <dhex_dump+0x9c>
/home/hsk/Desktop/devel/tee-tpm-hyp/optee_os/lib/libutils/ext/trace.c:262
     39c:	481e      	ldr	r0, [pc, #120]	; (418 <dhex_dump+0xec>)
     39e:	2203      	movs	r2, #3
     3a0:	4b1e      	ldr	r3, [pc, #120]	; (41c <dhex_dump+0xf0>)
     3a2:	f44f 7183 	mov.w	r1, #262	; 0x106
     3a6:	4478      	add	r0, pc
     3a8:	447b      	add	r3, pc
     3aa:	3005      	adds	r0, #5
     3ac:	9300      	str	r3, [sp, #0]
     3ae:	2301      	movs	r3, #1
     3b0:	f7ff ff1e 	bl	1f0 <trace_printf>
     3b4:	e7e5      	b.n	382 <dhex_dump+0x56>
/home/hsk/Desktop/devel/tee-tpm-hyp/optee_os/lib/libutils/ext/trace.c:235
     3b6:	4633      	mov	r3, r6
     3b8:	2208      	movs	r2, #8
     3ba:	4659      	mov	r1, fp
     3bc:	4620      	mov	r0, r4
     3be:	f7ff fed7 	bl	170 <append>
/home/hsk/Desktop/devel/tee-tpm-hyp/optee_os/lib/libutils/ext/trace.c:237
     3c2:	2800      	cmp	r0, #0
     3c4:	d1e3      	bne.n	38e <dhex_dump+0x62>
     3c6:	e7e9      	b.n	39c <dhex_dump+0x70>
/home/hsk/Desktop/devel/tee-tpm-hyp/optee_os/lib/libutils/ext/trace.c:243
     3c8:	f1ba 0f07 	cmp.w	sl, #7
     3cc:	d108      	bne.n	3e0 <dhex_dump+0xb4>
/home/hsk/Desktop/devel/tee-tpm-hyp/optee_os/lib/libutils/ext/trace.c:244
     3ce:	4914      	ldr	r1, [pc, #80]	; (420 <dhex_dump+0xf4>)
     3d0:	4620      	mov	r0, r4
     3d2:	4479      	add	r1, pc
     3d4:	f7ff fecc 	bl	170 <append>
/home/hsk/Desktop/devel/tee-tpm-hyp/optee_os/lib/libutils/ext/trace.c:245
     3d8:	2800      	cmp	r0, #0
     3da:	d0df      	beq.n	39c <dhex_dump+0x70>
/home/hsk/Desktop/devel/tee-tpm-hyp/optee_os/lib/libutils/ext/trace.c:233 (discriminator 2)
     3dc:	3501      	adds	r5, #1
     3de:	e7c0      	b.n	362 <dhex_dump+0x36>
/home/hsk/Desktop/devel/tee-tpm-hyp/optee_os/lib/libutils/ext/trace.c:247
     3e0:	f1ba 0f0f 	cmp.w	sl, #15
     3e4:	d1fa      	bne.n	3dc <dhex_dump+0xb0>
/home/hsk/Desktop/devel/tee-tpm-hyp/optee_os/lib/libutils/ext/trace.c:248
     3e6:	9b03      	ldr	r3, [sp, #12]
     3e8:	463a      	mov	r2, r7
     3ea:	9300      	str	r3, [sp, #0]
     3ec:	4649      	mov	r1, r9
     3ee:	2301      	movs	r3, #1
     3f0:	9401      	str	r4, [sp, #4]
     3f2:	4640      	mov	r0, r8
     3f4:	f7ff fefc 	bl	1f0 <trace_printf>
/home/hsk/Desktop/devel/tee-tpm-hyp/optee_os/lib/libutils/ext/trace.c:250
     3f8:	2300      	movs	r3, #0
     3fa:	f8c4 3100 	str.w	r3, [r4, #256]	; 0x100
     3fe:	e7ed      	b.n	3dc <dhex_dump+0xb0>
     400:	000070e0 	.word	0x000070e0
     404:	00000010 	.word	0x00000010
     408:	00005ef9 	.word	0x00005ef9
     40c:	00005ef9 	.word	0x00005ef9
     410:	00005ef9 	.word	0x00005ef9
     414:	00005ee1 	.word	0x00005ee1
     418:	00005e7a 	.word	0x00005e7a
     41c:	00005eb2 	.word	0x00005eb2
     420:	00005e83 	.word	0x00005e83

00000424 <__vsnprintf>:
__vsnprintf():
/home/hsk/Desktop/devel/tee-tpm-hyp/optee_os/lib/libutils/ext/snprintk.c:137
     424:	e92d 4ff0 	stmdb	sp!, {r4, r5, r6, r7, r8, r9, sl, fp, lr}
/home/hsk/Desktop/devel/tee-tpm-hyp/optee_os/lib/libutils/ext/snprintk.c:141
     428:	4607      	mov	r7, r0
     42a:	469b      	mov	fp, r3
/home/hsk/Desktop/devel/tee-tpm-hyp/optee_os/lib/libutils/ext/snprintk.c:137
     42c:	b09f      	sub	sp, #124	; 0x7c
kprintf():
/home/hsk/Desktop/devel/tee-tpm-hyp/optee_os/lib/libutils/ext/snprintk.c:269
     42e:	2300      	movs	r3, #0
__vsnprintf():
/home/hsk/Desktop/devel/tee-tpm-hyp/optee_os/lib/libutils/ext/snprintk.c:137
     430:	920b      	str	r2, [sp, #44]	; 0x2c
     432:	f89d 20a0 	ldrb.w	r2, [sp, #160]	; 0xa0
     436:	9213      	str	r2, [sp, #76]	; 0x4c
/home/hsk/Desktop/devel/tee-tpm-hyp/optee_os/lib/libutils/ext/snprintk.c:141
     438:	4602      	mov	r2, r0
     43a:	440a      	add	r2, r1
/home/hsk/Desktop/devel/tee-tpm-hyp/optee_os/lib/libutils/ext/snprintk.c:137
     43c:	9010      	str	r0, [sp, #64]	; 0x40
     43e:	9112      	str	r1, [sp, #72]	; 0x48
/home/hsk/Desktop/devel/tee-tpm-hyp/optee_os/lib/libutils/ext/snprintk.c:141
     440:	920e      	str	r2, [sp, #56]	; 0x38
kprintf():
/home/hsk/Desktop/devel/tee-tpm-hyp/optee_os/lib/libutils/ext/snprintk.c:269
     442:	930f      	str	r3, [sp, #60]	; 0x3c
/home/hsk/Desktop/devel/tee-tpm-hyp/optee_os/lib/libutils/ext/snprintk.c:267
     444:	930c      	str	r3, [sp, #48]	; 0x30
/home/hsk/Desktop/devel/tee-tpm-hyp/optee_os/lib/libutils/ext/snprintk.c:275
     446:	9b0b      	ldr	r3, [sp, #44]	; 0x2c
     448:	781b      	ldrb	r3, [r3, #0]
     44a:	2b25      	cmp	r3, #37	; 0x25
     44c:	d021      	beq.n	492 <__vsnprintf+0x6e>
     44e:	b99b      	cbnz	r3, 478 <__vsnprintf+0x54>
__vsnprintf():
/home/hsk/Desktop/devel/tee-tpm-hyp/optee_os/lib/libutils/ext/snprintk.c:143
     450:	9b10      	ldr	r3, [sp, #64]	; 0x40
     452:	b16b      	cbz	r3, 470 <__vsnprintf+0x4c>
/home/hsk/Desktop/devel/tee-tpm-hyp/optee_os/lib/libutils/ext/snprintk.c:143 (discriminator 1)
     454:	9b12      	ldr	r3, [sp, #72]	; 0x48
     456:	b15b      	cbz	r3, 470 <__vsnprintf+0x4c>
/home/hsk/Desktop/devel/tee-tpm-hyp/optee_os/lib/libutils/ext/snprintk.c:145
     458:	9b0c      	ldr	r3, [sp, #48]	; 0x30
     45a:	9a12      	ldr	r2, [sp, #72]	; 0x48
     45c:	4293      	cmp	r3, r2
     45e:	f04f 0300 	mov.w	r3, #0
/home/hsk/Desktop/devel/tee-tpm-hyp/optee_os/lib/libutils/ext/snprintk.c:146
     462:	9a10      	ldr	r2, [sp, #64]	; 0x40
/home/hsk/Desktop/devel/tee-tpm-hyp/optee_os/lib/libutils/ext/snprintk.c:145
     464:	f0c0 8341 	bcc.w	aea <__vsnprintf+0x6c6>
/home/hsk/Desktop/devel/tee-tpm-hyp/optee_os/lib/libutils/ext/snprintk.c:146
     468:	9912      	ldr	r1, [sp, #72]	; 0x48
     46a:	440a      	add	r2, r1
     46c:	f802 3c01 	strb.w	r3, [r2, #-1]
/home/hsk/Desktop/devel/tee-tpm-hyp/optee_os/lib/libutils/ext/snprintk.c:151
     470:	980c      	ldr	r0, [sp, #48]	; 0x30
     472:	b01f      	add	sp, #124	; 0x7c
     474:	e8bd 8ff0 	ldmia.w	sp!, {r4, r5, r6, r7, r8, r9, sl, fp, pc}
kprintf():
/home/hsk/Desktop/devel/tee-tpm-hyp/optee_os/lib/libutils/ext/snprintk.c:276
     478:	9a0c      	ldr	r2, [sp, #48]	; 0x30
     47a:	3201      	adds	r2, #1
     47c:	920c      	str	r2, [sp, #48]	; 0x30
/home/hsk/Desktop/devel/tee-tpm-hyp/optee_os/lib/libutils/ext/snprintk.c:277
     47e:	b127      	cbz	r7, 48a <__vsnprintf+0x66>
     480:	9a0e      	ldr	r2, [sp, #56]	; 0x38
     482:	42ba      	cmp	r2, r7
     484:	d901      	bls.n	48a <__vsnprintf+0x66>
     486:	703b      	strb	r3, [r7, #0]
     488:	3701      	adds	r7, #1
/home/hsk/Desktop/devel/tee-tpm-hyp/optee_os/lib/libutils/ext/snprintk.c:275
     48a:	9b0b      	ldr	r3, [sp, #44]	; 0x2c
     48c:	3301      	adds	r3, #1
     48e:	930b      	str	r3, [sp, #44]	; 0x2c
     490:	e7d9      	b.n	446 <__vsnprintf+0x22>
/home/hsk/Desktop/devel/tee-tpm-hyp/optee_os/lib/libutils/ext/snprintk.c:282
     492:	9b0b      	ldr	r3, [sp, #44]	; 0x2c
/home/hsk/Desktop/devel/tee-tpm-hyp/optee_os/lib/libutils/ext/snprintk.c:288
     494:	f04f 0900 	mov.w	r9, #0
/home/hsk/Desktop/devel/tee-tpm-hyp/optee_os/lib/libutils/ext/snprintk.c:284
     498:	464e      	mov	r6, r9
/home/hsk/Desktop/devel/tee-tpm-hyp/optee_os/lib/libutils/ext/snprintk.c:287
     49a:	f04f 32ff 	mov.w	r2, #4294967295	; 0xffffffff
/home/hsk/Desktop/devel/tee-tpm-hyp/optee_os/lib/libutils/ext/snprintk.c:282
     49e:	3301      	adds	r3, #1
     4a0:	930b      	str	r3, [sp, #44]	; 0x2c
     4a2:	465b      	mov	r3, fp
/home/hsk/Desktop/devel/tee-tpm-hyp/optee_os/lib/libutils/ext/snprintk.c:287
     4a4:	920a      	str	r2, [sp, #40]	; 0x28
/home/hsk/Desktop/devel/tee-tpm-hyp/optee_os/lib/libutils/ext/snprintk.c:286
     4a6:	f8cd 9034 	str.w	r9, [sp, #52]	; 0x34
/home/hsk/Desktop/devel/tee-tpm-hyp/optee_os/lib/libutils/ext/snprintk.c:290
     4aa:	9a0b      	ldr	r2, [sp, #44]	; 0x2c
     4ac:	3201      	adds	r2, #1
     4ae:	f812 8c01 	ldrb.w	r8, [r2, #-1]
/home/hsk/Desktop/devel/tee-tpm-hyp/optee_os/lib/libutils/ext/snprintk.c:319
     4b2:	920b      	str	r2, [sp, #44]	; 0x2c
/home/hsk/Desktop/devel/tee-tpm-hyp/optee_os/lib/libutils/ext/snprintk.c:291
     4b4:	f1b8 0f63 	cmp.w	r8, #99	; 0x63
     4b8:	f000 8166 	beq.w	788 <__vsnprintf+0x364>
     4bc:	dc61      	bgt.n	582 <__vsnprintf+0x15e>
     4be:	f1b8 0f30 	cmp.w	r8, #48	; 0x30
     4c2:	f000 814b 	beq.w	75c <__vsnprintf+0x338>
     4c6:	dc25      	bgt.n	514 <__vsnprintf+0xf0>
     4c8:	f1b8 0f2a 	cmp.w	r8, #42	; 0x2a
     4cc:	f000 811c 	beq.w	708 <__vsnprintf+0x2e4>
     4d0:	dc13      	bgt.n	4fa <__vsnprintf+0xd6>
     4d2:	f1b8 0f20 	cmp.w	r8, #32
     4d6:	f000 810d 	beq.w	6f4 <__vsnprintf+0x2d0>
     4da:	f1b8 0f23 	cmp.w	r8, #35	; 0x23
     4de:	f000 8110 	beq.w	702 <__vsnprintf+0x2de>
/home/hsk/Desktop/devel/tee-tpm-hyp/optee_os/lib/libutils/ext/snprintk.c:541
     4e2:	f1b8 0f00 	cmp.w	r8, #0
     4e6:	d0b3      	beq.n	450 <__vsnprintf+0x2c>
/home/hsk/Desktop/devel/tee-tpm-hyp/optee_os/lib/libutils/ext/snprintk.c:545
     4e8:	f10d 0a78 	add.w	sl, sp, #120	; 0x78
     4ec:	469b      	mov	fp, r3
/home/hsk/Desktop/devel/tee-tpm-hyp/optee_os/lib/libutils/ext/snprintk.c:546
     4ee:	2301      	movs	r3, #1
/home/hsk/Desktop/devel/tee-tpm-hyp/optee_os/lib/libutils/ext/snprintk.c:545
     4f0:	f80a 8d28 	strb.w	r8, [sl, #-40]!
     4f4:	e090      	b.n	618 <__vsnprintf+0x1f4>
/home/hsk/Desktop/devel/tee-tpm-hyp/optee_os/lib/libutils/ext/snprintk.c:311
     4f6:	4613      	mov	r3, r2
     4f8:	e7d7      	b.n	4aa <__vsnprintf+0x86>
/home/hsk/Desktop/devel/tee-tpm-hyp/optee_os/lib/libutils/ext/snprintk.c:291
     4fa:	f1b8 0f2d 	cmp.w	r8, #45	; 0x2d
     4fe:	f000 810c 	beq.w	71a <__vsnprintf+0x2f6>
     502:	f1b8 0f2e 	cmp.w	r8, #46	; 0x2e
     506:	f000 810b 	beq.w	720 <__vsnprintf+0x2fc>
     50a:	f1b8 0f2b 	cmp.w	r8, #43	; 0x2b
     50e:	d1e8      	bne.n	4e2 <__vsnprintf+0xbe>
/home/hsk/Desktop/devel/tee-tpm-hyp/optee_os/lib/libutils/ext/snprintk.c:319
     510:	46c1      	mov	r9, r8
     512:	e7ca      	b.n	4aa <__vsnprintf+0x86>
/home/hsk/Desktop/devel/tee-tpm-hyp/optee_os/lib/libutils/ext/snprintk.c:291
     514:	f1b8 0f44 	cmp.w	r8, #68	; 0x44
     518:	f000 818a 	beq.w	830 <__vsnprintf+0x40c>
     51c:	dc13      	bgt.n	546 <__vsnprintf+0x122>
     51e:	f1b8 0f39 	cmp.w	r8, #57	; 0x39
     522:	dcde      	bgt.n	4e2 <__vsnprintf+0xbe>
     524:	9a0b      	ldr	r2, [sp, #44]	; 0x2c
/home/hsk/Desktop/devel/tee-tpm-hyp/optee_os/lib/libutils/ext/snprintk.c:344
     526:	2100      	movs	r1, #0
     528:	910d      	str	r1, [sp, #52]	; 0x34
/home/hsk/Desktop/devel/tee-tpm-hyp/optee_os/lib/libutils/ext/snprintk.c:346
     52a:	990d      	ldr	r1, [sp, #52]	; 0x34
     52c:	f1a8 0830 	sub.w	r8, r8, #48	; 0x30
     530:	200a      	movs	r0, #10
     532:	fb00 8101 	mla	r1, r0, r1, r8
/home/hsk/Desktop/devel/tee-tpm-hyp/optee_os/lib/libutils/ext/snprintk.c:347
     536:	f812 8b01 	ldrb.w	r8, [r2], #1
/home/hsk/Desktop/devel/tee-tpm-hyp/optee_os/lib/libutils/ext/snprintk.c:346
     53a:	910d      	str	r1, [sp, #52]	; 0x34
/home/hsk/Desktop/devel/tee-tpm-hyp/optee_os/lib/libutils/ext/snprintk.c:348
     53c:	f1a8 0130 	sub.w	r1, r8, #48	; 0x30
     540:	2909      	cmp	r1, #9
     542:	d9f2      	bls.n	52a <__vsnprintf+0x106>
     544:	e7b5      	b.n	4b2 <__vsnprintf+0x8e>
/home/hsk/Desktop/devel/tee-tpm-hyp/optee_os/lib/libutils/ext/snprintk.c:291
     546:	f1b8 0f55 	cmp.w	r8, #85	; 0x55
     54a:	f000 8228 	beq.w	99e <__vsnprintf+0x57a>
     54e:	f1b8 0f58 	cmp.w	r8, #88	; 0x58
     552:	d07d      	beq.n	650 <__vsnprintf+0x22c>
     554:	f1b8 0f4f 	cmp.w	r8, #79	; 0x4f
     558:	d1c3      	bne.n	4e2 <__vsnprintf+0xbe>
/home/hsk/Desktop/devel/tee-tpm-hyp/optee_os/lib/libutils/ext/snprintk.c:408
     55a:	f046 0610 	orr.w	r6, r6, #16
/home/hsk/Desktop/devel/tee-tpm-hyp/optee_os/lib/libutils/ext/snprintk.c:411
     55e:	0632      	lsls	r2, r6, #24
     560:	f140 81b2 	bpl.w	8c8 <__vsnprintf+0x4a4>
     564:	3307      	adds	r3, #7
     566:	f023 0307 	bic.w	r3, r3, #7
     56a:	f103 0b08 	add.w	fp, r3, #8
     56e:	e9d3 4500 	ldrd	r4, r5, [r3]
/home/hsk/Desktop/devel/tee-tpm-hyp/optee_os/lib/libutils/ext/snprintk.c:488
     572:	f04f 0900 	mov.w	r9, #0
     576:	9b0a      	ldr	r3, [sp, #40]	; 0x28
     578:	3301      	adds	r3, #1
     57a:	f000 8098 	beq.w	6ae <__vsnprintf+0x28a>
     57e:	464b      	mov	r3, r9
     580:	e084      	b.n	68c <__vsnprintf+0x268>
/home/hsk/Desktop/devel/tee-tpm-hyp/optee_os/lib/libutils/ext/snprintk.c:291
     582:	f1b8 0f6f 	cmp.w	r8, #111	; 0x6f
     586:	d0ea      	beq.n	55e <__vsnprintf+0x13a>
     588:	dc1c      	bgt.n	5c4 <__vsnprintf+0x1a0>
     58a:	f1b8 0f69 	cmp.w	r8, #105	; 0x69
     58e:	f000 8151 	beq.w	834 <__vsnprintf+0x410>
     592:	dc09      	bgt.n	5a8 <__vsnprintf+0x184>
     594:	f1b8 0f64 	cmp.w	r8, #100	; 0x64
     598:	f000 814c 	beq.w	834 <__vsnprintf+0x410>
     59c:	f1b8 0f68 	cmp.w	r8, #104	; 0x68
     5a0:	d19f      	bne.n	4e2 <__vsnprintf+0xbe>
/home/hsk/Desktop/devel/tee-tpm-hyp/optee_os/lib/libutils/ext/snprintk.c:352
     5a2:	f046 0640 	orr.w	r6, r6, #64	; 0x40
     5a6:	e780      	b.n	4aa <__vsnprintf+0x86>
/home/hsk/Desktop/devel/tee-tpm-hyp/optee_os/lib/libutils/ext/snprintk.c:291
     5a8:	f1b8 0f6c 	cmp.w	r8, #108	; 0x6c
     5ac:	f000 80d9 	beq.w	762 <__vsnprintf+0x33e>
     5b0:	f1b8 0f6e 	cmp.w	r8, #110	; 0x6e
     5b4:	f000 816d 	beq.w	892 <__vsnprintf+0x46e>
     5b8:	f1b8 0f6a 	cmp.w	r8, #106	; 0x6a
     5bc:	d191      	bne.n	4e2 <__vsnprintf+0xbe>
/home/hsk/Desktop/devel/tee-tpm-hyp/optee_os/lib/libutils/ext/snprintk.c:355
     5be:	f046 0680 	orr.w	r6, r6, #128	; 0x80
     5c2:	e772      	b.n	4aa <__vsnprintf+0x86>
/home/hsk/Desktop/devel/tee-tpm-hyp/optee_os/lib/libutils/ext/snprintk.c:291
     5c4:	f1b8 0f74 	cmp.w	r8, #116	; 0x74
     5c8:	f000 80d8 	beq.w	77c <__vsnprintf+0x358>
     5cc:	dc26      	bgt.n	61c <__vsnprintf+0x1f8>
     5ce:	f1b8 0f71 	cmp.w	r8, #113	; 0x71
     5d2:	f000 80cd 	beq.w	770 <__vsnprintf+0x34c>
     5d6:	f2c0 818b 	blt.w	8f0 <__vsnprintf+0x4cc>
     5da:	f1b8 0f73 	cmp.w	r8, #115	; 0x73
     5de:	d180      	bne.n	4e2 <__vsnprintf+0xbe>
/home/hsk/Desktop/devel/tee-tpm-hyp/optee_os/lib/libutils/ext/snprintk.c:442
     5e0:	f8d3 a000 	ldr.w	sl, [r3]
     5e4:	f103 0b04 	add.w	fp, r3, #4
     5e8:	f1ba 0f00 	cmp.w	sl, #0
     5ec:	d102      	bne.n	5f4 <__vsnprintf+0x1d0>
/home/hsk/Desktop/devel/tee-tpm-hyp/optee_os/lib/libutils/ext/snprintk.c:444
     5ee:	f8df a51c 	ldr.w	sl, [pc, #1308]	; b0c <__vsnprintf+0x6e8>
     5f2:	44fa      	add	sl, pc
/home/hsk/Desktop/devel/tee-tpm-hyp/optee_os/lib/libutils/ext/snprintk.c:445
     5f4:	9b0a      	ldr	r3, [sp, #40]	; 0x28
     5f6:	1c5d      	adds	r5, r3, #1
     5f8:	f000 81cd 	beq.w	996 <__vsnprintf+0x572>
/home/hsk/Desktop/devel/tee-tpm-hyp/optee_os/lib/libutils/ext/snprintk.c:451
     5fc:	461a      	mov	r2, r3
     5fe:	2100      	movs	r1, #0
     600:	4650      	mov	r0, sl
     602:	f005 fa82 	bl	5b0a <memchr>
/home/hsk/Desktop/devel/tee-tpm-hyp/optee_os/lib/libutils/ext/snprintk.c:453
     606:	2800      	cmp	r0, #0
     608:	f000 81a2 	beq.w	950 <__vsnprintf+0x52c>
     60c:	9b0a      	ldr	r3, [sp, #40]	; 0x28
/home/hsk/Desktop/devel/tee-tpm-hyp/optee_os/lib/libutils/ext/snprintk.c:454
     60e:	eba0 000a 	sub.w	r0, r0, sl
     612:	4283      	cmp	r3, r0
     614:	bfa8      	it	ge
     616:	4603      	movge	r3, r0
/home/hsk/Desktop/devel/tee-tpm-hyp/optee_os/lib/libutils/ext/snprintk.c:546
     618:	930a      	str	r3, [sp, #40]	; 0x28
     61a:	e198      	b.n	94e <__vsnprintf+0x52a>
/home/hsk/Desktop/devel/tee-tpm-hyp/optee_os/lib/libutils/ext/snprintk.c:291
     61c:	f1b8 0f78 	cmp.w	r8, #120	; 0x78
     620:	f000 81de 	beq.w	9e0 <__vsnprintf+0x5bc>
     624:	f1b8 0f7a 	cmp.w	r8, #122	; 0x7a
     628:	f000 80ab 	beq.w	782 <__vsnprintf+0x35e>
     62c:	f1b8 0f75 	cmp.w	r8, #117	; 0x75
     630:	f47f af57 	bne.w	4e2 <__vsnprintf+0xbe>
/home/hsk/Desktop/devel/tee-tpm-hyp/optee_os/lib/libutils/ext/snprintk.c:467
     634:	f016 0280 	ands.w	r2, r6, #128	; 0x80
     638:	f000 81b4 	beq.w	9a4 <__vsnprintf+0x580>
     63c:	3307      	adds	r3, #7
     63e:	f023 0307 	bic.w	r3, r3, #7
     642:	f103 0b08 	add.w	fp, r3, #8
     646:	e9d3 4500 	ldrd	r4, r5, [r3]
/home/hsk/Desktop/devel/tee-tpm-hyp/optee_os/lib/libutils/ext/snprintk.c:482
     64a:	f04f 0900 	mov.w	r9, #0
     64e:	e103      	b.n	858 <__vsnprintf+0x434>
/home/hsk/Desktop/devel/tee-tpm-hyp/optee_os/lib/libutils/ext/snprintk.c:471
     650:	f8df 24bc 	ldr.w	r2, [pc, #1212]	; b10 <__vsnprintf+0x6ec>
     654:	447a      	add	r2, pc
/home/hsk/Desktop/devel/tee-tpm-hyp/optee_os/lib/libutils/ext/snprintk.c:474
     656:	920f      	str	r2, [sp, #60]	; 0x3c
/home/hsk/Desktop/devel/tee-tpm-hyp/optee_os/lib/libutils/ext/snprintk.c:475
     658:	0634      	lsls	r4, r6, #24
     65a:	f140 81c5 	bpl.w	9e8 <__vsnprintf+0x5c4>
     65e:	3307      	adds	r3, #7
     660:	f023 0307 	bic.w	r3, r3, #7
     664:	f103 0b08 	add.w	fp, r3, #8
     668:	e9d3 4500 	ldrd	r4, r5, [r3]
/home/hsk/Desktop/devel/tee-tpm-hyp/optee_os/lib/libutils/ext/snprintk.c:478
     66c:	07f0      	lsls	r0, r6, #31
     66e:	f140 817a 	bpl.w	966 <__vsnprintf+0x542>
     672:	ea54 0305 	orrs.w	r3, r4, r5
     676:	f000 8241 	beq.w	afc <__vsnprintf+0x6d8>
/home/hsk/Desktop/devel/tee-tpm-hyp/optee_os/lib/libutils/ext/snprintk.c:488
     67a:	9b0a      	ldr	r3, [sp, #40]	; 0x28
/home/hsk/Desktop/devel/tee-tpm-hyp/optee_os/lib/libutils/ext/snprintk.c:479
     67c:	f046 0602 	orr.w	r6, r6, #2
/home/hsk/Desktop/devel/tee-tpm-hyp/optee_os/lib/libutils/ext/snprintk.c:488
     680:	3301      	adds	r3, #1
     682:	f000 823e 	beq.w	b02 <__vsnprintf+0x6de>
     686:	f04f 0900 	mov.w	r9, #0
     68a:	2302      	movs	r3, #2
/home/hsk/Desktop/devel/tee-tpm-hyp/optee_os/lib/libutils/ext/snprintk.c:489
     68c:	f426 6680 	bic.w	r6, r6, #1024	; 0x400
/home/hsk/Desktop/devel/tee-tpm-hyp/optee_os/lib/libutils/ext/snprintk.c:497
     690:	ea54 0205 	orrs.w	r2, r4, r5
     694:	d105      	bne.n	6a2 <__vsnprintf+0x27e>
     696:	9a0a      	ldr	r2, [sp, #40]	; 0x28
     698:	2a00      	cmp	r2, #0
     69a:	f000 81dc 	beq.w	a56 <__vsnprintf+0x632>
     69e:	2400      	movs	r4, #0
     6a0:	2500      	movs	r5, #0
/home/hsk/Desktop/devel/tee-tpm-hyp/optee_os/lib/libutils/ext/snprintk.c:503
     6a2:	2b01      	cmp	r3, #1
     6a4:	f000 80dc 	beq.w	860 <__vsnprintf+0x43c>
     6a8:	2b02      	cmp	r3, #2
     6aa:	f000 8162 	beq.w	972 <__vsnprintf+0x54e>
/home/hsk/Desktop/devel/tee-tpm-hyp/optee_os/lib/libutils/ext/snprintk.c:504
     6ae:	f10d 0375 	add.w	r3, sp, #117	; 0x75
/home/hsk/Desktop/devel/tee-tpm-hyp/optee_os/lib/libutils/ext/snprintk.c:507
     6b2:	08e1      	lsrs	r1, r4, #3
     6b4:	08e8      	lsrs	r0, r5, #3
     6b6:	ea41 7145 	orr.w	r1, r1, r5, lsl #29
/home/hsk/Desktop/devel/tee-tpm-hyp/optee_os/lib/libutils/ext/snprintk.c:506
     6ba:	f004 0207 	and.w	r2, r4, #7
/home/hsk/Desktop/devel/tee-tpm-hyp/optee_os/lib/libutils/ext/snprintk.c:507
     6be:	4605      	mov	r5, r0
     6c0:	460c      	mov	r4, r1
/home/hsk/Desktop/devel/tee-tpm-hyp/optee_os/lib/libutils/ext/snprintk.c:506
     6c2:	3230      	adds	r2, #48	; 0x30
     6c4:	f103 3aff 	add.w	sl, r3, #4294967295	; 0xffffffff
     6c8:	f803 2c01 	strb.w	r2, [r3, #-1]
/home/hsk/Desktop/devel/tee-tpm-hyp/optee_os/lib/libutils/ext/snprintk.c:508
     6cc:	ea54 0105 	orrs.w	r1, r4, r5
     6d0:	f040 81a0 	bne.w	a14 <__vsnprintf+0x5f0>
/home/hsk/Desktop/devel/tee-tpm-hyp/optee_os/lib/libutils/ext/snprintk.c:510
     6d4:	07f1      	lsls	r1, r6, #31
     6d6:	d506      	bpl.n	6e6 <__vsnprintf+0x2c2>
     6d8:	2a30      	cmp	r2, #48	; 0x30
     6da:	d004      	beq.n	6e6 <__vsnprintf+0x2c2>
/home/hsk/Desktop/devel/tee-tpm-hyp/optee_os/lib/libutils/ext/snprintk.c:511
     6dc:	2230      	movs	r2, #48	; 0x30
     6de:	f80a 2c01 	strb.w	r2, [sl, #-1]
     6e2:	f1a3 0a02 	sub.w	sl, r3, #2
/home/hsk/Desktop/devel/tee-tpm-hyp/optee_os/lib/libutils/ext/snprintk.c:537
     6e6:	f10d 0375 	add.w	r3, sp, #117	; 0x75
     6ea:	980a      	ldr	r0, [sp, #40]	; 0x28
     6ec:	eba3 030a 	sub.w	r3, r3, sl
     6f0:	930a      	str	r3, [sp, #40]	; 0x28
     6f2:	e055      	b.n	7a0 <__vsnprintf+0x37c>
/home/hsk/Desktop/devel/tee-tpm-hyp/optee_os/lib/libutils/ext/snprintk.c:299
     6f4:	f1b9 0f00 	cmp.w	r9, #0
     6f8:	f04f 0220 	mov.w	r2, #32
     6fc:	bf08      	it	eq
     6fe:	4691      	moveq	r9, r2
     700:	e6d3      	b.n	4aa <__vsnprintf+0x86>
/home/hsk/Desktop/devel/tee-tpm-hyp/optee_os/lib/libutils/ext/snprintk.c:302
     702:	f046 0601 	orr.w	r6, r6, #1
     706:	e6d0      	b.n	4aa <__vsnprintf+0x86>
/home/hsk/Desktop/devel/tee-tpm-hyp/optee_os/lib/libutils/ext/snprintk.c:311
     708:	1d1a      	adds	r2, r3, #4
     70a:	681b      	ldr	r3, [r3, #0]
     70c:	930d      	str	r3, [sp, #52]	; 0x34
     70e:	2b00      	cmp	r3, #0
     710:	f6bf aef1 	bge.w	4f6 <__vsnprintf+0xd2>
/home/hsk/Desktop/devel/tee-tpm-hyp/optee_os/lib/libutils/ext/snprintk.c:313
     714:	425b      	negs	r3, r3
     716:	930d      	str	r3, [sp, #52]	; 0x34
/home/hsk/Desktop/devel/tee-tpm-hyp/optee_os/lib/libutils/ext/snprintk.c:311
     718:	4613      	mov	r3, r2
/home/hsk/Desktop/devel/tee-tpm-hyp/optee_os/lib/libutils/ext/snprintk.c:316
     71a:	f046 0604 	orr.w	r6, r6, #4
     71e:	e6c4      	b.n	4aa <__vsnprintf+0x86>
/home/hsk/Desktop/devel/tee-tpm-hyp/optee_os/lib/libutils/ext/snprintk.c:322
     720:	990b      	ldr	r1, [sp, #44]	; 0x2c
     722:	9a0b      	ldr	r2, [sp, #44]	; 0x2c
     724:	f891 8000 	ldrb.w	r8, [r1]
     728:	3201      	adds	r2, #1
     72a:	f1b8 0f2a 	cmp.w	r8, #42	; 0x2a
     72e:	d112      	bne.n	756 <__vsnprintf+0x332>
/home/hsk/Desktop/devel/tee-tpm-hyp/optee_os/lib/libutils/ext/snprintk.c:324
     730:	6819      	ldr	r1, [r3, #0]
/home/hsk/Desktop/devel/tee-tpm-hyp/optee_os/lib/libutils/ext/snprintk.c:323
     732:	3304      	adds	r3, #4
/home/hsk/Desktop/devel/tee-tpm-hyp/optee_os/lib/libutils/ext/snprintk.c:322
     734:	920b      	str	r2, [sp, #44]	; 0x2c
/home/hsk/Desktop/devel/tee-tpm-hyp/optee_os/lib/libutils/ext/snprintk.c:324
     736:	ea41 71e1 	orr.w	r1, r1, r1, asr #31
     73a:	910a      	str	r1, [sp, #40]	; 0x28
     73c:	e6b5      	b.n	4aa <__vsnprintf+0x86>
/home/hsk/Desktop/devel/tee-tpm-hyp/optee_os/lib/libutils/ext/snprintk.c:329
     73e:	980a      	ldr	r0, [sp, #40]	; 0x28
     740:	240a      	movs	r4, #10
/home/hsk/Desktop/devel/tee-tpm-hyp/optee_os/lib/libutils/ext/snprintk.c:330
     742:	f812 8b01 	ldrb.w	r8, [r2], #1
/home/hsk/Desktop/devel/tee-tpm-hyp/optee_os/lib/libutils/ext/snprintk.c:329
     746:	fb04 1100 	mla	r1, r4, r0, r1
     74a:	910a      	str	r1, [sp, #40]	; 0x28
/home/hsk/Desktop/devel/tee-tpm-hyp/optee_os/lib/libutils/ext/snprintk.c:328
     74c:	f1a8 0130 	sub.w	r1, r8, #48	; 0x30
     750:	2909      	cmp	r1, #9
     752:	d9f4      	bls.n	73e <__vsnprintf+0x31a>
     754:	e6ad      	b.n	4b2 <__vsnprintf+0x8e>
/home/hsk/Desktop/devel/tee-tpm-hyp/optee_os/lib/libutils/ext/snprintk.c:327
     756:	2100      	movs	r1, #0
     758:	910a      	str	r1, [sp, #40]	; 0x28
     75a:	e7f7      	b.n	74c <__vsnprintf+0x328>
/home/hsk/Desktop/devel/tee-tpm-hyp/optee_os/lib/libutils/ext/snprintk.c:340
     75c:	f446 6680 	orr.w	r6, r6, #1024	; 0x400
     760:	e6a3      	b.n	4aa <__vsnprintf+0x86>
/home/hsk/Desktop/devel/tee-tpm-hyp/optee_os/lib/libutils/ext/snprintk.c:358
     762:	9a0b      	ldr	r2, [sp, #44]	; 0x2c
     764:	7812      	ldrb	r2, [r2, #0]
     766:	2a6c      	cmp	r2, #108	; 0x6c
     768:	d105      	bne.n	776 <__vsnprintf+0x352>
     76a:	9a0b      	ldr	r2, [sp, #44]	; 0x2c
     76c:	3201      	adds	r2, #1
     76e:	920b      	str	r2, [sp, #44]	; 0x2c
/home/hsk/Desktop/devel/tee-tpm-hyp/optee_os/lib/libutils/ext/snprintk.c:366
     770:	f046 0620 	orr.w	r6, r6, #32
     774:	e699      	b.n	4aa <__vsnprintf+0x86>
/home/hsk/Desktop/devel/tee-tpm-hyp/optee_os/lib/libutils/ext/snprintk.c:362
     776:	f046 0610 	orr.w	r6, r6, #16
     77a:	e696      	b.n	4aa <__vsnprintf+0x86>
/home/hsk/Desktop/devel/tee-tpm-hyp/optee_os/lib/libutils/ext/snprintk.c:369
     77c:	f446 7680 	orr.w	r6, r6, #256	; 0x100
     780:	e693      	b.n	4aa <__vsnprintf+0x86>
/home/hsk/Desktop/devel/tee-tpm-hyp/optee_os/lib/libutils/ext/snprintk.c:372
     782:	f446 7600 	orr.w	r6, r6, #512	; 0x200
     786:	e690      	b.n	4aa <__vsnprintf+0x86>
/home/hsk/Desktop/devel/tee-tpm-hyp/optee_os/lib/libutils/ext/snprintk.c:375
     788:	f10d 0a78 	add.w	sl, sp, #120	; 0x78
/home/hsk/Desktop/devel/tee-tpm-hyp/optee_os/lib/libutils/ext/snprintk.c:285
     78c:	f04f 0900 	mov.w	r9, #0
/home/hsk/Desktop/devel/tee-tpm-hyp/optee_os/lib/libutils/ext/snprintk.c:375
     790:	f103 0b04 	add.w	fp, r3, #4
/home/hsk/Desktop/devel/tee-tpm-hyp/optee_os/lib/libutils/ext/snprintk.c:377
     794:	4648      	mov	r0, r9
/home/hsk/Desktop/devel/tee-tpm-hyp/optee_os/lib/libutils/ext/snprintk.c:375
     796:	681b      	ldr	r3, [r3, #0]
     798:	f80a 3d28 	strb.w	r3, [sl, #-40]!
/home/hsk/Desktop/devel/tee-tpm-hyp/optee_os/lib/libutils/ext/snprintk.c:376
     79c:	2301      	movs	r3, #1
     79e:	930a      	str	r3, [sp, #40]	; 0x28
/home/hsk/Desktop/devel/tee-tpm-hyp/optee_os/lib/libutils/ext/snprintk.c:565
     7a0:	9b0a      	ldr	r3, [sp, #40]	; 0x28
     7a2:	4283      	cmp	r3, r0
     7a4:	bfb8      	it	lt
     7a6:	4603      	movlt	r3, r0
/home/hsk/Desktop/devel/tee-tpm-hyp/optee_os/lib/libutils/ext/snprintk.c:566
     7a8:	f1b9 0f00 	cmp.w	r9, #0
     7ac:	f000 8156 	beq.w	a5c <__vsnprintf+0x638>
/home/hsk/Desktop/devel/tee-tpm-hyp/optee_os/lib/libutils/ext/snprintk.c:567
     7b0:	3301      	adds	r3, #1
/home/hsk/Desktop/devel/tee-tpm-hyp/optee_os/lib/libutils/ext/snprintk.c:572
     7b2:	9a0d      	ldr	r2, [sp, #52]	; 0x34
     7b4:	990c      	ldr	r1, [sp, #48]	; 0x30
     7b6:	429a      	cmp	r2, r3
     7b8:	bfb8      	it	lt
     7ba:	461a      	movlt	r2, r3
     7bc:	4411      	add	r1, r2
/home/hsk/Desktop/devel/tee-tpm-hyp/optee_os/lib/libutils/ext/snprintk.c:575
     7be:	f240 4204 	movw	r2, #1028	; 0x404
/home/hsk/Desktop/devel/tee-tpm-hyp/optee_os/lib/libutils/ext/snprintk.c:572
     7c2:	910c      	str	r1, [sp, #48]	; 0x30
/home/hsk/Desktop/devel/tee-tpm-hyp/optee_os/lib/libutils/ext/snprintk.c:575
     7c4:	ea16 0102 	ands.w	r1, r6, r2
     7c8:	d105      	bne.n	7d6 <__vsnprintf+0x3b2>
/home/hsk/Desktop/devel/tee-tpm-hyp/optee_os/lib/libutils/ext/snprintk.c:576
     7ca:	9a0d      	ldr	r2, [sp, #52]	; 0x34
/home/hsk/Desktop/devel/tee-tpm-hyp/optee_os/lib/libutils/ext/snprintk.c:578
     7cc:	2420      	movs	r4, #32
/home/hsk/Desktop/devel/tee-tpm-hyp/optee_os/lib/libutils/ext/snprintk.c:576
     7ce:	1ad2      	subs	r2, r2, r3
/home/hsk/Desktop/devel/tee-tpm-hyp/optee_os/lib/libutils/ext/snprintk.c:577
     7d0:	2a00      	cmp	r2, #0
     7d2:	f300 8147 	bgt.w	a64 <__vsnprintf+0x640>
/home/hsk/Desktop/devel/tee-tpm-hyp/optee_os/lib/libutils/ext/snprintk.c:582
     7d6:	f1b9 0f00 	cmp.w	r9, #0
     7da:	f000 8153 	beq.w	a84 <__vsnprintf+0x660>
/home/hsk/Desktop/devel/tee-tpm-hyp/optee_os/lib/libutils/ext/snprintk.c:583
     7de:	2f00      	cmp	r7, #0
     7e0:	f040 8148 	bne.w	a74 <__vsnprintf+0x650>
/home/hsk/Desktop/devel/tee-tpm-hyp/optee_os/lib/libutils/ext/snprintk.c:586
     7e4:	2700      	movs	r7, #0
/home/hsk/Desktop/devel/tee-tpm-hyp/optee_os/lib/libutils/ext/snprintk.c:590
     7e6:	f5b1 6f80 	cmp.w	r1, #1024	; 0x400
     7ea:	d105      	bne.n	7f8 <__vsnprintf+0x3d4>
/home/hsk/Desktop/devel/tee-tpm-hyp/optee_os/lib/libutils/ext/snprintk.c:591
     7ec:	9a0d      	ldr	r2, [sp, #52]	; 0x34
/home/hsk/Desktop/devel/tee-tpm-hyp/optee_os/lib/libutils/ext/snprintk.c:593
     7ee:	2130      	movs	r1, #48	; 0x30
/home/hsk/Desktop/devel/tee-tpm-hyp/optee_os/lib/libutils/ext/snprintk.c:591
     7f0:	1ad2      	subs	r2, r2, r3
/home/hsk/Desktop/devel/tee-tpm-hyp/optee_os/lib/libutils/ext/snprintk.c:592
     7f2:	2a00      	cmp	r2, #0
     7f4:	f300 815e 	bgt.w	ab4 <__vsnprintf+0x690>
/home/hsk/Desktop/devel/tee-tpm-hyp/optee_os/lib/libutils/ext/snprintk.c:597
     7f8:	9a0a      	ldr	r2, [sp, #40]	; 0x28
     7fa:	1a80      	subs	r0, r0, r2
/home/hsk/Desktop/devel/tee-tpm-hyp/optee_os/lib/libutils/ext/snprintk.c:599
     7fc:	2230      	movs	r2, #48	; 0x30
/home/hsk/Desktop/devel/tee-tpm-hyp/optee_os/lib/libutils/ext/snprintk.c:598
     7fe:	2800      	cmp	r0, #0
     800:	f300 8160 	bgt.w	ac4 <__vsnprintf+0x6a0>
     804:	2200      	movs	r2, #0
/home/hsk/Desktop/devel/tee-tpm-hyp/optee_os/lib/libutils/ext/snprintk.c:602
     806:	990a      	ldr	r1, [sp, #40]	; 0x28
     808:	428a      	cmp	r2, r1
     80a:	f040 8163 	bne.w	ad4 <__vsnprintf+0x6b0>
/home/hsk/Desktop/devel/tee-tpm-hyp/optee_os/lib/libutils/ext/snprintk.c:605
     80e:	0772      	lsls	r2, r6, #29
     810:	f57f ae19 	bpl.w	446 <__vsnprintf+0x22>
/home/hsk/Desktop/devel/tee-tpm-hyp/optee_os/lib/libutils/ext/snprintk.c:606
     814:	9a0d      	ldr	r2, [sp, #52]	; 0x34
     816:	1ad3      	subs	r3, r2, r3
/home/hsk/Desktop/devel/tee-tpm-hyp/optee_os/lib/libutils/ext/snprintk.c:608
     818:	2220      	movs	r2, #32
/home/hsk/Desktop/devel/tee-tpm-hyp/optee_os/lib/libutils/ext/snprintk.c:607
     81a:	2b00      	cmp	r3, #0
     81c:	f77f ae13 	ble.w	446 <__vsnprintf+0x22>
/home/hsk/Desktop/devel/tee-tpm-hyp/optee_os/lib/libutils/ext/snprintk.c:608
     820:	b127      	cbz	r7, 82c <__vsnprintf+0x408>
     822:	990e      	ldr	r1, [sp, #56]	; 0x38
     824:	42b9      	cmp	r1, r7
     826:	d901      	bls.n	82c <__vsnprintf+0x408>
     828:	703a      	strb	r2, [r7, #0]
     82a:	3701      	adds	r7, #1
     82c:	3b01      	subs	r3, #1
     82e:	e7f4      	b.n	81a <__vsnprintf+0x3f6>
/home/hsk/Desktop/devel/tee-tpm-hyp/optee_os/lib/libutils/ext/snprintk.c:380
     830:	f046 0610 	orr.w	r6, r6, #16
/home/hsk/Desktop/devel/tee-tpm-hyp/optee_os/lib/libutils/ext/snprintk.c:384
     834:	0631      	lsls	r1, r6, #24
     836:	d517      	bpl.n	868 <__vsnprintf+0x444>
     838:	3307      	adds	r3, #7
     83a:	f023 0307 	bic.w	r3, r3, #7
     83e:	f103 0b08 	add.w	fp, r3, #8
     842:	e9d3 4500 	ldrd	r4, r5, [r3]
/home/hsk/Desktop/devel/tee-tpm-hyp/optee_os/lib/libutils/ext/snprintk.c:385
     846:	2c00      	cmp	r4, #0
     848:	f175 0300 	sbcs.w	r3, r5, #0
     84c:	da04      	bge.n	858 <__vsnprintf+0x434>
/home/hsk/Desktop/devel/tee-tpm-hyp/optee_os/lib/libutils/ext/snprintk.c:386
     84e:	4264      	negs	r4, r4
/home/hsk/Desktop/devel/tee-tpm-hyp/optee_os/lib/libutils/ext/snprintk.c:387
     850:	f04f 092d 	mov.w	r9, #45	; 0x2d
/home/hsk/Desktop/devel/tee-tpm-hyp/optee_os/lib/libutils/ext/snprintk.c:386
     854:	eb65 0545 	sbc.w	r5, r5, r5, lsl #1
/home/hsk/Desktop/devel/tee-tpm-hyp/optee_os/lib/libutils/ext/snprintk.c:488
     858:	9b0a      	ldr	r3, [sp, #40]	; 0x28
     85a:	3301      	adds	r3, #1
     85c:	f040 80d8 	bne.w	a10 <__vsnprintf+0x5ec>
/home/hsk/Desktop/devel/tee-tpm-hyp/optee_os/lib/libutils/ext/snprintk.c:508
     860:	f10d 0375 	add.w	r3, sp, #117	; 0x75
     864:	9311      	str	r3, [sp, #68]	; 0x44
     866:	e0eb      	b.n	a40 <__vsnprintf+0x61c>
/home/hsk/Desktop/devel/tee-tpm-hyp/optee_os/lib/libutils/ext/snprintk.c:384
     868:	05f2      	lsls	r2, r6, #23
     86a:	d504      	bpl.n	876 <__vsnprintf+0x452>
     86c:	f103 0b04 	add.w	fp, r3, #4
     870:	681c      	ldr	r4, [r3, #0]
     872:	17e5      	asrs	r5, r4, #31
     874:	e7e7      	b.n	846 <__vsnprintf+0x422>
     876:	05b5      	lsls	r5, r6, #22
     878:	d4f8      	bmi.n	86c <__vsnprintf+0x448>
     87a:	06b4      	lsls	r4, r6, #26
     87c:	d4dc      	bmi.n	838 <__vsnprintf+0x414>
     87e:	f103 0b04 	add.w	fp, r3, #4
     882:	06f0      	lsls	r0, r6, #27
     884:	d4f4      	bmi.n	870 <__vsnprintf+0x44c>
     886:	f016 0f40 	tst.w	r6, #64	; 0x40
     88a:	681c      	ldr	r4, [r3, #0]
     88c:	d0f1      	beq.n	872 <__vsnprintf+0x44e>
     88e:	b224      	sxth	r4, r4
     890:	e7ef      	b.n	872 <__vsnprintf+0x44e>
     892:	469b      	mov	fp, r3
/home/hsk/Desktop/devel/tee-tpm-hyp/optee_os/lib/libutils/ext/snprintk.c:392
     894:	0631      	lsls	r1, r6, #24
     896:	f85b 3b04 	ldr.w	r3, [fp], #4
     89a:	d505      	bpl.n	8a8 <__vsnprintf+0x484>
/home/hsk/Desktop/devel/tee-tpm-hyp/optee_os/lib/libutils/ext/snprintk.c:399
     89c:	9a0c      	ldr	r2, [sp, #48]	; 0x30
     89e:	4610      	mov	r0, r2
     8a0:	17d1      	asrs	r1, r2, #31
     8a2:	e9c3 0100 	strd	r0, r1, [r3]
     8a6:	e5ce      	b.n	446 <__vsnprintf+0x22>
/home/hsk/Desktop/devel/tee-tpm-hyp/optee_os/lib/libutils/ext/snprintk.c:394
     8a8:	05f2      	lsls	r2, r6, #23
     8aa:	d502      	bpl.n	8b2 <__vsnprintf+0x48e>
/home/hsk/Desktop/devel/tee-tpm-hyp/optee_os/lib/libutils/ext/snprintk.c:405
     8ac:	9a0c      	ldr	r2, [sp, #48]	; 0x30
     8ae:	601a      	str	r2, [r3, #0]
     8b0:	e5c9      	b.n	446 <__vsnprintf+0x22>
/home/hsk/Desktop/devel/tee-tpm-hyp/optee_os/lib/libutils/ext/snprintk.c:396
     8b2:	05b5      	lsls	r5, r6, #22
     8b4:	d4fa      	bmi.n	8ac <__vsnprintf+0x488>
/home/hsk/Desktop/devel/tee-tpm-hyp/optee_os/lib/libutils/ext/snprintk.c:398
     8b6:	06b4      	lsls	r4, r6, #26
     8b8:	d4f0      	bmi.n	89c <__vsnprintf+0x478>
/home/hsk/Desktop/devel/tee-tpm-hyp/optee_os/lib/libutils/ext/snprintk.c:400
     8ba:	06f0      	lsls	r0, r6, #27
     8bc:	d4f6      	bmi.n	8ac <__vsnprintf+0x488>
/home/hsk/Desktop/devel/tee-tpm-hyp/optee_os/lib/libutils/ext/snprintk.c:402
     8be:	0671      	lsls	r1, r6, #25
     8c0:	d5f4      	bpl.n	8ac <__vsnprintf+0x488>
/home/hsk/Desktop/devel/tee-tpm-hyp/optee_os/lib/libutils/ext/snprintk.c:403
     8c2:	9a0c      	ldr	r2, [sp, #48]	; 0x30
     8c4:	801a      	strh	r2, [r3, #0]
     8c6:	e5be      	b.n	446 <__vsnprintf+0x22>
/home/hsk/Desktop/devel/tee-tpm-hyp/optee_os/lib/libutils/ext/snprintk.c:411
     8c8:	05f5      	lsls	r5, r6, #23
     8ca:	d503      	bpl.n	8d4 <__vsnprintf+0x4b0>
     8cc:	f103 0b04 	add.w	fp, r3, #4
     8d0:	681c      	ldr	r4, [r3, #0]
     8d2:	e00b      	b.n	8ec <__vsnprintf+0x4c8>
     8d4:	05b4      	lsls	r4, r6, #22
     8d6:	d4f9      	bmi.n	8cc <__vsnprintf+0x4a8>
     8d8:	06b0      	lsls	r0, r6, #26
     8da:	f53f ae43 	bmi.w	564 <__vsnprintf+0x140>
     8de:	f103 0b04 	add.w	fp, r3, #4
     8e2:	06f1      	lsls	r1, r6, #27
     8e4:	d4f4      	bmi.n	8d0 <__vsnprintf+0x4ac>
     8e6:	0672      	lsls	r2, r6, #25
     8e8:	d5f2      	bpl.n	8d0 <__vsnprintf+0x4ac>
     8ea:	881c      	ldrh	r4, [r3, #0]
     8ec:	2500      	movs	r5, #0
     8ee:	e640      	b.n	572 <__vsnprintf+0x14e>
     8f0:	469b      	mov	fp, r3
/home/hsk/Desktop/devel/tee-tpm-hyp/optee_os/lib/libutils/ext/snprintk.c:415
     8f2:	9b13      	ldr	r3, [sp, #76]	; 0x4c
     8f4:	f85b 4b04 	ldr.w	r4, [fp], #4
     8f8:	2b00      	cmp	r3, #0
     8fa:	d02b      	beq.n	954 <__vsnprintf+0x530>
     8fc:	9b0b      	ldr	r3, [sp, #44]	; 0x2c
     8fe:	781b      	ldrb	r3, [r3, #0]
     900:	2b55      	cmp	r3, #85	; 0x55
     902:	d127      	bne.n	954 <__vsnprintf+0x530>
     904:	9b0b      	ldr	r3, [sp, #44]	; 0x2c
     906:	785b      	ldrb	r3, [r3, #1]
     908:	2b6c      	cmp	r3, #108	; 0x6c
     90a:	d123      	bne.n	954 <__vsnprintf+0x530>
/home/hsk/Desktop/devel/tee-tpm-hyp/optee_os/lib/libutils/ext/snprintk.c:420
     90c:	9b0b      	ldr	r3, [sp, #44]	; 0x2c
uuid2str():
/home/hsk/Desktop/devel/tee-tpm-hyp/optee_os/lib/libutils/ext/snprintk.c:223
     90e:	f10d 0a50 	add.w	sl, sp, #80	; 0x50
     912:	4a80      	ldr	r2, [pc, #512]	; (b14 <__vsnprintf+0x6f0>)
     914:	2125      	movs	r1, #37	; 0x25
kprintf():
/home/hsk/Desktop/devel/tee-tpm-hyp/optee_os/lib/libutils/ext/snprintk.c:420
     916:	3302      	adds	r3, #2
     918:	930b      	str	r3, [sp, #44]	; 0x2c
uuid2str():
/home/hsk/Desktop/devel/tee-tpm-hyp/optee_os/lib/libutils/ext/snprintk.c:223
     91a:	7be3      	ldrb	r3, [r4, #15]
     91c:	447a      	add	r2, pc
     91e:	9309      	str	r3, [sp, #36]	; 0x24
     920:	4650      	mov	r0, sl
     922:	7ba3      	ldrb	r3, [r4, #14]
     924:	9308      	str	r3, [sp, #32]
     926:	7b63      	ldrb	r3, [r4, #13]
     928:	9307      	str	r3, [sp, #28]
     92a:	7b23      	ldrb	r3, [r4, #12]
     92c:	9306      	str	r3, [sp, #24]
     92e:	7ae3      	ldrb	r3, [r4, #11]
     930:	9305      	str	r3, [sp, #20]
     932:	7aa3      	ldrb	r3, [r4, #10]
     934:	9304      	str	r3, [sp, #16]
     936:	7a63      	ldrb	r3, [r4, #9]
     938:	9303      	str	r3, [sp, #12]
     93a:	7a23      	ldrb	r3, [r4, #8]
     93c:	9302      	str	r3, [sp, #8]
     93e:	88e3      	ldrh	r3, [r4, #6]
     940:	9301      	str	r3, [sp, #4]
     942:	88a3      	ldrh	r3, [r4, #4]
     944:	9300      	str	r3, [sp, #0]
     946:	6823      	ldr	r3, [r4, #0]
     948:	f000 f8f1 	bl	b2e <snprintk>
kprintf():
/home/hsk/Desktop/devel/tee-tpm-hyp/optee_os/lib/libutils/ext/snprintk.c:460
     94c:	900a      	str	r0, [sp, #40]	; 0x28
/home/hsk/Desktop/devel/tee-tpm-hyp/optee_os/lib/libutils/ext/snprintk.c:285
     94e:	2000      	movs	r0, #0
/home/hsk/Desktop/devel/tee-tpm-hyp/optee_os/lib/libutils/ext/snprintk.c:461
     950:	4681      	mov	r9, r0
     952:	e725      	b.n	7a0 <__vsnprintf+0x37c>
/home/hsk/Desktop/devel/tee-tpm-hyp/optee_os/lib/libutils/ext/snprintk.c:437
     954:	4b70      	ldr	r3, [pc, #448]	; (b18 <__vsnprintf+0x6f4>)
/home/hsk/Desktop/devel/tee-tpm-hyp/optee_os/lib/libutils/ext/snprintk.c:435
     956:	2500      	movs	r5, #0
/home/hsk/Desktop/devel/tee-tpm-hyp/optee_os/lib/libutils/ext/snprintk.c:438
     958:	f046 0602 	orr.w	r6, r6, #2
/home/hsk/Desktop/devel/tee-tpm-hyp/optee_os/lib/libutils/ext/snprintk.c:439
     95c:	f04f 0878 	mov.w	r8, #120	; 0x78
/home/hsk/Desktop/devel/tee-tpm-hyp/optee_os/lib/libutils/ext/snprintk.c:437
     960:	447b      	add	r3, pc
     962:	3311      	adds	r3, #17
     964:	930f      	str	r3, [sp, #60]	; 0x3c
/home/hsk/Desktop/devel/tee-tpm-hyp/optee_os/lib/libutils/ext/snprintk.c:488
     966:	9b0a      	ldr	r3, [sp, #40]	; 0x28
     968:	3301      	adds	r3, #1
     96a:	f47f ae8c 	bne.w	686 <__vsnprintf+0x262>
     96e:	f04f 0900 	mov.w	r9, #0
/home/hsk/Desktop/devel/tee-tpm-hyp/optee_os/lib/libutils/ext/snprintk.c:523
     972:	f10d 0a75 	add.w	sl, sp, #117	; 0x75
/home/hsk/Desktop/devel/tee-tpm-hyp/optee_os/lib/libutils/ext/snprintk.c:525
     976:	f004 030f 	and.w	r3, r4, #15
     97a:	9a0f      	ldr	r2, [sp, #60]	; 0x3c
     97c:	5cd3      	ldrb	r3, [r2, r3]
/home/hsk/Desktop/devel/tee-tpm-hyp/optee_os/lib/libutils/ext/snprintk.c:526
     97e:	092a      	lsrs	r2, r5, #4
/home/hsk/Desktop/devel/tee-tpm-hyp/optee_os/lib/libutils/ext/snprintk.c:525
     980:	f80a 3d01 	strb.w	r3, [sl, #-1]!
/home/hsk/Desktop/devel/tee-tpm-hyp/optee_os/lib/libutils/ext/snprintk.c:526
     984:	0923      	lsrs	r3, r4, #4
     986:	ea43 7305 	orr.w	r3, r3, r5, lsl #28
     98a:	4615      	mov	r5, r2
     98c:	461c      	mov	r4, r3
/home/hsk/Desktop/devel/tee-tpm-hyp/optee_os/lib/libutils/ext/snprintk.c:527
     98e:	ea54 0305 	orrs.w	r3, r4, r5
     992:	d1f0      	bne.n	976 <__vsnprintf+0x552>
     994:	e6a7      	b.n	6e6 <__vsnprintf+0x2c2>
/home/hsk/Desktop/devel/tee-tpm-hyp/optee_os/lib/libutils/ext/snprintk.c:460
     996:	4650      	mov	r0, sl
     998:	f005 f8c5 	bl	5b26 <strlen>
     99c:	e7d6      	b.n	94c <__vsnprintf+0x528>
/home/hsk/Desktop/devel/tee-tpm-hyp/optee_os/lib/libutils/ext/snprintk.c:464
     99e:	f046 0610 	orr.w	r6, r6, #16
     9a2:	e647      	b.n	634 <__vsnprintf+0x210>
/home/hsk/Desktop/devel/tee-tpm-hyp/optee_os/lib/libutils/ext/snprintk.c:467
     9a4:	f416 7980 	ands.w	r9, r6, #256	; 0x100
     9a8:	d004      	beq.n	9b4 <__vsnprintf+0x590>
     9aa:	681c      	ldr	r4, [r3, #0]
     9ac:	f103 0b04 	add.w	fp, r3, #4
     9b0:	2500      	movs	r5, #0
     9b2:	e64a      	b.n	64a <__vsnprintf+0x226>
     9b4:	f416 7200 	ands.w	r2, r6, #512	; 0x200
     9b8:	d004      	beq.n	9c4 <__vsnprintf+0x5a0>
     9ba:	f103 0b04 	add.w	fp, r3, #4
     9be:	681c      	ldr	r4, [r3, #0]
     9c0:	2500      	movs	r5, #0
     9c2:	e749      	b.n	858 <__vsnprintf+0x434>
     9c4:	f016 0920 	ands.w	r9, r6, #32
     9c8:	f47f ae38 	bne.w	63c <__vsnprintf+0x218>
     9cc:	f103 0b04 	add.w	fp, r3, #4
     9d0:	f016 0210 	ands.w	r2, r6, #16
     9d4:	d1f3      	bne.n	9be <__vsnprintf+0x59a>
     9d6:	f016 0940 	ands.w	r9, r6, #64	; 0x40
     9da:	d0f0      	beq.n	9be <__vsnprintf+0x59a>
     9dc:	881c      	ldrh	r4, [r3, #0]
     9de:	e7e7      	b.n	9b0 <__vsnprintf+0x58c>
/home/hsk/Desktop/devel/tee-tpm-hyp/optee_os/lib/libutils/ext/snprintk.c:474
     9e0:	4a4e      	ldr	r2, [pc, #312]	; (b1c <__vsnprintf+0x6f8>)
     9e2:	447a      	add	r2, pc
     9e4:	3211      	adds	r2, #17
     9e6:	e636      	b.n	656 <__vsnprintf+0x232>
/home/hsk/Desktop/devel/tee-tpm-hyp/optee_os/lib/libutils/ext/snprintk.c:475
     9e8:	05f0      	lsls	r0, r6, #23
     9ea:	d503      	bpl.n	9f4 <__vsnprintf+0x5d0>
     9ec:	f103 0b04 	add.w	fp, r3, #4
     9f0:	681c      	ldr	r4, [r3, #0]
     9f2:	e00b      	b.n	a0c <__vsnprintf+0x5e8>
     9f4:	05b1      	lsls	r1, r6, #22
     9f6:	d4f9      	bmi.n	9ec <__vsnprintf+0x5c8>
     9f8:	06b2      	lsls	r2, r6, #26
     9fa:	f53f ae30 	bmi.w	65e <__vsnprintf+0x23a>
     9fe:	f103 0b04 	add.w	fp, r3, #4
     a02:	06f5      	lsls	r5, r6, #27
     a04:	d4f4      	bmi.n	9f0 <__vsnprintf+0x5cc>
     a06:	0674      	lsls	r4, r6, #25
     a08:	d5f2      	bpl.n	9f0 <__vsnprintf+0x5cc>
     a0a:	881c      	ldrh	r4, [r3, #0]
     a0c:	2500      	movs	r5, #0
     a0e:	e62d      	b.n	66c <__vsnprintf+0x248>
/home/hsk/Desktop/devel/tee-tpm-hyp/optee_os/lib/libutils/ext/snprintk.c:488
     a10:	2301      	movs	r3, #1
     a12:	e63b      	b.n	68c <__vsnprintf+0x268>
/home/hsk/Desktop/devel/tee-tpm-hyp/optee_os/lib/libutils/ext/snprintk.c:508
     a14:	4653      	mov	r3, sl
     a16:	e64c      	b.n	6b2 <__vsnprintf+0x28e>
/home/hsk/Desktop/devel/tee-tpm-hyp/optee_os/lib/libutils/ext/snprintk.c:517
     a18:	4620      	mov	r0, r4
     a1a:	4629      	mov	r1, r5
     a1c:	220a      	movs	r2, #10
     a1e:	2300      	movs	r3, #0
     a20:	f000 e89e 	blx	b60 <__aeabi_uldivmod>
     a24:	9b11      	ldr	r3, [sp, #68]	; 0x44
     a26:	3230      	adds	r2, #48	; 0x30
/home/hsk/Desktop/devel/tee-tpm-hyp/optee_os/lib/libutils/ext/snprintk.c:518
     a28:	4620      	mov	r0, r4
     a2a:	4629      	mov	r1, r5
/home/hsk/Desktop/devel/tee-tpm-hyp/optee_os/lib/libutils/ext/snprintk.c:517
     a2c:	f803 2c01 	strb.w	r2, [r3, #-1]
/home/hsk/Desktop/devel/tee-tpm-hyp/optee_os/lib/libutils/ext/snprintk.c:518
     a30:	220a      	movs	r2, #10
     a32:	2300      	movs	r3, #0
     a34:	f000 e894 	blx	b60 <__aeabi_uldivmod>
     a38:	4604      	mov	r4, r0
     a3a:	460d      	mov	r5, r1
     a3c:	f8cd a044 	str.w	sl, [sp, #68]	; 0x44
     a40:	9b11      	ldr	r3, [sp, #68]	; 0x44
/home/hsk/Desktop/devel/tee-tpm-hyp/optee_os/lib/libutils/ext/snprintk.c:516
     a42:	2d00      	cmp	r5, #0
     a44:	bf08      	it	eq
     a46:	2c0a      	cmpeq	r4, #10
     a48:	f103 3aff 	add.w	sl, r3, #4294967295	; 0xffffffff
     a4c:	d2e4      	bcs.n	a18 <__vsnprintf+0x5f4>
/home/hsk/Desktop/devel/tee-tpm-hyp/optee_os/lib/libutils/ext/snprintk.c:520
     a4e:	3430      	adds	r4, #48	; 0x30
     a50:	f803 4c01 	strb.w	r4, [r3, #-1]
     a54:	e647      	b.n	6e6 <__vsnprintf+0x2c2>
/home/hsk/Desktop/devel/tee-tpm-hyp/optee_os/lib/libutils/ext/snprintk.c:496
     a56:	f10d 0a75 	add.w	sl, sp, #117	; 0x75
     a5a:	e644      	b.n	6e6 <__vsnprintf+0x2c2>
/home/hsk/Desktop/devel/tee-tpm-hyp/optee_os/lib/libutils/ext/snprintk.c:568
     a5c:	07b5      	lsls	r5, r6, #30
/home/hsk/Desktop/devel/tee-tpm-hyp/optee_os/lib/libutils/ext/snprintk.c:569
     a5e:	bf48      	it	mi
     a60:	3302      	addmi	r3, #2
     a62:	e6a6      	b.n	7b2 <__vsnprintf+0x38e>
/home/hsk/Desktop/devel/tee-tpm-hyp/optee_os/lib/libutils/ext/snprintk.c:578
     a64:	b127      	cbz	r7, a70 <__vsnprintf+0x64c>
     a66:	9d0e      	ldr	r5, [sp, #56]	; 0x38
     a68:	42bd      	cmp	r5, r7
     a6a:	d901      	bls.n	a70 <__vsnprintf+0x64c>
     a6c:	703c      	strb	r4, [r7, #0]
     a6e:	3701      	adds	r7, #1
     a70:	3a01      	subs	r2, #1
     a72:	e6ad      	b.n	7d0 <__vsnprintf+0x3ac>
/home/hsk/Desktop/devel/tee-tpm-hyp/optee_os/lib/libutils/ext/snprintk.c:583
     a74:	9a0e      	ldr	r2, [sp, #56]	; 0x38
     a76:	42ba      	cmp	r2, r7
     a78:	f67f aeb5 	bls.w	7e6 <__vsnprintf+0x3c2>
     a7c:	f887 9000 	strb.w	r9, [r7]
     a80:	3701      	adds	r7, #1
     a82:	e6b0      	b.n	7e6 <__vsnprintf+0x3c2>
/home/hsk/Desktop/devel/tee-tpm-hyp/optee_os/lib/libutils/ext/snprintk.c:584
     a84:	07b4      	lsls	r4, r6, #30
     a86:	f57f aeae 	bpl.w	7e6 <__vsnprintf+0x3c2>
/home/hsk/Desktop/devel/tee-tpm-hyp/optee_os/lib/libutils/ext/snprintk.c:585
     a8a:	2f00      	cmp	r7, #0
     a8c:	f43f aeaa 	beq.w	7e4 <__vsnprintf+0x3c0>
     a90:	9a0e      	ldr	r2, [sp, #56]	; 0x38
     a92:	42ba      	cmp	r2, r7
     a94:	f67f aea7 	bls.w	7e6 <__vsnprintf+0x3c2>
     a98:	2230      	movs	r2, #48	; 0x30
     a9a:	703a      	strb	r2, [r7, #0]
/home/hsk/Desktop/devel/tee-tpm-hyp/optee_os/lib/libutils/ext/snprintk.c:586
     a9c:	1c7a      	adds	r2, r7, #1
     a9e:	f43f aea1 	beq.w	7e4 <__vsnprintf+0x3c0>
     aa2:	9c0e      	ldr	r4, [sp, #56]	; 0x38
     aa4:	4294      	cmp	r4, r2
     aa6:	d903      	bls.n	ab0 <__vsnprintf+0x68c>
     aa8:	f887 8001 	strb.w	r8, [r7, #1]
     aac:	3702      	adds	r7, #2
     aae:	e69a      	b.n	7e6 <__vsnprintf+0x3c2>
     ab0:	4617      	mov	r7, r2
     ab2:	e698      	b.n	7e6 <__vsnprintf+0x3c2>
/home/hsk/Desktop/devel/tee-tpm-hyp/optee_os/lib/libutils/ext/snprintk.c:593
     ab4:	b127      	cbz	r7, ac0 <__vsnprintf+0x69c>
     ab6:	9c0e      	ldr	r4, [sp, #56]	; 0x38
     ab8:	42bc      	cmp	r4, r7
     aba:	d901      	bls.n	ac0 <__vsnprintf+0x69c>
     abc:	7039      	strb	r1, [r7, #0]
     abe:	3701      	adds	r7, #1
     ac0:	3a01      	subs	r2, #1
     ac2:	e696      	b.n	7f2 <__vsnprintf+0x3ce>
/home/hsk/Desktop/devel/tee-tpm-hyp/optee_os/lib/libutils/ext/snprintk.c:599
     ac4:	b127      	cbz	r7, ad0 <__vsnprintf+0x6ac>
     ac6:	990e      	ldr	r1, [sp, #56]	; 0x38
     ac8:	42b9      	cmp	r1, r7
     aca:	d901      	bls.n	ad0 <__vsnprintf+0x6ac>
     acc:	703a      	strb	r2, [r7, #0]
     ace:	3701      	adds	r7, #1
     ad0:	3801      	subs	r0, #1
     ad2:	e694      	b.n	7fe <__vsnprintf+0x3da>
/home/hsk/Desktop/devel/tee-tpm-hyp/optee_os/lib/libutils/ext/snprintk.c:603
     ad4:	b13f      	cbz	r7, ae6 <__vsnprintf+0x6c2>
     ad6:	990e      	ldr	r1, [sp, #56]	; 0x38
     ad8:	42b9      	cmp	r1, r7
     ada:	d904      	bls.n	ae6 <__vsnprintf+0x6c2>
     adc:	f81a 1002 	ldrb.w	r1, [sl, r2]
     ae0:	3701      	adds	r7, #1
     ae2:	f807 1c01 	strb.w	r1, [r7, #-1]
     ae6:	3201      	adds	r2, #1
     ae8:	e68d      	b.n	806 <__vsnprintf+0x3e2>
__vsnprintf():
/home/hsk/Desktop/devel/tee-tpm-hyp/optee_os/lib/libutils/ext/snprintk.c:148
     aea:	990c      	ldr	r1, [sp, #48]	; 0x30
     aec:	5453      	strb	r3, [r2, r1]
/home/hsk/Desktop/devel/tee-tpm-hyp/optee_os/lib/libutils/ext/snprintk.c:150
     aee:	e4bf      	b.n	470 <__vsnprintf+0x4c>
kprintf():
/home/hsk/Desktop/devel/tee-tpm-hyp/optee_os/lib/libutils/ext/snprintk.c:489
     af0:	f426 6680 	bic.w	r6, r6, #1024	; 0x400
/home/hsk/Desktop/devel/tee-tpm-hyp/optee_os/lib/libutils/ext/snprintk.c:482
     af4:	f04f 0900 	mov.w	r9, #0
/home/hsk/Desktop/devel/tee-tpm-hyp/optee_os/lib/libutils/ext/snprintk.c:476
     af8:	2302      	movs	r3, #2
     afa:	e5cc      	b.n	696 <__vsnprintf+0x272>
/home/hsk/Desktop/devel/tee-tpm-hyp/optee_os/lib/libutils/ext/snprintk.c:488
     afc:	9b0a      	ldr	r3, [sp, #40]	; 0x28
     afe:	3301      	adds	r3, #1
     b00:	d1f6      	bne.n	af0 <__vsnprintf+0x6cc>
     b02:	f04f 33ff 	mov.w	r3, #4294967295	; 0xffffffff
     b06:	930a      	str	r3, [sp, #40]	; 0x28
     b08:	e731      	b.n	96e <__vsnprintf+0x54a>
     b0a:	bf00      	nop
     b0c:	00005c99 	.word	0x00005c99
     b10:	00005c15 	.word	0x00005c15
     b14:	00005976 	.word	0x00005976
     b18:	00005909 	.word	0x00005909
     b1c:	00005887 	.word	0x00005887

00000b20 <vsnprintk>:
vsnprintk():
/home/hsk/Desktop/devel/tee-tpm-hyp/optee_os/lib/libutils/ext/snprintk.c:129
     b20:	b513      	push	{r0, r1, r4, lr}
/home/hsk/Desktop/devel/tee-tpm-hyp/optee_os/lib/libutils/ext/snprintk.c:130
     b22:	2401      	movs	r4, #1
     b24:	9400      	str	r4, [sp, #0]
     b26:	f7ff fc7d 	bl	424 <__vsnprintf>
/home/hsk/Desktop/devel/tee-tpm-hyp/optee_os/lib/libutils/ext/snprintk.c:131
     b2a:	b002      	add	sp, #8
     b2c:	bd10      	pop	{r4, pc}

00000b2e <snprintk>:
snprintk():
/home/hsk/Desktop/devel/tee-tpm-hyp/optee_os/lib/libutils/ext/snprintk.c:112
     b2e:	b40c      	push	{r2, r3}
     b30:	b507      	push	{r0, r1, r2, lr}
     b32:	ab04      	add	r3, sp, #16
     b34:	f853 2b04 	ldr.w	r2, [r3], #4
/home/hsk/Desktop/devel/tee-tpm-hyp/optee_os/lib/libutils/ext/snprintk.c:116
     b38:	9301      	str	r3, [sp, #4]
/home/hsk/Desktop/devel/tee-tpm-hyp/optee_os/lib/libutils/ext/snprintk.c:117
     b3a:	f7ff fff1 	bl	b20 <vsnprintk>
/home/hsk/Desktop/devel/tee-tpm-hyp/optee_os/lib/libutils/ext/snprintk.c:121
     b3e:	b003      	add	sp, #12
     b40:	f85d eb04 	ldr.w	lr, [sp], #4
     b44:	b002      	add	sp, #8
     b46:	4770      	bx	lr

00000b48 <__aeabi_ldivmod>:
__aeabi_ldivmod():
/home/hsk/Desktop/devel/tee-tpm-hyp/optee_os/lib/libutils/isoc/arch/arm/arm32_aeabi_ldivmod_a32.S:24
     b48:	e92d5000 	push	{ip, lr}
/home/hsk/Desktop/devel/tee-tpm-hyp/optee_os/lib/libutils/isoc/arch/arm/arm32_aeabi_ldivmod_a32.S:26
     b4c:	e92d000f 	push	{r0, r1, r2, r3}
/home/hsk/Desktop/devel/tee-tpm-hyp/optee_os/lib/libutils/isoc/arch/arm/arm32_aeabi_ldivmod_a32.S:28
     b50:	e1a0000d 	mov	r0, sp
/home/hsk/Desktop/devel/tee-tpm-hyp/optee_os/lib/libutils/isoc/arch/arm/arm32_aeabi_ldivmod_a32.S:29
     b54:	fa001414 	blx	5bac <__l_divmod>
/home/hsk/Desktop/devel/tee-tpm-hyp/optee_os/lib/libutils/isoc/arch/arm/arm32_aeabi_ldivmod_a32.S:30
     b58:	e8bd000f 	pop	{r0, r1, r2, r3}
/home/hsk/Desktop/devel/tee-tpm-hyp/optee_os/lib/libutils/isoc/arch/arm/arm32_aeabi_ldivmod_a32.S:31
     b5c:	e8bd9000 	pop	{ip, pc}

00000b60 <__aeabi_uldivmod>:
__aeabi_uldivmod():
/home/hsk/Desktop/devel/tee-tpm-hyp/optee_os/lib/libutils/isoc/arch/arm/arm32_aeabi_ldivmod_a32.S:42
     b60:	e92d5000 	push	{ip, lr}
/home/hsk/Desktop/devel/tee-tpm-hyp/optee_os/lib/libutils/isoc/arch/arm/arm32_aeabi_ldivmod_a32.S:44
     b64:	e92d000f 	push	{r0, r1, r2, r3}
/home/hsk/Desktop/devel/tee-tpm-hyp/optee_os/lib/libutils/isoc/arch/arm/arm32_aeabi_ldivmod_a32.S:46
     b68:	e1a0000d 	mov	r0, sp
/home/hsk/Desktop/devel/tee-tpm-hyp/optee_os/lib/libutils/isoc/arch/arm/arm32_aeabi_ldivmod_a32.S:47
     b6c:	fb0013f0 	blx	5b36 <__ul_divmod>
/home/hsk/Desktop/devel/tee-tpm-hyp/optee_os/lib/libutils/isoc/arch/arm/arm32_aeabi_ldivmod_a32.S:48
     b70:	e8bd000f 	pop	{r0, r1, r2, r3}
/home/hsk/Desktop/devel/tee-tpm-hyp/optee_os/lib/libutils/isoc/arch/arm/arm32_aeabi_ldivmod_a32.S:49
     b74:	e8bd9000 	pop	{ip, pc}

00000b78 <trace_ext_puts>:
trace_ext_puts():
/home/hsk/Desktop/devel/tee-tpm-hyp/optee_os/lib/libutee/trace_ext.c:17
     b78:	b510      	push	{r4, lr}
     b7a:	4604      	mov	r4, r0
/home/hsk/Desktop/devel/tee-tpm-hyp/optee_os/lib/libutee/trace_ext.c:18
     b7c:	f004 ffd3 	bl	5b26 <strlen>
     b80:	4601      	mov	r1, r0
     b82:	4620      	mov	r0, r4
/home/hsk/Desktop/devel/tee-tpm-hyp/optee_os/lib/libutee/trace_ext.c:19
     b84:	e8bd 4010 	ldmia.w	sp!, {r4, lr}
/home/hsk/Desktop/devel/tee-tpm-hyp/optee_os/lib/libutee/trace_ext.c:18
     b88:	f005 b8f2 	b.w	5d70 <__utee_log_from_thumb>

00000b8c <trace_ext_get_thread_id>:
trace_ext_get_thread_id():
/home/hsk/Desktop/devel/tee-tpm-hyp/optee_os/lib/libutee/trace_ext.c:24
     b8c:	f04f 30ff 	mov.w	r0, #4294967295	; 0xffffffff
     b90:	4770      	bx	lr

00000b92 <printf>:
printf():
/home/hsk/Desktop/devel/tee-tpm-hyp/optee_os/lib/libutee/trace_ext.c:32
     b92:	b40f      	push	{r0, r1, r2, r3}
     b94:	b530      	push	{r4, r5, lr}
     b96:	b0c3      	sub	sp, #268	; 0x10c
/home/hsk/Desktop/devel/tee-tpm-hyp/optee_os/lib/libutee/trace_ext.c:37
     b98:	f7ff fb20 	bl	1dc <trace_get_level>
     b9c:	2800      	cmp	r0, #0
     b9e:	dd13      	ble.n	bc8 <printf+0x36>
/home/hsk/Desktop/devel/tee-tpm-hyp/optee_os/lib/libutee/trace_ext.c:41
     ba0:	ad02      	add	r5, sp, #8
/home/hsk/Desktop/devel/tee-tpm-hyp/optee_os/lib/libutee/trace_ext.c:40
     ba2:	ab47      	add	r3, sp, #284	; 0x11c
/home/hsk/Desktop/devel/tee-tpm-hyp/optee_os/lib/libutee/trace_ext.c:41
     ba4:	9a46      	ldr	r2, [sp, #280]	; 0x118
     ba6:	f44f 7180 	mov.w	r1, #256	; 0x100
     baa:	4628      	mov	r0, r5
/home/hsk/Desktop/devel/tee-tpm-hyp/optee_os/lib/libutee/trace_ext.c:40
     bac:	9301      	str	r3, [sp, #4]
/home/hsk/Desktop/devel/tee-tpm-hyp/optee_os/lib/libutee/trace_ext.c:41
     bae:	f005 f882 	bl	5cb6 <vsnprintf>
/home/hsk/Desktop/devel/tee-tpm-hyp/optee_os/lib/libutee/trace_ext.c:44
     bb2:	1e04      	subs	r4, r0, #0
     bb4:	db02      	blt.n	bbc <printf+0x2a>
/home/hsk/Desktop/devel/tee-tpm-hyp/optee_os/lib/libutee/trace_ext.c:47
     bb6:	4628      	mov	r0, r5
     bb8:	f7ff ffde 	bl	b78 <trace_ext_puts>
/home/hsk/Desktop/devel/tee-tpm-hyp/optee_os/lib/libutee/trace_ext.c:50
     bbc:	4620      	mov	r0, r4
     bbe:	b043      	add	sp, #268	; 0x10c
     bc0:	e8bd 4030 	ldmia.w	sp!, {r4, r5, lr}
     bc4:	b004      	add	sp, #16
     bc6:	4770      	bx	lr
/home/hsk/Desktop/devel/tee-tpm-hyp/optee_os/lib/libutee/trace_ext.c:38
     bc8:	2400      	movs	r4, #0
     bca:	e7f7      	b.n	bbc <printf+0x2a>

00000bcc <puts>:
puts():
/home/hsk/Desktop/devel/tee-tpm-hyp/optee_os/lib/libutee/trace_ext.c:53
     bcc:	b510      	push	{r4, lr}
     bce:	4604      	mov	r4, r0
/home/hsk/Desktop/devel/tee-tpm-hyp/optee_os/lib/libutee/trace_ext.c:54
     bd0:	f7ff fb04 	bl	1dc <trace_get_level>
     bd4:	2800      	cmp	r0, #0
     bd6:	dd06      	ble.n	be6 <puts+0x1a>
/home/hsk/Desktop/devel/tee-tpm-hyp/optee_os/lib/libutee/trace_ext.c:55
     bd8:	4620      	mov	r0, r4
     bda:	f7ff ffcd 	bl	b78 <trace_ext_puts>
/home/hsk/Desktop/devel/tee-tpm-hyp/optee_os/lib/libutee/trace_ext.c:56
     bde:	4803      	ldr	r0, [pc, #12]	; (bec <puts+0x20>)
     be0:	4478      	add	r0, pc
     be2:	f7ff ffc9 	bl	b78 <trace_ext_puts>
/home/hsk/Desktop/devel/tee-tpm-hyp/optee_os/lib/libutee/trace_ext.c:59
     be6:	2001      	movs	r0, #1
     be8:	bd10      	pop	{r4, pc}
     bea:	bf00      	nop
     bec:	00005508 	.word	0x00005508

00000bf0 <putchar>:
putchar():
/home/hsk/Desktop/devel/tee-tpm-hyp/optee_os/lib/libutee/trace_ext.c:62
     bf0:	b513      	push	{r0, r1, r4, lr}
/home/hsk/Desktop/devel/tee-tpm-hyp/optee_os/lib/libutee/trace_ext.c:63
     bf2:	2300      	movs	r3, #0
/home/hsk/Desktop/devel/tee-tpm-hyp/optee_os/lib/libutee/trace_ext.c:62
     bf4:	4604      	mov	r4, r0
/home/hsk/Desktop/devel/tee-tpm-hyp/optee_os/lib/libutee/trace_ext.c:63
     bf6:	f88d 0004 	strb.w	r0, [sp, #4]
     bfa:	f88d 3005 	strb.w	r3, [sp, #5]
/home/hsk/Desktop/devel/tee-tpm-hyp/optee_os/lib/libutee/trace_ext.c:65
     bfe:	f7ff faed 	bl	1dc <trace_get_level>
     c02:	2800      	cmp	r0, #0
     c04:	dd02      	ble.n	c0c <putchar+0x1c>
/home/hsk/Desktop/devel/tee-tpm-hyp/optee_os/lib/libutee/trace_ext.c:66
     c06:	a801      	add	r0, sp, #4
     c08:	f7ff ffb6 	bl	b78 <trace_ext_puts>
/home/hsk/Desktop/devel/tee-tpm-hyp/optee_os/lib/libutee/trace_ext.c:73
     c0c:	b2e0      	uxtb	r0, r4
     c0e:	b002      	add	sp, #8
     c10:	bd10      	pop	{r4, pc}
     c12:	bf00      	nop

00000c14 <ta_header_get_session>:
ta_header_get_session():
/home/hsk/Desktop/devel/tee-tpm-hyp/optee_os/lib/libutee/arch/arm/user_ta_entry.c:81
     c14:	4b05      	ldr	r3, [pc, #20]	; (c2c <ta_header_get_session+0x18>)
     c16:	447b      	add	r3, pc
     c18:	681b      	ldr	r3, [r3, #0]
/home/hsk/Desktop/devel/tee-tpm-hyp/optee_os/lib/libutee/arch/arm/user_ta_entry.c:81 (discriminator 1)
     c1a:	b90b      	cbnz	r3, c20 <ta_header_get_session+0xc>
/home/hsk/Desktop/devel/tee-tpm-hyp/optee_os/lib/libutee/arch/arm/user_ta_entry.c:86
     c1c:	4618      	mov	r0, r3
     c1e:	4770      	bx	lr
/home/hsk/Desktop/devel/tee-tpm-hyp/optee_os/lib/libutee/arch/arm/user_ta_entry.c:82
     c20:	681a      	ldr	r2, [r3, #0]
     c22:	4282      	cmp	r2, r0
     c24:	d0fa      	beq.n	c1c <ta_header_get_session+0x8>
/home/hsk/Desktop/devel/tee-tpm-hyp/optee_os/lib/libutee/arch/arm/user_ta_entry.c:81 (discriminator 2)
     c26:	689b      	ldr	r3, [r3, #8]
     c28:	e7f7      	b.n	c1a <ta_header_get_session+0x6>
     c2a:	bf00      	nop
     c2c:	0000745a 	.word	0x0000745a

00000c30 <ta_header_remove_session>:
ta_header_remove_session():
/home/hsk/Desktop/devel/tee-tpm-hyp/optee_os/lib/libutee/arch/arm/user_ta_entry.c:119
     c30:	4b14      	ldr	r3, [pc, #80]	; (c84 <ta_header_remove_session+0x54>)
/home/hsk/Desktop/devel/tee-tpm-hyp/optee_os/lib/libutee/arch/arm/user_ta_entry.c:115
     c32:	b510      	push	{r4, lr}
/home/hsk/Desktop/devel/tee-tpm-hyp/optee_os/lib/libutee/arch/arm/user_ta_entry.c:119
     c34:	447b      	add	r3, pc
/home/hsk/Desktop/devel/tee-tpm-hyp/optee_os/lib/libutee/arch/arm/user_ta_entry.c:115
     c36:	4c14      	ldr	r4, [pc, #80]	; (c88 <ta_header_remove_session+0x58>)
/home/hsk/Desktop/devel/tee-tpm-hyp/optee_os/lib/libutee/arch/arm/user_ta_entry.c:119
     c38:	681b      	ldr	r3, [r3, #0]
/home/hsk/Desktop/devel/tee-tpm-hyp/optee_os/lib/libutee/arch/arm/user_ta_entry.c:115
     c3a:	447c      	add	r4, pc
/home/hsk/Desktop/devel/tee-tpm-hyp/optee_os/lib/libutee/arch/arm/user_ta_entry.c:119 (discriminator 1)
     c3c:	b903      	cbnz	r3, c40 <ta_header_remove_session+0x10>
/home/hsk/Desktop/devel/tee-tpm-hyp/optee_os/lib/libutee/arch/arm/user_ta_entry.c:133
     c3e:	bd10      	pop	{r4, pc}
/home/hsk/Desktop/devel/tee-tpm-hyp/optee_os/lib/libutee/arch/arm/user_ta_entry.c:120
     c40:	6819      	ldr	r1, [r3, #0]
     c42:	689a      	ldr	r2, [r3, #8]
     c44:	4281      	cmp	r1, r0
     c46:	d11b      	bne.n	c80 <ta_header_remove_session+0x50>
     c48:	68d9      	ldr	r1, [r3, #12]
/home/hsk/Desktop/devel/tee-tpm-hyp/optee_os/lib/libutee/arch/arm/user_ta_entry.c:121
     c4a:	b1aa      	cbz	r2, c78 <ta_header_remove_session+0x48>
/home/hsk/Desktop/devel/tee-tpm-hyp/optee_os/lib/libutee/arch/arm/user_ta_entry.c:121 (discriminator 1)
     c4c:	60d1      	str	r1, [r2, #12]
/home/hsk/Desktop/devel/tee-tpm-hyp/optee_os/lib/libutee/arch/arm/user_ta_entry.c:121 (discriminator 4)
     c4e:	68d9      	ldr	r1, [r3, #12]
/home/hsk/Desktop/devel/tee-tpm-hyp/optee_os/lib/libutee/arch/arm/user_ta_entry.c:122 (discriminator 4)
     c50:	4618      	mov	r0, r3
/home/hsk/Desktop/devel/tee-tpm-hyp/optee_os/lib/libutee/arch/arm/user_ta_entry.c:121 (discriminator 4)
     c52:	600a      	str	r2, [r1, #0]
/home/hsk/Desktop/devel/tee-tpm-hyp/optee_os/lib/libutee/arch/arm/user_ta_entry.c:122 (discriminator 4)
     c54:	f000 fca8 	bl	15a8 <TEE_Free>
/home/hsk/Desktop/devel/tee-tpm-hyp/optee_os/lib/libutee/arch/arm/user_ta_entry.c:127 (discriminator 4)
     c58:	4b0c      	ldr	r3, [pc, #48]	; (c8c <ta_header_remove_session+0x5c>)
     c5a:	447b      	add	r3, pc
     c5c:	681b      	ldr	r3, [r3, #0]
     c5e:	2b00      	cmp	r3, #0
     c60:	d1ed      	bne.n	c3e <ta_header_remove_session+0xe>
/home/hsk/Desktop/devel/tee-tpm-hyp/optee_os/lib/libutee/arch/arm/user_ta_entry.c:125 (discriminator 1)
     c62:	4b0b      	ldr	r3, [pc, #44]	; (c90 <ta_header_remove_session+0x60>)
     c64:	58e3      	ldr	r3, [r4, r3]
     c66:	695b      	ldr	r3, [r3, #20]
     c68:	f003 0314 	and.w	r3, r3, #20
/home/hsk/Desktop/devel/tee-tpm-hyp/optee_os/lib/libutee/arch/arm/user_ta_entry.c:127 (discriminator 1)
     c6c:	2b14      	cmp	r3, #20
     c6e:	d0e6      	beq.n	c3e <ta_header_remove_session+0xe>
/home/hsk/Desktop/devel/tee-tpm-hyp/optee_os/lib/libutee/arch/arm/user_ta_entry.c:133
     c70:	e8bd 4010 	ldmia.w	sp!, {r4, lr}
uninit_instance():
/home/hsk/Desktop/devel/tee-tpm-hyp/optee_os/lib/libutee/arch/arm/user_ta_entry.c:63
     c74:	f7ff b9e8 	b.w	48 <TA_DestroyEntryPoint>
ta_header_remove_session():
/home/hsk/Desktop/devel/tee-tpm-hyp/optee_os/lib/libutee/arch/arm/user_ta_entry.c:121 (discriminator 2)
     c78:	4806      	ldr	r0, [pc, #24]	; (c94 <ta_header_remove_session+0x64>)
     c7a:	4478      	add	r0, pc
     c7c:	6041      	str	r1, [r0, #4]
     c7e:	e7e6      	b.n	c4e <ta_header_remove_session+0x1e>
     c80:	4613      	mov	r3, r2
     c82:	e7db      	b.n	c3c <ta_header_remove_session+0xc>
     c84:	0000743c 	.word	0x0000743c
     c88:	000067de 	.word	0x000067de
     c8c:	00007416 	.word	0x00007416
     c90:	0000002c 	.word	0x0000002c
     c94:	000073f6 	.word	0x000073f6

00000c98 <__utee_entry>:
__utee_entry():
/home/hsk/Desktop/devel/tee-tpm-hyp/optee_os/lib/libutee/arch/arm/user_ta_entry.c:200
     c98:	b580      	push	{r7, lr}
     c9a:	4616      	mov	r6, r2
     c9c:	4c59      	ldr	r4, [pc, #356]	; (e04 <__utee_entry+0x16c>)
     c9e:	b08c      	sub	sp, #48	; 0x30
     ca0:	460f      	mov	r7, r1
     ca2:	447c      	add	r4, pc
     ca4:	4698      	mov	r8, r3
/home/hsk/Desktop/devel/tee-tpm-hyp/optee_os/lib/libutee/arch/arm/user_ta_entry.c:211
     ca6:	2801      	cmp	r0, #1
     ca8:	d073      	beq.n	d92 <__utee_entry+0xfa>
     caa:	d307      	bcc.n	cbc <__utee_entry+0x24>
     cac:	2802      	cmp	r0, #2
     cae:	d07c      	beq.n	daa <__utee_entry+0x112>
/home/hsk/Desktop/devel/tee-tpm-hyp/optee_os/lib/libutee/arch/arm/user_ta_entry.c:223
     cb0:	2000      	movs	r0, #0
/home/hsk/Desktop/devel/tee-tpm-hyp/optee_os/lib/libutee/arch/arm/user_ta_entry.c:222
     cb2:	f04f 34ff 	mov.w	r4, #4294967295	; 0xffffffff
/home/hsk/Desktop/devel/tee-tpm-hyp/optee_os/lib/libutee/arch/arm/user_ta_entry.c:223
     cb6:	f004 ffed 	bl	5c94 <TEE_Panic>
/home/hsk/Desktop/devel/tee-tpm-hyp/optee_os/lib/libutee/arch/arm/user_ta_entry.c:224
     cba:	e026      	b.n	d0a <__utee_entry+0x72>
ta_header_add_session():
/home/hsk/Desktop/devel/tee-tpm-hyp/optee_os/lib/libutee/arch/arm/user_ta_entry.c:90
     cbc:	4608      	mov	r0, r1
     cbe:	f7ff ffa9 	bl	c14 <ta_header_get_session>
/home/hsk/Desktop/devel/tee-tpm-hyp/optee_os/lib/libutee/arch/arm/user_ta_entry.c:93
     cc2:	2800      	cmp	r0, #0
     cc4:	d138      	bne.n	d38 <__utee_entry+0xa0>
/home/hsk/Desktop/devel/tee-tpm-hyp/optee_os/lib/libutee/arch/arm/user_ta_entry.c:96
     cc6:	4b50      	ldr	r3, [pc, #320]	; (e08 <__utee_entry+0x170>)
     cc8:	447b      	add	r3, pc
     cca:	781a      	ldrb	r2, [r3, #0]
     ccc:	b13a      	cbz	r2, cde <__utee_entry+0x46>
/home/hsk/Desktop/devel/tee-tpm-hyp/optee_os/lib/libutee/arch/arm/user_ta_entry.c:103
     cce:	f04f 4100 	mov.w	r1, #2147483648	; 0x80000000
     cd2:	2010      	movs	r0, #16
     cd4:	f000 fc41 	bl	155a <TEE_Malloc>
/home/hsk/Desktop/devel/tee-tpm-hyp/optee_os/lib/libutee/arch/arm/user_ta_entry.c:105
     cd8:	bb18      	cbnz	r0, d22 <__utee_entry+0x8a>
/home/hsk/Desktop/devel/tee-tpm-hyp/optee_os/lib/libutee/arch/arm/user_ta_entry.c:106
     cda:	4c48      	ldr	r4, [pc, #288]	; (dfc <__utee_entry+0x164>)
     cdc:	e015      	b.n	d0a <__utee_entry+0x72>
/home/hsk/Desktop/devel/tee-tpm-hyp/optee_os/lib/libutee/arch/arm/user_ta_entry.c:97
     cde:	2201      	movs	r2, #1
     ce0:	701a      	strb	r2, [r3, #0]
init_instance():
/home/hsk/Desktop/devel/tee-tpm-hyp/optee_os/lib/libutee/arch/arm/user_ta_entry.c:53
     ce2:	f004 ff0d 	bl	5b00 <tahead_get_trace_level>
     ce6:	f7ff fa6a 	bl	1be <trace_set_level>
/home/hsk/Desktop/devel/tee-tpm-hyp/optee_os/lib/libutee/arch/arm/user_ta_entry.c:55
     cea:	4b48      	ldr	r3, [pc, #288]	; (e0c <__utee_entry+0x174>)
     cec:	4a48      	ldr	r2, [pc, #288]	; (e10 <__utee_entry+0x178>)
     cee:	58e3      	ldr	r3, [r4, r3]
     cf0:	58a2      	ldr	r2, [r4, r2]
     cf2:	9201      	str	r2, [sp, #4]
     cf4:	6819      	ldr	r1, [r3, #0]
     cf6:	4610      	mov	r0, r2
     cf8:	f004 fd54 	bl	57a4 <malloc_add_pool>
/home/hsk/Desktop/devel/tee-tpm-hyp/optee_os/lib/libutee/arch/arm/user_ta_entry.c:56
     cfc:	f000 ff36 	bl	1b6c <_TEE_MathAPI_Init>
/home/hsk/Desktop/devel/tee-tpm-hyp/optee_os/lib/libutee/arch/arm/user_ta_entry.c:57
     d00:	f7ff f98e 	bl	20 <TA_CreateEntryPoint>
ta_header_add_session():
/home/hsk/Desktop/devel/tee-tpm-hyp/optee_os/lib/libutee/arch/arm/user_ta_entry.c:99
     d04:	4604      	mov	r4, r0
     d06:	2800      	cmp	r0, #0
     d08:	d0e1      	beq.n	cce <__utee_entry+0x36>
ta_header_save_params():
/home/hsk/Desktop/devel/tee-tpm-hyp/optee_os/lib/libutee/arch/arm/user_ta_entry.c:69
     d0a:	4842      	ldr	r0, [pc, #264]	; (e14 <__utee_entry+0x17c>)
     d0c:	2100      	movs	r1, #0
/home/hsk/Desktop/devel/tee-tpm-hyp/optee_os/lib/libutee/arch/arm/user_ta_entry.c:74
     d0e:	2220      	movs	r2, #32
/home/hsk/Desktop/devel/tee-tpm-hyp/optee_os/lib/libutee/arch/arm/user_ta_entry.c:69
     d10:	4478      	add	r0, pc
/home/hsk/Desktop/devel/tee-tpm-hyp/optee_os/lib/libutee/arch/arm/user_ta_entry.c:74
     d12:	3008      	adds	r0, #8
/home/hsk/Desktop/devel/tee-tpm-hyp/optee_os/lib/libutee/arch/arm/user_ta_entry.c:69
     d14:	f840 1c04 	str.w	r1, [r0, #-4]
/home/hsk/Desktop/devel/tee-tpm-hyp/optee_os/lib/libutee/arch/arm/user_ta_entry.c:74
     d18:	f005 f807 	bl	5d2a <memset>
__utee_entry():
/home/hsk/Desktop/devel/tee-tpm-hyp/optee_os/lib/libutee/arch/arm/user_ta_entry.c:227
     d1c:	4620      	mov	r0, r4
     d1e:	f000 e88c 	blx	e38 <utee_return>
ta_header_add_session():
/home/hsk/Desktop/devel/tee-tpm-hyp/optee_os/lib/libutee/arch/arm/user_ta_entry.c:108
     d22:	2300      	movs	r3, #0
     d24:	6043      	str	r3, [r0, #4]
/home/hsk/Desktop/devel/tee-tpm-hyp/optee_os/lib/libutee/arch/arm/user_ta_entry.c:109
     d26:	6083      	str	r3, [r0, #8]
     d28:	4b3b      	ldr	r3, [pc, #236]	; (e18 <__utee_entry+0x180>)
/home/hsk/Desktop/devel/tee-tpm-hyp/optee_os/lib/libutee/arch/arm/user_ta_entry.c:107
     d2a:	6007      	str	r7, [r0, #0]
/home/hsk/Desktop/devel/tee-tpm-hyp/optee_os/lib/libutee/arch/arm/user_ta_entry.c:109
     d2c:	447b      	add	r3, pc
     d2e:	685a      	ldr	r2, [r3, #4]
     d30:	60c2      	str	r2, [r0, #12]
     d32:	6010      	str	r0, [r2, #0]
     d34:	3008      	adds	r0, #8
     d36:	6058      	str	r0, [r3, #4]
entry_open_session():
/home/hsk/Desktop/devel/tee-tpm-hyp/optee_os/lib/libutee/arch/arm/user_ta_entry.c:147
     d38:	4638      	mov	r0, r7
     d3a:	f7ff ff6b 	bl	c14 <ta_header_get_session>
/home/hsk/Desktop/devel/tee-tpm-hyp/optee_os/lib/libutee/arch/arm/user_ta_entry.c:148
     d3e:	4681      	mov	r9, r0
     d40:	2800      	cmp	r0, #0
     d42:	d059      	beq.n	df8 <__utee_entry+0x160>
/home/hsk/Desktop/devel/tee-tpm-hyp/optee_os/lib/libutee/arch/arm/user_ta_entry.c:151
     d44:	f10d 0810 	add.w	r8, sp, #16
ta_header_save_params():
/home/hsk/Desktop/devel/tee-tpm-hyp/optee_os/lib/libutee/arch/arm/user_ta_entry.c:69
     d48:	4c34      	ldr	r4, [pc, #208]	; (e1c <__utee_entry+0x184>)
/home/hsk/Desktop/devel/tee-tpm-hyp/optee_os/lib/libutee/arch/arm/user_ta_entry.c:72
     d4a:	4645      	mov	r5, r8
entry_open_session():
/home/hsk/Desktop/devel/tee-tpm-hyp/optee_os/lib/libutee/arch/arm/user_ta_entry.c:151
     d4c:	4632      	mov	r2, r6
     d4e:	a903      	add	r1, sp, #12
     d50:	4640      	mov	r0, r8
ta_header_save_params():
/home/hsk/Desktop/devel/tee-tpm-hyp/optee_os/lib/libutee/arch/arm/user_ta_entry.c:69
     d52:	447c      	add	r4, pc
entry_open_session():
/home/hsk/Desktop/devel/tee-tpm-hyp/optee_os/lib/libutee/arch/arm/user_ta_entry.c:151
     d54:	f000 faeb 	bl	132e <__utee_to_param>
ta_header_save_params():
/home/hsk/Desktop/devel/tee-tpm-hyp/optee_os/lib/libutee/arch/arm/user_ta_entry.c:72
     d58:	cd0f      	ldmia	r5!, {r0, r1, r2, r3}
     d5a:	3408      	adds	r4, #8
entry_open_session():
/home/hsk/Desktop/devel/tee-tpm-hyp/optee_os/lib/libutee/arch/arm/user_ta_entry.c:152
     d5c:	f8dd c00c 	ldr.w	ip, [sp, #12]
ta_header_save_params():
/home/hsk/Desktop/devel/tee-tpm-hyp/optee_os/lib/libutee/arch/arm/user_ta_entry.c:69
     d60:	f844 cc04 	str.w	ip, [r4, #-4]
/home/hsk/Desktop/devel/tee-tpm-hyp/optee_os/lib/libutee/arch/arm/user_ta_entry.c:72
     d64:	c40f      	stmia	r4!, {r0, r1, r2, r3}
     d66:	e895 000f 	ldmia.w	r5, {r0, r1, r2, r3}
     d6a:	e884 000f 	stmia.w	r4, {r0, r1, r2, r3}
entry_open_session():
/home/hsk/Desktop/devel/tee-tpm-hyp/optee_os/lib/libutee/arch/arm/user_ta_entry.c:154
     d6e:	f109 0204 	add.w	r2, r9, #4
     d72:	4641      	mov	r1, r8
     d74:	4660      	mov	r0, ip
     d76:	f7ff f97b 	bl	70 <TA_OpenSessionEntryPoint>
/home/hsk/Desktop/devel/tee-tpm-hyp/optee_os/lib/libutee/arch/arm/user_ta_entry.c:157
     d7a:	4642      	mov	r2, r8
/home/hsk/Desktop/devel/tee-tpm-hyp/optee_os/lib/libutee/arch/arm/user_ta_entry.c:154
     d7c:	4604      	mov	r4, r0
/home/hsk/Desktop/devel/tee-tpm-hyp/optee_os/lib/libutee/arch/arm/user_ta_entry.c:157
     d7e:	9903      	ldr	r1, [sp, #12]
     d80:	4630      	mov	r0, r6
     d82:	f000 faad 	bl	12e0 <__utee_from_param>
/home/hsk/Desktop/devel/tee-tpm-hyp/optee_os/lib/libutee/arch/arm/user_ta_entry.c:159
     d86:	2c00      	cmp	r4, #0
     d88:	d0bf      	beq.n	d0a <__utee_entry+0x72>
/home/hsk/Desktop/devel/tee-tpm-hyp/optee_os/lib/libutee/arch/arm/user_ta_entry.c:160
     d8a:	4638      	mov	r0, r7
     d8c:	f7ff ff50 	bl	c30 <ta_header_remove_session>
     d90:	e7bb      	b.n	d0a <__utee_entry+0x72>
entry_close_session():
/home/hsk/Desktop/devel/tee-tpm-hyp/optee_os/lib/libutee/arch/arm/user_ta_entry.c:166
     d92:	4608      	mov	r0, r1
     d94:	f7ff ff3e 	bl	c14 <ta_header_get_session>
/home/hsk/Desktop/devel/tee-tpm-hyp/optee_os/lib/libutee/arch/arm/user_ta_entry.c:168
     d98:	b370      	cbz	r0, df8 <__utee_entry+0x160>
/home/hsk/Desktop/devel/tee-tpm-hyp/optee_os/lib/libutee/arch/arm/user_ta_entry.c:171
     d9a:	6840      	ldr	r0, [r0, #4]
/home/hsk/Desktop/devel/tee-tpm-hyp/optee_os/lib/libutee/arch/arm/user_ta_entry.c:174
     d9c:	2400      	movs	r4, #0
/home/hsk/Desktop/devel/tee-tpm-hyp/optee_os/lib/libutee/arch/arm/user_ta_entry.c:171
     d9e:	f7ff f987 	bl	b0 <TA_CloseSessionEntryPoint>
/home/hsk/Desktop/devel/tee-tpm-hyp/optee_os/lib/libutee/arch/arm/user_ta_entry.c:173
     da2:	4638      	mov	r0, r7
     da4:	f7ff ff44 	bl	c30 <ta_header_remove_session>
     da8:	e7af      	b.n	d0a <__utee_entry+0x72>
entry_invoke_command():
/home/hsk/Desktop/devel/tee-tpm-hyp/optee_os/lib/libutee/arch/arm/user_ta_entry.c:183
     daa:	4608      	mov	r0, r1
     dac:	f7ff ff32 	bl	c14 <ta_header_get_session>
/home/hsk/Desktop/devel/tee-tpm-hyp/optee_os/lib/libutee/arch/arm/user_ta_entry.c:185
     db0:	4681      	mov	r9, r0
     db2:	b308      	cbz	r0, df8 <__utee_entry+0x160>
/home/hsk/Desktop/devel/tee-tpm-hyp/optee_os/lib/libutee/arch/arm/user_ta_entry.c:188
     db4:	af04      	add	r7, sp, #16
ta_header_save_params():
/home/hsk/Desktop/devel/tee-tpm-hyp/optee_os/lib/libutee/arch/arm/user_ta_entry.c:69
     db6:	4c1a      	ldr	r4, [pc, #104]	; (e20 <__utee_entry+0x188>)
/home/hsk/Desktop/devel/tee-tpm-hyp/optee_os/lib/libutee/arch/arm/user_ta_entry.c:72
     db8:	463d      	mov	r5, r7
entry_invoke_command():
/home/hsk/Desktop/devel/tee-tpm-hyp/optee_os/lib/libutee/arch/arm/user_ta_entry.c:188
     dba:	4632      	mov	r2, r6
     dbc:	a903      	add	r1, sp, #12
     dbe:	4638      	mov	r0, r7
ta_header_save_params():
/home/hsk/Desktop/devel/tee-tpm-hyp/optee_os/lib/libutee/arch/arm/user_ta_entry.c:69
     dc0:	447c      	add	r4, pc
entry_invoke_command():
/home/hsk/Desktop/devel/tee-tpm-hyp/optee_os/lib/libutee/arch/arm/user_ta_entry.c:188
     dc2:	f000 fab4 	bl	132e <__utee_to_param>
ta_header_save_params():
/home/hsk/Desktop/devel/tee-tpm-hyp/optee_os/lib/libutee/arch/arm/user_ta_entry.c:72
     dc6:	cd0f      	ldmia	r5!, {r0, r1, r2, r3}
     dc8:	3408      	adds	r4, #8
entry_invoke_command():
/home/hsk/Desktop/devel/tee-tpm-hyp/optee_os/lib/libutee/arch/arm/user_ta_entry.c:189
     dca:	f8dd c00c 	ldr.w	ip, [sp, #12]
ta_header_save_params():
/home/hsk/Desktop/devel/tee-tpm-hyp/optee_os/lib/libutee/arch/arm/user_ta_entry.c:69
     dce:	f844 cc04 	str.w	ip, [r4, #-4]
/home/hsk/Desktop/devel/tee-tpm-hyp/optee_os/lib/libutee/arch/arm/user_ta_entry.c:72
     dd2:	c40f      	stmia	r4!, {r0, r1, r2, r3}
     dd4:	e895 000f 	ldmia.w	r5, {r0, r1, r2, r3}
     dd8:	e884 000f 	stmia.w	r4, {r0, r1, r2, r3}
entry_invoke_command():
/home/hsk/Desktop/devel/tee-tpm-hyp/optee_os/lib/libutee/arch/arm/user_ta_entry.c:191
     ddc:	4662      	mov	r2, ip
     dde:	4641      	mov	r1, r8
     de0:	463b      	mov	r3, r7
     de2:	f8d9 0004 	ldr.w	r0, [r9, #4]
     de6:	f7ff f977 	bl	d8 <TA_InvokeCommandEntryPoint>
/home/hsk/Desktop/devel/tee-tpm-hyp/optee_os/lib/libutee/arch/arm/user_ta_entry.c:194
     dea:	463a      	mov	r2, r7
/home/hsk/Desktop/devel/tee-tpm-hyp/optee_os/lib/libutee/arch/arm/user_ta_entry.c:191
     dec:	4604      	mov	r4, r0
/home/hsk/Desktop/devel/tee-tpm-hyp/optee_os/lib/libutee/arch/arm/user_ta_entry.c:194
     dee:	9903      	ldr	r1, [sp, #12]
     df0:	4630      	mov	r0, r6
     df2:	f000 fa75 	bl	12e0 <__utee_from_param>
     df6:	e788      	b.n	d0a <__utee_entry+0x72>
entry_close_session():
/home/hsk/Desktop/devel/tee-tpm-hyp/optee_os/lib/libutee/arch/arm/user_ta_entry.c:169
     df8:	4c01      	ldr	r4, [pc, #4]	; (e00 <__utee_entry+0x168>)
     dfa:	e786      	b.n	d0a <__utee_entry+0x72>
     dfc:	ffff000c 	.word	0xffff000c
     e00:	ffff0007 	.word	0xffff0007
     e04:	00006776 	.word	0x00006776
     e08:	000073cc 	.word	0x000073cc
     e0c:	0000000c 	.word	0x0000000c
     e10:	00000020 	.word	0x00000020
     e14:	00007384 	.word	0x00007384
     e18:	00007344 	.word	0x00007344
     e1c:	00007342 	.word	0x00007342
     e20:	000072d4 	.word	0x000072d4

00000e24 <utee_panic>:
utee_panic():
/home/hsk/Desktop/devel/tee-tpm-hyp/optee_os/lib/libutee/arch/arm/utee_syscalls_a32.S:47
     e24:	e92d4fff 	push	{r0, r1, r2, r3, r4, r5, r6, r7, r8, r9, sl, fp, lr}
/home/hsk/Desktop/devel/tee-tpm-hyp/optee_os/lib/libutee/arch/arm/utee_syscalls_a32.S:49
     e28:	e1a0e00f 	mov	lr, pc
/home/hsk/Desktop/devel/tee-tpm-hyp/optee_os/lib/libutee/arch/arm/utee_syscalls_a32.S:50
     e2c:	e52de004 	push	{lr}		; (str lr, [sp, #-4]!)
/home/hsk/Desktop/devel/tee-tpm-hyp/optee_os/lib/libutee/arch/arm/utee_syscalls_a32.S:52
     e30:	e1a0100d 	mov	r1, sp
/home/hsk/Desktop/devel/tee-tpm-hyp/optee_os/lib/libutee/arch/arm/utee_syscalls_a32.S:53
     e34:	eb000009 	bl	e60 <__utee_panic>

00000e38 <utee_return>:
utee_return():
/home/hsk/Desktop/devel/tee-tpm-hyp/optee_os/lib/libutee/arch/arm/utee_syscalls_asm.S:8
     e38:	e92d40e0 	push	{r5, r6, r7, lr}
     e3c:	e3a07000 	mov	r7, #0
     e40:	e3a06000 	mov	r6, #0
     e44:	ef000000 	svc	0x00000000
     e48:	e8bd80e0 	pop	{r5, r6, r7, pc}

00000e4c <utee_log>:
utee_log():
/home/hsk/Desktop/devel/tee-tpm-hyp/optee_os/lib/libutee/arch/arm/utee_syscalls_asm.S:10
     e4c:	e92d40e0 	push	{r5, r6, r7, lr}
     e50:	e3a07001 	mov	r7, #1
     e54:	e3a06000 	mov	r6, #0
     e58:	ef000000 	svc	0x00000000
     e5c:	e8bd80e0 	pop	{r5, r6, r7, pc}

00000e60 <__utee_panic>:
__utee_panic():
/home/hsk/Desktop/devel/tee-tpm-hyp/optee_os/lib/libutee/arch/arm/utee_syscalls_asm.S:12
     e60:	e92d40e0 	push	{r5, r6, r7, lr}
     e64:	e3a07002 	mov	r7, #2
     e68:	e3a06000 	mov	r6, #0
     e6c:	ef000000 	svc	0x00000000
     e70:	e8bd80e0 	pop	{r5, r6, r7, pc}

00000e74 <utee_get_property>:
utee_get_property():
/home/hsk/Desktop/devel/tee-tpm-hyp/optee_os/lib/libutee/arch/arm/utee_syscalls_asm.S:14
     e74:	e92d40e0 	push	{r5, r6, r7, lr}
     e78:	e3a07003 	mov	r7, #3
     e7c:	e3a06003 	mov	r6, #3
     e80:	e28d5010 	add	r5, sp, #16
     e84:	ef000000 	svc	0x00000000
     e88:	e8bd80e0 	pop	{r5, r6, r7, pc}

00000e8c <utee_get_property_name_to_index>:
utee_get_property_name_to_index():
/home/hsk/Desktop/devel/tee-tpm-hyp/optee_os/lib/libutee/arch/arm/utee_syscalls_asm.S:16
     e8c:	e92d40e0 	push	{r5, r6, r7, lr}
     e90:	e3a07004 	mov	r7, #4
     e94:	e3a06000 	mov	r6, #0
     e98:	ef000000 	svc	0x00000000
     e9c:	e8bd80e0 	pop	{r5, r6, r7, pc}

00000ea0 <utee_open_ta_session>:
utee_open_ta_session():
/home/hsk/Desktop/devel/tee-tpm-hyp/optee_os/lib/libutee/arch/arm/utee_syscalls_asm.S:19
     ea0:	e92d40e0 	push	{r5, r6, r7, lr}
     ea4:	e3a07005 	mov	r7, #5
     ea8:	e3a06001 	mov	r6, #1
     eac:	e28d5010 	add	r5, sp, #16
     eb0:	ef000000 	svc	0x00000000
     eb4:	e8bd80e0 	pop	{r5, r6, r7, pc}

00000eb8 <utee_close_ta_session>:
utee_close_ta_session():
/home/hsk/Desktop/devel/tee-tpm-hyp/optee_os/lib/libutee/arch/arm/utee_syscalls_asm.S:21
     eb8:	e92d40e0 	push	{r5, r6, r7, lr}
     ebc:	e3a07006 	mov	r7, #6
     ec0:	e3a06000 	mov	r6, #0
     ec4:	ef000000 	svc	0x00000000
     ec8:	e8bd80e0 	pop	{r5, r6, r7, pc}

00000ecc <utee_invoke_ta_command>:
utee_invoke_ta_command():
/home/hsk/Desktop/devel/tee-tpm-hyp/optee_os/lib/libutee/arch/arm/utee_syscalls_asm.S:23
     ecc:	e92d40e0 	push	{r5, r6, r7, lr}
     ed0:	e3a07007 	mov	r7, #7
     ed4:	e3a06001 	mov	r6, #1
     ed8:	e28d5010 	add	r5, sp, #16
     edc:	ef000000 	svc	0x00000000
     ee0:	e8bd80e0 	pop	{r5, r6, r7, pc}

00000ee4 <utee_get_cancellation_flag>:
utee_get_cancellation_flag():
/home/hsk/Desktop/devel/tee-tpm-hyp/optee_os/lib/libutee/arch/arm/utee_syscalls_asm.S:25
     ee4:	e92d40e0 	push	{r5, r6, r7, lr}
     ee8:	e3a07009 	mov	r7, #9
     eec:	e3a06000 	mov	r6, #0
     ef0:	ef000000 	svc	0x00000000
     ef4:	e8bd80e0 	pop	{r5, r6, r7, pc}

00000ef8 <utee_check_access_rights>:
utee_check_access_rights():
/home/hsk/Desktop/devel/tee-tpm-hyp/optee_os/lib/libutee/arch/arm/utee_syscalls_asm.S:28
     ef8:	e92d40e0 	push	{r5, r6, r7, lr}
     efc:	e3a07008 	mov	r7, #8
     f00:	e3a06000 	mov	r6, #0
     f04:	ef000000 	svc	0x00000000
     f08:	e8bd80e0 	pop	{r5, r6, r7, pc}

00000f0c <utee_unmask_cancellation>:
utee_unmask_cancellation():
/home/hsk/Desktop/devel/tee-tpm-hyp/optee_os/lib/libutee/arch/arm/utee_syscalls_asm.S:30
     f0c:	e92d40e0 	push	{r5, r6, r7, lr}
     f10:	e3a0700a 	mov	r7, #10
     f14:	e3a06000 	mov	r6, #0
     f18:	ef000000 	svc	0x00000000
     f1c:	e8bd80e0 	pop	{r5, r6, r7, pc}

00000f20 <utee_mask_cancellation>:
utee_mask_cancellation():
/home/hsk/Desktop/devel/tee-tpm-hyp/optee_os/lib/libutee/arch/arm/utee_syscalls_asm.S:32
     f20:	e92d40e0 	push	{r5, r6, r7, lr}
     f24:	e3a0700b 	mov	r7, #11
     f28:	e3a06000 	mov	r6, #0
     f2c:	ef000000 	svc	0x00000000
     f30:	e8bd80e0 	pop	{r5, r6, r7, pc}

00000f34 <utee_wait>:
utee_wait():
/home/hsk/Desktop/devel/tee-tpm-hyp/optee_os/lib/libutee/arch/arm/utee_syscalls_asm.S:34
     f34:	e92d40e0 	push	{r5, r6, r7, lr}
     f38:	e3a0700c 	mov	r7, #12
     f3c:	e3a06000 	mov	r6, #0
     f40:	ef000000 	svc	0x00000000
     f44:	e8bd80e0 	pop	{r5, r6, r7, pc}

00000f48 <utee_get_time>:
utee_get_time():
/home/hsk/Desktop/devel/tee-tpm-hyp/optee_os/lib/libutee/arch/arm/utee_syscalls_asm.S:36
     f48:	e92d40e0 	push	{r5, r6, r7, lr}
     f4c:	e3a0700d 	mov	r7, #13
     f50:	e3a06000 	mov	r6, #0
     f54:	ef000000 	svc	0x00000000
     f58:	e8bd80e0 	pop	{r5, r6, r7, pc}

00000f5c <utee_set_ta_time>:
utee_set_ta_time():
/home/hsk/Desktop/devel/tee-tpm-hyp/optee_os/lib/libutee/arch/arm/utee_syscalls_asm.S:38
     f5c:	e92d40e0 	push	{r5, r6, r7, lr}
     f60:	e3a0700e 	mov	r7, #14
     f64:	e3a06000 	mov	r6, #0
     f68:	ef000000 	svc	0x00000000
     f6c:	e8bd80e0 	pop	{r5, r6, r7, pc}

00000f70 <utee_cryp_state_alloc>:
utee_cryp_state_alloc():
/home/hsk/Desktop/devel/tee-tpm-hyp/optee_os/lib/libutee/arch/arm/utee_syscalls_asm.S:40
     f70:	e92d40e0 	push	{r5, r6, r7, lr}
     f74:	e3a0700f 	mov	r7, #15
     f78:	e3a06001 	mov	r6, #1
     f7c:	e28d5010 	add	r5, sp, #16
     f80:	ef000000 	svc	0x00000000
     f84:	e8bd80e0 	pop	{r5, r6, r7, pc}

00000f88 <utee_cryp_state_copy>:
utee_cryp_state_copy():
/home/hsk/Desktop/devel/tee-tpm-hyp/optee_os/lib/libutee/arch/arm/utee_syscalls_asm.S:42
     f88:	e92d40e0 	push	{r5, r6, r7, lr}
     f8c:	e3a07010 	mov	r7, #16
     f90:	e3a06000 	mov	r6, #0
     f94:	ef000000 	svc	0x00000000
     f98:	e8bd80e0 	pop	{r5, r6, r7, pc}

00000f9c <utee_cryp_state_free>:
utee_cryp_state_free():
/home/hsk/Desktop/devel/tee-tpm-hyp/optee_os/lib/libutee/arch/arm/utee_syscalls_asm.S:44
     f9c:	e92d40e0 	push	{r5, r6, r7, lr}
     fa0:	e3a07011 	mov	r7, #17
     fa4:	e3a06000 	mov	r6, #0
     fa8:	ef000000 	svc	0x00000000
     fac:	e8bd80e0 	pop	{r5, r6, r7, pc}

00000fb0 <utee_hash_init>:
utee_hash_init():
/home/hsk/Desktop/devel/tee-tpm-hyp/optee_os/lib/libutee/arch/arm/utee_syscalls_asm.S:46
     fb0:	e92d40e0 	push	{r5, r6, r7, lr}
     fb4:	e3a07012 	mov	r7, #18
     fb8:	e3a06000 	mov	r6, #0
     fbc:	ef000000 	svc	0x00000000
     fc0:	e8bd80e0 	pop	{r5, r6, r7, pc}

00000fc4 <utee_hash_update>:
utee_hash_update():
/home/hsk/Desktop/devel/tee-tpm-hyp/optee_os/lib/libutee/arch/arm/utee_syscalls_asm.S:48
     fc4:	e92d40e0 	push	{r5, r6, r7, lr}
     fc8:	e3a07013 	mov	r7, #19
     fcc:	e3a06000 	mov	r6, #0
     fd0:	ef000000 	svc	0x00000000
     fd4:	e8bd80e0 	pop	{r5, r6, r7, pc}

00000fd8 <utee_hash_final>:
utee_hash_final():
/home/hsk/Desktop/devel/tee-tpm-hyp/optee_os/lib/libutee/arch/arm/utee_syscalls_asm.S:50
     fd8:	e92d40e0 	push	{r5, r6, r7, lr}
     fdc:	e3a07014 	mov	r7, #20
     fe0:	e3a06001 	mov	r6, #1
     fe4:	e28d5010 	add	r5, sp, #16
     fe8:	ef000000 	svc	0x00000000
     fec:	e8bd80e0 	pop	{r5, r6, r7, pc}

00000ff0 <utee_cipher_init>:
utee_cipher_init():
/home/hsk/Desktop/devel/tee-tpm-hyp/optee_os/lib/libutee/arch/arm/utee_syscalls_asm.S:52
     ff0:	e92d40e0 	push	{r5, r6, r7, lr}
     ff4:	e3a07015 	mov	r7, #21
     ff8:	e3a06000 	mov	r6, #0
     ffc:	ef000000 	svc	0x00000000
    1000:	e8bd80e0 	pop	{r5, r6, r7, pc}

00001004 <utee_cipher_update>:
utee_cipher_update():
/home/hsk/Desktop/devel/tee-tpm-hyp/optee_os/lib/libutee/arch/arm/utee_syscalls_asm.S:54
    1004:	e92d40e0 	push	{r5, r6, r7, lr}
    1008:	e3a07016 	mov	r7, #22
    100c:	e3a06001 	mov	r6, #1
    1010:	e28d5010 	add	r5, sp, #16
    1014:	ef000000 	svc	0x00000000
    1018:	e8bd80e0 	pop	{r5, r6, r7, pc}

0000101c <utee_cipher_final>:
utee_cipher_final():
/home/hsk/Desktop/devel/tee-tpm-hyp/optee_os/lib/libutee/arch/arm/utee_syscalls_asm.S:56
    101c:	e92d40e0 	push	{r5, r6, r7, lr}
    1020:	e3a07017 	mov	r7, #23
    1024:	e3a06001 	mov	r6, #1
    1028:	e28d5010 	add	r5, sp, #16
    102c:	ef000000 	svc	0x00000000
    1030:	e8bd80e0 	pop	{r5, r6, r7, pc}

00001034 <utee_cryp_obj_get_info>:
utee_cryp_obj_get_info():
/home/hsk/Desktop/devel/tee-tpm-hyp/optee_os/lib/libutee/arch/arm/utee_syscalls_asm.S:58
    1034:	e92d40e0 	push	{r5, r6, r7, lr}
    1038:	e3a07018 	mov	r7, #24
    103c:	e3a06000 	mov	r6, #0
    1040:	ef000000 	svc	0x00000000
    1044:	e8bd80e0 	pop	{r5, r6, r7, pc}

00001048 <utee_cryp_obj_restrict_usage>:
utee_cryp_obj_restrict_usage():
/home/hsk/Desktop/devel/tee-tpm-hyp/optee_os/lib/libutee/arch/arm/utee_syscalls_asm.S:60
    1048:	e92d40e0 	push	{r5, r6, r7, lr}
    104c:	e3a07019 	mov	r7, #25
    1050:	e3a06000 	mov	r6, #0
    1054:	ef000000 	svc	0x00000000
    1058:	e8bd80e0 	pop	{r5, r6, r7, pc}

0000105c <utee_cryp_obj_get_attr>:
utee_cryp_obj_get_attr():
/home/hsk/Desktop/devel/tee-tpm-hyp/optee_os/lib/libutee/arch/arm/utee_syscalls_asm.S:63
    105c:	e92d40e0 	push	{r5, r6, r7, lr}
    1060:	e3a0701a 	mov	r7, #26
    1064:	e3a06000 	mov	r6, #0
    1068:	ef000000 	svc	0x00000000
    106c:	e8bd80e0 	pop	{r5, r6, r7, pc}

00001070 <utee_cryp_obj_alloc>:
utee_cryp_obj_alloc():
/home/hsk/Desktop/devel/tee-tpm-hyp/optee_os/lib/libutee/arch/arm/utee_syscalls_asm.S:65
    1070:	e92d40e0 	push	{r5, r6, r7, lr}
    1074:	e3a0701b 	mov	r7, #27
    1078:	e3a06000 	mov	r6, #0
    107c:	ef000000 	svc	0x00000000
    1080:	e8bd80e0 	pop	{r5, r6, r7, pc}

00001084 <utee_cryp_obj_close>:
utee_cryp_obj_close():
/home/hsk/Desktop/devel/tee-tpm-hyp/optee_os/lib/libutee/arch/arm/utee_syscalls_asm.S:67
    1084:	e92d40e0 	push	{r5, r6, r7, lr}
    1088:	e3a0701c 	mov	r7, #28
    108c:	e3a06000 	mov	r6, #0
    1090:	ef000000 	svc	0x00000000
    1094:	e8bd80e0 	pop	{r5, r6, r7, pc}

00001098 <utee_cryp_obj_reset>:
utee_cryp_obj_reset():
/home/hsk/Desktop/devel/tee-tpm-hyp/optee_os/lib/libutee/arch/arm/utee_syscalls_asm.S:69
    1098:	e92d40e0 	push	{r5, r6, r7, lr}
    109c:	e3a0701d 	mov	r7, #29
    10a0:	e3a06000 	mov	r6, #0
    10a4:	ef000000 	svc	0x00000000
    10a8:	e8bd80e0 	pop	{r5, r6, r7, pc}

000010ac <utee_cryp_obj_populate>:
utee_cryp_obj_populate():
/home/hsk/Desktop/devel/tee-tpm-hyp/optee_os/lib/libutee/arch/arm/utee_syscalls_asm.S:71
    10ac:	e92d40e0 	push	{r5, r6, r7, lr}
    10b0:	e3a0701e 	mov	r7, #30
    10b4:	e3a06000 	mov	r6, #0
    10b8:	ef000000 	svc	0x00000000
    10bc:	e8bd80e0 	pop	{r5, r6, r7, pc}

000010c0 <utee_cryp_obj_copy>:
utee_cryp_obj_copy():
/home/hsk/Desktop/devel/tee-tpm-hyp/optee_os/lib/libutee/arch/arm/utee_syscalls_asm.S:73
    10c0:	e92d40e0 	push	{r5, r6, r7, lr}
    10c4:	e3a0701f 	mov	r7, #31
    10c8:	e3a06000 	mov	r6, #0
    10cc:	ef000000 	svc	0x00000000
    10d0:	e8bd80e0 	pop	{r5, r6, r7, pc}

000010d4 <utee_cryp_derive_key>:
utee_cryp_derive_key():
/home/hsk/Desktop/devel/tee-tpm-hyp/optee_os/lib/libutee/arch/arm/utee_syscalls_asm.S:75
    10d4:	e92d40e0 	push	{r5, r6, r7, lr}
    10d8:	e3a07020 	mov	r7, #32
    10dc:	e3a06000 	mov	r6, #0
    10e0:	ef000000 	svc	0x00000000
    10e4:	e8bd80e0 	pop	{r5, r6, r7, pc}

000010e8 <utee_cryp_random_number_generate>:
utee_cryp_random_number_generate():
/home/hsk/Desktop/devel/tee-tpm-hyp/optee_os/lib/libutee/arch/arm/utee_syscalls_asm.S:77
    10e8:	e92d40e0 	push	{r5, r6, r7, lr}
    10ec:	e3a07021 	mov	r7, #33	; 0x21
    10f0:	e3a06000 	mov	r6, #0
    10f4:	ef000000 	svc	0x00000000
    10f8:	e8bd80e0 	pop	{r5, r6, r7, pc}

000010fc <utee_authenc_init>:
utee_authenc_init():
/home/hsk/Desktop/devel/tee-tpm-hyp/optee_os/lib/libutee/arch/arm/utee_syscalls_asm.S:80
    10fc:	e92d40e0 	push	{r5, r6, r7, lr}
    1100:	e3a07022 	mov	r7, #34	; 0x22
    1104:	e3a06002 	mov	r6, #2
    1108:	e28d5010 	add	r5, sp, #16
    110c:	ef000000 	svc	0x00000000
    1110:	e8bd80e0 	pop	{r5, r6, r7, pc}

00001114 <utee_authenc_update_aad>:
utee_authenc_update_aad():
/home/hsk/Desktop/devel/tee-tpm-hyp/optee_os/lib/libutee/arch/arm/utee_syscalls_asm.S:82
    1114:	e92d40e0 	push	{r5, r6, r7, lr}
    1118:	e3a07023 	mov	r7, #35	; 0x23
    111c:	e3a06000 	mov	r6, #0
    1120:	ef000000 	svc	0x00000000
    1124:	e8bd80e0 	pop	{r5, r6, r7, pc}

00001128 <utee_authenc_update_payload>:
utee_authenc_update_payload():
/home/hsk/Desktop/devel/tee-tpm-hyp/optee_os/lib/libutee/arch/arm/utee_syscalls_asm.S:84
    1128:	e92d40e0 	push	{r5, r6, r7, lr}
    112c:	e3a07024 	mov	r7, #36	; 0x24
    1130:	e3a06001 	mov	r6, #1
    1134:	e28d5010 	add	r5, sp, #16
    1138:	ef000000 	svc	0x00000000
    113c:	e8bd80e0 	pop	{r5, r6, r7, pc}

00001140 <utee_authenc_enc_final>:
utee_authenc_enc_final():
/home/hsk/Desktop/devel/tee-tpm-hyp/optee_os/lib/libutee/arch/arm/utee_syscalls_asm.S:87
    1140:	e92d40e0 	push	{r5, r6, r7, lr}
    1144:	e3a07025 	mov	r7, #37	; 0x25
    1148:	e3a06003 	mov	r6, #3
    114c:	e28d5010 	add	r5, sp, #16
    1150:	ef000000 	svc	0x00000000
    1154:	e8bd80e0 	pop	{r5, r6, r7, pc}

00001158 <utee_authenc_dec_final>:
utee_authenc_dec_final():
/home/hsk/Desktop/devel/tee-tpm-hyp/optee_os/lib/libutee/arch/arm/utee_syscalls_asm.S:89
    1158:	e92d40e0 	push	{r5, r6, r7, lr}
    115c:	e3a07026 	mov	r7, #38	; 0x26
    1160:	e3a06003 	mov	r6, #3
    1164:	e28d5010 	add	r5, sp, #16
    1168:	ef000000 	svc	0x00000000
    116c:	e8bd80e0 	pop	{r5, r6, r7, pc}

00001170 <utee_asymm_operate>:
utee_asymm_operate():
/home/hsk/Desktop/devel/tee-tpm-hyp/optee_os/lib/libutee/arch/arm/utee_syscalls_asm.S:91
    1170:	e92d40e0 	push	{r5, r6, r7, lr}
    1174:	e3a07027 	mov	r7, #39	; 0x27
    1178:	e3a06003 	mov	r6, #3
    117c:	e28d5010 	add	r5, sp, #16
    1180:	ef000000 	svc	0x00000000
    1184:	e8bd80e0 	pop	{r5, r6, r7, pc}

00001188 <utee_asymm_verify>:
utee_asymm_verify():
/home/hsk/Desktop/devel/tee-tpm-hyp/optee_os/lib/libutee/arch/arm/utee_syscalls_asm.S:93
    1188:	e92d40e0 	push	{r5, r6, r7, lr}
    118c:	e3a07028 	mov	r7, #40	; 0x28
    1190:	e3a06003 	mov	r6, #3
    1194:	e28d5010 	add	r5, sp, #16
    1198:	ef000000 	svc	0x00000000
    119c:	e8bd80e0 	pop	{r5, r6, r7, pc}

000011a0 <utee_storage_obj_open>:
utee_storage_obj_open():
/home/hsk/Desktop/devel/tee-tpm-hyp/optee_os/lib/libutee/arch/arm/utee_syscalls_asm.S:95
    11a0:	e92d40e0 	push	{r5, r6, r7, lr}
    11a4:	e3a07029 	mov	r7, #41	; 0x29
    11a8:	e3a06001 	mov	r6, #1
    11ac:	e28d5010 	add	r5, sp, #16
    11b0:	ef000000 	svc	0x00000000
    11b4:	e8bd80e0 	pop	{r5, r6, r7, pc}

000011b8 <utee_storage_obj_create>:
utee_storage_obj_create():
/home/hsk/Desktop/devel/tee-tpm-hyp/optee_os/lib/libutee/arch/arm/utee_syscalls_asm.S:97
    11b8:	e92d40e0 	push	{r5, r6, r7, lr}
    11bc:	e3a0702a 	mov	r7, #42	; 0x2a
    11c0:	e3a06004 	mov	r6, #4
    11c4:	e28d5010 	add	r5, sp, #16
    11c8:	ef000000 	svc	0x00000000
    11cc:	e8bd80e0 	pop	{r5, r6, r7, pc}

000011d0 <utee_storage_obj_del>:
utee_storage_obj_del():
/home/hsk/Desktop/devel/tee-tpm-hyp/optee_os/lib/libutee/arch/arm/utee_syscalls_asm.S:99
    11d0:	e92d40e0 	push	{r5, r6, r7, lr}
    11d4:	e3a0702b 	mov	r7, #43	; 0x2b
    11d8:	e3a06000 	mov	r6, #0
    11dc:	ef000000 	svc	0x00000000
    11e0:	e8bd80e0 	pop	{r5, r6, r7, pc}

000011e4 <utee_storage_obj_rename>:
utee_storage_obj_rename():
/home/hsk/Desktop/devel/tee-tpm-hyp/optee_os/lib/libutee/arch/arm/utee_syscalls_asm.S:101
    11e4:	e92d40e0 	push	{r5, r6, r7, lr}
    11e8:	e3a0702c 	mov	r7, #44	; 0x2c
    11ec:	e3a06000 	mov	r6, #0
    11f0:	ef000000 	svc	0x00000000
    11f4:	e8bd80e0 	pop	{r5, r6, r7, pc}

000011f8 <utee_storage_alloc_enum>:
utee_storage_alloc_enum():
/home/hsk/Desktop/devel/tee-tpm-hyp/optee_os/lib/libutee/arch/arm/utee_syscalls_asm.S:103
    11f8:	e92d40e0 	push	{r5, r6, r7, lr}
    11fc:	e3a0702d 	mov	r7, #45	; 0x2d
    1200:	e3a06000 	mov	r6, #0
    1204:	ef000000 	svc	0x00000000
    1208:	e8bd80e0 	pop	{r5, r6, r7, pc}

0000120c <utee_storage_free_enum>:
utee_storage_free_enum():
/home/hsk/Desktop/devel/tee-tpm-hyp/optee_os/lib/libutee/arch/arm/utee_syscalls_asm.S:105
    120c:	e92d40e0 	push	{r5, r6, r7, lr}
    1210:	e3a0702e 	mov	r7, #46	; 0x2e
    1214:	e3a06000 	mov	r6, #0
    1218:	ef000000 	svc	0x00000000
    121c:	e8bd80e0 	pop	{r5, r6, r7, pc}

00001220 <utee_storage_reset_enum>:
utee_storage_reset_enum():
/home/hsk/Desktop/devel/tee-tpm-hyp/optee_os/lib/libutee/arch/arm/utee_syscalls_asm.S:107
    1220:	e92d40e0 	push	{r5, r6, r7, lr}
    1224:	e3a0702f 	mov	r7, #47	; 0x2f
    1228:	e3a06000 	mov	r6, #0
    122c:	ef000000 	svc	0x00000000
    1230:	e8bd80e0 	pop	{r5, r6, r7, pc}

00001234 <utee_storage_start_enum>:
utee_storage_start_enum():
/home/hsk/Desktop/devel/tee-tpm-hyp/optee_os/lib/libutee/arch/arm/utee_syscalls_asm.S:109
    1234:	e92d40e0 	push	{r5, r6, r7, lr}
    1238:	e3a07030 	mov	r7, #48	; 0x30
    123c:	e3a06000 	mov	r6, #0
    1240:	ef000000 	svc	0x00000000
    1244:	e8bd80e0 	pop	{r5, r6, r7, pc}

00001248 <utee_storage_next_enum>:
utee_storage_next_enum():
/home/hsk/Desktop/devel/tee-tpm-hyp/optee_os/lib/libutee/arch/arm/utee_syscalls_asm.S:111
    1248:	e92d40e0 	push	{r5, r6, r7, lr}
    124c:	e3a07031 	mov	r7, #49	; 0x31
    1250:	e3a06000 	mov	r6, #0
    1254:	ef000000 	svc	0x00000000
    1258:	e8bd80e0 	pop	{r5, r6, r7, pc}

0000125c <utee_storage_obj_read>:
utee_storage_obj_read():
/home/hsk/Desktop/devel/tee-tpm-hyp/optee_os/lib/libutee/arch/arm/utee_syscalls_asm.S:113
    125c:	e92d40e0 	push	{r5, r6, r7, lr}
    1260:	e3a07032 	mov	r7, #50	; 0x32
    1264:	e3a06000 	mov	r6, #0
    1268:	ef000000 	svc	0x00000000
    126c:	e8bd80e0 	pop	{r5, r6, r7, pc}

00001270 <utee_storage_obj_write>:
utee_storage_obj_write():
/home/hsk/Desktop/devel/tee-tpm-hyp/optee_os/lib/libutee/arch/arm/utee_syscalls_asm.S:115
    1270:	e92d40e0 	push	{r5, r6, r7, lr}
    1274:	e3a07033 	mov	r7, #51	; 0x33
    1278:	e3a06000 	mov	r6, #0
    127c:	ef000000 	svc	0x00000000
    1280:	e8bd80e0 	pop	{r5, r6, r7, pc}

00001284 <utee_storage_obj_trunc>:
utee_storage_obj_trunc():
/home/hsk/Desktop/devel/tee-tpm-hyp/optee_os/lib/libutee/arch/arm/utee_syscalls_asm.S:117
    1284:	e92d40e0 	push	{r5, r6, r7, lr}
    1288:	e3a07034 	mov	r7, #52	; 0x34
    128c:	e3a06000 	mov	r6, #0
    1290:	ef000000 	svc	0x00000000
    1294:	e8bd80e0 	pop	{r5, r6, r7, pc}

00001298 <utee_storage_obj_seek>:
utee_storage_obj_seek():
/home/hsk/Desktop/devel/tee-tpm-hyp/optee_os/lib/libutee/arch/arm/utee_syscalls_asm.S:119
    1298:	e92d40e0 	push	{r5, r6, r7, lr}
    129c:	e3a07035 	mov	r7, #53	; 0x35
    12a0:	e3a06000 	mov	r6, #0
    12a4:	ef000000 	svc	0x00000000
    12a8:	e8bd80e0 	pop	{r5, r6, r7, pc}

000012ac <utee_cryp_obj_generate_key>:
utee_cryp_obj_generate_key():
/home/hsk/Desktop/devel/tee-tpm-hyp/optee_os/lib/libutee/arch/arm/utee_syscalls_asm.S:121
    12ac:	e92d40e0 	push	{r5, r6, r7, lr}
    12b0:	e3a07036 	mov	r7, #54	; 0x36
    12b4:	e3a06000 	mov	r6, #0
    12b8:	ef000000 	svc	0x00000000
    12bc:	e8bd80e0 	pop	{r5, r6, r7, pc}

000012c0 <utee_cache_operation>:
utee_cache_operation():
/home/hsk/Desktop/devel/tee-tpm-hyp/optee_os/lib/libutee/arch/arm/utee_syscalls_asm.S:124
    12c0:	e92d40e0 	push	{r5, r6, r7, lr}
    12c4:	e3a07046 	mov	r7, #70	; 0x46
    12c8:	e3a06000 	mov	r6, #0
    12cc:	ef000000 	svc	0x00000000
    12d0:	e8bd80e0 	pop	{r5, r6, r7, pc}

000012d4 <__utee_mcount>:
__utee_mcount():
/home/hsk/Desktop/devel/tee-tpm-hyp/optee_os/lib/libutee/arch/arm/gprof/gprof_a32.S:49
    12d4:	e52de004 	push	{lr}		; (str lr, [sp, #-4]!)
/home/hsk/Desktop/devel/tee-tpm-hyp/optee_os/lib/libutee/arch/arm/gprof/gprof_a32.S:50
    12d8:	e8bd5000 	pop	{ip, lr}
/home/hsk/Desktop/devel/tee-tpm-hyp/optee_os/lib/libutee/arch/arm/gprof/gprof_a32.S:51
    12dc:	e12fff1c 	bx	ip

000012e0 <__utee_from_param>:
__utee_from_param():
/home/hsk/Desktop/devel/tee-tpm-hyp/optee_os/lib/libutee/tee_api.c:23
    12e0:	2300      	movs	r3, #0
/home/hsk/Desktop/devel/tee-tpm-hyp/optee_os/lib/libutee/tee_api.c:20
    12e2:	b5f0      	push	{r4, r5, r6, r7, lr}
/home/hsk/Desktop/devel/tee-tpm-hyp/optee_os/lib/libutee/tee_api.c:39
    12e4:	2600      	movs	r6, #0
    12e6:	2700      	movs	r7, #0
/home/hsk/Desktop/devel/tee-tpm-hyp/optee_os/lib/libutee/tee_api.c:35
    12e8:	461d      	mov	r5, r3
/home/hsk/Desktop/devel/tee-tpm-hyp/optee_os/lib/libutee/tee_api.c:23
    12ea:	e9c0 1300 	strd	r1, r3, [r0]
/home/hsk/Desktop/devel/tee-tpm-hyp/optee_os/lib/libutee/tee_api.c:25
    12ee:	fa21 f403 	lsr.w	r4, r1, r3
    12f2:	f004 040f 	and.w	r4, r4, #15
    12f6:	3c01      	subs	r4, #1
    12f8:	2c06      	cmp	r4, #6
    12fa:	d813      	bhi.n	1324 <__utee_from_param+0x44>
    12fc:	e8df f004 	tbb	[pc, r4]
    1300:	12040404 	.word	0x12040404
    1304:	0404      	.short	0x0404
    1306:	04          	.byte	0x04
    1307:	00          	.byte	0x00
/home/hsk/Desktop/devel/tee-tpm-hyp/optee_os/lib/libutee/tee_api.c:35
    1308:	f852 4013 	ldr.w	r4, [r2, r3, lsl #1]
    130c:	e9c0 4502 	strd	r4, r5, [r0, #8]
/home/hsk/Desktop/devel/tee-tpm-hyp/optee_os/lib/libutee/tee_api.c:36
    1310:	eb02 0443 	add.w	r4, r2, r3, lsl #1
    1314:	6864      	ldr	r4, [r4, #4]
    1316:	e9c0 4504 	strd	r4, r5, [r0, #16]
    131a:	3304      	adds	r3, #4
    131c:	3010      	adds	r0, #16
/home/hsk/Desktop/devel/tee-tpm-hyp/optee_os/lib/libutee/tee_api.c:24 (discriminator 2)
    131e:	2b10      	cmp	r3, #16
    1320:	d1e5      	bne.n	12ee <__utee_from_param+0xe>
/home/hsk/Desktop/devel/tee-tpm-hyp/optee_os/lib/libutee/tee_api.c:44
    1322:	bdf0      	pop	{r4, r5, r6, r7, pc}
/home/hsk/Desktop/devel/tee-tpm-hyp/optee_os/lib/libutee/tee_api.c:39
    1324:	e9c0 6702 	strd	r6, r7, [r0, #8]
/home/hsk/Desktop/devel/tee-tpm-hyp/optee_os/lib/libutee/tee_api.c:40
    1328:	e9c0 6704 	strd	r6, r7, [r0, #16]
/home/hsk/Desktop/devel/tee-tpm-hyp/optee_os/lib/libutee/tee_api.c:41
    132c:	e7f5      	b.n	131a <__utee_from_param+0x3a>

0000132e <__utee_to_param>:
__utee_to_param():
/home/hsk/Desktop/devel/tee-tpm-hyp/optee_os/lib/libutee/tee_api.c:48
    132e:	b5f0      	push	{r4, r5, r6, r7, lr}
/home/hsk/Desktop/devel/tee-tpm-hyp/optee_os/lib/libutee/tee_api.c:50
    1330:	2300      	movs	r3, #0
    1332:	6815      	ldr	r5, [r2, #0]
/home/hsk/Desktop/devel/tee-tpm-hyp/optee_os/lib/libutee/tee_api.c:56
    1334:	fa25 f403 	lsr.w	r4, r5, r3
/home/hsk/Desktop/devel/tee-tpm-hyp/optee_os/lib/libutee/tee_api.c:53
    1338:	6897      	ldr	r7, [r2, #8]
/home/hsk/Desktop/devel/tee-tpm-hyp/optee_os/lib/libutee/tee_api.c:56
    133a:	f004 040f 	and.w	r4, r4, #15
/home/hsk/Desktop/devel/tee-tpm-hyp/optee_os/lib/libutee/tee_api.c:54
    133e:	6916      	ldr	r6, [r2, #16]
/home/hsk/Desktop/devel/tee-tpm-hyp/optee_os/lib/libutee/tee_api.c:56
    1340:	3c01      	subs	r4, #1
    1342:	2c06      	cmp	r4, #6
    1344:	d80a      	bhi.n	135c <__utee_to_param+0x2e>
    1346:	e8df f004 	tbb	[pc, r4]
    134a:	0404      	.short	0x0404
    134c:	04040904 	.word	0x04040904
    1350:	04          	.byte	0x04
    1351:	00          	.byte	0x00
/home/hsk/Desktop/devel/tee-tpm-hyp/optee_os/lib/libutee/tee_api.c:67
    1352:	eb00 0443 	add.w	r4, r0, r3, lsl #1
/home/hsk/Desktop/devel/tee-tpm-hyp/optee_os/lib/libutee/tee_api.c:66
    1356:	f840 7013 	str.w	r7, [r0, r3, lsl #1]
/home/hsk/Desktop/devel/tee-tpm-hyp/optee_os/lib/libutee/tee_api.c:67
    135a:	6066      	str	r6, [r4, #4]
    135c:	3304      	adds	r3, #4
    135e:	3210      	adds	r2, #16
/home/hsk/Desktop/devel/tee-tpm-hyp/optee_os/lib/libutee/tee_api.c:52 (discriminator 2)
    1360:	2b10      	cmp	r3, #16
    1362:	d1e7      	bne.n	1334 <__utee_to_param+0x6>
/home/hsk/Desktop/devel/tee-tpm-hyp/optee_os/lib/libutee/tee_api.c:74
    1364:	b101      	cbz	r1, 1368 <__utee_to_param+0x3a>
/home/hsk/Desktop/devel/tee-tpm-hyp/optee_os/lib/libutee/tee_api.c:75
    1366:	600d      	str	r5, [r1, #0]
/home/hsk/Desktop/devel/tee-tpm-hyp/optee_os/lib/libutee/tee_api.c:76
    1368:	bdf0      	pop	{r4, r5, r6, r7, pc}

0000136a <TEE_OpenTASession>:
TEE_OpenTASession():
/home/hsk/Desktop/devel/tee-tpm-hyp/optee_os/lib/libutee/tee_api.c:84
    136a:	b5f0      	push	{r4, r5, r6, r7, lr}
    136c:	4605      	mov	r5, r0
    136e:	460f      	mov	r7, r1
    1370:	b097      	sub	sp, #92	; 0x5c
    1372:	4611      	mov	r1, r2
/home/hsk/Desktop/devel/tee-tpm-hyp/optee_os/lib/libutee/tee_api.c:89
    1374:	ac04      	add	r4, sp, #16
    1376:	461a      	mov	r2, r3
    1378:	4620      	mov	r0, r4
/home/hsk/Desktop/devel/tee-tpm-hyp/optee_os/lib/libutee/tee_api.c:84
    137a:	461e      	mov	r6, r3
/home/hsk/Desktop/devel/tee-tpm-hyp/optee_os/lib/libutee/tee_api.c:89
    137c:	f7ff ffb0 	bl	12e0 <__utee_from_param>
/home/hsk/Desktop/devel/tee-tpm-hyp/optee_os/lib/libutee/tee_api.c:90
    1380:	9b1d      	ldr	r3, [sp, #116]	; 0x74
    1382:	9300      	str	r3, [sp, #0]
    1384:	4622      	mov	r2, r4
    1386:	4639      	mov	r1, r7
    1388:	4628      	mov	r0, r5
    138a:	ab03      	add	r3, sp, #12
    138c:	f7ff ed88 	blx	ea0 <utee_open_ta_session>
/home/hsk/Desktop/devel/tee-tpm-hyp/optee_os/lib/libutee/tee_api.c:92
    1390:	4622      	mov	r2, r4
/home/hsk/Desktop/devel/tee-tpm-hyp/optee_os/lib/libutee/tee_api.c:90
    1392:	4605      	mov	r5, r0
/home/hsk/Desktop/devel/tee-tpm-hyp/optee_os/lib/libutee/tee_api.c:92
    1394:	2100      	movs	r1, #0
    1396:	4630      	mov	r0, r6
    1398:	f7ff ffc9 	bl	132e <__utee_to_param>
/home/hsk/Desktop/devel/tee-tpm-hyp/optee_os/lib/libutee/tee_api.c:98
    139c:	b10d      	cbz	r5, 13a2 <TEE_OpenTASession+0x38>
/home/hsk/Desktop/devel/tee-tpm-hyp/optee_os/lib/libutee/tee_api.c:99
    139e:	2300      	movs	r3, #0
    13a0:	9303      	str	r3, [sp, #12]
/home/hsk/Desktop/devel/tee-tpm-hyp/optee_os/lib/libutee/tee_api.c:101
    13a2:	9b1c      	ldr	r3, [sp, #112]	; 0x70
/home/hsk/Desktop/devel/tee-tpm-hyp/optee_os/lib/libutee/tee_api.c:103
    13a4:	4628      	mov	r0, r5
/home/hsk/Desktop/devel/tee-tpm-hyp/optee_os/lib/libutee/tee_api.c:101
    13a6:	9a03      	ldr	r2, [sp, #12]
    13a8:	601a      	str	r2, [r3, #0]
/home/hsk/Desktop/devel/tee-tpm-hyp/optee_os/lib/libutee/tee_api.c:103
    13aa:	b017      	add	sp, #92	; 0x5c
    13ac:	bdf0      	pop	{r4, r5, r6, r7, pc}

000013ae <TEE_CloseTASession>:
TEE_CloseTASession():
/home/hsk/Desktop/devel/tee-tpm-hyp/optee_os/lib/libutee/tee_api.c:106
    13ae:	b508      	push	{r3, lr}
/home/hsk/Desktop/devel/tee-tpm-hyp/optee_os/lib/libutee/tee_api.c:107
    13b0:	b130      	cbz	r0, 13c0 <TEE_CloseTASession+0x12>
/home/hsk/Desktop/devel/tee-tpm-hyp/optee_os/lib/libutee/tee_api.c:108
    13b2:	f7ff ed82 	blx	eb8 <utee_close_ta_session>
/home/hsk/Desktop/devel/tee-tpm-hyp/optee_os/lib/libutee/tee_api.c:110
    13b6:	b118      	cbz	r0, 13c0 <TEE_CloseTASession+0x12>
/home/hsk/Desktop/devel/tee-tpm-hyp/optee_os/lib/libutee/tee_api.c:113
    13b8:	e8bd 4008 	ldmia.w	sp!, {r3, lr}
/home/hsk/Desktop/devel/tee-tpm-hyp/optee_os/lib/libutee/tee_api.c:111
    13bc:	f004 bc6a 	b.w	5c94 <TEE_Panic>
/home/hsk/Desktop/devel/tee-tpm-hyp/optee_os/lib/libutee/tee_api.c:113
    13c0:	bd08      	pop	{r3, pc}

000013c2 <TEE_InvokeTACommand>:
TEE_InvokeTACommand():
/home/hsk/Desktop/devel/tee-tpm-hyp/optee_os/lib/libutee/tee_api.c:120
    13c2:	e92d 41f0 	stmdb	sp!, {r4, r5, r6, r7, r8, lr}
    13c6:	4604      	mov	r4, r0
    13c8:	460f      	mov	r7, r1
    13ca:	b096      	sub	sp, #88	; 0x58
/home/hsk/Desktop/devel/tee-tpm-hyp/optee_os/lib/libutee/tee_api.c:125
    13cc:	4619      	mov	r1, r3
    13ce:	ad04      	add	r5, sp, #16
/home/hsk/Desktop/devel/tee-tpm-hyp/optee_os/lib/libutee/tee_api.c:120
    13d0:	4690      	mov	r8, r2
/home/hsk/Desktop/devel/tee-tpm-hyp/optee_os/lib/libutee/tee_api.c:125
    13d2:	4628      	mov	r0, r5
/home/hsk/Desktop/devel/tee-tpm-hyp/optee_os/lib/libutee/tee_api.c:120
    13d4:	9e1d      	ldr	r6, [sp, #116]	; 0x74
/home/hsk/Desktop/devel/tee-tpm-hyp/optee_os/lib/libutee/tee_api.c:125
    13d6:	9a1c      	ldr	r2, [sp, #112]	; 0x70
    13d8:	f7ff ff82 	bl	12e0 <__utee_from_param>
/home/hsk/Desktop/devel/tee-tpm-hyp/optee_os/lib/libutee/tee_api.c:126
    13dc:	ab03      	add	r3, sp, #12
    13de:	4642      	mov	r2, r8
    13e0:	9300      	str	r3, [sp, #0]
    13e2:	4639      	mov	r1, r7
    13e4:	462b      	mov	r3, r5
    13e6:	4620      	mov	r0, r4
    13e8:	f7ff ed70 	blx	ecc <utee_invoke_ta_command>
/home/hsk/Desktop/devel/tee-tpm-hyp/optee_os/lib/libutee/tee_api.c:129
    13ec:	462a      	mov	r2, r5
/home/hsk/Desktop/devel/tee-tpm-hyp/optee_os/lib/libutee/tee_api.c:126
    13ee:	4604      	mov	r4, r0
/home/hsk/Desktop/devel/tee-tpm-hyp/optee_os/lib/libutee/tee_api.c:129
    13f0:	2100      	movs	r1, #0
    13f2:	981c      	ldr	r0, [sp, #112]	; 0x70
    13f4:	f7ff ff9b 	bl	132e <__utee_to_param>
    13f8:	9b03      	ldr	r3, [sp, #12]
/home/hsk/Desktop/devel/tee-tpm-hyp/optee_os/lib/libutee/tee_api.c:131
    13fa:	b106      	cbz	r6, 13fe <TEE_InvokeTACommand+0x3c>
/home/hsk/Desktop/devel/tee-tpm-hyp/optee_os/lib/libutee/tee_api.c:132
    13fc:	6033      	str	r3, [r6, #0]
/home/hsk/Desktop/devel/tee-tpm-hyp/optee_os/lib/libutee/tee_api.c:134
    13fe:	2b04      	cmp	r3, #4
    1400:	d009      	beq.n	1416 <TEE_InvokeTACommand+0x54>
/home/hsk/Desktop/devel/tee-tpm-hyp/optee_os/lib/libutee/tee_api.c:137
    1402:	b144      	cbz	r4, 1416 <TEE_InvokeTACommand+0x54>
/home/hsk/Desktop/devel/tee-tpm-hyp/optee_os/lib/libutee/tee_api.c:137 (discriminator 1)
    1404:	4b06      	ldr	r3, [pc, #24]	; (1420 <TEE_InvokeTACommand+0x5e>)
    1406:	429c      	cmp	r4, r3
    1408:	d005      	beq.n	1416 <TEE_InvokeTACommand+0x54>
/home/hsk/Desktop/devel/tee-tpm-hyp/optee_os/lib/libutee/tee_api.c:138
    140a:	4b06      	ldr	r3, [pc, #24]	; (1424 <TEE_InvokeTACommand+0x62>)
    140c:	429c      	cmp	r4, r3
    140e:	d002      	beq.n	1416 <TEE_InvokeTACommand+0x54>
/home/hsk/Desktop/devel/tee-tpm-hyp/optee_os/lib/libutee/tee_api.c:140
    1410:	4620      	mov	r0, r4
    1412:	f004 fc3f 	bl	5c94 <TEE_Panic>
/home/hsk/Desktop/devel/tee-tpm-hyp/optee_os/lib/libutee/tee_api.c:143
    1416:	4620      	mov	r0, r4
    1418:	b016      	add	sp, #88	; 0x58
    141a:	e8bd 81f0 	ldmia.w	sp!, {r4, r5, r6, r7, r8, pc}
    141e:	bf00      	nop
    1420:	ffff000c 	.word	0xffff000c
    1424:	ffff3024 	.word	0xffff3024

00001428 <TEE_GetCancellationFlag>:
TEE_GetCancellationFlag():
/home/hsk/Desktop/devel/tee-tpm-hyp/optee_os/lib/libutee/tee_api.c:148
    1428:	b507      	push	{r0, r1, r2, lr}
/home/hsk/Desktop/devel/tee-tpm-hyp/optee_os/lib/libutee/tee_api.c:150
    142a:	a801      	add	r0, sp, #4
    142c:	f7ff ed5a 	blx	ee4 <utee_get_cancellation_flag>
/home/hsk/Desktop/devel/tee-tpm-hyp/optee_os/lib/libutee/tee_api.c:152
    1430:	b108      	cbz	r0, 1436 <TEE_GetCancellationFlag+0xe>
/home/hsk/Desktop/devel/tee-tpm-hyp/optee_os/lib/libutee/tee_api.c:153
    1432:	2300      	movs	r3, #0
    1434:	9301      	str	r3, [sp, #4]
/home/hsk/Desktop/devel/tee-tpm-hyp/optee_os/lib/libutee/tee_api.c:155
    1436:	9801      	ldr	r0, [sp, #4]
    1438:	3000      	adds	r0, #0
    143a:	bf18      	it	ne
    143c:	2001      	movne	r0, #1
    143e:	b003      	add	sp, #12
    1440:	f85d fb04 	ldr.w	pc, [sp], #4

00001444 <TEE_UnmaskCancellation>:
TEE_UnmaskCancellation():
/home/hsk/Desktop/devel/tee-tpm-hyp/optee_os/lib/libutee/tee_api.c:158
    1444:	b507      	push	{r0, r1, r2, lr}
/home/hsk/Desktop/devel/tee-tpm-hyp/optee_os/lib/libutee/tee_api.c:160
    1446:	a801      	add	r0, sp, #4
    1448:	f7ff ed60 	blx	f0c <utee_unmask_cancellation>
/home/hsk/Desktop/devel/tee-tpm-hyp/optee_os/lib/libutee/tee_api.c:162
    144c:	b108      	cbz	r0, 1452 <TEE_UnmaskCancellation+0xe>
/home/hsk/Desktop/devel/tee-tpm-hyp/optee_os/lib/libutee/tee_api.c:163
    144e:	f004 fc21 	bl	5c94 <TEE_Panic>
/home/hsk/Desktop/devel/tee-tpm-hyp/optee_os/lib/libutee/tee_api.c:165
    1452:	9801      	ldr	r0, [sp, #4]
    1454:	3000      	adds	r0, #0
    1456:	bf18      	it	ne
    1458:	2001      	movne	r0, #1
    145a:	b003      	add	sp, #12
    145c:	f85d fb04 	ldr.w	pc, [sp], #4

00001460 <TEE_MaskCancellation>:
TEE_MaskCancellation():
/home/hsk/Desktop/devel/tee-tpm-hyp/optee_os/lib/libutee/tee_api.c:168
    1460:	b507      	push	{r0, r1, r2, lr}
/home/hsk/Desktop/devel/tee-tpm-hyp/optee_os/lib/libutee/tee_api.c:170
    1462:	a801      	add	r0, sp, #4
    1464:	f7ff ed5c 	blx	f20 <utee_mask_cancellation>
/home/hsk/Desktop/devel/tee-tpm-hyp/optee_os/lib/libutee/tee_api.c:172
    1468:	b108      	cbz	r0, 146e <TEE_MaskCancellation+0xe>
/home/hsk/Desktop/devel/tee-tpm-hyp/optee_os/lib/libutee/tee_api.c:173
    146a:	f004 fc13 	bl	5c94 <TEE_Panic>
/home/hsk/Desktop/devel/tee-tpm-hyp/optee_os/lib/libutee/tee_api.c:175
    146e:	9801      	ldr	r0, [sp, #4]
    1470:	3000      	adds	r0, #0
    1472:	bf18      	it	ne
    1474:	2001      	movne	r0, #1
    1476:	b003      	add	sp, #12
    1478:	f85d fb04 	ldr.w	pc, [sp], #4

0000147c <TEE_CheckMemoryAccessRights>:
TEE_CheckMemoryAccessRights():
/home/hsk/Desktop/devel/tee-tpm-hyp/optee_os/lib/libutee/tee_api.c:184
    147c:	b10a      	cbz	r2, 1482 <TEE_CheckMemoryAccessRights+0x6>
/home/hsk/Desktop/devel/tee-tpm-hyp/optee_os/lib/libutee/tee_api.c:188
    147e:	f004 bc67 	b.w	5d50 <__utee_check_access_rights_from_thumb>
/home/hsk/Desktop/devel/tee-tpm-hyp/optee_os/lib/libutee/tee_api.c:200
    1482:	4610      	mov	r0, r2
    1484:	4770      	bx	lr

00001486 <TEE_SetInstanceData>:
TEE_SetInstanceData():
/home/hsk/Desktop/devel/tee-tpm-hyp/optee_os/lib/libutee/tee_api.c:204
    1486:	4b02      	ldr	r3, [pc, #8]	; (1490 <TEE_SetInstanceData+0xa>)
    1488:	447b      	add	r3, pc
    148a:	6018      	str	r0, [r3, #0]
/home/hsk/Desktop/devel/tee-tpm-hyp/optee_os/lib/libutee/tee_api.c:205
    148c:	4770      	bx	lr
    148e:	bf00      	nop
    1490:	00006c34 	.word	0x00006c34

00001494 <TEE_GetInstanceData>:
TEE_GetInstanceData():
/home/hsk/Desktop/devel/tee-tpm-hyp/optee_os/lib/libutee/tee_api.c:210
    1494:	4b01      	ldr	r3, [pc, #4]	; (149c <TEE_GetInstanceData+0x8>)
    1496:	447b      	add	r3, pc
    1498:	6818      	ldr	r0, [r3, #0]
    149a:	4770      	bx	lr
    149c:	00006c26 	.word	0x00006c26

000014a0 <TEE_MemMove>:
TEE_MemMove():
/home/hsk/Desktop/devel/tee-tpm-hyp/optee_os/lib/libutee/tee_api.c:214
    14a0:	f004 bc2a 	b.w	5cf8 <memmove>

000014a4 <TEE_MemCompare>:
TEE_MemCompare():
/home/hsk/Desktop/devel/tee-tpm-hyp/optee_os/lib/libutee/tee_api.c:219
    14a4:	f004 bc0e 	b.w	5cc4 <memcmp>

000014a8 <TEE_MemFill>:
TEE_MemFill():
/home/hsk/Desktop/devel/tee-tpm-hyp/optee_os/lib/libutee/tee_api.c:224
    14a8:	f004 bc3f 	b.w	5d2a <memset>

000014ac <TEE_GetSystemTime>:
TEE_GetSystemTime():
/home/hsk/Desktop/devel/tee-tpm-hyp/optee_os/lib/libutee/tee_api.c:230
    14ac:	b508      	push	{r3, lr}
/home/hsk/Desktop/devel/tee-tpm-hyp/optee_os/lib/libutee/tee_api.c:231
    14ae:	4601      	mov	r1, r0
    14b0:	2000      	movs	r0, #0
    14b2:	f7ff ed4a 	blx	f48 <utee_get_time>
/home/hsk/Desktop/devel/tee-tpm-hyp/optee_os/lib/libutee/tee_api.c:233
    14b6:	b118      	cbz	r0, 14c0 <TEE_GetSystemTime+0x14>
/home/hsk/Desktop/devel/tee-tpm-hyp/optee_os/lib/libutee/tee_api.c:235
    14b8:	e8bd 4008 	ldmia.w	sp!, {r3, lr}
/home/hsk/Desktop/devel/tee-tpm-hyp/optee_os/lib/libutee/tee_api.c:234
    14bc:	f004 bbea 	b.w	5c94 <TEE_Panic>
/home/hsk/Desktop/devel/tee-tpm-hyp/optee_os/lib/libutee/tee_api.c:235
    14c0:	bd08      	pop	{r3, pc}

000014c2 <TEE_Wait>:
TEE_Wait():
/home/hsk/Desktop/devel/tee-tpm-hyp/optee_os/lib/libutee/tee_api.c:238
    14c2:	b510      	push	{r4, lr}
/home/hsk/Desktop/devel/tee-tpm-hyp/optee_os/lib/libutee/tee_api.c:239
    14c4:	f7ff ed36 	blx	f34 <utee_wait>
/home/hsk/Desktop/devel/tee-tpm-hyp/optee_os/lib/libutee/tee_api.c:241
    14c8:	4604      	mov	r4, r0
    14ca:	b120      	cbz	r0, 14d6 <TEE_Wait+0x14>
/home/hsk/Desktop/devel/tee-tpm-hyp/optee_os/lib/libutee/tee_api.c:241 (discriminator 1)
    14cc:	4b03      	ldr	r3, [pc, #12]	; (14dc <TEE_Wait+0x1a>)
    14ce:	4298      	cmp	r0, r3
    14d0:	d001      	beq.n	14d6 <TEE_Wait+0x14>
/home/hsk/Desktop/devel/tee-tpm-hyp/optee_os/lib/libutee/tee_api.c:242
    14d2:	f004 fbdf 	bl	5c94 <TEE_Panic>
/home/hsk/Desktop/devel/tee-tpm-hyp/optee_os/lib/libutee/tee_api.c:245
    14d6:	4620      	mov	r0, r4
    14d8:	bd10      	pop	{r4, pc}
    14da:	bf00      	nop
    14dc:	ffff0002 	.word	0xffff0002

000014e0 <TEE_GetTAPersistentTime>:
TEE_GetTAPersistentTime():
/home/hsk/Desktop/devel/tee-tpm-hyp/optee_os/lib/libutee/tee_api.c:248
    14e0:	b538      	push	{r3, r4, r5, lr}
/home/hsk/Desktop/devel/tee-tpm-hyp/optee_os/lib/libutee/tee_api.c:251
    14e2:	4601      	mov	r1, r0
/home/hsk/Desktop/devel/tee-tpm-hyp/optee_os/lib/libutee/tee_api.c:248
    14e4:	4605      	mov	r5, r0
/home/hsk/Desktop/devel/tee-tpm-hyp/optee_os/lib/libutee/tee_api.c:251
    14e6:	2001      	movs	r0, #1
    14e8:	f7ff ed2e 	blx	f48 <utee_get_time>
/home/hsk/Desktop/devel/tee-tpm-hyp/optee_os/lib/libutee/tee_api.c:253
    14ec:	4604      	mov	r4, r0
    14ee:	b170      	cbz	r0, 150e <TEE_GetTAPersistentTime+0x2e>
/home/hsk/Desktop/devel/tee-tpm-hyp/optee_os/lib/libutee/tee_api.c:253 (discriminator 1)
    14f0:	4b08      	ldr	r3, [pc, #32]	; (1514 <TEE_GetTAPersistentTime+0x34>)
    14f2:	4298      	cmp	r0, r3
    14f4:	d00b      	beq.n	150e <TEE_GetTAPersistentTime+0x2e>
/home/hsk/Desktop/devel/tee-tpm-hyp/optee_os/lib/libutee/tee_api.c:254
    14f6:	2300      	movs	r3, #0
    14f8:	602b      	str	r3, [r5, #0]
/home/hsk/Desktop/devel/tee-tpm-hyp/optee_os/lib/libutee/tee_api.c:255
    14fa:	606b      	str	r3, [r5, #4]
/home/hsk/Desktop/devel/tee-tpm-hyp/optee_os/lib/libutee/tee_api.c:258
    14fc:	f500 4330 	add.w	r3, r0, #45056	; 0xb000
    1500:	2b01      	cmp	r3, #1
    1502:	d904      	bls.n	150e <TEE_GetTAPersistentTime+0x2e>
/home/hsk/Desktop/devel/tee-tpm-hyp/optee_os/lib/libutee/tee_api.c:261
    1504:	4b04      	ldr	r3, [pc, #16]	; (1518 <TEE_GetTAPersistentTime+0x38>)
    1506:	4298      	cmp	r0, r3
    1508:	d001      	beq.n	150e <TEE_GetTAPersistentTime+0x2e>
/home/hsk/Desktop/devel/tee-tpm-hyp/optee_os/lib/libutee/tee_api.c:263
    150a:	f004 fbc3 	bl	5c94 <TEE_Panic>
/home/hsk/Desktop/devel/tee-tpm-hyp/optee_os/lib/libutee/tee_api.c:266
    150e:	4620      	mov	r0, r4
    1510:	bd38      	pop	{r3, r4, r5, pc}
    1512:	bf00      	nop
    1514:	ffff300f 	.word	0xffff300f
    1518:	ffff000c 	.word	0xffff000c

0000151c <TEE_SetTAPersistentTime>:
TEE_SetTAPersistentTime():
/home/hsk/Desktop/devel/tee-tpm-hyp/optee_os/lib/libutee/tee_api.c:269
    151c:	b510      	push	{r4, lr}
/home/hsk/Desktop/devel/tee-tpm-hyp/optee_os/lib/libutee/tee_api.c:272
    151e:	f7ff ed1e 	blx	f5c <utee_set_ta_time>
/home/hsk/Desktop/devel/tee-tpm-hyp/optee_os/lib/libutee/tee_api.c:274
    1522:	4604      	mov	r4, r0
    1524:	b138      	cbz	r0, 1536 <TEE_SetTAPersistentTime+0x1a>
/home/hsk/Desktop/devel/tee-tpm-hyp/optee_os/lib/libutee/tee_api.c:274 (discriminator 1)
    1526:	4b05      	ldr	r3, [pc, #20]	; (153c <TEE_SetTAPersistentTime+0x20>)
    1528:	4298      	cmp	r0, r3
    152a:	d004      	beq.n	1536 <TEE_SetTAPersistentTime+0x1a>
/home/hsk/Desktop/devel/tee-tpm-hyp/optee_os/lib/libutee/tee_api.c:275
    152c:	4b04      	ldr	r3, [pc, #16]	; (1540 <TEE_SetTAPersistentTime+0x24>)
    152e:	4298      	cmp	r0, r3
    1530:	d001      	beq.n	1536 <TEE_SetTAPersistentTime+0x1a>
/home/hsk/Desktop/devel/tee-tpm-hyp/optee_os/lib/libutee/tee_api.c:277
    1532:	f004 fbaf 	bl	5c94 <TEE_Panic>
/home/hsk/Desktop/devel/tee-tpm-hyp/optee_os/lib/libutee/tee_api.c:280
    1536:	4620      	mov	r0, r4
    1538:	bd10      	pop	{r4, pc}
    153a:	bf00      	nop
    153c:	ffff000c 	.word	0xffff000c
    1540:	ffff3041 	.word	0xffff3041

00001544 <TEE_GetREETime>:
TEE_GetREETime():
/home/hsk/Desktop/devel/tee-tpm-hyp/optee_os/lib/libutee/tee_api.c:283
    1544:	b508      	push	{r3, lr}
/home/hsk/Desktop/devel/tee-tpm-hyp/optee_os/lib/libutee/tee_api.c:284
    1546:	4601      	mov	r1, r0
    1548:	2002      	movs	r0, #2
    154a:	f7ff ecfe 	blx	f48 <utee_get_time>
/home/hsk/Desktop/devel/tee-tpm-hyp/optee_os/lib/libutee/tee_api.c:286
    154e:	b118      	cbz	r0, 1558 <TEE_GetREETime+0x14>
/home/hsk/Desktop/devel/tee-tpm-hyp/optee_os/lib/libutee/tee_api.c:288
    1550:	e8bd 4008 	ldmia.w	sp!, {r3, lr}
/home/hsk/Desktop/devel/tee-tpm-hyp/optee_os/lib/libutee/tee_api.c:287
    1554:	f004 bb9e 	b.w	5c94 <TEE_Panic>
/home/hsk/Desktop/devel/tee-tpm-hyp/optee_os/lib/libutee/tee_api.c:288
    1558:	bd08      	pop	{r3, pc}

0000155a <TEE_Malloc>:
TEE_Malloc():
/home/hsk/Desktop/devel/tee-tpm-hyp/optee_os/lib/libutee/tee_api.c:291
    155a:	b507      	push	{r0, r1, r2, lr}
/home/hsk/Desktop/devel/tee-tpm-hyp/optee_os/lib/libutee/tee_api.c:292
    155c:	b931      	cbnz	r1, 156c <TEE_Malloc+0x12>
/home/hsk/Desktop/devel/tee-tpm-hyp/optee_os/lib/libutee/tee_api.c:293
    155e:	4601      	mov	r1, r0
    1560:	2001      	movs	r0, #1
/home/hsk/Desktop/devel/tee-tpm-hyp/optee_os/lib/libutee/tee_api.c:300
    1562:	b003      	add	sp, #12
    1564:	f85d eb04 	ldr.w	lr, [sp], #4
/home/hsk/Desktop/devel/tee-tpm-hyp/optee_os/lib/libutee/tee_api.c:293
    1568:	f003 bf74 	b.w	5454 <calloc>
/home/hsk/Desktop/devel/tee-tpm-hyp/optee_os/lib/libutee/tee_api.c:294
    156c:	f1b1 4f00 	cmp.w	r1, #2147483648	; 0x80000000
    1570:	d104      	bne.n	157c <TEE_Malloc+0x22>
/home/hsk/Desktop/devel/tee-tpm-hyp/optee_os/lib/libutee/tee_api.c:300
    1572:	b003      	add	sp, #12
    1574:	f85d eb04 	ldr.w	lr, [sp], #4
/home/hsk/Desktop/devel/tee-tpm-hyp/optee_os/lib/libutee/tee_api.c:295
    1578:	f003 bf48 	b.w	540c <malloc>
/home/hsk/Desktop/devel/tee-tpm-hyp/optee_os/lib/libutee/tee_api.c:297
    157c:	4b07      	ldr	r3, [pc, #28]	; (159c <TEE_Malloc+0x42>)
    157e:	4808      	ldr	r0, [pc, #32]	; (15a0 <TEE_Malloc+0x46>)
    1580:	447b      	add	r3, pc
    1582:	9300      	str	r3, [sp, #0]
    1584:	2301      	movs	r3, #1
    1586:	9101      	str	r1, [sp, #4]
    1588:	461a      	mov	r2, r3
    158a:	f240 1129 	movw	r1, #297	; 0x129
    158e:	4478      	add	r0, pc
    1590:	f7fe fe2e 	bl	1f0 <trace_printf>
/home/hsk/Desktop/devel/tee-tpm-hyp/optee_os/lib/libutee/tee_api.c:300
    1594:	2000      	movs	r0, #0
    1596:	b003      	add	sp, #12
    1598:	f85d fb04 	ldr.w	pc, [sp], #4
    159c:	00004d4e 	.word	0x00004d4e
    15a0:	00004d35 	.word	0x00004d35

000015a4 <TEE_Realloc>:
TEE_Realloc():
/home/hsk/Desktop/devel/tee-tpm-hyp/optee_os/lib/libutee/tee_api.c:304
    15a4:	f003 bf7a 	b.w	549c <realloc>

000015a8 <TEE_Free>:
TEE_Free():
/home/hsk/Desktop/devel/tee-tpm-hyp/optee_os/lib/libutee/tee_api.c:309
    15a8:	f003 bf4c 	b.w	5444 <free>

000015ac <TEE_CacheClean>:
TEE_CacheClean():
/home/hsk/Desktop/devel/tee-tpm-hyp/optee_os/lib/libutee/tee_api.c:315
    15ac:	2200      	movs	r2, #0
    15ae:	f004 bbd7 	b.w	5d60 <__utee_cache_operation_from_thumb>

000015b2 <TEE_CacheFlush>:
TEE_CacheFlush():
/home/hsk/Desktop/devel/tee-tpm-hyp/optee_os/lib/libutee/tee_api.c:319
    15b2:	2201      	movs	r2, #1
    15b4:	f004 bbd4 	b.w	5d60 <__utee_cache_operation_from_thumb>

000015b8 <TEE_CacheInvalidate>:
TEE_CacheInvalidate():
/home/hsk/Desktop/devel/tee-tpm-hyp/optee_os/lib/libutee/tee_api.c:324
    15b8:	2202      	movs	r2, #2
    15ba:	f004 bbd1 	b.w	5d60 <__utee_cache_operation_from_thumb>
    15be:	bf00      	nop

000015c0 <mpi_panic>:
mpi_panic():
/home/hsk/Desktop/devel/tee-tpm-hyp/optee_os/lib/libutee/tee_api_arith_mpi.c:29
    15c0:	b508      	push	{r3, lr}
/home/hsk/Desktop/devel/tee-tpm-hyp/optee_os/lib/libutee/tee_api_arith_mpi.c:30
    15c2:	4613      	mov	r3, r2
    15c4:	460a      	mov	r2, r1
    15c6:	4601      	mov	r1, r0
    15c8:	4804      	ldr	r0, [pc, #16]	; (15dc <mpi_panic+0x1c>)
    15ca:	4478      	add	r0, pc
    15cc:	f7ff fae1 	bl	b92 <printf>
/home/hsk/Desktop/devel/tee-tpm-hyp/optee_os/lib/libutee/tee_api_arith_mpi.c:31
    15d0:	4801      	ldr	r0, [pc, #4]	; (15d8 <mpi_panic+0x18>)
    15d2:	f004 fb5f 	bl	5c94 <TEE_Panic>
    15d6:	e7fe      	b.n	15d6 <mpi_panic+0x16>
    15d8:	00b16127 	.word	0x00b16127
    15dc:	00004e78 	.word	0x00004e78

000015e0 <get_mpi>:
get_mpi():
/home/hsk/Desktop/devel/tee-tpm-hyp/optee_os/lib/libutee/tee_api_arith_mpi.c:81
    15e0:	b507      	push	{r0, r1, r2, lr}
/home/hsk/Desktop/devel/tee-tpm-hyp/optee_os/lib/libutee/tee_api_arith_mpi.c:96
    15e2:	b151      	cbz	r1, 15fa <get_mpi+0x1a>
init_static_mpi():
/home/hsk/Desktop/devel/tee-tpm-hyp/optee_os/lib/libutee/tee_api_arith_mpi.c:65
    15e4:	88ca      	ldrh	r2, [r1, #6]
    15e6:	888b      	ldrh	r3, [r1, #4]
    15e8:	3108      	adds	r1, #8
    15ea:	9200      	str	r2, [sp, #0]
    15ec:	f851 2c08 	ldr.w	r2, [r1, #-8]
    15f0:	f001 fad2 	bl	2b98 <mbedtls_mpi_init_static>
get_mpi():
/home/hsk/Desktop/devel/tee-tpm-hyp/optee_os/lib/libutee/tee_api_arith_mpi.c:100
    15f4:	b003      	add	sp, #12
    15f6:	f85d fb04 	ldr.w	pc, [sp], #4
    15fa:	b003      	add	sp, #12
    15fc:	f85d eb04 	ldr.w	lr, [sp], #4
/home/hsk/Desktop/devel/tee-tpm-hyp/optee_os/lib/libutee/tee_api_arith_mpi.c:99
    1600:	f001 bab8 	b.w	2b74 <mbedtls_mpi_init_mempool>

00001604 <mpi_is_odd>:
mpi_is_odd():
/home/hsk/Desktop/devel/tee-tpm-hyp/optee_os/lib/libutee/tee_api_arith_mpi.c:599
    1604:	b508      	push	{r3, lr}
/home/hsk/Desktop/devel/tee-tpm-hyp/optee_os/lib/libutee/tee_api_arith_mpi.c:600
    1606:	2100      	movs	r1, #0
    1608:	f001 fc87 	bl	2f1a <mbedtls_mpi_get_bit>
/home/hsk/Desktop/devel/tee-tpm-hyp/optee_os/lib/libutee/tee_api_arith_mpi.c:601
    160c:	3000      	adds	r0, #0
    160e:	bf18      	it	ne
    1610:	2001      	movne	r0, #1
    1612:	bd08      	pop	{r3, pc}

00001614 <rng_read>:
rng_read():
/home/hsk/Desktop/devel/tee-tpm-hyp/optee_os/lib/libutee/tee_api_arith_mpi.c:763
    1614:	b508      	push	{r3, lr}
    1616:	4608      	mov	r0, r1
/home/hsk/Desktop/devel/tee-tpm-hyp/optee_os/lib/libutee/tee_api_arith_mpi.c:764
    1618:	4611      	mov	r1, r2
    161a:	f7ff ed66 	blx	10e8 <utee_cryp_random_number_generate>
    161e:	2800      	cmp	r0, #0
/home/hsk/Desktop/devel/tee-tpm-hyp/optee_os/lib/libutee/tee_api_arith_mpi.c:767
    1620:	f06f 0001 	mvn.w	r0, #1
    1624:	bf08      	it	eq
    1626:	2000      	moveq	r0, #0
    1628:	bd08      	pop	{r3, pc}

0000162a <put_mpi>:
put_mpi():
/home/hsk/Desktop/devel/tee-tpm-hyp/optee_os/lib/libutee/tee_api_arith_mpi.c:128
    162a:	7842      	ldrb	r2, [r0, #1]
    162c:	2a02      	cmp	r2, #2
    162e:	d108      	bne.n	1642 <put_mpi+0x18>
/home/hsk/Desktop/devel/tee-tpm-hyp/optee_os/lib/libutee/tee_api_arith_mpi.c:129
    1630:	6882      	ldr	r2, [r0, #8]
/home/hsk/Desktop/devel/tee-tpm-hyp/optee_os/lib/libutee/tee_api_arith_mpi.c:131
    1632:	f990 1000 	ldrsb.w	r1, [r0]
/home/hsk/Desktop/devel/tee-tpm-hyp/optee_os/lib/libutee/tee_api_arith_mpi.c:132
    1636:	8883      	ldrh	r3, [r0, #4]
/home/hsk/Desktop/devel/tee-tpm-hyp/optee_os/lib/libutee/tee_api_arith_mpi.c:131
    1638:	f842 1c08 	str.w	r1, [r2, #-8]
/home/hsk/Desktop/devel/tee-tpm-hyp/optee_os/lib/libutee/tee_api_arith_mpi.c:132
    163c:	f822 3c02 	strh.w	r3, [r2, #-2]
/home/hsk/Desktop/devel/tee-tpm-hyp/optee_os/lib/libutee/tee_api_arith_mpi.c:136
    1640:	4770      	bx	lr
/home/hsk/Desktop/devel/tee-tpm-hyp/optee_os/lib/libutee/tee_api_arith_mpi.c:134
    1642:	f001 bab2 	b.w	2baa <mbedtls_mpi_free>

00001646 <mpi_egcd>:
mpi_egcd():
/home/hsk/Desktop/devel/tee-tpm-hyp/optee_os/lib/libutee/tee_api_arith_mpi.c:614
    1646:	e92d 4ff0 	stmdb	sp!, {r4, r5, r6, r7, r8, r9, sl, fp, lr}
    164a:	4681      	mov	r9, r0
    164c:	b09b      	sub	sp, #108	; 0x6c
get_mpi():
/home/hsk/Desktop/devel/tee-tpm-hyp/optee_os/lib/libutee/tee_api_arith_mpi.c:99
    164e:	f10d 0814 	add.w	r8, sp, #20
    1652:	af08      	add	r7, sp, #32
    1654:	4640      	mov	r0, r8
    1656:	ad0b      	add	r5, sp, #44	; 0x2c
mpi_egcd():
/home/hsk/Desktop/devel/tee-tpm-hyp/optee_os/lib/libutee/tee_api_arith_mpi.c:614
    1658:	9102      	str	r1, [sp, #8]
get_mpi():
/home/hsk/Desktop/devel/tee-tpm-hyp/optee_os/lib/libutee/tee_api_arith_mpi.c:99
    165a:	ac0e      	add	r4, sp, #56	; 0x38
mpi_egcd():
/home/hsk/Desktop/devel/tee-tpm-hyp/optee_os/lib/libutee/tee_api_arith_mpi.c:614
    165c:	9203      	str	r2, [sp, #12]
get_mpi():
/home/hsk/Desktop/devel/tee-tpm-hyp/optee_os/lib/libutee/tee_api_arith_mpi.c:99
    165e:	f10d 0a44 	add.w	sl, sp, #68	; 0x44
mpi_egcd():
/home/hsk/Desktop/devel/tee-tpm-hyp/optee_os/lib/libutee/tee_api_arith_mpi.c:614
    1662:	9301      	str	r3, [sp, #4]
get_mpi():
/home/hsk/Desktop/devel/tee-tpm-hyp/optee_os/lib/libutee/tee_api_arith_mpi.c:99
    1664:	f001 fa86 	bl	2b74 <mbedtls_mpi_init_mempool>
    1668:	4638      	mov	r0, r7
    166a:	f10d 0b50 	add.w	fp, sp, #80	; 0x50
    166e:	f001 fa81 	bl	2b74 <mbedtls_mpi_init_mempool>
    1672:	4628      	mov	r0, r5
    1674:	f001 fa7e 	bl	2b74 <mbedtls_mpi_init_mempool>
    1678:	4620      	mov	r0, r4
    167a:	f001 fa7b 	bl	2b74 <mbedtls_mpi_init_mempool>
    167e:	4650      	mov	r0, sl
    1680:	f001 fa78 	bl	2b74 <mbedtls_mpi_init_mempool>
    1684:	ae17      	add	r6, sp, #92	; 0x5c
    1686:	4658      	mov	r0, fp
    1688:	f001 fa74 	bl	2b74 <mbedtls_mpi_init_mempool>
    168c:	4630      	mov	r0, r6
    168e:	f001 fa71 	bl	2b74 <mbedtls_mpi_init_mempool>
mpi_egcd():
/home/hsk/Desktop/devel/tee-tpm-hyp/optee_os/lib/libutee/tee_api_arith_mpi.c:633
    1692:	2100      	movs	r1, #0
    1694:	9824      	ldr	r0, [sp, #144]	; 0x90
    1696:	f001 fe12 	bl	32be <mbedtls_mpi_cmp_int>
    169a:	bb18      	cbnz	r0, 16e4 <mpi_egcd+0x9e>
/home/hsk/Desktop/devel/tee-tpm-hyp/optee_os/lib/libutee/tee_api_arith_mpi.c:634
    169c:	2101      	movs	r1, #1
    169e:	9802      	ldr	r0, [sp, #8]
    16a0:	f001 fc1f 	bl	2ee2 <mbedtls_mpi_lset>
    16a4:	4602      	mov	r2, r0
    16a6:	b128      	cbz	r0, 16b4 <mpi_egcd+0x6e>
/home/hsk/Desktop/devel/tee-tpm-hyp/optee_os/lib/libutee/tee_api_arith_mpi.c:634 (discriminator 1)
    16a8:	48dd      	ldr	r0, [pc, #884]	; (1a20 <mpi_egcd+0x3da>)
    16aa:	f240 217a 	movw	r1, #634	; 0x27a
    16ae:	4478      	add	r0, pc
/home/hsk/Desktop/devel/tee-tpm-hyp/optee_os/lib/libutee/tee_api_arith_mpi.c:635 (discriminator 1)
    16b0:	f7ff ff86 	bl	15c0 <mpi_panic>
/home/hsk/Desktop/devel/tee-tpm-hyp/optee_os/lib/libutee/tee_api_arith_mpi.c:635
    16b4:	4601      	mov	r1, r0
    16b6:	9803      	ldr	r0, [sp, #12]
    16b8:	f001 fc13 	bl	2ee2 <mbedtls_mpi_lset>
    16bc:	4602      	mov	r2, r0
    16be:	b120      	cbz	r0, 16ca <mpi_egcd+0x84>
/home/hsk/Desktop/devel/tee-tpm-hyp/optee_os/lib/libutee/tee_api_arith_mpi.c:635 (discriminator 1)
    16c0:	48d8      	ldr	r0, [pc, #864]	; (1a24 <mpi_egcd+0x3de>)
    16c2:	f240 217b 	movw	r1, #635	; 0x27b
    16c6:	4478      	add	r0, pc
    16c8:	e7f2      	b.n	16b0 <mpi_egcd+0x6a>
/home/hsk/Desktop/devel/tee-tpm-hyp/optee_os/lib/libutee/tee_api_arith_mpi.c:636
    16ca:	9901      	ldr	r1, [sp, #4]
    16cc:	4648      	mov	r0, r9
    16ce:	f001 fb4d 	bl	2d6c <mbedtls_mpi_copy>
    16d2:	4602      	mov	r2, r0
    16d4:	2800      	cmp	r0, #0
    16d6:	f000 818a 	beq.w	19ee <mpi_egcd+0x3a8>
/home/hsk/Desktop/devel/tee-tpm-hyp/optee_os/lib/libutee/tee_api_arith_mpi.c:636 (discriminator 1)
    16da:	48d3      	ldr	r0, [pc, #844]	; (1a28 <mpi_egcd+0x3e2>)
    16dc:	f44f 711f 	mov.w	r1, #636	; 0x27c
    16e0:	4478      	add	r0, pc
    16e2:	e7e5      	b.n	16b0 <mpi_egcd+0x6a>
/home/hsk/Desktop/devel/tee-tpm-hyp/optee_os/lib/libutee/tee_api_arith_mpi.c:640
    16e4:	9901      	ldr	r1, [sp, #4]
    16e6:	4650      	mov	r0, sl
    16e8:	f001 fb40 	bl	2d6c <mbedtls_mpi_copy>
    16ec:	4602      	mov	r2, r0
    16ee:	b120      	cbz	r0, 16fa <mpi_egcd+0xb4>
/home/hsk/Desktop/devel/tee-tpm-hyp/optee_os/lib/libutee/tee_api_arith_mpi.c:640 (discriminator 1)
    16f0:	48ce      	ldr	r0, [pc, #824]	; (1a2c <mpi_egcd+0x3e6>)
    16f2:	f44f 7120 	mov.w	r1, #640	; 0x280
    16f6:	4478      	add	r0, pc
    16f8:	e7da      	b.n	16b0 <mpi_egcd+0x6a>
/home/hsk/Desktop/devel/tee-tpm-hyp/optee_os/lib/libutee/tee_api_arith_mpi.c:641
    16fa:	9924      	ldr	r1, [sp, #144]	; 0x90
    16fc:	4658      	mov	r0, fp
    16fe:	f001 fb35 	bl	2d6c <mbedtls_mpi_copy>
    1702:	4602      	mov	r2, r0
    1704:	b178      	cbz	r0, 1726 <mpi_egcd+0xe0>
/home/hsk/Desktop/devel/tee-tpm-hyp/optee_os/lib/libutee/tee_api_arith_mpi.c:641 (discriminator 1)
    1706:	48ca      	ldr	r0, [pc, #808]	; (1a30 <mpi_egcd+0x3ea>)
    1708:	f240 2181 	movw	r1, #641	; 0x281
    170c:	4478      	add	r0, pc
    170e:	e7cf      	b.n	16b0 <mpi_egcd+0x6a>
/home/hsk/Desktop/devel/tee-tpm-hyp/optee_os/lib/libutee/tee_api_arith_mpi.c:647
    1710:	2101      	movs	r1, #1
    1712:	4658      	mov	r0, fp
    1714:	f001 fd18 	bl	3148 <mbedtls_mpi_shift_r>
    1718:	4602      	mov	r2, r0
    171a:	b128      	cbz	r0, 1728 <mpi_egcd+0xe2>
/home/hsk/Desktop/devel/tee-tpm-hyp/optee_os/lib/libutee/tee_api_arith_mpi.c:647 (discriminator 1)
    171c:	48c5      	ldr	r0, [pc, #788]	; (1a34 <mpi_egcd+0x3ee>)
    171e:	f240 2187 	movw	r1, #647	; 0x287
    1722:	4478      	add	r0, pc
    1724:	e7c4      	b.n	16b0 <mpi_egcd+0x6a>
/home/hsk/Desktop/devel/tee-tpm-hyp/optee_os/lib/libutee/tee_api_arith_mpi.c:643
    1726:	9001      	str	r0, [sp, #4]
mpi_is_even():
/home/hsk/Desktop/devel/tee-tpm-hyp/optee_os/lib/libutee/tee_api_arith_mpi.c:605
    1728:	4650      	mov	r0, sl
    172a:	f7ff ff6b 	bl	1604 <mpi_is_odd>
mpi_egcd():
/home/hsk/Desktop/devel/tee-tpm-hyp/optee_os/lib/libutee/tee_api_arith_mpi.c:644
    172e:	b150      	cbz	r0, 1746 <mpi_egcd+0x100>
/home/hsk/Desktop/devel/tee-tpm-hyp/optee_os/lib/libutee/tee_api_arith_mpi.c:650
    1730:	4651      	mov	r1, sl
    1732:	4630      	mov	r0, r6
    1734:	f001 fb1a 	bl	2d6c <mbedtls_mpi_copy>
    1738:	4602      	mov	r2, r0
    173a:	b1c0      	cbz	r0, 176e <mpi_egcd+0x128>
/home/hsk/Desktop/devel/tee-tpm-hyp/optee_os/lib/libutee/tee_api_arith_mpi.c:650 (discriminator 1)
    173c:	48be      	ldr	r0, [pc, #760]	; (1a38 <mpi_egcd+0x3f2>)
    173e:	f240 218a 	movw	r1, #650	; 0x28a
    1742:	4478      	add	r0, pc
    1744:	e7b4      	b.n	16b0 <mpi_egcd+0x6a>
mpi_is_even():
/home/hsk/Desktop/devel/tee-tpm-hyp/optee_os/lib/libutee/tee_api_arith_mpi.c:605
    1746:	4658      	mov	r0, fp
    1748:	f7ff ff5c 	bl	1604 <mpi_is_odd>
mpi_egcd():
/home/hsk/Desktop/devel/tee-tpm-hyp/optee_os/lib/libutee/tee_api_arith_mpi.c:644
    174c:	2800      	cmp	r0, #0
    174e:	d1ef      	bne.n	1730 <mpi_egcd+0xea>
/home/hsk/Desktop/devel/tee-tpm-hyp/optee_os/lib/libutee/tee_api_arith_mpi.c:645
    1750:	9b01      	ldr	r3, [sp, #4]
/home/hsk/Desktop/devel/tee-tpm-hyp/optee_os/lib/libutee/tee_api_arith_mpi.c:646
    1752:	2101      	movs	r1, #1
    1754:	4650      	mov	r0, sl
/home/hsk/Desktop/devel/tee-tpm-hyp/optee_os/lib/libutee/tee_api_arith_mpi.c:645
    1756:	3301      	adds	r3, #1
    1758:	9301      	str	r3, [sp, #4]
/home/hsk/Desktop/devel/tee-tpm-hyp/optee_os/lib/libutee/tee_api_arith_mpi.c:646
    175a:	f001 fcf5 	bl	3148 <mbedtls_mpi_shift_r>
    175e:	4602      	mov	r2, r0
    1760:	2800      	cmp	r0, #0
    1762:	d0d5      	beq.n	1710 <mpi_egcd+0xca>
/home/hsk/Desktop/devel/tee-tpm-hyp/optee_os/lib/libutee/tee_api_arith_mpi.c:646 (discriminator 1)
    1764:	48b5      	ldr	r0, [pc, #724]	; (1a3c <mpi_egcd+0x3f6>)
    1766:	f240 2186 	movw	r1, #646	; 0x286
    176a:	4478      	add	r0, pc
    176c:	e7a0      	b.n	16b0 <mpi_egcd+0x6a>
/home/hsk/Desktop/devel/tee-tpm-hyp/optee_os/lib/libutee/tee_api_arith_mpi.c:651
    176e:	4659      	mov	r1, fp
    1770:	4648      	mov	r0, r9
    1772:	f001 fafb 	bl	2d6c <mbedtls_mpi_copy>
    1776:	4602      	mov	r2, r0
    1778:	b120      	cbz	r0, 1784 <mpi_egcd+0x13e>
/home/hsk/Desktop/devel/tee-tpm-hyp/optee_os/lib/libutee/tee_api_arith_mpi.c:651 (discriminator 1)
    177a:	48b1      	ldr	r0, [pc, #708]	; (1a40 <mpi_egcd+0x3fa>)
    177c:	f240 218b 	movw	r1, #651	; 0x28b
    1780:	4478      	add	r0, pc
    1782:	e795      	b.n	16b0 <mpi_egcd+0x6a>
/home/hsk/Desktop/devel/tee-tpm-hyp/optee_os/lib/libutee/tee_api_arith_mpi.c:652
    1784:	2101      	movs	r1, #1
    1786:	4640      	mov	r0, r8
    1788:	f001 fbab 	bl	2ee2 <mbedtls_mpi_lset>
    178c:	4602      	mov	r2, r0
    178e:	b120      	cbz	r0, 179a <mpi_egcd+0x154>
/home/hsk/Desktop/devel/tee-tpm-hyp/optee_os/lib/libutee/tee_api_arith_mpi.c:652 (discriminator 1)
    1790:	48ac      	ldr	r0, [pc, #688]	; (1a44 <mpi_egcd+0x3fe>)
    1792:	f44f 7123 	mov.w	r1, #652	; 0x28c
    1796:	4478      	add	r0, pc
    1798:	e78a      	b.n	16b0 <mpi_egcd+0x6a>
/home/hsk/Desktop/devel/tee-tpm-hyp/optee_os/lib/libutee/tee_api_arith_mpi.c:653
    179a:	4601      	mov	r1, r0
    179c:	4638      	mov	r0, r7
    179e:	f001 fba0 	bl	2ee2 <mbedtls_mpi_lset>
    17a2:	4602      	mov	r2, r0
    17a4:	b120      	cbz	r0, 17b0 <mpi_egcd+0x16a>
/home/hsk/Desktop/devel/tee-tpm-hyp/optee_os/lib/libutee/tee_api_arith_mpi.c:653 (discriminator 1)
    17a6:	48a8      	ldr	r0, [pc, #672]	; (1a48 <mpi_egcd+0x402>)
    17a8:	f240 218d 	movw	r1, #653	; 0x28d
    17ac:	4478      	add	r0, pc
    17ae:	e77f      	b.n	16b0 <mpi_egcd+0x6a>
/home/hsk/Desktop/devel/tee-tpm-hyp/optee_os/lib/libutee/tee_api_arith_mpi.c:654
    17b0:	4601      	mov	r1, r0
    17b2:	4628      	mov	r0, r5
    17b4:	f001 fb95 	bl	2ee2 <mbedtls_mpi_lset>
    17b8:	4602      	mov	r2, r0
    17ba:	b120      	cbz	r0, 17c6 <mpi_egcd+0x180>
/home/hsk/Desktop/devel/tee-tpm-hyp/optee_os/lib/libutee/tee_api_arith_mpi.c:654 (discriminator 1)
    17bc:	48a3      	ldr	r0, [pc, #652]	; (1a4c <mpi_egcd+0x406>)
    17be:	f240 218e 	movw	r1, #654	; 0x28e
    17c2:	4478      	add	r0, pc
    17c4:	e774      	b.n	16b0 <mpi_egcd+0x6a>
/home/hsk/Desktop/devel/tee-tpm-hyp/optee_os/lib/libutee/tee_api_arith_mpi.c:655
    17c6:	2101      	movs	r1, #1
    17c8:	4620      	mov	r0, r4
    17ca:	f001 fb8a 	bl	2ee2 <mbedtls_mpi_lset>
    17ce:	4602      	mov	r2, r0
    17d0:	2800      	cmp	r0, #0
    17d2:	f000 80e4 	beq.w	199e <mpi_egcd+0x358>
/home/hsk/Desktop/devel/tee-tpm-hyp/optee_os/lib/libutee/tee_api_arith_mpi.c:655 (discriminator 1)
    17d6:	489e      	ldr	r0, [pc, #632]	; (1a50 <mpi_egcd+0x40a>)
    17d8:	f240 218f 	movw	r1, #655	; 0x28f
    17dc:	4478      	add	r0, pc
    17de:	e767      	b.n	16b0 <mpi_egcd+0x6a>
/home/hsk/Desktop/devel/tee-tpm-hyp/optee_os/lib/libutee/tee_api_arith_mpi.c:659
    17e0:	2101      	movs	r1, #1
    17e2:	4630      	mov	r0, r6
    17e4:	f001 fcb0 	bl	3148 <mbedtls_mpi_shift_r>
    17e8:	4602      	mov	r2, r0
    17ea:	b120      	cbz	r0, 17f6 <mpi_egcd+0x1b0>
/home/hsk/Desktop/devel/tee-tpm-hyp/optee_os/lib/libutee/tee_api_arith_mpi.c:659 (discriminator 1)
    17ec:	4899      	ldr	r0, [pc, #612]	; (1a54 <mpi_egcd+0x40e>)
    17ee:	f240 2193 	movw	r1, #659	; 0x293
    17f2:	4478      	add	r0, pc
    17f4:	e75c      	b.n	16b0 <mpi_egcd+0x6a>
/home/hsk/Desktop/devel/tee-tpm-hyp/optee_os/lib/libutee/tee_api_arith_mpi.c:660
    17f6:	4640      	mov	r0, r8
    17f8:	f7ff ff04 	bl	1604 <mpi_is_odd>
    17fc:	b158      	cbz	r0, 1816 <mpi_egcd+0x1d0>
/home/hsk/Desktop/devel/tee-tpm-hyp/optee_os/lib/libutee/tee_api_arith_mpi.c:661
    17fe:	465a      	mov	r2, fp
    1800:	4641      	mov	r1, r8
    1802:	4640      	mov	r0, r8
    1804:	f001 fe0c 	bl	3420 <mbedtls_mpi_add_mpi>
    1808:	4602      	mov	r2, r0
    180a:	b1a0      	cbz	r0, 1836 <mpi_egcd+0x1f0>
/home/hsk/Desktop/devel/tee-tpm-hyp/optee_os/lib/libutee/tee_api_arith_mpi.c:661 (discriminator 1)
    180c:	4892      	ldr	r0, [pc, #584]	; (1a58 <mpi_egcd+0x412>)
    180e:	f240 2195 	movw	r1, #661	; 0x295
    1812:	4478      	add	r0, pc
    1814:	e74c      	b.n	16b0 <mpi_egcd+0x6a>
/home/hsk/Desktop/devel/tee-tpm-hyp/optee_os/lib/libutee/tee_api_arith_mpi.c:660 (discriminator 1)
    1816:	4638      	mov	r0, r7
    1818:	f7ff fef4 	bl	1604 <mpi_is_odd>
    181c:	2800      	cmp	r0, #0
    181e:	d1ee      	bne.n	17fe <mpi_egcd+0x1b8>
/home/hsk/Desktop/devel/tee-tpm-hyp/optee_os/lib/libutee/tee_api_arith_mpi.c:664
    1820:	2101      	movs	r1, #1
    1822:	4640      	mov	r0, r8
    1824:	f001 fc90 	bl	3148 <mbedtls_mpi_shift_r>
    1828:	4602      	mov	r2, r0
    182a:	b188      	cbz	r0, 1850 <mpi_egcd+0x20a>
/home/hsk/Desktop/devel/tee-tpm-hyp/optee_os/lib/libutee/tee_api_arith_mpi.c:664 (discriminator 1)
    182c:	488b      	ldr	r0, [pc, #556]	; (1a5c <mpi_egcd+0x416>)
    182e:	f44f 7126 	mov.w	r1, #664	; 0x298
    1832:	4478      	add	r0, pc
    1834:	e73c      	b.n	16b0 <mpi_egcd+0x6a>
/home/hsk/Desktop/devel/tee-tpm-hyp/optee_os/lib/libutee/tee_api_arith_mpi.c:662
    1836:	4652      	mov	r2, sl
    1838:	4639      	mov	r1, r7
    183a:	4638      	mov	r0, r7
    183c:	f001 fe13 	bl	3466 <mbedtls_mpi_sub_mpi>
    1840:	4602      	mov	r2, r0
    1842:	2800      	cmp	r0, #0
    1844:	d0ec      	beq.n	1820 <mpi_egcd+0x1da>
/home/hsk/Desktop/devel/tee-tpm-hyp/optee_os/lib/libutee/tee_api_arith_mpi.c:662 (discriminator 1)
    1846:	4886      	ldr	r0, [pc, #536]	; (1a60 <mpi_egcd+0x41a>)
    1848:	f240 2196 	movw	r1, #662	; 0x296
    184c:	4478      	add	r0, pc
    184e:	e72f      	b.n	16b0 <mpi_egcd+0x6a>
/home/hsk/Desktop/devel/tee-tpm-hyp/optee_os/lib/libutee/tee_api_arith_mpi.c:665
    1850:	2101      	movs	r1, #1
    1852:	4638      	mov	r0, r7
    1854:	f001 fc78 	bl	3148 <mbedtls_mpi_shift_r>
    1858:	4602      	mov	r2, r0
    185a:	b120      	cbz	r0, 1866 <mpi_egcd+0x220>
/home/hsk/Desktop/devel/tee-tpm-hyp/optee_os/lib/libutee/tee_api_arith_mpi.c:665 (discriminator 1)
    185c:	4881      	ldr	r0, [pc, #516]	; (1a64 <mpi_egcd+0x41e>)
    185e:	f240 2199 	movw	r1, #665	; 0x299
    1862:	4478      	add	r0, pc
    1864:	e724      	b.n	16b0 <mpi_egcd+0x6a>
mpi_is_even():
/home/hsk/Desktop/devel/tee-tpm-hyp/optee_os/lib/libutee/tee_api_arith_mpi.c:605
    1866:	4630      	mov	r0, r6
    1868:	f7ff fecc 	bl	1604 <mpi_is_odd>
mpi_egcd():
/home/hsk/Desktop/devel/tee-tpm-hyp/optee_os/lib/libutee/tee_api_arith_mpi.c:658
    186c:	2800      	cmp	r0, #0
    186e:	d0b7      	beq.n	17e0 <mpi_egcd+0x19a>
mpi_is_even():
/home/hsk/Desktop/devel/tee-tpm-hyp/optee_os/lib/libutee/tee_api_arith_mpi.c:605
    1870:	4648      	mov	r0, r9
    1872:	f7ff fec7 	bl	1604 <mpi_is_odd>
mpi_egcd():
/home/hsk/Desktop/devel/tee-tpm-hyp/optee_os/lib/libutee/tee_api_arith_mpi.c:668
    1876:	b190      	cbz	r0, 189e <mpi_egcd+0x258>
/home/hsk/Desktop/devel/tee-tpm-hyp/optee_os/lib/libutee/tee_api_arith_mpi.c:679
    1878:	4649      	mov	r1, r9
    187a:	4630      	mov	r0, r6
    187c:	f001 fcd6 	bl	322c <mbedtls_mpi_cmp_mpi>
    1880:	2800      	cmp	r0, #0
    1882:	db68      	blt.n	1956 <mpi_egcd+0x310>
/home/hsk/Desktop/devel/tee-tpm-hyp/optee_os/lib/libutee/tee_api_arith_mpi.c:680
    1884:	464a      	mov	r2, r9
    1886:	4631      	mov	r1, r6
    1888:	4630      	mov	r0, r6
    188a:	f001 fdec 	bl	3466 <mbedtls_mpi_sub_mpi>
    188e:	4602      	mov	r2, r0
    1890:	2800      	cmp	r0, #0
    1892:	d048      	beq.n	1926 <mpi_egcd+0x2e0>
/home/hsk/Desktop/devel/tee-tpm-hyp/optee_os/lib/libutee/tee_api_arith_mpi.c:680 (discriminator 1)
    1894:	4874      	ldr	r0, [pc, #464]	; (1a68 <mpi_egcd+0x422>)
    1896:	f44f 712a 	mov.w	r1, #680	; 0x2a8
    189a:	4478      	add	r0, pc
    189c:	e708      	b.n	16b0 <mpi_egcd+0x6a>
/home/hsk/Desktop/devel/tee-tpm-hyp/optee_os/lib/libutee/tee_api_arith_mpi.c:669
    189e:	2101      	movs	r1, #1
    18a0:	4648      	mov	r0, r9
    18a2:	f001 fc51 	bl	3148 <mbedtls_mpi_shift_r>
    18a6:	4602      	mov	r2, r0
    18a8:	b120      	cbz	r0, 18b4 <mpi_egcd+0x26e>
/home/hsk/Desktop/devel/tee-tpm-hyp/optee_os/lib/libutee/tee_api_arith_mpi.c:669 (discriminator 1)
    18aa:	4870      	ldr	r0, [pc, #448]	; (1a6c <mpi_egcd+0x426>)
    18ac:	f240 219d 	movw	r1, #669	; 0x29d
    18b0:	4478      	add	r0, pc
    18b2:	e6fd      	b.n	16b0 <mpi_egcd+0x6a>
/home/hsk/Desktop/devel/tee-tpm-hyp/optee_os/lib/libutee/tee_api_arith_mpi.c:670
    18b4:	4628      	mov	r0, r5
    18b6:	f7ff fea5 	bl	1604 <mpi_is_odd>
    18ba:	b158      	cbz	r0, 18d4 <mpi_egcd+0x28e>
/home/hsk/Desktop/devel/tee-tpm-hyp/optee_os/lib/libutee/tee_api_arith_mpi.c:671
    18bc:	465a      	mov	r2, fp
    18be:	4629      	mov	r1, r5
    18c0:	4628      	mov	r0, r5
    18c2:	f001 fdad 	bl	3420 <mbedtls_mpi_add_mpi>
    18c6:	4602      	mov	r2, r0
    18c8:	b1a0      	cbz	r0, 18f4 <mpi_egcd+0x2ae>
/home/hsk/Desktop/devel/tee-tpm-hyp/optee_os/lib/libutee/tee_api_arith_mpi.c:671 (discriminator 1)
    18ca:	4869      	ldr	r0, [pc, #420]	; (1a70 <mpi_egcd+0x42a>)
    18cc:	f240 219f 	movw	r1, #671	; 0x29f
    18d0:	4478      	add	r0, pc
    18d2:	e6ed      	b.n	16b0 <mpi_egcd+0x6a>
/home/hsk/Desktop/devel/tee-tpm-hyp/optee_os/lib/libutee/tee_api_arith_mpi.c:670 (discriminator 1)
    18d4:	4620      	mov	r0, r4
    18d6:	f7ff fe95 	bl	1604 <mpi_is_odd>
    18da:	2800      	cmp	r0, #0
    18dc:	d1ee      	bne.n	18bc <mpi_egcd+0x276>
/home/hsk/Desktop/devel/tee-tpm-hyp/optee_os/lib/libutee/tee_api_arith_mpi.c:674
    18de:	2101      	movs	r1, #1
    18e0:	4628      	mov	r0, r5
    18e2:	f001 fc31 	bl	3148 <mbedtls_mpi_shift_r>
    18e6:	4602      	mov	r2, r0
    18e8:	b188      	cbz	r0, 190e <mpi_egcd+0x2c8>
/home/hsk/Desktop/devel/tee-tpm-hyp/optee_os/lib/libutee/tee_api_arith_mpi.c:674 (discriminator 1)
    18ea:	4862      	ldr	r0, [pc, #392]	; (1a74 <mpi_egcd+0x42e>)
    18ec:	f240 21a2 	movw	r1, #674	; 0x2a2
    18f0:	4478      	add	r0, pc
    18f2:	e6dd      	b.n	16b0 <mpi_egcd+0x6a>
/home/hsk/Desktop/devel/tee-tpm-hyp/optee_os/lib/libutee/tee_api_arith_mpi.c:672
    18f4:	4652      	mov	r2, sl
    18f6:	4621      	mov	r1, r4
    18f8:	4620      	mov	r0, r4
    18fa:	f001 fdb4 	bl	3466 <mbedtls_mpi_sub_mpi>
    18fe:	4602      	mov	r2, r0
    1900:	2800      	cmp	r0, #0
    1902:	d0ec      	beq.n	18de <mpi_egcd+0x298>
/home/hsk/Desktop/devel/tee-tpm-hyp/optee_os/lib/libutee/tee_api_arith_mpi.c:672 (discriminator 1)
    1904:	485c      	ldr	r0, [pc, #368]	; (1a78 <mpi_egcd+0x432>)
    1906:	f44f 7128 	mov.w	r1, #672	; 0x2a0
    190a:	4478      	add	r0, pc
    190c:	e6d0      	b.n	16b0 <mpi_egcd+0x6a>
/home/hsk/Desktop/devel/tee-tpm-hyp/optee_os/lib/libutee/tee_api_arith_mpi.c:675
    190e:	2101      	movs	r1, #1
    1910:	4620      	mov	r0, r4
    1912:	f001 fc19 	bl	3148 <mbedtls_mpi_shift_r>
    1916:	4602      	mov	r2, r0
    1918:	2800      	cmp	r0, #0
    191a:	d0a9      	beq.n	1870 <mpi_egcd+0x22a>
/home/hsk/Desktop/devel/tee-tpm-hyp/optee_os/lib/libutee/tee_api_arith_mpi.c:675 (discriminator 1)
    191c:	4857      	ldr	r0, [pc, #348]	; (1a7c <mpi_egcd+0x436>)
    191e:	f240 21a3 	movw	r1, #675	; 0x2a3
    1922:	4478      	add	r0, pc
    1924:	e6c4      	b.n	16b0 <mpi_egcd+0x6a>
/home/hsk/Desktop/devel/tee-tpm-hyp/optee_os/lib/libutee/tee_api_arith_mpi.c:681
    1926:	462a      	mov	r2, r5
    1928:	4641      	mov	r1, r8
    192a:	4640      	mov	r0, r8
    192c:	f001 fd9b 	bl	3466 <mbedtls_mpi_sub_mpi>
    1930:	4602      	mov	r2, r0
    1932:	b120      	cbz	r0, 193e <mpi_egcd+0x2f8>
/home/hsk/Desktop/devel/tee-tpm-hyp/optee_os/lib/libutee/tee_api_arith_mpi.c:681 (discriminator 1)
    1934:	4852      	ldr	r0, [pc, #328]	; (1a80 <mpi_egcd+0x43a>)
    1936:	f240 21a9 	movw	r1, #681	; 0x2a9
    193a:	4478      	add	r0, pc
    193c:	e6b8      	b.n	16b0 <mpi_egcd+0x6a>
/home/hsk/Desktop/devel/tee-tpm-hyp/optee_os/lib/libutee/tee_api_arith_mpi.c:682
    193e:	4622      	mov	r2, r4
    1940:	4639      	mov	r1, r7
    1942:	4638      	mov	r0, r7
    1944:	f001 fd8f 	bl	3466 <mbedtls_mpi_sub_mpi>
    1948:	4602      	mov	r2, r0
    194a:	b340      	cbz	r0, 199e <mpi_egcd+0x358>
/home/hsk/Desktop/devel/tee-tpm-hyp/optee_os/lib/libutee/tee_api_arith_mpi.c:682 (discriminator 1)
    194c:	484d      	ldr	r0, [pc, #308]	; (1a84 <mpi_egcd+0x43e>)
    194e:	f240 21aa 	movw	r1, #682	; 0x2aa
    1952:	4478      	add	r0, pc
    1954:	e6ac      	b.n	16b0 <mpi_egcd+0x6a>
/home/hsk/Desktop/devel/tee-tpm-hyp/optee_os/lib/libutee/tee_api_arith_mpi.c:684
    1956:	4632      	mov	r2, r6
    1958:	4649      	mov	r1, r9
    195a:	4648      	mov	r0, r9
    195c:	f001 fd83 	bl	3466 <mbedtls_mpi_sub_mpi>
    1960:	4602      	mov	r2, r0
    1962:	b120      	cbz	r0, 196e <mpi_egcd+0x328>
/home/hsk/Desktop/devel/tee-tpm-hyp/optee_os/lib/libutee/tee_api_arith_mpi.c:684 (discriminator 1)
    1964:	4848      	ldr	r0, [pc, #288]	; (1a88 <mpi_egcd+0x442>)
    1966:	f44f 712b 	mov.w	r1, #684	; 0x2ac
    196a:	4478      	add	r0, pc
    196c:	e6a0      	b.n	16b0 <mpi_egcd+0x6a>
/home/hsk/Desktop/devel/tee-tpm-hyp/optee_os/lib/libutee/tee_api_arith_mpi.c:685
    196e:	4642      	mov	r2, r8
    1970:	4629      	mov	r1, r5
    1972:	4628      	mov	r0, r5
    1974:	f001 fd77 	bl	3466 <mbedtls_mpi_sub_mpi>
    1978:	4602      	mov	r2, r0
    197a:	b120      	cbz	r0, 1986 <mpi_egcd+0x340>
/home/hsk/Desktop/devel/tee-tpm-hyp/optee_os/lib/libutee/tee_api_arith_mpi.c:685 (discriminator 1)
    197c:	4843      	ldr	r0, [pc, #268]	; (1a8c <mpi_egcd+0x446>)
    197e:	f240 21ad 	movw	r1, #685	; 0x2ad
    1982:	4478      	add	r0, pc
    1984:	e694      	b.n	16b0 <mpi_egcd+0x6a>
/home/hsk/Desktop/devel/tee-tpm-hyp/optee_os/lib/libutee/tee_api_arith_mpi.c:686
    1986:	463a      	mov	r2, r7
    1988:	4621      	mov	r1, r4
    198a:	4620      	mov	r0, r4
    198c:	f001 fd6b 	bl	3466 <mbedtls_mpi_sub_mpi>
    1990:	4602      	mov	r2, r0
    1992:	b120      	cbz	r0, 199e <mpi_egcd+0x358>
/home/hsk/Desktop/devel/tee-tpm-hyp/optee_os/lib/libutee/tee_api_arith_mpi.c:686 (discriminator 1)
    1994:	483e      	ldr	r0, [pc, #248]	; (1a90 <mpi_egcd+0x44a>)
    1996:	f240 21ae 	movw	r1, #686	; 0x2ae
    199a:	4478      	add	r0, pc
    199c:	e688      	b.n	16b0 <mpi_egcd+0x6a>
/home/hsk/Desktop/devel/tee-tpm-hyp/optee_os/lib/libutee/tee_api_arith_mpi.c:657
    199e:	2100      	movs	r1, #0
    19a0:	4630      	mov	r0, r6
    19a2:	f001 fc8c 	bl	32be <mbedtls_mpi_cmp_int>
    19a6:	2800      	cmp	r0, #0
    19a8:	f47f af5d 	bne.w	1866 <mpi_egcd+0x220>
/home/hsk/Desktop/devel/tee-tpm-hyp/optee_os/lib/libutee/tee_api_arith_mpi.c:690
    19ac:	4629      	mov	r1, r5
    19ae:	9802      	ldr	r0, [sp, #8]
    19b0:	f001 f9dc 	bl	2d6c <mbedtls_mpi_copy>
    19b4:	4602      	mov	r2, r0
    19b6:	b120      	cbz	r0, 19c2 <mpi_egcd+0x37c>
/home/hsk/Desktop/devel/tee-tpm-hyp/optee_os/lib/libutee/tee_api_arith_mpi.c:690 (discriminator 1)
    19b8:	4836      	ldr	r0, [pc, #216]	; (1a94 <mpi_egcd+0x44e>)
    19ba:	f240 21b2 	movw	r1, #690	; 0x2b2
    19be:	4478      	add	r0, pc
    19c0:	e676      	b.n	16b0 <mpi_egcd+0x6a>
/home/hsk/Desktop/devel/tee-tpm-hyp/optee_os/lib/libutee/tee_api_arith_mpi.c:691
    19c2:	4621      	mov	r1, r4
    19c4:	9803      	ldr	r0, [sp, #12]
    19c6:	f001 f9d1 	bl	2d6c <mbedtls_mpi_copy>
    19ca:	4602      	mov	r2, r0
    19cc:	b120      	cbz	r0, 19d8 <mpi_egcd+0x392>
/home/hsk/Desktop/devel/tee-tpm-hyp/optee_os/lib/libutee/tee_api_arith_mpi.c:691 (discriminator 1)
    19ce:	4832      	ldr	r0, [pc, #200]	; (1a98 <mpi_egcd+0x452>)
    19d0:	f240 21b3 	movw	r1, #691	; 0x2b3
    19d4:	4478      	add	r0, pc
    19d6:	e66b      	b.n	16b0 <mpi_egcd+0x6a>
/home/hsk/Desktop/devel/tee-tpm-hyp/optee_os/lib/libutee/tee_api_arith_mpi.c:692
    19d8:	9901      	ldr	r1, [sp, #4]
    19da:	4648      	mov	r0, r9
    19dc:	f001 fb6c 	bl	30b8 <mbedtls_mpi_shift_l>
    19e0:	4602      	mov	r2, r0
    19e2:	b120      	cbz	r0, 19ee <mpi_egcd+0x3a8>
/home/hsk/Desktop/devel/tee-tpm-hyp/optee_os/lib/libutee/tee_api_arith_mpi.c:692 (discriminator 1)
    19e4:	482d      	ldr	r0, [pc, #180]	; (1a9c <mpi_egcd+0x456>)
    19e6:	f44f 712d 	mov.w	r1, #692	; 0x2b4
    19ea:	4478      	add	r0, pc
    19ec:	e660      	b.n	16b0 <mpi_egcd+0x6a>
/home/hsk/Desktop/devel/tee-tpm-hyp/optee_os/lib/libutee/tee_api_arith_mpi.c:695
    19ee:	4640      	mov	r0, r8
    19f0:	f7ff fe1b 	bl	162a <put_mpi>
/home/hsk/Desktop/devel/tee-tpm-hyp/optee_os/lib/libutee/tee_api_arith_mpi.c:696
    19f4:	4638      	mov	r0, r7
    19f6:	f7ff fe18 	bl	162a <put_mpi>
/home/hsk/Desktop/devel/tee-tpm-hyp/optee_os/lib/libutee/tee_api_arith_mpi.c:697
    19fa:	4628      	mov	r0, r5
    19fc:	f7ff fe15 	bl	162a <put_mpi>
/home/hsk/Desktop/devel/tee-tpm-hyp/optee_os/lib/libutee/tee_api_arith_mpi.c:698
    1a00:	4620      	mov	r0, r4
    1a02:	f7ff fe12 	bl	162a <put_mpi>
/home/hsk/Desktop/devel/tee-tpm-hyp/optee_os/lib/libutee/tee_api_arith_mpi.c:699
    1a06:	4650      	mov	r0, sl
    1a08:	f7ff fe0f 	bl	162a <put_mpi>
/home/hsk/Desktop/devel/tee-tpm-hyp/optee_os/lib/libutee/tee_api_arith_mpi.c:700
    1a0c:	4658      	mov	r0, fp
    1a0e:	f7ff fe0c 	bl	162a <put_mpi>
/home/hsk/Desktop/devel/tee-tpm-hyp/optee_os/lib/libutee/tee_api_arith_mpi.c:701
    1a12:	4630      	mov	r0, r6
    1a14:	f7ff fe09 	bl	162a <put_mpi>
/home/hsk/Desktop/devel/tee-tpm-hyp/optee_os/lib/libutee/tee_api_arith_mpi.c:702
    1a18:	b01b      	add	sp, #108	; 0x6c
    1a1a:	e8bd 8ff0 	ldmia.w	sp!, {r4, r5, r6, r7, r8, r9, sl, fp, pc}
    1a1e:	bf00      	nop
    1a20:	00004c31 	.word	0x00004c31
    1a24:	00004c19 	.word	0x00004c19
    1a28:	00004bff 	.word	0x00004bff
    1a2c:	00004be9 	.word	0x00004be9
    1a30:	00004bd3 	.word	0x00004bd3
    1a34:	00004bbd 	.word	0x00004bbd
    1a38:	00004b9d 	.word	0x00004b9d
    1a3c:	00004b75 	.word	0x00004b75
    1a40:	00004b5f 	.word	0x00004b5f
    1a44:	00004b49 	.word	0x00004b49
    1a48:	00004b33 	.word	0x00004b33
    1a4c:	00004b1d 	.word	0x00004b1d
    1a50:	00004b03 	.word	0x00004b03
    1a54:	00004aed 	.word	0x00004aed
    1a58:	00004acd 	.word	0x00004acd
    1a5c:	00004aad 	.word	0x00004aad
    1a60:	00004a93 	.word	0x00004a93
    1a64:	00004a7d 	.word	0x00004a7d
    1a68:	00004a45 	.word	0x00004a45
    1a6c:	00004a2f 	.word	0x00004a2f
    1a70:	00004a0f 	.word	0x00004a0f
    1a74:	000049ef 	.word	0x000049ef
    1a78:	000049d5 	.word	0x000049d5
    1a7c:	000049bd 	.word	0x000049bd
    1a80:	000049a5 	.word	0x000049a5
    1a84:	0000498d 	.word	0x0000498d
    1a88:	00004975 	.word	0x00004975
    1a8c:	0000495d 	.word	0x0000495d
    1a90:	00004945 	.word	0x00004945
    1a94:	00004921 	.word	0x00004921
    1a98:	0000490b 	.word	0x0000490b
    1a9c:	000048f5 	.word	0x000048f5

00001aa0 <get_const_mpi>:
get_const_mpi():
/home/hsk/Desktop/devel/tee-tpm-hyp/optee_os/lib/libutee/tee_api_arith_mpi.c:110
    1aa0:	b530      	push	{r4, r5, lr}
init_static_mpi():
/home/hsk/Desktop/devel/tee-tpm-hyp/optee_os/lib/libutee/tee_api_arith_mpi.c:65
    1aa2:	3108      	adds	r1, #8
    1aa4:	f831 2c02 	ldrh.w	r2, [r1, #-2]
get_const_mpi():
/home/hsk/Desktop/devel/tee-tpm-hyp/optee_os/lib/libutee/tee_api_arith_mpi.c:110
    1aa8:	b087      	sub	sp, #28
init_static_mpi():
/home/hsk/Desktop/devel/tee-tpm-hyp/optee_os/lib/libutee/tee_api_arith_mpi.c:65
    1aaa:	f831 3c04 	ldrh.w	r3, [r1, #-4]
    1aae:	ac03      	add	r4, sp, #12
get_const_mpi():
/home/hsk/Desktop/devel/tee-tpm-hyp/optee_os/lib/libutee/tee_api_arith_mpi.c:110
    1ab0:	4605      	mov	r5, r0
init_static_mpi():
/home/hsk/Desktop/devel/tee-tpm-hyp/optee_os/lib/libutee/tee_api_arith_mpi.c:65
    1ab2:	4620      	mov	r0, r4
    1ab4:	9200      	str	r2, [sp, #0]
    1ab6:	f851 2c08 	ldr.w	r2, [r1, #-8]
    1aba:	f001 f86d 	bl	2b98 <mbedtls_mpi_init_static>
get_mpi():
/home/hsk/Desktop/devel/tee-tpm-hyp/optee_os/lib/libutee/tee_api_arith_mpi.c:99
    1abe:	4628      	mov	r0, r5
    1ac0:	f001 f858 	bl	2b74 <mbedtls_mpi_init_mempool>
get_const_mpi():
/home/hsk/Desktop/devel/tee-tpm-hyp/optee_os/lib/libutee/tee_api_arith_mpi.c:115
    1ac4:	4621      	mov	r1, r4
    1ac6:	4628      	mov	r0, r5
    1ac8:	f001 f950 	bl	2d6c <mbedtls_mpi_copy>
    1acc:	4602      	mov	r2, r0
    1ace:	b128      	cbz	r0, 1adc <get_const_mpi+0x3c>
/home/hsk/Desktop/devel/tee-tpm-hyp/optee_os/lib/libutee/tee_api_arith_mpi.c:115 (discriminator 1)
    1ad0:	4803      	ldr	r0, [pc, #12]	; (1ae0 <get_const_mpi+0x40>)
    1ad2:	2173      	movs	r1, #115	; 0x73
    1ad4:	4478      	add	r0, pc
    1ad6:	3009      	adds	r0, #9
    1ad8:	f7ff fd72 	bl	15c0 <mpi_panic>
/home/hsk/Desktop/devel/tee-tpm-hyp/optee_os/lib/libutee/tee_api_arith_mpi.c:116
    1adc:	b007      	add	sp, #28
    1ade:	bd30      	pop	{r4, r5, pc}
    1ae0:	0000480b 	.word	0x0000480b

00001ae4 <bigint_binary>:
bigint_binary():
/home/hsk/Desktop/devel/tee-tpm-hyp/optee_os/lib/libutee/tee_api_arith_mpi.c:336
    1ae4:	e92d 47f0 	stmdb	sp!, {r4, r5, r6, r7, r8, r9, sl, lr}
    1ae8:	4682      	mov	sl, r0
    1aea:	4688      	mov	r8, r1
    1aec:	b08a      	sub	sp, #40	; 0x28
/home/hsk/Desktop/devel/tee-tpm-hyp/optee_os/lib/libutee/tee_api_arith_mpi.c:343
    1aee:	4601      	mov	r1, r0
    1af0:	ae01      	add	r6, sp, #4
/home/hsk/Desktop/devel/tee-tpm-hyp/optee_os/lib/libutee/tee_api_arith_mpi.c:336
    1af2:	4614      	mov	r4, r2
/home/hsk/Desktop/devel/tee-tpm-hyp/optee_os/lib/libutee/tee_api_arith_mpi.c:343
    1af4:	4630      	mov	r0, r6
/home/hsk/Desktop/devel/tee-tpm-hyp/optee_os/lib/libutee/tee_api_arith_mpi.c:336
    1af6:	4699      	mov	r9, r3
    1af8:	af04      	add	r7, sp, #16
/home/hsk/Desktop/devel/tee-tpm-hyp/optee_os/lib/libutee/tee_api_arith_mpi.c:343
    1afa:	f7ff fd71 	bl	15e0 <get_mpi>
/home/hsk/Desktop/devel/tee-tpm-hyp/optee_os/lib/libutee/tee_api_arith_mpi.c:345
    1afe:	45c2      	cmp	sl, r8
    1b00:	d01a      	beq.n	1b38 <bigint_binary+0x54>
/home/hsk/Desktop/devel/tee-tpm-hyp/optee_os/lib/libutee/tee_api_arith_mpi.c:340
    1b02:	463d      	mov	r5, r7
/home/hsk/Desktop/devel/tee-tpm-hyp/optee_os/lib/libutee/tee_api_arith_mpi.c:348
    1b04:	4641      	mov	r1, r8
    1b06:	4638      	mov	r0, r7
    1b08:	f7ff ffca 	bl	1aa0 <get_const_mpi>
/home/hsk/Desktop/devel/tee-tpm-hyp/optee_os/lib/libutee/tee_api_arith_mpi.c:350
    1b0c:	45a2      	cmp	sl, r4
    1b0e:	d015      	beq.n	1b3c <bigint_binary+0x58>
/home/hsk/Desktop/devel/tee-tpm-hyp/optee_os/lib/libutee/tee_api_arith_mpi.c:352
    1b10:	45a0      	cmp	r8, r4
    1b12:	d015      	beq.n	1b40 <bigint_binary+0x5c>
/home/hsk/Desktop/devel/tee-tpm-hyp/optee_os/lib/libutee/tee_api_arith_mpi.c:355
    1b14:	4621      	mov	r1, r4
    1b16:	ac07      	add	r4, sp, #28
    1b18:	4620      	mov	r0, r4
    1b1a:	f7ff ffc1 	bl	1aa0 <get_const_mpi>
/home/hsk/Desktop/devel/tee-tpm-hyp/optee_os/lib/libutee/tee_api_arith_mpi.c:357
    1b1e:	4622      	mov	r2, r4
    1b20:	4629      	mov	r1, r5
    1b22:	4630      	mov	r0, r6
    1b24:	47c8      	blx	r9
    1b26:	4602      	mov	r2, r0
    1b28:	b160      	cbz	r0, 1b44 <bigint_binary+0x60>
/home/hsk/Desktop/devel/tee-tpm-hyp/optee_os/lib/libutee/tee_api_arith_mpi.c:357 (discriminator 1)
    1b2a:	480f      	ldr	r0, [pc, #60]	; (1b68 <bigint_binary+0x84>)
    1b2c:	f240 1165 	movw	r1, #357	; 0x165
    1b30:	4478      	add	r0, pc
    1b32:	3017      	adds	r0, #23
    1b34:	f7ff fd44 	bl	15c0 <mpi_panic>
/home/hsk/Desktop/devel/tee-tpm-hyp/optee_os/lib/libutee/tee_api_arith_mpi.c:346
    1b38:	4635      	mov	r5, r6
    1b3a:	e7e7      	b.n	1b0c <bigint_binary+0x28>
/home/hsk/Desktop/devel/tee-tpm-hyp/optee_os/lib/libutee/tee_api_arith_mpi.c:351
    1b3c:	4634      	mov	r4, r6
    1b3e:	e7ee      	b.n	1b1e <bigint_binary+0x3a>
/home/hsk/Desktop/devel/tee-tpm-hyp/optee_os/lib/libutee/tee_api_arith_mpi.c:353
    1b40:	462c      	mov	r4, r5
    1b42:	e7ec      	b.n	1b1e <bigint_binary+0x3a>
/home/hsk/Desktop/devel/tee-tpm-hyp/optee_os/lib/libutee/tee_api_arith_mpi.c:359
    1b44:	4630      	mov	r0, r6
    1b46:	f7ff fd70 	bl	162a <put_mpi>
/home/hsk/Desktop/devel/tee-tpm-hyp/optee_os/lib/libutee/tee_api_arith_mpi.c:360
    1b4a:	42bd      	cmp	r5, r7
    1b4c:	d102      	bne.n	1b54 <bigint_binary+0x70>
/home/hsk/Desktop/devel/tee-tpm-hyp/optee_os/lib/libutee/tee_api_arith_mpi.c:361
    1b4e:	4628      	mov	r0, r5
    1b50:	f7ff fd6b 	bl	162a <put_mpi>
/home/hsk/Desktop/devel/tee-tpm-hyp/optee_os/lib/libutee/tee_api_arith_mpi.c:362
    1b54:	ab07      	add	r3, sp, #28
    1b56:	429c      	cmp	r4, r3
    1b58:	d102      	bne.n	1b60 <bigint_binary+0x7c>
/home/hsk/Desktop/devel/tee-tpm-hyp/optee_os/lib/libutee/tee_api_arith_mpi.c:363
    1b5a:	4620      	mov	r0, r4
    1b5c:	f7ff fd65 	bl	162a <put_mpi>
/home/hsk/Desktop/devel/tee-tpm-hyp/optee_os/lib/libutee/tee_api_arith_mpi.c:364
    1b60:	b00a      	add	sp, #40	; 0x28
    1b62:	e8bd 87f0 	ldmia.w	sp!, {r4, r5, r6, r7, r8, r9, sl, pc}
    1b66:	bf00      	nop
    1b68:	000047af 	.word	0x000047af

00001b6c <_TEE_MathAPI_Init>:
_TEE_MathAPI_Init():
/home/hsk/Desktop/devel/tee-tpm-hyp/optee_os/lib/libutee/tee_api_arith_mpi.c:48
    1b6c:	480b      	ldr	r0, [pc, #44]	; (1b9c <_TEE_MathAPI_Init+0x30>)
    1b6e:	2200      	movs	r2, #0
/home/hsk/Desktop/devel/tee-tpm-hyp/optee_os/lib/libutee/tee_api_arith_mpi.c:44
    1b70:	b510      	push	{r4, lr}
/home/hsk/Desktop/devel/tee-tpm-hyp/optee_os/lib/libutee/tee_api_arith_mpi.c:48
    1b72:	f44f 5100 	mov.w	r1, #8192	; 0x2000
/home/hsk/Desktop/devel/tee-tpm-hyp/optee_os/lib/libutee/tee_api_arith_mpi.c:44
    1b76:	4c0a      	ldr	r4, [pc, #40]	; (1ba0 <_TEE_MathAPI_Init+0x34>)
/home/hsk/Desktop/devel/tee-tpm-hyp/optee_os/lib/libutee/tee_api_arith_mpi.c:48
    1b78:	4478      	add	r0, pc
    1b7a:	f003 ff23 	bl	59c4 <mempool_alloc_pool>
    1b7e:	4b09      	ldr	r3, [pc, #36]	; (1ba4 <_TEE_MathAPI_Init+0x38>)
/home/hsk/Desktop/devel/tee-tpm-hyp/optee_os/lib/libutee/tee_api_arith_mpi.c:44
    1b80:	447c      	add	r4, pc
/home/hsk/Desktop/devel/tee-tpm-hyp/optee_os/lib/libutee/tee_api_arith_mpi.c:48
    1b82:	58e3      	ldr	r3, [r4, r3]
    1b84:	6018      	str	r0, [r3, #0]
/home/hsk/Desktop/devel/tee-tpm-hyp/optee_os/lib/libutee/tee_api_arith_mpi.c:49
    1b86:	b938      	cbnz	r0, 1b98 <_TEE_MathAPI_Init+0x2c>
/home/hsk/Desktop/devel/tee-tpm-hyp/optee_os/lib/libutee/tee_api_arith_mpi.c:50
    1b88:	4807      	ldr	r0, [pc, #28]	; (1ba8 <_TEE_MathAPI_Init+0x3c>)
    1b8a:	2132      	movs	r1, #50	; 0x32
    1b8c:	4a07      	ldr	r2, [pc, #28]	; (1bac <_TEE_MathAPI_Init+0x40>)
    1b8e:	4478      	add	r0, pc
    1b90:	447a      	add	r2, pc
    1b92:	3025      	adds	r0, #37	; 0x25
    1b94:	f000 fd1c 	bl	25d0 <api_panic>
/home/hsk/Desktop/devel/tee-tpm-hyp/optee_os/lib/libutee/tee_api_arith_mpi.c:51
    1b98:	bd10      	pop	{r4, pc}
    1b9a:	bf00      	nop
    1b9c:	00006548 	.word	0x00006548
    1ba0:	00005898 	.word	0x00005898
    1ba4:	00000030 	.word	0x00000030
    1ba8:	00004751 	.word	0x00004751
    1bac:	000048d7 	.word	0x000048d7

00001bb0 <TEE_BigIntInit>:
TEE_BigIntInit():
/home/hsk/Desktop/devel/tee-tpm-hyp/optee_os/lib/libutee/tee_api_arith_mpi.c:140
    1bb0:	f101 021f 	add.w	r2, r1, #31
/home/hsk/Desktop/devel/tee-tpm-hyp/optee_os/lib/libutee/tee_api_arith_mpi.c:139
    1bb4:	b510      	push	{r4, lr}
    1bb6:	460c      	mov	r4, r1
/home/hsk/Desktop/devel/tee-tpm-hyp/optee_os/lib/libutee/tee_api_arith_mpi.c:140
    1bb8:	0952      	lsrs	r2, r2, #5
    1bba:	2100      	movs	r1, #0
    1bbc:	3202      	adds	r2, #2
/home/hsk/Desktop/devel/tee-tpm-hyp/optee_os/lib/libutee/tee_api_arith_mpi.c:146
    1bbe:	3c02      	subs	r4, #2
/home/hsk/Desktop/devel/tee-tpm-hyp/optee_os/lib/libutee/tee_api_arith_mpi.c:140
    1bc0:	0092      	lsls	r2, r2, #2
    1bc2:	f004 f8b2 	bl	5d2a <memset>
/home/hsk/Desktop/devel/tee-tpm-hyp/optee_os/lib/libutee/tee_api_arith_mpi.c:145
    1bc6:	2201      	movs	r2, #1
    1bc8:	6002      	str	r2, [r0, #0]
/home/hsk/Desktop/devel/tee-tpm-hyp/optee_os/lib/libutee/tee_api_arith_mpi.c:146
    1bca:	f242 7210 	movw	r2, #10000	; 0x2710
    1bce:	4294      	cmp	r4, r2
    1bd0:	d907      	bls.n	1be2 <TEE_BigIntInit+0x32>
/home/hsk/Desktop/devel/tee-tpm-hyp/optee_os/lib/libutee/tee_api_arith_mpi.c:147
    1bd2:	4805      	ldr	r0, [pc, #20]	; (1be8 <TEE_BigIntInit+0x38>)
    1bd4:	2193      	movs	r1, #147	; 0x93
    1bd6:	4a05      	ldr	r2, [pc, #20]	; (1bec <TEE_BigIntInit+0x3c>)
    1bd8:	4478      	add	r0, pc
    1bda:	447a      	add	r2, pc
    1bdc:	3037      	adds	r0, #55	; 0x37
    1bde:	f000 fcf7 	bl	25d0 <api_panic>
/home/hsk/Desktop/devel/tee-tpm-hyp/optee_os/lib/libutee/tee_api_arith_mpi.c:148
    1be2:	8084      	strh	r4, [r0, #4]
/home/hsk/Desktop/devel/tee-tpm-hyp/optee_os/lib/libutee/tee_api_arith_mpi.c:149
    1be4:	bd10      	pop	{r4, pc}
    1be6:	bf00      	nop
    1be8:	00004707 	.word	0x00004707
    1bec:	000048ae 	.word	0x000048ae

00001bf0 <TEE_BigIntConvertFromOctetString>:
TEE_BigIntConvertFromOctetString():
/home/hsk/Desktop/devel/tee-tpm-hyp/optee_os/lib/libutee/tee_api_arith_mpi.c:154
    1bf0:	b5f0      	push	{r4, r5, r6, r7, lr}
    1bf2:	460c      	mov	r4, r1
    1bf4:	4617      	mov	r7, r2
    1bf6:	b085      	sub	sp, #20
/home/hsk/Desktop/devel/tee-tpm-hyp/optee_os/lib/libutee/tee_api_arith_mpi.c:158
    1bf8:	4601      	mov	r1, r0
    1bfa:	ad01      	add	r5, sp, #4
/home/hsk/Desktop/devel/tee-tpm-hyp/optee_os/lib/libutee/tee_api_arith_mpi.c:154
    1bfc:	461e      	mov	r6, r3
/home/hsk/Desktop/devel/tee-tpm-hyp/optee_os/lib/libutee/tee_api_arith_mpi.c:158
    1bfe:	4628      	mov	r0, r5
    1c00:	f7ff fcee 	bl	15e0 <get_mpi>
/home/hsk/Desktop/devel/tee-tpm-hyp/optee_os/lib/libutee/tee_api_arith_mpi.c:160
    1c04:	4621      	mov	r1, r4
    1c06:	463a      	mov	r2, r7
    1c08:	4628      	mov	r0, r5
    1c0a:	f001 f9ff 	bl	300c <mbedtls_mpi_read_binary>
/home/hsk/Desktop/devel/tee-tpm-hyp/optee_os/lib/libutee/tee_api_arith_mpi.c:163
    1c0e:	2800      	cmp	r0, #0
    1c10:	4c06      	ldr	r4, [pc, #24]	; (1c2c <TEE_BigIntConvertFromOctetString+0x3c>)
    1c12:	bf08      	it	eq
    1c14:	2400      	moveq	r4, #0
/home/hsk/Desktop/devel/tee-tpm-hyp/optee_os/lib/libutee/tee_api_arith_mpi.c:165
    1c16:	2e00      	cmp	r6, #0
    1c18:	da02      	bge.n	1c20 <TEE_BigIntConvertFromOctetString+0x30>
/home/hsk/Desktop/devel/tee-tpm-hyp/optee_os/lib/libutee/tee_api_arith_mpi.c:166
    1c1a:	23ff      	movs	r3, #255	; 0xff
    1c1c:	f88d 3004 	strb.w	r3, [sp, #4]
/home/hsk/Desktop/devel/tee-tpm-hyp/optee_os/lib/libutee/tee_api_arith_mpi.c:168
    1c20:	4628      	mov	r0, r5
    1c22:	f7ff fd02 	bl	162a <put_mpi>
/home/hsk/Desktop/devel/tee-tpm-hyp/optee_os/lib/libutee/tee_api_arith_mpi.c:171
    1c26:	4620      	mov	r0, r4
    1c28:	b005      	add	sp, #20
    1c2a:	bdf0      	pop	{r4, r5, r6, r7, pc}
    1c2c:	ffff300f 	.word	0xffff300f

00001c30 <TEE_BigIntConvertToOctetString>:
TEE_BigIntConvertToOctetString():
/home/hsk/Desktop/devel/tee-tpm-hyp/optee_os/lib/libutee/tee_api_arith_mpi.c:175
    1c30:	b5f0      	push	{r4, r5, r6, r7, lr}
    1c32:	460f      	mov	r7, r1
    1c34:	4604      	mov	r4, r0
    1c36:	b085      	sub	sp, #20
/home/hsk/Desktop/devel/tee-tpm-hyp/optee_os/lib/libutee/tee_api_arith_mpi.c:180
    1c38:	4611      	mov	r1, r2
    1c3a:	ad01      	add	r5, sp, #4
    1c3c:	4628      	mov	r0, r5
    1c3e:	f7ff ff2f 	bl	1aa0 <get_const_mpi>
/home/hsk/Desktop/devel/tee-tpm-hyp/optee_os/lib/libutee/tee_api_arith_mpi.c:182
    1c42:	4628      	mov	r0, r5
    1c44:	f001 f9dc 	bl	3000 <mbedtls_mpi_size>
/home/hsk/Desktop/devel/tee-tpm-hyp/optee_os/lib/libutee/tee_api_arith_mpi.c:183
    1c48:	683b      	ldr	r3, [r7, #0]
/home/hsk/Desktop/devel/tee-tpm-hyp/optee_os/lib/libutee/tee_api_arith_mpi.c:182
    1c4a:	4606      	mov	r6, r0
/home/hsk/Desktop/devel/tee-tpm-hyp/optee_os/lib/libutee/tee_api_arith_mpi.c:183
    1c4c:	4283      	cmp	r3, r0
    1c4e:	d30c      	bcc.n	1c6a <TEE_BigIntConvertToOctetString+0x3a>
/home/hsk/Desktop/devel/tee-tpm-hyp/optee_os/lib/libutee/tee_api_arith_mpi.c:184
    1c50:	4602      	mov	r2, r0
    1c52:	4621      	mov	r1, r4
    1c54:	4628      	mov	r0, r5
    1c56:	f001 fa0c 	bl	3072 <mbedtls_mpi_write_binary>
    1c5a:	b170      	cbz	r0, 1c7a <TEE_BigIntConvertToOctetString+0x4a>
/home/hsk/Desktop/devel/tee-tpm-hyp/optee_os/lib/libutee/tee_api_arith_mpi.c:184 (discriminator 1)
    1c5c:	4602      	mov	r2, r0
    1c5e:	4809      	ldr	r0, [pc, #36]	; (1c84 <TEE_BigIntConvertToOctetString+0x54>)
    1c60:	21b8      	movs	r1, #184	; 0xb8
    1c62:	4478      	add	r0, pc
    1c64:	3046      	adds	r0, #70	; 0x46
    1c66:	f7ff fcab 	bl	15c0 <mpi_panic>
/home/hsk/Desktop/devel/tee-tpm-hyp/optee_os/lib/libutee/tee_api_arith_mpi.c:186
    1c6a:	4c05      	ldr	r4, [pc, #20]	; (1c80 <TEE_BigIntConvertToOctetString+0x50>)
/home/hsk/Desktop/devel/tee-tpm-hyp/optee_os/lib/libutee/tee_api_arith_mpi.c:190
    1c6c:	4628      	mov	r0, r5
/home/hsk/Desktop/devel/tee-tpm-hyp/optee_os/lib/libutee/tee_api_arith_mpi.c:188
    1c6e:	603e      	str	r6, [r7, #0]
/home/hsk/Desktop/devel/tee-tpm-hyp/optee_os/lib/libutee/tee_api_arith_mpi.c:190
    1c70:	f7ff fcdb 	bl	162a <put_mpi>
/home/hsk/Desktop/devel/tee-tpm-hyp/optee_os/lib/libutee/tee_api_arith_mpi.c:193
    1c74:	4620      	mov	r0, r4
    1c76:	b005      	add	sp, #20
    1c78:	bdf0      	pop	{r4, r5, r6, r7, pc}
/home/hsk/Desktop/devel/tee-tpm-hyp/optee_os/lib/libutee/tee_api_arith_mpi.c:176
    1c7a:	4604      	mov	r4, r0
    1c7c:	e7f6      	b.n	1c6c <TEE_BigIntConvertToOctetString+0x3c>
    1c7e:	bf00      	nop
    1c80:	ffff0010 	.word	0xffff0010
    1c84:	0000467d 	.word	0x0000467d

00001c88 <TEE_BigIntConvertFromS32>:
TEE_BigIntConvertFromS32():
/home/hsk/Desktop/devel/tee-tpm-hyp/optee_os/lib/libutee/tee_api_arith_mpi.c:196
    1c88:	b530      	push	{r4, r5, lr}
    1c8a:	460d      	mov	r5, r1
/home/hsk/Desktop/devel/tee-tpm-hyp/optee_os/lib/libutee/tee_api_arith_mpi.c:199
    1c8c:	4601      	mov	r1, r0
/home/hsk/Desktop/devel/tee-tpm-hyp/optee_os/lib/libutee/tee_api_arith_mpi.c:196
    1c8e:	b085      	sub	sp, #20
/home/hsk/Desktop/devel/tee-tpm-hyp/optee_os/lib/libutee/tee_api_arith_mpi.c:199
    1c90:	ac01      	add	r4, sp, #4
    1c92:	4620      	mov	r0, r4
    1c94:	f7ff fca4 	bl	15e0 <get_mpi>
/home/hsk/Desktop/devel/tee-tpm-hyp/optee_os/lib/libutee/tee_api_arith_mpi.c:201
    1c98:	4629      	mov	r1, r5
    1c9a:	4620      	mov	r0, r4
    1c9c:	f001 f921 	bl	2ee2 <mbedtls_mpi_lset>
    1ca0:	4602      	mov	r2, r0
    1ca2:	b128      	cbz	r0, 1cb0 <TEE_BigIntConvertFromS32+0x28>
/home/hsk/Desktop/devel/tee-tpm-hyp/optee_os/lib/libutee/tee_api_arith_mpi.c:201 (discriminator 1)
    1ca4:	4805      	ldr	r0, [pc, #20]	; (1cbc <TEE_BigIntConvertFromS32+0x34>)
    1ca6:	21c9      	movs	r1, #201	; 0xc9
    1ca8:	4478      	add	r0, pc
    1caa:	3065      	adds	r0, #101	; 0x65
    1cac:	f7ff fc88 	bl	15c0 <mpi_panic>
/home/hsk/Desktop/devel/tee-tpm-hyp/optee_os/lib/libutee/tee_api_arith_mpi.c:203
    1cb0:	4620      	mov	r0, r4
    1cb2:	f7ff fcba 	bl	162a <put_mpi>
/home/hsk/Desktop/devel/tee-tpm-hyp/optee_os/lib/libutee/tee_api_arith_mpi.c:204
    1cb6:	b005      	add	sp, #20
    1cb8:	bd30      	pop	{r4, r5, pc}
    1cba:	bf00      	nop
    1cbc:	00004637 	.word	0x00004637

00001cc0 <TEE_BigIntConvertToS32>:
TEE_BigIntConvertToS32():
/home/hsk/Desktop/devel/tee-tpm-hyp/optee_os/lib/libutee/tee_api_arith_mpi.c:207
    1cc0:	b530      	push	{r4, r5, lr}
    1cc2:	4605      	mov	r5, r0
    1cc4:	b085      	sub	sp, #20
/home/hsk/Desktop/devel/tee-tpm-hyp/optee_os/lib/libutee/tee_api_arith_mpi.c:212
    1cc6:	ac01      	add	r4, sp, #4
    1cc8:	4620      	mov	r0, r4
    1cca:	f7ff fee9 	bl	1aa0 <get_const_mpi>
/home/hsk/Desktop/devel/tee-tpm-hyp/optee_os/lib/libutee/tee_api_arith_mpi.c:214
    1cce:	2204      	movs	r2, #4
    1cd0:	4669      	mov	r1, sp
    1cd2:	4620      	mov	r0, r4
    1cd4:	f001 f9cd 	bl	3072 <mbedtls_mpi_write_binary>
    1cd8:	b9d0      	cbnz	r0, 1d10 <TEE_BigIntConvertToS32+0x50>
    1cda:	9b00      	ldr	r3, [sp, #0]
/home/hsk/Desktop/devel/tee-tpm-hyp/optee_os/lib/libutee/tee_api_arith_mpi.c:219
    1cdc:	f99d 2004 	ldrsb.w	r2, [sp, #4]
    1ce0:	ba1b      	rev	r3, r3
    1ce2:	2a00      	cmp	r2, #0
    1ce4:	dd09      	ble.n	1cfa <TEE_BigIntConvertToS32+0x3a>
/home/hsk/Desktop/devel/tee-tpm-hyp/optee_os/lib/libutee/tee_api_arith_mpi.c:220
    1ce6:	602b      	str	r3, [r5, #0]
    1ce8:	2b00      	cmp	r3, #0
    1cea:	db11      	blt.n	1d10 <TEE_BigIntConvertToS32+0x50>
/home/hsk/Desktop/devel/tee-tpm-hyp/optee_os/lib/libutee/tee_api_arith_mpi.c:208
    1cec:	2500      	movs	r5, #0
/home/hsk/Desktop/devel/tee-tpm-hyp/optee_os/lib/libutee/tee_api_arith_mpi.c:228
    1cee:	4620      	mov	r0, r4
    1cf0:	f7ff fc9b 	bl	162a <put_mpi>
/home/hsk/Desktop/devel/tee-tpm-hyp/optee_os/lib/libutee/tee_api_arith_mpi.c:231
    1cf4:	4628      	mov	r0, r5
    1cf6:	b005      	add	sp, #20
    1cf8:	bd30      	pop	{r4, r5, pc}
/home/hsk/Desktop/devel/tee-tpm-hyp/optee_os/lib/libutee/tee_api_arith_mpi.c:223
    1cfa:	425a      	negs	r2, r3
    1cfc:	b11b      	cbz	r3, 1d06 <TEE_BigIntConvertToS32+0x46>
    1cfe:	2a00      	cmp	r2, #0
    1d00:	db03      	blt.n	1d0a <TEE_BigIntConvertToS32+0x4a>
    1d02:	2001      	movs	r0, #1
    1d04:	e001      	b.n	1d0a <TEE_BigIntConvertToS32+0x4a>
    1d06:	2a00      	cmp	r2, #0
    1d08:	dbfb      	blt.n	1d02 <TEE_BigIntConvertToS32+0x42>
    1d0a:	602a      	str	r2, [r5, #0]
    1d0c:	2800      	cmp	r0, #0
    1d0e:	d0ed      	beq.n	1cec <TEE_BigIntConvertToS32+0x2c>
/home/hsk/Desktop/devel/tee-tpm-hyp/optee_os/lib/libutee/tee_api_arith_mpi.c:221
    1d10:	4d00      	ldr	r5, [pc, #0]	; (1d14 <TEE_BigIntConvertToS32+0x54>)
    1d12:	e7ec      	b.n	1cee <TEE_BigIntConvertToS32+0x2e>
    1d14:	ffff300f 	.word	0xffff300f

00001d18 <TEE_BigIntCmp>:
TEE_BigIntCmp():
/home/hsk/Desktop/devel/tee-tpm-hyp/optee_os/lib/libutee/tee_api_arith_mpi.c:234
    1d18:	b570      	push	{r4, r5, r6, lr}
    1d1a:	460c      	mov	r4, r1
/home/hsk/Desktop/devel/tee-tpm-hyp/optee_os/lib/libutee/tee_api_arith_mpi.c:239
    1d1c:	4601      	mov	r1, r0
/home/hsk/Desktop/devel/tee-tpm-hyp/optee_os/lib/libutee/tee_api_arith_mpi.c:234
    1d1e:	b086      	sub	sp, #24
/home/hsk/Desktop/devel/tee-tpm-hyp/optee_os/lib/libutee/tee_api_arith_mpi.c:239
    1d20:	466d      	mov	r5, sp
    1d22:	4628      	mov	r0, r5
    1d24:	f7ff febc 	bl	1aa0 <get_const_mpi>
/home/hsk/Desktop/devel/tee-tpm-hyp/optee_os/lib/libutee/tee_api_arith_mpi.c:240
    1d28:	4621      	mov	r1, r4
    1d2a:	ac03      	add	r4, sp, #12
    1d2c:	4620      	mov	r0, r4
    1d2e:	f7ff feb7 	bl	1aa0 <get_const_mpi>
/home/hsk/Desktop/devel/tee-tpm-hyp/optee_os/lib/libutee/tee_api_arith_mpi.c:242
    1d32:	4621      	mov	r1, r4
    1d34:	4628      	mov	r0, r5
    1d36:	f001 fa79 	bl	322c <mbedtls_mpi_cmp_mpi>
    1d3a:	4606      	mov	r6, r0
/home/hsk/Desktop/devel/tee-tpm-hyp/optee_os/lib/libutee/tee_api_arith_mpi.c:244
    1d3c:	4628      	mov	r0, r5
    1d3e:	f7ff fc74 	bl	162a <put_mpi>
/home/hsk/Desktop/devel/tee-tpm-hyp/optee_os/lib/libutee/tee_api_arith_mpi.c:245
    1d42:	4620      	mov	r0, r4
    1d44:	f7ff fc71 	bl	162a <put_mpi>
/home/hsk/Desktop/devel/tee-tpm-hyp/optee_os/lib/libutee/tee_api_arith_mpi.c:248
    1d48:	4630      	mov	r0, r6
    1d4a:	b006      	add	sp, #24
    1d4c:	bd70      	pop	{r4, r5, r6, pc}

00001d4e <TEE_BigIntCmpS32>:
TEE_BigIntCmpS32():
/home/hsk/Desktop/devel/tee-tpm-hyp/optee_os/lib/libutee/tee_api_arith_mpi.c:251
    1d4e:	b530      	push	{r4, r5, lr}
    1d50:	460d      	mov	r5, r1
/home/hsk/Desktop/devel/tee-tpm-hyp/optee_os/lib/libutee/tee_api_arith_mpi.c:255
    1d52:	4601      	mov	r1, r0
/home/hsk/Desktop/devel/tee-tpm-hyp/optee_os/lib/libutee/tee_api_arith_mpi.c:251
    1d54:	b085      	sub	sp, #20
/home/hsk/Desktop/devel/tee-tpm-hyp/optee_os/lib/libutee/tee_api_arith_mpi.c:255
    1d56:	ac01      	add	r4, sp, #4
    1d58:	4620      	mov	r0, r4
    1d5a:	f7ff fea1 	bl	1aa0 <get_const_mpi>
/home/hsk/Desktop/devel/tee-tpm-hyp/optee_os/lib/libutee/tee_api_arith_mpi.c:257
    1d5e:	4629      	mov	r1, r5
    1d60:	4620      	mov	r0, r4
    1d62:	f001 faac 	bl	32be <mbedtls_mpi_cmp_int>
    1d66:	4605      	mov	r5, r0
/home/hsk/Desktop/devel/tee-tpm-hyp/optee_os/lib/libutee/tee_api_arith_mpi.c:259
    1d68:	4620      	mov	r0, r4
    1d6a:	f7ff fc5e 	bl	162a <put_mpi>
/home/hsk/Desktop/devel/tee-tpm-hyp/optee_os/lib/libutee/tee_api_arith_mpi.c:262
    1d6e:	4628      	mov	r0, r5
    1d70:	b005      	add	sp, #20
    1d72:	bd30      	pop	{r4, r5, pc}

00001d74 <bigint_binary_mod>:
bigint_binary_mod():
/home/hsk/Desktop/devel/tee-tpm-hyp/optee_os/lib/libutee/tee_api_arith_mpi.c:370
    1d74:	e92d 47f0 	stmdb	sp!, {r4, r5, r6, r7, r8, r9, sl, lr}
    1d78:	4680      	mov	r8, r0
    1d7a:	460f      	mov	r7, r1
    1d7c:	b090      	sub	sp, #64	; 0x40
/home/hsk/Desktop/devel/tee-tpm-hyp/optee_os/lib/libutee/tee_api_arith_mpi.c:371
    1d7e:	2102      	movs	r1, #2
    1d80:	4618      	mov	r0, r3
/home/hsk/Desktop/devel/tee-tpm-hyp/optee_os/lib/libutee/tee_api_arith_mpi.c:370
    1d82:	4614      	mov	r4, r2
    1d84:	461d      	mov	r5, r3
/home/hsk/Desktop/devel/tee-tpm-hyp/optee_os/lib/libutee/tee_api_arith_mpi.c:371
    1d86:	f7ff ffe2 	bl	1d4e <TEE_BigIntCmpS32>
    1d8a:	2800      	cmp	r0, #0
    1d8c:	da08      	bge.n	1da0 <bigint_binary_mod+0x2c>
/home/hsk/Desktop/devel/tee-tpm-hyp/optee_os/lib/libutee/tee_api_arith_mpi.c:372
    1d8e:	482f      	ldr	r0, [pc, #188]	; (1e4c <bigint_binary_mod+0xd8>)
    1d90:	f44f 71ba 	mov.w	r1, #372	; 0x174
    1d94:	4a2e      	ldr	r2, [pc, #184]	; (1e50 <bigint_binary_mod+0xdc>)
    1d96:	4478      	add	r0, pc
    1d98:	447a      	add	r2, pc
    1d9a:	307e      	adds	r0, #126	; 0x7e
    1d9c:	f000 fc18 	bl	25d0 <api_panic>
/home/hsk/Desktop/devel/tee-tpm-hyp/optee_os/lib/libutee/tee_api_arith_mpi.c:382
    1da0:	ae01      	add	r6, sp, #4
    1da2:	4641      	mov	r1, r8
    1da4:	4630      	mov	r0, r6
/home/hsk/Desktop/devel/tee-tpm-hyp/optee_os/lib/libutee/tee_api_arith_mpi.c:383
    1da6:	f10d 0a28 	add.w	sl, sp, #40	; 0x28
/home/hsk/Desktop/devel/tee-tpm-hyp/optee_os/lib/libutee/tee_api_arith_mpi.c:382
    1daa:	f7ff fc19 	bl	15e0 <get_mpi>
/home/hsk/Desktop/devel/tee-tpm-hyp/optee_os/lib/libutee/tee_api_arith_mpi.c:383
    1dae:	4629      	mov	r1, r5
    1db0:	4650      	mov	r0, sl
    1db2:	f10d 0910 	add.w	r9, sp, #16
    1db6:	f7ff fe73 	bl	1aa0 <get_const_mpi>
/home/hsk/Desktop/devel/tee-tpm-hyp/optee_os/lib/libutee/tee_api_arith_mpi.c:385
    1dba:	45b8      	cmp	r8, r7
    1dbc:	d021      	beq.n	1e02 <bigint_binary_mod+0x8e>
/home/hsk/Desktop/devel/tee-tpm-hyp/optee_os/lib/libutee/tee_api_arith_mpi.c:378
    1dbe:	464d      	mov	r5, r9
/home/hsk/Desktop/devel/tee-tpm-hyp/optee_os/lib/libutee/tee_api_arith_mpi.c:388
    1dc0:	4639      	mov	r1, r7
    1dc2:	4648      	mov	r0, r9
    1dc4:	f7ff fe6c 	bl	1aa0 <get_const_mpi>
/home/hsk/Desktop/devel/tee-tpm-hyp/optee_os/lib/libutee/tee_api_arith_mpi.c:390
    1dc8:	45a0      	cmp	r8, r4
    1dca:	f10d 081c 	add.w	r8, sp, #28
    1dce:	d01a      	beq.n	1e06 <bigint_binary_mod+0x92>
/home/hsk/Desktop/devel/tee-tpm-hyp/optee_os/lib/libutee/tee_api_arith_mpi.c:392
    1dd0:	42a7      	cmp	r7, r4
    1dd2:	d01a      	beq.n	1e0a <bigint_binary_mod+0x96>
/home/hsk/Desktop/devel/tee-tpm-hyp/optee_os/lib/libutee/tee_api_arith_mpi.c:395
    1dd4:	4621      	mov	r1, r4
/home/hsk/Desktop/devel/tee-tpm-hyp/optee_os/lib/libutee/tee_api_arith_mpi.c:379
    1dd6:	4644      	mov	r4, r8
/home/hsk/Desktop/devel/tee-tpm-hyp/optee_os/lib/libutee/tee_api_arith_mpi.c:395
    1dd8:	4640      	mov	r0, r8
    1dda:	f7ff fe61 	bl	1aa0 <get_const_mpi>
get_mpi():
/home/hsk/Desktop/devel/tee-tpm-hyp/optee_os/lib/libutee/tee_api_arith_mpi.c:99
    1dde:	af0d      	add	r7, sp, #52	; 0x34
    1de0:	4638      	mov	r0, r7
    1de2:	f000 fec7 	bl	2b74 <mbedtls_mpi_init_mempool>
bigint_binary_mod():
/home/hsk/Desktop/devel/tee-tpm-hyp/optee_os/lib/libutee/tee_api_arith_mpi.c:399
    1de6:	4622      	mov	r2, r4
    1de8:	4629      	mov	r1, r5
    1dea:	4638      	mov	r0, r7
    1dec:	9b18      	ldr	r3, [sp, #96]	; 0x60
    1dee:	4798      	blx	r3
    1df0:	4602      	mov	r2, r0
    1df2:	b160      	cbz	r0, 1e0e <bigint_binary_mod+0x9a>
/home/hsk/Desktop/devel/tee-tpm-hyp/optee_os/lib/libutee/tee_api_arith_mpi.c:399 (discriminator 1)
    1df4:	4817      	ldr	r0, [pc, #92]	; (1e54 <bigint_binary_mod+0xe0>)
    1df6:	f240 118f 	movw	r1, #399	; 0x18f
    1dfa:	4478      	add	r0, pc
/home/hsk/Desktop/devel/tee-tpm-hyp/optee_os/lib/libutee/tee_api_arith_mpi.c:400 (discriminator 1)
    1dfc:	307e      	adds	r0, #126	; 0x7e
    1dfe:	f7ff fbdf 	bl	15c0 <mpi_panic>
/home/hsk/Desktop/devel/tee-tpm-hyp/optee_os/lib/libutee/tee_api_arith_mpi.c:386
    1e02:	4635      	mov	r5, r6
    1e04:	e7e0      	b.n	1dc8 <bigint_binary_mod+0x54>
/home/hsk/Desktop/devel/tee-tpm-hyp/optee_os/lib/libutee/tee_api_arith_mpi.c:391
    1e06:	4634      	mov	r4, r6
    1e08:	e7e9      	b.n	1dde <bigint_binary_mod+0x6a>
/home/hsk/Desktop/devel/tee-tpm-hyp/optee_os/lib/libutee/tee_api_arith_mpi.c:393
    1e0a:	462c      	mov	r4, r5
    1e0c:	e7e7      	b.n	1dde <bigint_binary_mod+0x6a>
/home/hsk/Desktop/devel/tee-tpm-hyp/optee_os/lib/libutee/tee_api_arith_mpi.c:400
    1e0e:	4652      	mov	r2, sl
    1e10:	4639      	mov	r1, r7
    1e12:	4630      	mov	r0, r6
    1e14:	f001 fe6f 	bl	3af6 <mbedtls_mpi_mod_mpi>
    1e18:	4602      	mov	r2, r0
    1e1a:	b120      	cbz	r0, 1e26 <bigint_binary_mod+0xb2>
/home/hsk/Desktop/devel/tee-tpm-hyp/optee_os/lib/libutee/tee_api_arith_mpi.c:400 (discriminator 1)
    1e1c:	480e      	ldr	r0, [pc, #56]	; (1e58 <bigint_binary_mod+0xe4>)
    1e1e:	f44f 71c8 	mov.w	r1, #400	; 0x190
    1e22:	4478      	add	r0, pc
    1e24:	e7ea      	b.n	1dfc <bigint_binary_mod+0x88>
/home/hsk/Desktop/devel/tee-tpm-hyp/optee_os/lib/libutee/tee_api_arith_mpi.c:402
    1e26:	4630      	mov	r0, r6
    1e28:	f7ff fbff 	bl	162a <put_mpi>
/home/hsk/Desktop/devel/tee-tpm-hyp/optee_os/lib/libutee/tee_api_arith_mpi.c:403
    1e2c:	454d      	cmp	r5, r9
    1e2e:	d102      	bne.n	1e36 <bigint_binary_mod+0xc2>
/home/hsk/Desktop/devel/tee-tpm-hyp/optee_os/lib/libutee/tee_api_arith_mpi.c:404
    1e30:	4628      	mov	r0, r5
    1e32:	f7ff fbfa 	bl	162a <put_mpi>
/home/hsk/Desktop/devel/tee-tpm-hyp/optee_os/lib/libutee/tee_api_arith_mpi.c:405
    1e36:	4544      	cmp	r4, r8
    1e38:	d102      	bne.n	1e40 <bigint_binary_mod+0xcc>
/home/hsk/Desktop/devel/tee-tpm-hyp/optee_os/lib/libutee/tee_api_arith_mpi.c:406
    1e3a:	4620      	mov	r0, r4
    1e3c:	f7ff fbf5 	bl	162a <put_mpi>
/home/hsk/Desktop/devel/tee-tpm-hyp/optee_os/lib/libutee/tee_api_arith_mpi.c:407
    1e40:	4638      	mov	r0, r7
    1e42:	f7ff fbf2 	bl	162a <put_mpi>
/home/hsk/Desktop/devel/tee-tpm-hyp/optee_os/lib/libutee/tee_api_arith_mpi.c:408
    1e46:	b010      	add	sp, #64	; 0x40
    1e48:	e8bd 87f0 	ldmia.w	sp!, {r4, r5, r6, r7, r8, r9, sl, pc}
    1e4c:	00004549 	.word	0x00004549
    1e50:	00004701 	.word	0x00004701
    1e54:	000044e5 	.word	0x000044e5
    1e58:	000044bd 	.word	0x000044bd

00001e5c <TEE_BigIntShiftRight>:
TEE_BigIntShiftRight():
/home/hsk/Desktop/devel/tee-tpm-hyp/optee_os/lib/libutee/tee_api_arith_mpi.c:265
    1e5c:	b5f0      	push	{r4, r5, r6, r7, lr}
    1e5e:	4605      	mov	r5, r0
    1e60:	460e      	mov	r6, r1
    1e62:	b08b      	sub	sp, #44	; 0x2c
/home/hsk/Desktop/devel/tee-tpm-hyp/optee_os/lib/libutee/tee_api_arith_mpi.c:269
    1e64:	4601      	mov	r1, r0
    1e66:	ac01      	add	r4, sp, #4
/home/hsk/Desktop/devel/tee-tpm-hyp/optee_os/lib/libutee/tee_api_arith_mpi.c:265
    1e68:	4617      	mov	r7, r2
/home/hsk/Desktop/devel/tee-tpm-hyp/optee_os/lib/libutee/tee_api_arith_mpi.c:269
    1e6a:	4620      	mov	r0, r4
    1e6c:	f7ff fbb8 	bl	15e0 <get_mpi>
/home/hsk/Desktop/devel/tee-tpm-hyp/optee_os/lib/libutee/tee_api_arith_mpi.c:271
    1e70:	42b5      	cmp	r5, r6
    1e72:	d10d      	bne.n	1e90 <TEE_BigIntShiftRight+0x34>
/home/hsk/Desktop/devel/tee-tpm-hyp/optee_os/lib/libutee/tee_api_arith_mpi.c:272
    1e74:	4639      	mov	r1, r7
    1e76:	4620      	mov	r0, r4
    1e78:	f001 f966 	bl	3148 <mbedtls_mpi_shift_r>
    1e7c:	4602      	mov	r2, r0
    1e7e:	2800      	cmp	r0, #0
    1e80:	d055      	beq.n	1f2e <TEE_BigIntShiftRight+0xd2>
/home/hsk/Desktop/devel/tee-tpm-hyp/optee_os/lib/libutee/tee_api_arith_mpi.c:272 (discriminator 1)
    1e82:	482d      	ldr	r0, [pc, #180]	; (1f38 <TEE_BigIntShiftRight+0xdc>)
    1e84:	f44f 7188 	mov.w	r1, #272	; 0x110
    1e88:	4478      	add	r0, pc
/home/hsk/Desktop/devel/tee-tpm-hyp/optee_os/lib/libutee/tee_api_arith_mpi.c:279 (discriminator 1)
    1e8a:	3090      	adds	r0, #144	; 0x90
    1e8c:	f7ff fb98 	bl	15c0 <mpi_panic>
/home/hsk/Desktop/devel/tee-tpm-hyp/optee_os/lib/libutee/tee_api_arith_mpi.c:276
    1e90:	ad04      	add	r5, sp, #16
    1e92:	4631      	mov	r1, r6
    1e94:	4628      	mov	r0, r5
    1e96:	f7ff fe03 	bl	1aa0 <get_const_mpi>
/home/hsk/Desktop/devel/tee-tpm-hyp/optee_os/lib/libutee/tee_api_arith_mpi.c:278
    1e9a:	4620      	mov	r0, r4
    1e9c:	f001 f8b0 	bl	3000 <mbedtls_mpi_size>
    1ea0:	4606      	mov	r6, r0
    1ea2:	4628      	mov	r0, r5
    1ea4:	f001 f8ac 	bl	3000 <mbedtls_mpi_size>
    1ea8:	4286      	cmp	r6, r0
    1eaa:	d315      	bcc.n	1ed8 <TEE_BigIntShiftRight+0x7c>
/home/hsk/Desktop/devel/tee-tpm-hyp/optee_os/lib/libutee/tee_api_arith_mpi.c:279
    1eac:	4629      	mov	r1, r5
    1eae:	4620      	mov	r0, r4
    1eb0:	f000 ff5c 	bl	2d6c <mbedtls_mpi_copy>
    1eb4:	4602      	mov	r2, r0
    1eb6:	b120      	cbz	r0, 1ec2 <TEE_BigIntShiftRight+0x66>
/home/hsk/Desktop/devel/tee-tpm-hyp/optee_os/lib/libutee/tee_api_arith_mpi.c:279 (discriminator 1)
    1eb8:	4820      	ldr	r0, [pc, #128]	; (1f3c <TEE_BigIntShiftRight+0xe0>)
    1eba:	f240 1117 	movw	r1, #279	; 0x117
    1ebe:	4478      	add	r0, pc
    1ec0:	e7e3      	b.n	1e8a <TEE_BigIntShiftRight+0x2e>
/home/hsk/Desktop/devel/tee-tpm-hyp/optee_os/lib/libutee/tee_api_arith_mpi.c:280
    1ec2:	4639      	mov	r1, r7
    1ec4:	4620      	mov	r0, r4
    1ec6:	f001 f93f 	bl	3148 <mbedtls_mpi_shift_r>
    1eca:	4602      	mov	r2, r0
    1ecc:	b360      	cbz	r0, 1f28 <TEE_BigIntShiftRight+0xcc>
/home/hsk/Desktop/devel/tee-tpm-hyp/optee_os/lib/libutee/tee_api_arith_mpi.c:280 (discriminator 1)
    1ece:	481c      	ldr	r0, [pc, #112]	; (1f40 <TEE_BigIntShiftRight+0xe4>)
    1ed0:	f44f 718c 	mov.w	r1, #280	; 0x118
    1ed4:	4478      	add	r0, pc
    1ed6:	e7d8      	b.n	1e8a <TEE_BigIntShiftRight+0x2e>
get_mpi():
/home/hsk/Desktop/devel/tee-tpm-hyp/optee_os/lib/libutee/tee_api_arith_mpi.c:99
    1ed8:	ae07      	add	r6, sp, #28
    1eda:	4630      	mov	r0, r6
    1edc:	f000 fe4a 	bl	2b74 <mbedtls_mpi_init_mempool>
TEE_BigIntShiftRight():
/home/hsk/Desktop/devel/tee-tpm-hyp/optee_os/lib/libutee/tee_api_arith_mpi.c:291
    1ee0:	4629      	mov	r1, r5
    1ee2:	4630      	mov	r0, r6
    1ee4:	f000 ff42 	bl	2d6c <mbedtls_mpi_copy>
    1ee8:	4602      	mov	r2, r0
    1eea:	b120      	cbz	r0, 1ef6 <TEE_BigIntShiftRight+0x9a>
/home/hsk/Desktop/devel/tee-tpm-hyp/optee_os/lib/libutee/tee_api_arith_mpi.c:291 (discriminator 1)
    1eec:	4815      	ldr	r0, [pc, #84]	; (1f44 <TEE_BigIntShiftRight+0xe8>)
    1eee:	f240 1123 	movw	r1, #291	; 0x123
    1ef2:	4478      	add	r0, pc
    1ef4:	e7c9      	b.n	1e8a <TEE_BigIntShiftRight+0x2e>
/home/hsk/Desktop/devel/tee-tpm-hyp/optee_os/lib/libutee/tee_api_arith_mpi.c:292
    1ef6:	4639      	mov	r1, r7
    1ef8:	4630      	mov	r0, r6
    1efa:	f001 f925 	bl	3148 <mbedtls_mpi_shift_r>
    1efe:	4602      	mov	r2, r0
    1f00:	b120      	cbz	r0, 1f0c <TEE_BigIntShiftRight+0xb0>
/home/hsk/Desktop/devel/tee-tpm-hyp/optee_os/lib/libutee/tee_api_arith_mpi.c:292 (discriminator 1)
    1f02:	4811      	ldr	r0, [pc, #68]	; (1f48 <TEE_BigIntShiftRight+0xec>)
    1f04:	f44f 7192 	mov.w	r1, #292	; 0x124
    1f08:	4478      	add	r0, pc
    1f0a:	e7be      	b.n	1e8a <TEE_BigIntShiftRight+0x2e>
/home/hsk/Desktop/devel/tee-tpm-hyp/optee_os/lib/libutee/tee_api_arith_mpi.c:293
    1f0c:	4631      	mov	r1, r6
    1f0e:	4620      	mov	r0, r4
    1f10:	f000 ff2c 	bl	2d6c <mbedtls_mpi_copy>
    1f14:	4602      	mov	r2, r0
    1f16:	b120      	cbz	r0, 1f22 <TEE_BigIntShiftRight+0xc6>
/home/hsk/Desktop/devel/tee-tpm-hyp/optee_os/lib/libutee/tee_api_arith_mpi.c:293 (discriminator 1)
    1f18:	480c      	ldr	r0, [pc, #48]	; (1f4c <TEE_BigIntShiftRight+0xf0>)
    1f1a:	f240 1125 	movw	r1, #293	; 0x125
    1f1e:	4478      	add	r0, pc
    1f20:	e7b3      	b.n	1e8a <TEE_BigIntShiftRight+0x2e>
/home/hsk/Desktop/devel/tee-tpm-hyp/optee_os/lib/libutee/tee_api_arith_mpi.c:295
    1f22:	4630      	mov	r0, r6
    1f24:	f7ff fb81 	bl	162a <put_mpi>
/home/hsk/Desktop/devel/tee-tpm-hyp/optee_os/lib/libutee/tee_api_arith_mpi.c:298
    1f28:	4628      	mov	r0, r5
    1f2a:	f7ff fb7e 	bl	162a <put_mpi>
/home/hsk/Desktop/devel/tee-tpm-hyp/optee_os/lib/libutee/tee_api_arith_mpi.c:301
    1f2e:	4620      	mov	r0, r4
    1f30:	f7ff fb7b 	bl	162a <put_mpi>
/home/hsk/Desktop/devel/tee-tpm-hyp/optee_os/lib/libutee/tee_api_arith_mpi.c:302
    1f34:	b00b      	add	sp, #44	; 0x2c
    1f36:	bdf0      	pop	{r4, r5, r6, r7, pc}
    1f38:	00004457 	.word	0x00004457
    1f3c:	00004421 	.word	0x00004421
    1f40:	0000440b 	.word	0x0000440b
    1f44:	000043ed 	.word	0x000043ed
    1f48:	000043d7 	.word	0x000043d7
    1f4c:	000043c1 	.word	0x000043c1

00001f50 <TEE_BigIntGetBit>:
TEE_BigIntGetBit():
/home/hsk/Desktop/devel/tee-tpm-hyp/optee_os/lib/libutee/tee_api_arith_mpi.c:305
    1f50:	b530      	push	{r4, r5, lr}
    1f52:	460d      	mov	r5, r1
/home/hsk/Desktop/devel/tee-tpm-hyp/optee_os/lib/libutee/tee_api_arith_mpi.c:309
    1f54:	4601      	mov	r1, r0
/home/hsk/Desktop/devel/tee-tpm-hyp/optee_os/lib/libutee/tee_api_arith_mpi.c:305
    1f56:	b085      	sub	sp, #20
/home/hsk/Desktop/devel/tee-tpm-hyp/optee_os/lib/libutee/tee_api_arith_mpi.c:309
    1f58:	ac01      	add	r4, sp, #4
    1f5a:	4620      	mov	r0, r4
    1f5c:	f7ff fda0 	bl	1aa0 <get_const_mpi>
/home/hsk/Desktop/devel/tee-tpm-hyp/optee_os/lib/libutee/tee_api_arith_mpi.c:311
    1f60:	4629      	mov	r1, r5
    1f62:	4620      	mov	r0, r4
    1f64:	f000 ffd9 	bl	2f1a <mbedtls_mpi_get_bit>
    1f68:	4605      	mov	r5, r0
/home/hsk/Desktop/devel/tee-tpm-hyp/optee_os/lib/libutee/tee_api_arith_mpi.c:313
    1f6a:	4620      	mov	r0, r4
    1f6c:	f7ff fb5d 	bl	162a <put_mpi>
/home/hsk/Desktop/devel/tee-tpm-hyp/optee_os/lib/libutee/tee_api_arith_mpi.c:316
    1f70:	1c28      	adds	r0, r5, #0
    1f72:	bf18      	it	ne
    1f74:	2001      	movne	r0, #1
    1f76:	b005      	add	sp, #20
    1f78:	bd30      	pop	{r4, r5, pc}

00001f7a <TEE_BigIntGetBitCount>:
TEE_BigIntGetBitCount():
/home/hsk/Desktop/devel/tee-tpm-hyp/optee_os/lib/libutee/tee_api_arith_mpi.c:319
    1f7a:	b530      	push	{r4, r5, lr}
/home/hsk/Desktop/devel/tee-tpm-hyp/optee_os/lib/libutee/tee_api_arith_mpi.c:323
    1f7c:	4601      	mov	r1, r0
/home/hsk/Desktop/devel/tee-tpm-hyp/optee_os/lib/libutee/tee_api_arith_mpi.c:319
    1f7e:	b085      	sub	sp, #20
/home/hsk/Desktop/devel/tee-tpm-hyp/optee_os/lib/libutee/tee_api_arith_mpi.c:323
    1f80:	ac01      	add	r4, sp, #4
    1f82:	4620      	mov	r0, r4
    1f84:	f7ff fd8c 	bl	1aa0 <get_const_mpi>
/home/hsk/Desktop/devel/tee-tpm-hyp/optee_os/lib/libutee/tee_api_arith_mpi.c:325
    1f88:	4620      	mov	r0, r4
    1f8a:	f001 f818 	bl	2fbe <mbedtls_mpi_bitlen>
    1f8e:	4605      	mov	r5, r0
/home/hsk/Desktop/devel/tee-tpm-hyp/optee_os/lib/libutee/tee_api_arith_mpi.c:327
    1f90:	4620      	mov	r0, r4
    1f92:	f7ff fb4a 	bl	162a <put_mpi>
/home/hsk/Desktop/devel/tee-tpm-hyp/optee_os/lib/libutee/tee_api_arith_mpi.c:330
    1f96:	4628      	mov	r0, r5
    1f98:	b005      	add	sp, #20
    1f9a:	bd30      	pop	{r4, r5, pc}

00001f9c <TEE_BigIntAdd>:
TEE_BigIntAdd():
/home/hsk/Desktop/devel/tee-tpm-hyp/optee_os/lib/libutee/tee_api_arith_mpi.c:412
    1f9c:	4b04      	ldr	r3, [pc, #16]	; (1fb0 <TEE_BigIntAdd+0x14>)
    1f9e:	b417      	push	{r0, r1, r2, r4}
/home/hsk/Desktop/devel/tee-tpm-hyp/optee_os/lib/libutee/tee_api_arith_mpi.c:413
    1fa0:	4c04      	ldr	r4, [pc, #16]	; (1fb4 <TEE_BigIntAdd+0x18>)
/home/hsk/Desktop/devel/tee-tpm-hyp/optee_os/lib/libutee/tee_api_arith_mpi.c:412
    1fa2:	447b      	add	r3, pc
/home/hsk/Desktop/devel/tee-tpm-hyp/optee_os/lib/libutee/tee_api_arith_mpi.c:413
    1fa4:	591b      	ldr	r3, [r3, r4]
    1fa6:	9301      	str	r3, [sp, #4]
/home/hsk/Desktop/devel/tee-tpm-hyp/optee_os/lib/libutee/tee_api_arith_mpi.c:414
    1fa8:	b003      	add	sp, #12
    1faa:	f85d 4b04 	ldr.w	r4, [sp], #4
/home/hsk/Desktop/devel/tee-tpm-hyp/optee_os/lib/libutee/tee_api_arith_mpi.c:413
    1fae:	e599      	b.n	1ae4 <bigint_binary>
    1fb0:	00005476 	.word	0x00005476
    1fb4:	0000001c 	.word	0x0000001c

00001fb8 <TEE_BigIntSub>:
TEE_BigIntSub():
/home/hsk/Desktop/devel/tee-tpm-hyp/optee_os/lib/libutee/tee_api_arith_mpi.c:418
    1fb8:	4b04      	ldr	r3, [pc, #16]	; (1fcc <TEE_BigIntSub+0x14>)
    1fba:	b417      	push	{r0, r1, r2, r4}
/home/hsk/Desktop/devel/tee-tpm-hyp/optee_os/lib/libutee/tee_api_arith_mpi.c:419
    1fbc:	4c04      	ldr	r4, [pc, #16]	; (1fd0 <TEE_BigIntSub+0x18>)
/home/hsk/Desktop/devel/tee-tpm-hyp/optee_os/lib/libutee/tee_api_arith_mpi.c:418
    1fbe:	447b      	add	r3, pc
/home/hsk/Desktop/devel/tee-tpm-hyp/optee_os/lib/libutee/tee_api_arith_mpi.c:419
    1fc0:	591b      	ldr	r3, [r3, r4]
    1fc2:	9301      	str	r3, [sp, #4]
/home/hsk/Desktop/devel/tee-tpm-hyp/optee_os/lib/libutee/tee_api_arith_mpi.c:420
    1fc4:	b003      	add	sp, #12
    1fc6:	f85d 4b04 	ldr.w	r4, [sp], #4
/home/hsk/Desktop/devel/tee-tpm-hyp/optee_os/lib/libutee/tee_api_arith_mpi.c:419
    1fca:	e58b      	b.n	1ae4 <bigint_binary>
    1fcc:	0000545a 	.word	0x0000545a
    1fd0:	00000024 	.word	0x00000024

00001fd4 <TEE_BigIntNeg>:
TEE_BigIntNeg():
/home/hsk/Desktop/devel/tee-tpm-hyp/optee_os/lib/libutee/tee_api_arith_mpi.c:423
    1fd4:	b570      	push	{r4, r5, r6, lr}
    1fd6:	4605      	mov	r5, r0
    1fd8:	460e      	mov	r6, r1
    1fda:	b086      	sub	sp, #24
/home/hsk/Desktop/devel/tee-tpm-hyp/optee_os/lib/libutee/tee_api_arith_mpi.c:426
    1fdc:	4601      	mov	r1, r0
    1fde:	466c      	mov	r4, sp
    1fe0:	4620      	mov	r0, r4
    1fe2:	f7ff fafd 	bl	15e0 <get_mpi>
/home/hsk/Desktop/devel/tee-tpm-hyp/optee_os/lib/libutee/tee_api_arith_mpi.c:428
    1fe6:	42b5      	cmp	r5, r6
    1fe8:	d014      	beq.n	2014 <TEE_BigIntNeg+0x40>
/home/hsk/Desktop/devel/tee-tpm-hyp/optee_os/lib/libutee/tee_api_arith_mpi.c:431
    1fea:	ad03      	add	r5, sp, #12
    1fec:	4631      	mov	r1, r6
    1fee:	4628      	mov	r0, r5
    1ff0:	f7ff fd56 	bl	1aa0 <get_const_mpi>
/home/hsk/Desktop/devel/tee-tpm-hyp/optee_os/lib/libutee/tee_api_arith_mpi.c:433
    1ff4:	4629      	mov	r1, r5
    1ff6:	4620      	mov	r0, r4
    1ff8:	f000 feb8 	bl	2d6c <mbedtls_mpi_copy>
    1ffc:	4602      	mov	r2, r0
    1ffe:	b130      	cbz	r0, 200e <TEE_BigIntNeg+0x3a>
/home/hsk/Desktop/devel/tee-tpm-hyp/optee_os/lib/libutee/tee_api_arith_mpi.c:433 (discriminator 1)
    2000:	4809      	ldr	r0, [pc, #36]	; (2028 <TEE_BigIntNeg+0x54>)
    2002:	f240 11b1 	movw	r1, #433	; 0x1b1
    2006:	4478      	add	r0, pc
    2008:	30a5      	adds	r0, #165	; 0xa5
    200a:	f7ff fad9 	bl	15c0 <mpi_panic>
/home/hsk/Desktop/devel/tee-tpm-hyp/optee_os/lib/libutee/tee_api_arith_mpi.c:435
    200e:	4628      	mov	r0, r5
    2010:	f7ff fb0b 	bl	162a <put_mpi>
/home/hsk/Desktop/devel/tee-tpm-hyp/optee_os/lib/libutee/tee_api_arith_mpi.c:438
    2014:	f89d 3000 	ldrb.w	r3, [sp]
/home/hsk/Desktop/devel/tee-tpm-hyp/optee_os/lib/libutee/tee_api_arith_mpi.c:440
    2018:	4620      	mov	r0, r4
/home/hsk/Desktop/devel/tee-tpm-hyp/optee_os/lib/libutee/tee_api_arith_mpi.c:438
    201a:	425b      	negs	r3, r3
    201c:	f88d 3000 	strb.w	r3, [sp]
/home/hsk/Desktop/devel/tee-tpm-hyp/optee_os/lib/libutee/tee_api_arith_mpi.c:440
    2020:	f7ff fb03 	bl	162a <put_mpi>
/home/hsk/Desktop/devel/tee-tpm-hyp/optee_os/lib/libutee/tee_api_arith_mpi.c:441
    2024:	b006      	add	sp, #24
    2026:	bd70      	pop	{r4, r5, r6, pc}
    2028:	000042d9 	.word	0x000042d9

0000202c <TEE_BigIntMul>:
TEE_BigIntMul():
/home/hsk/Desktop/devel/tee-tpm-hyp/optee_os/lib/libutee/tee_api_arith_mpi.c:445
    202c:	e92d 4ff0 	stmdb	sp!, {r4, r5, r6, r7, r8, r9, sl, fp, lr}
    2030:	4690      	mov	r8, r2
    2032:	4681      	mov	r9, r0
    2034:	b087      	sub	sp, #28
/home/hsk/Desktop/devel/tee-tpm-hyp/optee_os/lib/libutee/tee_api_arith_mpi.c:446
    2036:	4608      	mov	r0, r1
/home/hsk/Desktop/devel/tee-tpm-hyp/optee_os/lib/libutee/tee_api_arith_mpi.c:445
    2038:	460f      	mov	r7, r1
/home/hsk/Desktop/devel/tee-tpm-hyp/optee_os/lib/libutee/tee_api_arith_mpi.c:446
    203a:	f7ff ff9e 	bl	1f7a <TEE_BigIntGetBitCount>
    203e:	4604      	mov	r4, r0
/home/hsk/Desktop/devel/tee-tpm-hyp/optee_os/lib/libutee/tee_api_arith_mpi.c:447
    2040:	4640      	mov	r0, r8
    2042:	f7ff ff9a 	bl	1f7a <TEE_BigIntGetBitCount>
/home/hsk/Desktop/devel/tee-tpm-hyp/optee_os/lib/libutee/tee_api_arith_mpi.c:449
    2046:	f10d 0a0c 	add.w	sl, sp, #12
/home/hsk/Desktop/devel/tee-tpm-hyp/optee_os/lib/libutee/tee_api_arith_mpi.c:448
    204a:	f104 031f 	add.w	r3, r4, #31
    204e:	f100 041f 	add.w	r4, r0, #31
/home/hsk/Desktop/devel/tee-tpm-hyp/optee_os/lib/libutee/tee_api_arith_mpi.c:445
    2052:	4e1c      	ldr	r6, [pc, #112]	; (20c4 <TEE_BigIntMul+0x98>)
/home/hsk/Desktop/devel/tee-tpm-hyp/optee_os/lib/libutee/tee_api_arith_mpi.c:448
    2054:	0964      	lsrs	r4, r4, #5
    2056:	eb04 1453 	add.w	r4, r4, r3, lsr #5
/home/hsk/Desktop/devel/tee-tpm-hyp/optee_os/lib/libutee/tee_api_arith_mpi.c:449
    205a:	2300      	movs	r3, #0
    205c:	9303      	str	r3, [sp, #12]
/home/hsk/Desktop/devel/tee-tpm-hyp/optee_os/lib/libutee/tee_api_arith_mpi.c:445
    205e:	447e      	add	r6, pc
/home/hsk/Desktop/devel/tee-tpm-hyp/optee_os/lib/libutee/tee_api_arith_mpi.c:449
    2060:	f8ca 3004 	str.w	r3, [sl, #4]
/home/hsk/Desktop/devel/tee-tpm-hyp/optee_os/lib/libutee/tee_api_arith_mpi.c:448
    2064:	3404      	adds	r4, #4
/home/hsk/Desktop/devel/tee-tpm-hyp/optee_os/lib/libutee/tee_api_arith_mpi.c:449
    2066:	f8ca 3008 	str.w	r3, [sl, #8]
/home/hsk/Desktop/devel/tee-tpm-hyp/optee_os/lib/libutee/tee_api_arith_mpi.c:452
    206a:	4b17      	ldr	r3, [pc, #92]	; (20c8 <TEE_BigIntMul+0x9c>)
    206c:	00a1      	lsls	r1, r4, #2
    206e:	f856 b003 	ldr.w	fp, [r6, r3]
    2072:	f8db 0000 	ldr.w	r0, [fp]
    2076:	f003 fcc7 	bl	5a08 <mempool_alloc>
/home/hsk/Desktop/devel/tee-tpm-hyp/optee_os/lib/libutee/tee_api_arith_mpi.c:453
    207a:	4605      	mov	r5, r0
    207c:	b910      	cbnz	r0, 2084 <TEE_BigIntMul+0x58>
/home/hsk/Desktop/devel/tee-tpm-hyp/optee_os/lib/libutee/tee_api_arith_mpi.c:454
    207e:	4810      	ldr	r0, [pc, #64]	; (20c0 <TEE_BigIntMul+0x94>)
    2080:	f003 fe08 	bl	5c94 <TEE_Panic>
/home/hsk/Desktop/devel/tee-tpm-hyp/optee_os/lib/libutee/tee_api_arith_mpi.c:456
    2084:	4621      	mov	r1, r4
    2086:	4628      	mov	r0, r5
    2088:	f7ff fd92 	bl	1bb0 <TEE_BigIntInit>
/home/hsk/Desktop/devel/tee-tpm-hyp/optee_os/lib/libutee/tee_api_arith_mpi.c:457
    208c:	4650      	mov	r0, sl
    208e:	2103      	movs	r1, #3
    2090:	f7ff fd8e 	bl	1bb0 <TEE_BigIntInit>
/home/hsk/Desktop/devel/tee-tpm-hyp/optee_os/lib/libutee/tee_api_arith_mpi.c:459
    2094:	4b0d      	ldr	r3, [pc, #52]	; (20cc <TEE_BigIntMul+0xa0>)
    2096:	4642      	mov	r2, r8
    2098:	4639      	mov	r1, r7
    209a:	4628      	mov	r0, r5
    209c:	58f3      	ldr	r3, [r6, r3]
    209e:	9301      	str	r3, [sp, #4]
    20a0:	f7ff fd20 	bl	1ae4 <bigint_binary>
/home/hsk/Desktop/devel/tee-tpm-hyp/optee_os/lib/libutee/tee_api_arith_mpi.c:461
    20a4:	4652      	mov	r2, sl
    20a6:	4629      	mov	r1, r5
    20a8:	4648      	mov	r0, r9
    20aa:	f7ff ff77 	bl	1f9c <TEE_BigIntAdd>
/home/hsk/Desktop/devel/tee-tpm-hyp/optee_os/lib/libutee/tee_api_arith_mpi.c:463
    20ae:	4629      	mov	r1, r5
    20b0:	f8db 0000 	ldr.w	r0, [fp]
    20b4:	f003 fcf0 	bl	5a98 <mempool_free>
/home/hsk/Desktop/devel/tee-tpm-hyp/optee_os/lib/libutee/tee_api_arith_mpi.c:464
    20b8:	b007      	add	sp, #28
    20ba:	e8bd 8ff0 	ldmia.w	sp!, {r4, r5, r6, r7, r8, r9, sl, fp, pc}
    20be:	bf00      	nop
    20c0:	ffff000c 	.word	0xffff000c
    20c4:	000053ba 	.word	0x000053ba
    20c8:	00000030 	.word	0x00000030
    20cc:	00000018 	.word	0x00000018

000020d0 <TEE_BigIntSquare>:
TEE_BigIntSquare():
/home/hsk/Desktop/devel/tee-tpm-hyp/optee_os/lib/libutee/tee_api_arith_mpi.c:468
    20d0:	460a      	mov	r2, r1
    20d2:	f7ff bfab 	b.w	202c <TEE_BigIntMul>

000020d6 <TEE_BigIntDiv>:
TEE_BigIntDiv():
/home/hsk/Desktop/devel/tee-tpm-hyp/optee_os/lib/libutee/tee_api_arith_mpi.c:473
    20d6:	e92d 4ff0 	stmdb	sp!, {r4, r5, r6, r7, r8, r9, sl, fp, lr}
    20da:	4681      	mov	r9, r0
    20dc:	468b      	mov	fp, r1
    20de:	b08d      	sub	sp, #52	; 0x34
/home/hsk/Desktop/devel/tee-tpm-hyp/optee_os/lib/libutee/tee_api_arith_mpi.c:481
    20e0:	4601      	mov	r1, r0
    20e2:	466f      	mov	r7, sp
/home/hsk/Desktop/devel/tee-tpm-hyp/optee_os/lib/libutee/tee_api_arith_mpi.c:482
    20e4:	ae03      	add	r6, sp, #12
/home/hsk/Desktop/devel/tee-tpm-hyp/optee_os/lib/libutee/tee_api_arith_mpi.c:481
    20e6:	4638      	mov	r0, r7
/home/hsk/Desktop/devel/tee-tpm-hyp/optee_os/lib/libutee/tee_api_arith_mpi.c:473
    20e8:	4690      	mov	r8, r2
    20ea:	461c      	mov	r4, r3
/home/hsk/Desktop/devel/tee-tpm-hyp/optee_os/lib/libutee/tee_api_arith_mpi.c:481
    20ec:	f7ff fa78 	bl	15e0 <get_mpi>
/home/hsk/Desktop/devel/tee-tpm-hyp/optee_os/lib/libutee/tee_api_arith_mpi.c:482
    20f0:	4659      	mov	r1, fp
    20f2:	4630      	mov	r0, r6
    20f4:	f7ff fa74 	bl	15e0 <get_mpi>
    20f8:	f10d 0a18 	add.w	sl, sp, #24
/home/hsk/Desktop/devel/tee-tpm-hyp/optee_os/lib/libutee/tee_api_arith_mpi.c:484
    20fc:	45c1      	cmp	r9, r8
    20fe:	d022      	beq.n	2146 <TEE_BigIntDiv+0x70>
/home/hsk/Desktop/devel/tee-tpm-hyp/optee_os/lib/libutee/tee_api_arith_mpi.c:486
    2100:	45c3      	cmp	fp, r8
    2102:	d022      	beq.n	214a <TEE_BigIntDiv+0x74>
/home/hsk/Desktop/devel/tee-tpm-hyp/optee_os/lib/libutee/tee_api_arith_mpi.c:478
    2104:	4655      	mov	r5, sl
/home/hsk/Desktop/devel/tee-tpm-hyp/optee_os/lib/libutee/tee_api_arith_mpi.c:489
    2106:	4641      	mov	r1, r8
    2108:	4650      	mov	r0, sl
    210a:	f7ff fcc9 	bl	1aa0 <get_const_mpi>
/home/hsk/Desktop/devel/tee-tpm-hyp/optee_os/lib/libutee/tee_api_arith_mpi.c:491
    210e:	45a1      	cmp	r9, r4
    2110:	f10d 0924 	add.w	r9, sp, #36	; 0x24
    2114:	d01b      	beq.n	214e <TEE_BigIntDiv+0x78>
/home/hsk/Desktop/devel/tee-tpm-hyp/optee_os/lib/libutee/tee_api_arith_mpi.c:493
    2116:	45a3      	cmp	fp, r4
    2118:	d01b      	beq.n	2152 <TEE_BigIntDiv+0x7c>
/home/hsk/Desktop/devel/tee-tpm-hyp/optee_os/lib/libutee/tee_api_arith_mpi.c:495
    211a:	45a0      	cmp	r8, r4
    211c:	d01b      	beq.n	2156 <TEE_BigIntDiv+0x80>
/home/hsk/Desktop/devel/tee-tpm-hyp/optee_os/lib/libutee/tee_api_arith_mpi.c:498
    211e:	4621      	mov	r1, r4
/home/hsk/Desktop/devel/tee-tpm-hyp/optee_os/lib/libutee/tee_api_arith_mpi.c:479
    2120:	464c      	mov	r4, r9
/home/hsk/Desktop/devel/tee-tpm-hyp/optee_os/lib/libutee/tee_api_arith_mpi.c:498
    2122:	4648      	mov	r0, r9
    2124:	f7ff fcbc 	bl	1aa0 <get_const_mpi>
/home/hsk/Desktop/devel/tee-tpm-hyp/optee_os/lib/libutee/tee_api_arith_mpi.c:500
    2128:	462a      	mov	r2, r5
    212a:	4623      	mov	r3, r4
    212c:	4631      	mov	r1, r6
    212e:	4638      	mov	r0, r7
    2130:	f001 faff 	bl	3732 <mbedtls_mpi_div_mpi>
    2134:	4602      	mov	r2, r0
    2136:	b180      	cbz	r0, 215a <TEE_BigIntDiv+0x84>
/home/hsk/Desktop/devel/tee-tpm-hyp/optee_os/lib/libutee/tee_api_arith_mpi.c:500 (discriminator 1)
    2138:	4811      	ldr	r0, [pc, #68]	; (2180 <TEE_BigIntDiv+0xaa>)
    213a:	f44f 71fa 	mov.w	r1, #500	; 0x1f4
    213e:	4478      	add	r0, pc
    2140:	30b3      	adds	r0, #179	; 0xb3
    2142:	f7ff fa3d 	bl	15c0 <mpi_panic>
/home/hsk/Desktop/devel/tee-tpm-hyp/optee_os/lib/libutee/tee_api_arith_mpi.c:485
    2146:	463d      	mov	r5, r7
    2148:	e7e1      	b.n	210e <TEE_BigIntDiv+0x38>
/home/hsk/Desktop/devel/tee-tpm-hyp/optee_os/lib/libutee/tee_api_arith_mpi.c:487
    214a:	4635      	mov	r5, r6
    214c:	e7df      	b.n	210e <TEE_BigIntDiv+0x38>
/home/hsk/Desktop/devel/tee-tpm-hyp/optee_os/lib/libutee/tee_api_arith_mpi.c:492
    214e:	463c      	mov	r4, r7
    2150:	e7ea      	b.n	2128 <TEE_BigIntDiv+0x52>
/home/hsk/Desktop/devel/tee-tpm-hyp/optee_os/lib/libutee/tee_api_arith_mpi.c:494
    2152:	4634      	mov	r4, r6
    2154:	e7e8      	b.n	2128 <TEE_BigIntDiv+0x52>
/home/hsk/Desktop/devel/tee-tpm-hyp/optee_os/lib/libutee/tee_api_arith_mpi.c:496
    2156:	462c      	mov	r4, r5
    2158:	e7e6      	b.n	2128 <TEE_BigIntDiv+0x52>
/home/hsk/Desktop/devel/tee-tpm-hyp/optee_os/lib/libutee/tee_api_arith_mpi.c:502
    215a:	4638      	mov	r0, r7
    215c:	f7ff fa65 	bl	162a <put_mpi>
/home/hsk/Desktop/devel/tee-tpm-hyp/optee_os/lib/libutee/tee_api_arith_mpi.c:503
    2160:	4630      	mov	r0, r6
    2162:	f7ff fa62 	bl	162a <put_mpi>
/home/hsk/Desktop/devel/tee-tpm-hyp/optee_os/lib/libutee/tee_api_arith_mpi.c:504
    2166:	4555      	cmp	r5, sl
    2168:	d102      	bne.n	2170 <TEE_BigIntDiv+0x9a>
/home/hsk/Desktop/devel/tee-tpm-hyp/optee_os/lib/libutee/tee_api_arith_mpi.c:505
    216a:	4628      	mov	r0, r5
    216c:	f7ff fa5d 	bl	162a <put_mpi>
/home/hsk/Desktop/devel/tee-tpm-hyp/optee_os/lib/libutee/tee_api_arith_mpi.c:506
    2170:	454c      	cmp	r4, r9
    2172:	d102      	bne.n	217a <TEE_BigIntDiv+0xa4>
/home/hsk/Desktop/devel/tee-tpm-hyp/optee_os/lib/libutee/tee_api_arith_mpi.c:507
    2174:	4620      	mov	r0, r4
    2176:	f7ff fa58 	bl	162a <put_mpi>
/home/hsk/Desktop/devel/tee-tpm-hyp/optee_os/lib/libutee/tee_api_arith_mpi.c:508
    217a:	b00d      	add	sp, #52	; 0x34
    217c:	e8bd 8ff0 	ldmia.w	sp!, {r4, r5, r6, r7, r8, r9, sl, fp, pc}
    2180:	000041a1 	.word	0x000041a1

00002184 <TEE_BigIntMod>:
TEE_BigIntMod():
/home/hsk/Desktop/devel/tee-tpm-hyp/optee_os/lib/libutee/tee_api_arith_mpi.c:511
    2184:	b5f7      	push	{r0, r1, r2, r4, r5, r6, r7, lr}
    2186:	4606      	mov	r6, r0
    2188:	4d0e      	ldr	r5, [pc, #56]	; (21c4 <TEE_BigIntMod+0x40>)
    218a:	460f      	mov	r7, r1
/home/hsk/Desktop/devel/tee-tpm-hyp/optee_os/lib/libutee/tee_api_arith_mpi.c:512
    218c:	4610      	mov	r0, r2
    218e:	2102      	movs	r1, #2
/home/hsk/Desktop/devel/tee-tpm-hyp/optee_os/lib/libutee/tee_api_arith_mpi.c:511
    2190:	4614      	mov	r4, r2
    2192:	447d      	add	r5, pc
/home/hsk/Desktop/devel/tee-tpm-hyp/optee_os/lib/libutee/tee_api_arith_mpi.c:512
    2194:	f7ff fddb 	bl	1d4e <TEE_BigIntCmpS32>
    2198:	2800      	cmp	r0, #0
    219a:	da08      	bge.n	21ae <TEE_BigIntMod+0x2a>
/home/hsk/Desktop/devel/tee-tpm-hyp/optee_os/lib/libutee/tee_api_arith_mpi.c:513
    219c:	480a      	ldr	r0, [pc, #40]	; (21c8 <TEE_BigIntMod+0x44>)
    219e:	f240 2101 	movw	r1, #513	; 0x201
    21a2:	4a0a      	ldr	r2, [pc, #40]	; (21cc <TEE_BigIntMod+0x48>)
    21a4:	4478      	add	r0, pc
    21a6:	447a      	add	r2, pc
    21a8:	30c1      	adds	r0, #193	; 0xc1
    21aa:	f000 fa11 	bl	25d0 <api_panic>
/home/hsk/Desktop/devel/tee-tpm-hyp/optee_os/lib/libutee/tee_api_arith_mpi.c:515
    21ae:	4b08      	ldr	r3, [pc, #32]	; (21d0 <TEE_BigIntMod+0x4c>)
    21b0:	4622      	mov	r2, r4
    21b2:	4639      	mov	r1, r7
    21b4:	4630      	mov	r0, r6
    21b6:	58eb      	ldr	r3, [r5, r3]
    21b8:	9301      	str	r3, [sp, #4]
/home/hsk/Desktop/devel/tee-tpm-hyp/optee_os/lib/libutee/tee_api_arith_mpi.c:516
    21ba:	b003      	add	sp, #12
    21bc:	e8bd 40f0 	ldmia.w	sp!, {r4, r5, r6, r7, lr}
/home/hsk/Desktop/devel/tee-tpm-hyp/optee_os/lib/libutee/tee_api_arith_mpi.c:515
    21c0:	e490      	b.n	1ae4 <bigint_binary>
    21c2:	bf00      	nop
    21c4:	00005286 	.word	0x00005286
    21c8:	0000413b 	.word	0x0000413b
    21cc:	000042f3 	.word	0x000042f3
    21d0:	00000028 	.word	0x00000028

000021d4 <TEE_BigIntAddMod>:
TEE_BigIntAddMod():
/home/hsk/Desktop/devel/tee-tpm-hyp/optee_os/lib/libutee/tee_api_arith_mpi.c:520
    21d4:	b537      	push	{r0, r1, r2, r4, r5, lr}
    21d6:	4c04      	ldr	r4, [pc, #16]	; (21e8 <TEE_BigIntAddMod+0x14>)
/home/hsk/Desktop/devel/tee-tpm-hyp/optee_os/lib/libutee/tee_api_arith_mpi.c:521
    21d8:	4d04      	ldr	r5, [pc, #16]	; (21ec <TEE_BigIntAddMod+0x18>)
/home/hsk/Desktop/devel/tee-tpm-hyp/optee_os/lib/libutee/tee_api_arith_mpi.c:520
    21da:	447c      	add	r4, pc
/home/hsk/Desktop/devel/tee-tpm-hyp/optee_os/lib/libutee/tee_api_arith_mpi.c:521
    21dc:	5964      	ldr	r4, [r4, r5]
    21de:	9400      	str	r4, [sp, #0]
