
a734eed9-d6a1-4244-aa50-7c99719e7b7b.elf:     file format elf32-littlearm
a734eed9-d6a1-4244-aa50-7c99719e7b7b.elf
architecture: arm, flags 0x00000150:
HAS_SYMS, DYNAMIC, D_PAGED
start address 0x00000020

Program Header:
0x70000001 off    0x00018e6c vaddr 0x00008e6c paddr 0x00008e6c align 2**2
         filesz 0x00000648 memsz 0x00000648 flags r--
    LOAD off    0x00010000 vaddr 0x00000000 paddr 0x00000000 align 2**16
         filesz 0x00007bc8 memsz 0x00007bc8 flags r-x
    LOAD off    0x00017bc8 vaddr 0x00007bc8 paddr 0x00007bc8 align 2**16
         filesz 0x00001cd0 memsz 0x00001cd0 flags r--
    LOAD off    0x0001a000 vaddr 0x0000a000 paddr 0x0000a000 align 2**16
         filesz 0x00000098 memsz 0x0000a108 flags rw-
 DYNAMIC off    0x00019608 vaddr 0x00009608 paddr 0x00009608 align 2**2
         filesz 0x00000080 memsz 0x00000080 flags rw-

Dynamic Section:
  HASH                 0x00009848
  STRTAB               0x00009778
  SYMTAB               0x00009688
  STRSZ                0x000000ce
  SYMENT               0x00000010
  DEBUG                0x00000000
  REL                  0x000094f0
  RELSZ                0x00000118
  RELENT               0x00000008
  FLAGS_1              0x08000000
  RELCOUNT             0x00000017
private flags = 5000400: [Version5 EABI] [hard-float ABI]

Sections:
Idx Name          Size      VMA       LMA       File off  Algn
  0 .ta_head      00000020  00000000  00000000  00010000  2**3
                  CONTENTS, ALLOC, LOAD, DATA
  1 .text         00007ba8  00000020  00000020  00010020  2**3
                  CONTENTS, ALLOC, LOAD, READONLY, CODE
  2 .rodata       00001177  00007bc8  00007bc8  00017bc8  2**2
                  CONTENTS, ALLOC, LOAD, READONLY, DATA
  3 .ARM.extab    000000fc  00008d40  00008d40  00018d40  2**2
                  CONTENTS, ALLOC, LOAD, READONLY, DATA
  4 .ARM.extab.text.__aeabi_ldivmod 0000000c  00008e3c  00008e3c  00018e3c  2**2
                  CONTENTS, ALLOC, LOAD, READONLY, DATA
  5 .ARM.extab.text.__aeabi_uldivmod 0000000c  00008e48  00008e48  00018e48  2**2
                  CONTENTS, ALLOC, LOAD, READONLY, DATA
  6 .ARM.extab.text.utee_panic 0000000c  00008e54  00008e54  00018e54  2**2
                  CONTENTS, ALLOC, LOAD, READONLY, DATA
  7 .ARM.extab.text.unlikely 0000000c  00008e60  00008e60  00018e60  2**2
                  CONTENTS, ALLOC, LOAD, READONLY, DATA
  8 .ARM.exidx    00000648  00008e6c  00008e6c  00018e6c  2**2
                  CONTENTS, ALLOC, LOAD, READONLY, DATA
  9 .got          0000003c  000094b4  000094b4  000194b4  2**2
                  CONTENTS, ALLOC, LOAD, DATA
 10 .dynsym       000000f0  00009688  00009688  00019688  2**2
                  CONTENTS, ALLOC, LOAD, READONLY, DATA
 11 .rel.got      00000060  000095a8  000095a8  000195a8  2**2
                  CONTENTS, ALLOC, LOAD, READONLY, DATA
 12 .dynamic      00000080  00009608  00009608  00019608  2**2
                  CONTENTS, ALLOC, LOAD, DATA
 13 .dynstr       000000ce  00009778  00009778  00019778  2**0
                  CONTENTS, ALLOC, LOAD, READONLY, DATA
 14 .hash         00000050  00009848  00009848  00019848  2**2
                  CONTENTS, ALLOC, LOAD, READONLY, DATA
 15 .data         00000098  0000a000  0000a000  0001a000  2**2
                  CONTENTS, ALLOC, LOAD, DATA
 16 .bss          0000a070  0000a098  0000a098  0001a098  2**2
                  ALLOC
 17 .debug_info   0001184f  00000000  00000000  0001a098  2**0
                  CONTENTS, READONLY, DEBUGGING
 18 .debug_abbrev 00002dbf  00000000  00000000  0002b8e7  2**0
                  CONTENTS, READONLY, DEBUGGING
 19 .debug_loc    0001102a  00000000  00000000  0002e6a6  2**0
                  CONTENTS, READONLY, DEBUGGING
 20 .debug_aranges 00000550  00000000  00000000  0003f6d0  2**3
                  CONTENTS, READONLY, DEBUGGING
 21 .debug_ranges 00000858  00000000  00000000  0003fc20  2**3
                  CONTENTS, READONLY, DEBUGGING
 22 .debug_macro  00013e90  00000000  00000000  00040478  2**0
                  CONTENTS, READONLY, DEBUGGING
 23 .debug_line   00005486  00000000  00000000  00054308  2**0
                  CONTENTS, READONLY, DEBUGGING
 24 .debug_str    00011e68  00000000  00000000  0005978e  2**0
                  CONTENTS, READONLY, DEBUGGING
 25 .comment      00000074  00000000  00000000  0006b5f6  2**0
                  CONTENTS, READONLY
 26 .ARM.attributes 00000036  00000000  00000000  0006b66a  2**0
                  CONTENTS, READONLY
 27 .debug_frame  00001f58  00000000  00000000  0006b6a0  2**2
                  CONTENTS, READONLY, DEBUGGING
 28 .rel.dyn      000000b8  000094f0  000094f0  000194f0  2**2
                  CONTENTS, ALLOC, LOAD, READONLY, DATA
SYMBOL TABLE:
00000000 l    d  .ta_head	00000000 .ta_head
00000020 l    d  .text	00000000 .text
00007bc8 l    d  .rodata	00000000 .rodata
00008d40 l    d  .ARM.extab	00000000 .ARM.extab
00008e3c l    d  .ARM.extab.text.__aeabi_ldivmod	00000000 .ARM.extab.text.__aeabi_ldivmod
00008e48 l    d  .ARM.extab.text.__aeabi_uldivmod	00000000 .ARM.extab.text.__aeabi_uldivmod
00008e54 l    d  .ARM.extab.text.utee_panic	00000000 .ARM.extab.text.utee_panic
00008e60 l    d  .ARM.extab.text.unlikely	00000000 .ARM.extab.text.unlikely
00008e6c l    d  .ARM.exidx	00000000 .ARM.exidx
000094b4 l    d  .got	00000000 .got
000095a8 l    d  .rel.got	00000000 .rel.got
00009608 l    d  .dynamic	00000000 .dynamic
00009688 l    d  .dynsym	00000000 .dynsym
00009778 l    d  .dynstr	00000000 .dynstr
00009848 l    d  .hash	00000000 .hash
0000a000 l    d  .data	00000000 .data
0000a098 l    d  .bss	00000000 .bss
00000000 l    d  .debug_info	00000000 .debug_info
00000000 l    d  .debug_abbrev	00000000 .debug_abbrev
00000000 l    d  .debug_loc	00000000 .debug_loc
00000000 l    d  .debug_aranges	00000000 .debug_aranges
00000000 l    d  .debug_ranges	00000000 .debug_ranges
00000000 l    d  .debug_macro	00000000 .debug_macro
00000000 l    d  .debug_line	00000000 .debug_line
00000000 l    d  .debug_str	00000000 .debug_str
00000000 l    d  .comment	00000000 .comment
00000000 l    d  .ARM.attributes	00000000 .ARM.attributes
00000000 l    d  .debug_frame	00000000 .debug_frame
000094f0 l    d  .rel.dyn	00000000 .rel.dyn
00000000 l    df *ABS*	00000000 user_ta_header.c
00007bcc l     O .rodata	00000004 __compound_literal.5
00007bd0 l     O .rodata	00000004 __compound_literal.4
00007bd4 l     O .rodata	00000004 __compound_literal.3
00007bd8 l     O .rodata	00000001 __compound_literal.2
00007bd9 l     O .rodata	00000001 __compound_literal.1
00007bda l     O .rodata	00000001 __compound_literal.0
00000000 l    df *ABS*	00000000 acipher_ta.c
00007ea8 l     O .rodata	0000000c __func__.6125
00007eb4 l     O .rodata	00000008 __func__.6140
00007ebc l     O .rodata	0000001b __func__.6167
00000000 l    df *ABS*	00000000 trace.c
00000230 l     F .text	0000004e append
000080b8 l     O .rodata	00000005 lvl_strs.5573
000080bd l     O .rodata	0000000a __func__.5627
00000000 l    df *ABS*	00000000 snprintk.c
00008101 l     O .rodata	00000011 HEXDIGITS
00008112 l     O .rodata	00000011 hexdigits
00000000 l    df *ABS*	00000000 arm32_aeabi_ldivmod_a32.o
00000000 l    df *ABS*	00000000 trace_ext.c
00000000 l    df *ABS*	00000000 tee_api.c
0000815b l     O .rodata	0000000b __func__.6740
0000a098 l     O .bss	00000004 tee_api_instance_data
00000000 l    df *ABS*	00000000 tee_api_objects.c
00008177 l     O .rodata	00000010 __func__.6655
00000000 l    df *ABS*	00000000 tee_api_operations.c
00001764 l     F .text	00000154 tee_buffer_update
00000000 l    df *ABS*	00000000 user_ta_entry.c
00002d14 l     F .text	0000001c ta_header_get_session
00002d30 l     F .text	00000068 ta_header_remove_session
0000a09c l     O .bss	00000001 init_done
0000a074 l     O .data	00000008 ta_sessions
00000000 l    df *ABS*	00000000 utee_syscalls_a32.o
00000000 l    df *ABS*	00000000 gprof_a32.o
00000000 l    df *ABS*	00000000 tee_api_arith_mpi.c
000043f0 l     F .text	00000020 api_panic
000033e0 l     F .text	00000020 mpi_panic
00003400 l     F .text	00000024 get_mpi
00003424 l     F .text	00000010 mpi_is_odd
00003434 l     F .text	00000016 rng_read
0000344a l     F .text	0000001c put_mpi
00003466 l     F .text	0000045a mpi_egcd
000038c0 l     F .text	00000044 get_const_mpi
00003904 l     F .text	00000088 bigint_binary
0000a0c4 l     O .bss	00002000 data.6740
00003b94 l     F .text	000000e8 bigint_binary_mod
00008197 l     O .rodata	00000009 __func__.7008
000081a0 l     O .rodata	0000000e __func__.6769
000081ae l     O .rodata	0000000e __func__.6868
000081bc l     O .rodata	00000012 __func__.6741
000081ce l     O .rodata	0000000f __func__.6779
000081dd l     O .rodata	0000001f __func__.6797
000081fc l     O .rodata	00000019 __func__.6804
00008215 l     O .rodata	00000012 __func__.6879
00008227 l     O .rodata	00000015 __func__.6834
0000823c l     O .rodata	0000000e __func__.6906
0000824a l     O .rodata	0000000e __func__.6934
00008258 l     O .rodata	0000000e __func__.6940
00008266 l     O .rodata	00000011 __func__.6969
00008277 l     O .rodata	00000018 __func__.6985
0000828f l     O .rodata	0000001d __func__.7065
000082ac l     O .rodata	00000019 __func__.7115
000082c5 l     O .rodata	00000015 __func__.7129
00000000 l    df *ABS*	00000000 bignum.c
00004410 l     F .text	00000038 mpi_get_digit
00004448 l     F .text	0000005c mpi_sub_hlp
000044a4 l     F .text	0000049a mpi_mul_hlp
0000493e l     F .text	00000048 mbedtls_mpi_mod_int.part.3
000059b4 l     F .text	0000006e mpi_write_hlp
00005b50 l     F .text	00000050 mpi_check_small_factors
0000624a l     F .text	00000216 mpi_miller_rabin
00007be4 l     O .rodata	000002a0 small_prime
00007e84 l     O .rodata	00000024 gcd_pairs
00000000 l    df *ABS*	00000000 bget_malloc.c
00006bec l     F .text	00000030 raw_malloc_return_hook.isra.3
00006c1c l     F .text	000000d8 create_free_block.constprop.11
000087ee l     O .rodata	00000012 __func__.5866
00008800 l     O .rodata	00000005 __func__.5722
00008805 l     O .rodata	00000006 __func__.5737
0000880b l     O .rodata	00000005 __func__.5754
00008810 l     O .rodata	00000006 __func__.5746
00008816 l     O .rodata	00000006 __func__.5763
0000881c l     O .rodata	00000007 __func__.5773
00008823 l     O .rodata	0000000d __func__.5902
00008830 l     O .rodata	0000000c __func__.5876
0000883c l     O .rodata	0000000b __func__.5887
00008847 l     O .rodata	00000010 __func__.5954
00008857 l     O .rodata	0000000e __func__.5908
00008865 l     O .rodata	00000013 __func__.5814
0000c0c8 l     O .bss	00000038 mstats
0000c100 l     O .bss	00000004 malloc_pool_len
0000c104 l     O .bss	00000004 malloc_pool
0000a07c l     O .data	0000001c malloc_poolset
00000000 l    df *ABS*	00000000 mempool.c
00008c80 l     O .rodata	00000013 __func__.5630
00008c93 l     O .rodata	0000000e __func__.5639
00000000 l    df *ABS*	00000000 assert.c
00000000 l    df *ABS*	00000000 aeabi_unwind.c
00000000 l    df *ABS*	00000000 memchr.c
00000000 l    df *ABS*	00000000 strlen.c
00000000 l    df *ABS*	00000000 arm32_aeabi_ldivmod.c
00000000 l    df *ABS*	00000000 tee_api_panic.c
00000000 l    df *ABS*	00000000 snprintf.c
00000000 l    df *ABS*	00000000 memcmp.c
00000000 l    df *ABS*	00000000 memcpy.c
00000000 l    df *ABS*	00000000 memmove.c
00000000 l    df *ABS*	00000000 memset.c
00000000 l    df *ABS*	00000000 buf_compare_ct.c
00000000 l    df *ABS*	00000000 
00009608 l     O *ABS*	00000000 _DYNAMIC
000094b4 l     O *ABS*	00000000 _GLOBAL_OFFSET_TABLE_
00007b88 l     F .text	00000010 __utee_log_from_thumb
00007b98 l     F .text	00000010 __utee_check_access_rights_from_thumb
00007ba8 l     F .text	00000010 __utee_cache_operation_from_thumb
00007bb8 l     F .text	00000010 __utee_panic_from_thumb
00000cb0 g     F .text	00000022 putchar
0000121c g     F .text	00000070 TEE_PopulateTransientObject
00004302 g     F .text	00000004 TEE_BigIntConvertToFMM
00004048 g     F .text	00000008 TEE_BigIntSquareMod
00003c7c g     F .text	000000f4 TEE_BigIntShiftRight
000032b8 g     F .text	00000018 utee_storage_obj_create
00004a18 g     F .text	000000a8 mbedtls_mpi_grow
000079cc g     F .text	000000e8 __l_divmod
00002f38 g     F .text	00000014 utee_return
00002154 g     F .text	00000030 TEE_DigestUpdate
00000f98 g     F .text	00000004 TEE_Realloc
00001fbc g     F .text	000000f4 TEE_SetOperationKey2
00000c52 g     F .text	0000003a printf
00002f4c g     F .text	00000014 utee_log
0000128c g     F .text	00000022 TEE_InitRefAttribute
00000db6 g     F .text	00000066 TEE_InvokeTACommand
00004994 g     F .text	00000024 mbedtls_mpi_init_mempool
00004e92 g     F .text	00000046 mbedtls_mpi_write_binary
00002734 g     F .text	00000118 TEE_AEEncryptFinal
00000be0 g     F .text	0000000e vsnprintk
00005300 g     F .text	00000030 mbedtls_mpi_sub_int
00007b18 g     F .text	00000032 memmove
00007ab8 g     F .text	0000001e snprintf
00003b6e g     F .text	00000026 TEE_BigIntCmpS32
000012ae g     F .text	00000022 TEE_InitValueAttribute
00004ac0 g     F .text	000000cc mbedtls_mpi_shrink
00007924 g     F .text	00000002 __aeabi_unwind_cpp_pr0
00003dbc g     F .text	0000001c TEE_BigIntAdd
00002f8c g     F .text	00000014 utee_get_property_name_to_index
00007bdc g     O .rodata	00000004 ta_heap_size
000011ec g     F .text	00000030 TEE_ResetTransientObject
00003070 g     F .text	00000018 utee_cryp_state_alloc
00003240 g     F .text	00000018 utee_authenc_enc_final
00005426 g     F .text	0000012c mbedtls_mpi_read_string
000021f4 g     F .text	00000056 TEE_CipherInit
00003df4 g     F .text	00000058 TEE_BigIntNeg
00000020 g       .text	00000000 __text_start
000015b0 g     F .text	0000002c TEE_StartPersistentObjectEnumerator
00004f68 g     F .text	0000007c mbedtls_mpi_shift_r
00007798 g     F .text	0000004c malloc_buffer_overlaps_heap
00004010 g     F .text	0000001c TEE_BigIntSubMod
0000678a g     F .text	00000136 mbedtls_mpi_gen_prime
00004d3a g     F .text	00000020 mbedtls_mpi_get_bit
00004e2c g     F .text	00000066 mbedtls_mpi_read_binary
000025b0 g     F .text	00000070 TEE_AEInit
000002b0 g     F .text	0000013c trace_printf
00005bc8 g     F .text	000000c4 mbedtls_mpi_montmul
00007b02 g     F .text	00000016 memcpy
0000309c g     F .text	00000014 utee_cryp_state_free
00004306 g     F .text	0000004a TEE_BigIntConvertFromFMM
00007ab4 g     F .text	00000004 TEE_Panic
00000c20 g     F .text	00000018 __aeabi_uldivmod
000020b0 g     F .text	000000a4 TEE_CopyOperation
00000c8c g     F .text	00000024 puts
00004350 g     F .text	000000a0 TEE_BigIntComputeFMM
0000720c g     F .text	00000020 malloc_get_stats
0000311c g     F .text	00000018 utee_cipher_final
00000f38 g     F .text	00000016 TEE_GetREETime
00001550 g     F .text	00000038 TEE_AllocatePersistentObjectEnumerator
0000a004 g     O .data	0000006c ta_props
00002954 g     F .text	000000bc TEE_AsymmetricEncrypt
0000722c g     F .text	00000038 malloc
00003184 g     F .text	00000014 utee_cryp_obj_close
00007ad6 g     F .text	0000000e vsnprintf
00001368 g     F .text	0000006c TEE_GenerateKey
0000a000 g     O .data	00000004 trace_level
00003b38 g     F .text	00000036 TEE_BigIntCmp
00007bc8 g     O .rodata	00000004 ta_num_props
0000707c g     F .text	0000007c bgetr
00003228 g     F .text	00000018 utee_authenc_update_payload
000078b8 g     F .text	0000002e mempool_free
0000224a g     F .text	000000e6 TEE_CipherUpdate
00003a50 g     F .text	00000058 TEE_BigIntConvertToOctetString
00001e36 g     F .text	000000b6 TEE_GetOperationInfoMultiple
000033c0 g     F .text	00000014 utee_cache_operation
00004dde g     F .text	00000042 mbedtls_mpi_bitlen
000031fc g     F .text	00000018 utee_authenc_init
00003d70 g     F .text	0000002a TEE_BigIntGetBit
00007be0 g     O .rodata	00000003 trace_ext_prefix
00006e28 g     F .text	0000005c bgetz
00000e88 g     F .text	0000000c TEE_GetInstanceData
00000eb6 g     F .text	0000001e TEE_Wait
00003370 g     F .text	00000014 utee_storage_obj_write
00005330 g     F .text	000000d8 mbedtls_mpi_mul_mpi
00007928 g     F .text	00000002 __aeabi_unwind_cpp_pr2
00000fa6 g     F .text	00000006 TEE_CacheFlush
00000024 g     F .text	00000002 TA_DestroyEntryPoint
00004986 g     F .text	0000000e mbedtls_mpi_init
00004dac g     F .text	00000032 mbedtls_mpi_lsb
000078e8 g     F .text	00000028 _assert_log
000042fe g     F .text	00000004 TEE_BigIntFMMContextSizeInU32
00002548 g     F .text	00000068 TEE_MACCompareFinal
0000150a g     F .text	00000046 TEE_RenamePersistentObject
00002184 g     F .text	00000070 TEE_DigestDoFinal
0000398c g     F .text	00000044 _TEE_MathAPI_Init
00005240 g     F .text	00000046 mbedtls_mpi_add_mpi
00003348 g     F .text	00000014 utee_storage_next_enum
0000c108 g     O .bss	00008000 ta_heap
00004050 g     F .text	000000a4 TEE_BigIntInvMod
00000048 g     F .text	00000014 TA_CloseSessionEntryPoint
00002a10 g     F .text	000000c0 TEE_AsymmetricDecrypt
000013d4 g     F .text	00000064 TEE_OpenPersistentObject
00005286 g     F .text	0000004a mbedtls_mpi_sub_mpi
00002f60 g     F .text	00000014 __utee_panic
00003088 g     F .text	00000014 utee_cryp_state_copy
0000005c g     F .text	000001d4 TA_InvokeCommandEntryPoint
00007828 g     F .text	0000006c mempool_alloc
00003170 g     F .text	00000014 utee_cryp_obj_alloc
0000305c g     F .text	00000014 utee_set_ta_time
0000315c g     F .text	00000014 utee_cryp_obj_get_attr
00007894 g     F .text	00000024 mempool_calloc
00001338 g     F .text	00000030 TEE_CopyObjectAttributes
00007274 g     F .text	00000048 calloc
00000f4e g     F .text	0000004a TEE_Malloc
00003020 g     F .text	00000014 utee_mask_cancellation
00003198 g     F .text	00000014 utee_cryp_obj_reset
00000e70 g     F .text	0000000a TEE_CheckMemoryAccessRights
00014108 g       .bss	00000000 __gprof_buf_end
00007956 g     F .text	00000076 __ul_divmod
00004d02 g     F .text	00000038 mbedtls_mpi_lset
00001630 g     F .text	00000040 TEE_ReadObjectData
00001084 g     F .text	00000070 TEE_GetObjectBufferAttribute
00000026 g     F .text	00000022 TA_OpenSessionEntryPoint
00003334 g     F .text	00000014 utee_storage_start_enum
000018b8 g     F .text	00000026 TEE_FreeOperation
000032e4 g     F .text	00000014 utee_storage_obj_rename
0000a0a0 g     O .bss	00000004 ta_param_types
000058e8 g     F .text	0000002e mbedtls_mpi_div_int
00000fb4 g     F .text	00000038 __utee_from_attr
000042c0 g     F .text	00000030 TEE_BigIntIsProbablePrime
00005408 g     F .text	0000001e mbedtls_mpi_mul_int
000014d0 g     F .text	00000024 TEE_CloseAndDeletePersistentObject1
00005cb0 g     F .text	00000454 mbedtls_mpi_exp_mod
00004c10 g     F .text	0000006c mbedtls_mpi_safe_cond_assign
00002f74 g     F .text	00000018 utee_get_property
0000284c g     F .text	00000108 TEE_AEDecryptFinal
000039d0 g     F .text	00000040 TEE_BigIntInit
00000e94 g     F .text	00000004 TEE_MemMove
00003a10 g     F .text	00000040 TEE_BigIntConvertFromOctetString
0000a070 g     O .data	00000004 _ref__utee_mcount
00004fe4 g     F .text	00000068 mbedtls_mpi_cmp_abs
0000243c g     F .text	00000056 TEE_MACInit
00002ad0 g     F .text	000000b4 TEE_AsymmetricSignDigest
0000792a g     F .text	0000001c memchr
00000e38 g     F .text	0000001c TEE_UnmaskCancellation
00000fec g     F .text	0000002c TEE_GetObjectInfo
000068c0 g     F .text	0000032c mbedtls_mpi_self_test
000032d0 g     F .text	00000014 utee_storage_obj_del
00002666 g     F .text	000000ce TEE_AEUpdate
00003398 g     F .text	00000014 utee_storage_obj_seek
000011bc g     F .text	00000030 TEE_FreeTransientObject
000050de g     F .text	00000030 mbedtls_mpi_cmp_int
000030c4 g     F .text	00000014 utee_hash_update
00002cfc g     F .text	00000018 rand
000033d4  w    F .text	0000000c __utee_mcount
00001e14 g     F .text	00000022 TEE_GetOperationInfo
00003fa4 g     F .text	00000050 TEE_BigIntMod
0000597a g     F .text	0000003a mbedtls_mpi_mod_int
00002fb8 g     F .text	00000014 utee_close_ta_session
00003ef6 g     F .text	000000ae TEE_BigIntDiv
00004b8c g     F .text	00000056 mbedtls_mpi_copy
000071f8 g     F .text	00000014 malloc_reset_stats
00003104 g     F .text	00000018 utee_cipher_update
00001038 g     F .text	00000020 TEE_RestrictObjectUsage1
000072bc g     F .text	00000038 realloc
00004be2 g     F .text	0000002e mbedtls_mpi_swap
000077e4 g     F .text	00000044 mempool_alloc_pool
00003288 g     F .text	00000018 utee_asymm_verify
00003e4c g     F .text	000000a4 TEE_BigIntMul
00001eec g     F .text	00000040 TEE_ResetOperation
00004ed8 g     F .text	00000090 mbedtls_mpi_shift_l
0000504c g     F .text	00000092 mbedtls_mpi_cmp_mpi
00000e9c g     F .text	00000004 TEE_MemFill
00007ae4 g     F .text	0000001e memcmp
000075c4 g     F .text	000000f8 malloc_add_pool
00002492 g     F .text	0000004e TEE_MACUpdate
0000029c g     F .text	00000014 trace_get_level
0000510e g     F .text	000000b8 mbedtls_mpi_add_abs
000031e8 g     F .text	00000014 utee_cryp_random_number_generate
00001058 g     F .text	0000002c TEE_RestrictObjectUsage
000042f6 g     F .text	00000008 TEE_BigIntFMMSizeInU32
000042f0 g     F .text	00000004 TEE_BigIntInitFMM
00003270 g     F .text	00000018 utee_asymm_operate
00001178 g     F .text	00000014 TEE_CloseObject
00002d98 g     F .text	0000018c __utee_entry
00007bc8 g       .text	00000000 __text_end
000040f4 g     F .text	0000007c TEE_BigIntRelativePrime
00005916 g     F .text	00000064 mbedtls_mpi_mod_mpi
000070f8 g     F .text	0000009c bpool
00000e1c g     F .text	0000001c TEE_GetCancellationFlag
00006104 g     F .text	00000112 mbedtls_mpi_gcd
00000f10 g     F .text	00000028 TEE_SetTAPersistentTime
00007b4a g     F .text	00000010 memset
00000ed4 g     F .text	0000003c TEE_GetTAPersistentTime
000003ec g     F .text	000000f8 dhex_dump
00001438 g     F .text	00000098 TEE_CreatePersistentObject
00000e54 g     F .text	0000001c TEE_MaskCancellation
00002620 g     F .text	00000046 TEE_AEUpdateAAD
0000335c g     F .text	00000014 utee_storage_obj_read
000016b0 g     F .text	00000038 TEE_TruncateObjectData
000031ac g     F .text	00000014 utee_cryp_obj_populate
00001018 g     F .text	00000020 TEE_GetObjectInfo1
0000027e g     F .text	0000001e trace_set_level
00003134 g     F .text	00000014 utee_cryp_obj_get_info
000010f4 g     F .text	00000084 TEE_GetObjectValueAttribute
00001f2c g     F .text	00000090 TEE_SetOperationKey
000032f8 g     F .text	00000014 utee_storage_alloc_enum
00003320 g     F .text	00000014 utee_storage_reset_enum
00003384 g     F .text	00000014 utee_storage_obj_trunc
00003ae0 g     F .text	00000058 TEE_BigIntConvertToS32
00003dd8 g     F .text	0000001c TEE_BigIntSub
00002fe4 g     F .text	00000014 utee_get_cancellation_flag
000030b0 g     F .text	00000014 utee_hash_init
00007920 g     F .text	00000004 tahead_get_trace_level
00000cd4 g     F .text	0000004e __utee_from_param
000016e8 g     F .text	0000007c TEE_SeekObjectData
00000d22 g     F .text	0000003c __utee_to_param
00005c8c g     F .text	00000024 mbedtls_mpi_montred
000072f4 g     F .text	000002d0 memalign
00002330 g     F .text	0000010c TEE_CipherDoFinal
00003aa8 g     F .text	00000038 TEE_BigIntConvertFromS32
000052d0 g     F .text	00000030 mbedtls_mpi_add_int
00003148 g     F .text	00000014 utee_cryp_obj_restrict_usage
000076bc g     F .text	000000dc malloc_buffer_is_within_alloced
000031c0 g     F .text	00000014 utee_cryp_obj_copy
000042f4 g     F .text	00000002 TEE_BigIntInitFMMContext
000031d4 g     F .text	00000014 utee_cryp_derive_key
00003258 g     F .text	00000018 utee_authenc_dec_final
00001670 g     F .text	00000040 TEE_WriteObjectData
0000159c g     F .text	00000014 TEE_ResetPersistentObjectEnumerator
00003ef0 g     F .text	00000006 TEE_BigIntSquare
00000020 g     F .text	00000004 TA_CreateEntryPoint
00005ba0 g     F .text	00000028 mbedtls_mpi_montg_init
00000bee g     F .text	0000001a snprintk
00003d9a g     F .text	00000022 TEE_BigIntGetBitCount
0000402c g     F .text	0000001c TEE_BigIntMulMod
00006460 g     F .text	000002ce mbedtls_mpi_inv_mod
00002c30 g     F .text	000000ba TEE_DeriveKey
0000a0a4 g     O .bss	00000020 ta_params
00005552 g     F .text	00000396 mbedtls_mpi_div_mpi
00004e20 g     F .text	0000000c mbedtls_mpi_size
00006cf4 g     F .text	00000134 bget
0000118c g     F .text	00000030 TEE_AllocateTransientObject
00004d5a g     F .text	00000052 mbedtls_mpi_set_bit
000049b8 g     F .text	00000012 mbedtls_mpi_init_static
00000f9c g     F .text	00000004 TEE_Free
0000672e g     F .text	0000005c mbedtls_mpi_is_prime
00000fac g     F .text	00000006 TEE_CacheInvalidate
000030f0 g     F .text	00000014 utee_cipher_init
00007910 g     F .text	00000010 _assert_break
00003ff4 g     F .text	0000001c TEE_BigIntAddMod
0000330c g     F .text	00000014 utee_storage_free_enum
00003214 g     F .text	00000014 utee_authenc_update_aad
000018de g     F .text	00000536 TEE_AllocateOperation
00002cea g     F .text	00000012 TEE_GenerateRandom
00000e98 g     F .text	00000004 TEE_MemCompare
000004e4 g     F .text	000006fc __vsnprintf
00001588 g     F .text	00000014 TEE_FreePersistentObjectEnumerator
00002f24 g     F .text	00000014 utee_panic
00000d5e g     F .text	00000044 TEE_OpenTASession
00000c38 g     F .text	00000014 trace_ext_puts
00000c4c g     F .text	00000006 trace_ext_get_thread_id
000014f4 g     F .text	00000016 TEE_CloseAndDeletePersistentObject
000049ca g     F .text	0000004e mbedtls_mpi_free
00000fa0 g     F .text	00000006 TEE_CacheClean
00002fa0 g     F .text	00000018 utee_open_ta_session
00007b5a g     F .text	0000002c buf_compare_ct
00004c7c g     F .text	00000086 mbedtls_mpi_safe_cond_swap
000012d0 g     F .text	00000068 TEE_CopyObjectAttributes1
000030d8 g     F .text	00000018 utee_hash_final
00007946 g     F .text	00000010 strlen
00004170 g     F .text	00000150 TEE_BigIntComputeExtendedGcd
00007926 g     F .text	00000002 __aeabi_unwind_cpp_pr1
000032a0 g     F .text	00000018 utee_storage_obj_open
00002fcc g     F .text	00000018 utee_invoke_ta_command
00003034 g     F .text	00000014 utee_wait
00000ea0 g     F .text	00000016 TEE_GetSystemTime
00000000 g     O .ta_head	00000020 ta_head
00006e84 g     F .text	000001f8 brel
000051c6 g     F .text	0000007a mbedtls_mpi_sub_abs
00003048 g     F .text	00000014 utee_get_time
00006216 g     F .text	00000034 mbedtls_mpi_fill_random
00000e7a g     F .text	0000000e TEE_SetInstanceData
0000300c g     F .text	00000014 utee_unmask_cancellation
00000c08 g     F .text	00000018 __aeabi_ldivmod
00002ff8 g     F .text	00000014 utee_check_access_rights
00005a22 g     F .text	0000012e mbedtls_mpi_write_string
000015dc g     F .text	00000054 TEE_GetNextPersistentObject
000033ac g     F .text	00000014 utee_cryp_obj_generate_key
00000da2 g     F .text	00000014 TEE_CloseTASession
00002b84 g     F .text	000000ac TEE_AsymmetricVerifyDigest
00014108 g       .bss	00000000 __gprof_buf_start
00007264 g     F .text	00000010 free
00007194 g     F .text	00000064 bstats
000024e0 g     F .text	00000068 TEE_MACComputeFinal
0000c0c4 g     O .bss	00000004 mbedtls_mpi_mempool



Disassembly of section .text:

00000020 <TA_CreateEntryPoint>:
TA_CreateEntryPoint():
/home/hsk/Desktop/devel/tee-tpm-hyp/optee_examples/acipher/ta/acipher_ta.c:114
      20:	2000      	movs	r0, #0
      22:	4770      	bx	lr

00000024 <TA_DestroyEntryPoint>:
TA_DestroyEntryPoint():
/home/hsk/Desktop/devel/tee-tpm-hyp/optee_examples/acipher/ta/acipher_ta.c:119
      24:	4770      	bx	lr

00000026 <TA_OpenSessionEntryPoint>:
TA_OpenSessionEntryPoint():
/home/hsk/Desktop/devel/tee-tpm-hyp/optee_examples/acipher/ta/acipher_ta.c:124
      26:	b510      	push	{r4, lr}
/home/hsk/Desktop/devel/tee-tpm-hyp/optee_examples/acipher/ta/acipher_ta.c:130
      28:	2100      	movs	r1, #0
      2a:	2004      	movs	r0, #4
/home/hsk/Desktop/devel/tee-tpm-hyp/optee_examples/acipher/ta/acipher_ta.c:124
      2c:	4614      	mov	r4, r2
/home/hsk/Desktop/devel/tee-tpm-hyp/optee_examples/acipher/ta/acipher_ta.c:130
      2e:	f000 ff8e 	bl	f4e <TEE_Malloc>
/home/hsk/Desktop/devel/tee-tpm-hyp/optee_examples/acipher/ta/acipher_ta.c:131
      32:	b120      	cbz	r0, 3e <TA_OpenSessionEntryPoint+0x18>
/home/hsk/Desktop/devel/tee-tpm-hyp/optee_examples/acipher/ta/acipher_ta.c:134
      34:	2300      	movs	r3, #0
      36:	6003      	str	r3, [r0, #0]
/home/hsk/Desktop/devel/tee-tpm-hyp/optee_examples/acipher/ta/acipher_ta.c:136
      38:	6020      	str	r0, [r4, #0]
/home/hsk/Desktop/devel/tee-tpm-hyp/optee_examples/acipher/ta/acipher_ta.c:138
      3a:	4618      	mov	r0, r3
/home/hsk/Desktop/devel/tee-tpm-hyp/optee_examples/acipher/ta/acipher_ta.c:139
      3c:	bd10      	pop	{r4, pc}
/home/hsk/Desktop/devel/tee-tpm-hyp/optee_examples/acipher/ta/acipher_ta.c:132
      3e:	4801      	ldr	r0, [pc, #4]	; (44 <TA_OpenSessionEntryPoint+0x1e>)
      40:	e7fc      	b.n	3c <TA_OpenSessionEntryPoint+0x16>
      42:	bf00      	nop
      44:	ffff000c 	.word	0xffff000c

00000048 <TA_CloseSessionEntryPoint>:
TA_CloseSessionEntryPoint():
/home/hsk/Desktop/devel/tee-tpm-hyp/optee_examples/acipher/ta/acipher_ta.c:142
      48:	b510      	push	{r4, lr}
      4a:	4604      	mov	r4, r0
/home/hsk/Desktop/devel/tee-tpm-hyp/optee_examples/acipher/ta/acipher_ta.c:145
      4c:	6800      	ldr	r0, [r0, #0]
      4e:	f001 f8b5 	bl	11bc <TEE_FreeTransientObject>
/home/hsk/Desktop/devel/tee-tpm-hyp/optee_examples/acipher/ta/acipher_ta.c:146
      52:	4620      	mov	r0, r4
/home/hsk/Desktop/devel/tee-tpm-hyp/optee_examples/acipher/ta/acipher_ta.c:147
      54:	e8bd 4010 	ldmia.w	sp!, {r4, lr}
/home/hsk/Desktop/devel/tee-tpm-hyp/optee_examples/acipher/ta/acipher_ta.c:146
      58:	f000 bfa0 	b.w	f9c <TEE_Free>

0000005c <TA_InvokeCommandEntryPoint>:
TA_InvokeCommandEntryPoint():
/home/hsk/Desktop/devel/tee-tpm-hyp/optee_examples/acipher/ta/acipher_ta.c:152
      5c:	e92d 4ff0 	stmdb	sp!, {r4, r5, r6, r7, r8, r9, sl, fp, lr}
      60:	4607      	mov	r7, r0
      62:	4690      	mov	r8, r2
      64:	b08f      	sub	sp, #60	; 0x3c
      66:	461e      	mov	r6, r3
/home/hsk/Desktop/devel/tee-tpm-hyp/optee_examples/acipher/ta/acipher_ta.c:153
      68:	460d      	mov	r5, r1
      6a:	b179      	cbz	r1, 8c <TA_InvokeCommandEntryPoint+0x30>
      6c:	2901      	cmp	r1, #1
      6e:	d048      	beq.n	102 <TA_InvokeCommandEntryPoint+0xa6>
/home/hsk/Desktop/devel/tee-tpm-hyp/optee_examples/acipher/ta/acipher_ta.c:159
      70:	4b60      	ldr	r3, [pc, #384]	; (1f4 <TA_InvokeCommandEntryPoint+0x198>)
      72:	4861      	ldr	r0, [pc, #388]	; (1f8 <TA_InvokeCommandEntryPoint+0x19c>)
      74:	447b      	add	r3, pc
      76:	9300      	str	r3, [sp, #0]
      78:	4478      	add	r0, pc
      7a:	2301      	movs	r3, #1
      7c:	9101      	str	r1, [sp, #4]
      7e:	461a      	mov	r2, r3
      80:	219f      	movs	r1, #159	; 0x9f
      82:	3014      	adds	r0, #20
      84:	f000 f914 	bl	2b0 <trace_printf>
/home/hsk/Desktop/devel/tee-tpm-hyp/optee_examples/acipher/ta/acipher_ta.c:160
      88:	4c56      	ldr	r4, [pc, #344]	; (1e4 <TA_InvokeCommandEntryPoint+0x188>)
      8a:	e030      	b.n	ee <TA_InvokeCommandEntryPoint+0x92>
cmd_gen_key():
/home/hsk/Desktop/devel/tee-tpm-hyp/optee_examples/acipher/ta/acipher_ta.c:28
      8c:	2a01      	cmp	r2, #1
      8e:	f040 80a5 	bne.w	1dc <TA_InvokeCommandEntryPoint+0x180>
/home/hsk/Desktop/devel/tee-tpm-hyp/optee_examples/acipher/ta/acipher_ta.c:31
      92:	681d      	ldr	r5, [r3, #0]
/home/hsk/Desktop/devel/tee-tpm-hyp/optee_examples/acipher/ta/acipher_ta.c:33
      94:	aa07      	add	r2, sp, #28
      96:	4e54      	ldr	r6, [pc, #336]	; (1e8 <TA_InvokeCommandEntryPoint+0x18c>)
      98:	4629      	mov	r1, r5
      9a:	4630      	mov	r0, r6
      9c:	f001 f876 	bl	118c <TEE_AllocateTransientObject>
/home/hsk/Desktop/devel/tee-tpm-hyp/optee_examples/acipher/ta/acipher_ta.c:34
      a0:	4604      	mov	r4, r0
      a2:	b168      	cbz	r0, c0 <TA_InvokeCommandEntryPoint+0x64>
/home/hsk/Desktop/devel/tee-tpm-hyp/optee_examples/acipher/ta/acipher_ta.c:35
      a4:	9003      	str	r0, [sp, #12]
      a6:	4642      	mov	r2, r8
      a8:	4b54      	ldr	r3, [pc, #336]	; (1fc <TA_InvokeCommandEntryPoint+0x1a0>)
      aa:	2123      	movs	r1, #35	; 0x23
      ac:	4854      	ldr	r0, [pc, #336]	; (200 <TA_InvokeCommandEntryPoint+0x1a4>)
      ae:	447b      	add	r3, pc
      b0:	9300      	str	r3, [sp, #0]
      b2:	4478      	add	r0, pc
      b4:	4643      	mov	r3, r8
      b6:	9502      	str	r5, [sp, #8]
      b8:	9601      	str	r6, [sp, #4]
cmd_enc():
/home/hsk/Desktop/devel/tee-tpm-hyp/optee_examples/acipher/ta/acipher_ta.c:87
      ba:	f000 f8f9 	bl	2b0 <trace_printf>
      be:	e016      	b.n	ee <TA_InvokeCommandEntryPoint+0x92>
cmd_gen_key():
/home/hsk/Desktop/devel/tee-tpm-hyp/optee_examples/acipher/ta/acipher_ta.c:39
      c0:	4603      	mov	r3, r0
      c2:	4602      	mov	r2, r0
      c4:	4629      	mov	r1, r5
      c6:	9807      	ldr	r0, [sp, #28]
      c8:	f001 f94e 	bl	1368 <TEE_GenerateKey>
/home/hsk/Desktop/devel/tee-tpm-hyp/optee_examples/acipher/ta/acipher_ta.c:40
      cc:	4604      	mov	r4, r0
      ce:	b190      	cbz	r0, f6 <TA_InvokeCommandEntryPoint+0x9a>
/home/hsk/Desktop/devel/tee-tpm-hyp/optee_examples/acipher/ta/acipher_ta.c:41
      d0:	9002      	str	r0, [sp, #8]
      d2:	4642      	mov	r2, r8
      d4:	4b4b      	ldr	r3, [pc, #300]	; (204 <TA_InvokeCommandEntryPoint+0x1a8>)
      d6:	212a      	movs	r1, #42	; 0x2a
      d8:	484b      	ldr	r0, [pc, #300]	; (208 <TA_InvokeCommandEntryPoint+0x1ac>)
      da:	447b      	add	r3, pc
      dc:	9501      	str	r5, [sp, #4]
      de:	9300      	str	r3, [sp, #0]
      e0:	4478      	add	r0, pc
      e2:	4643      	mov	r3, r8
      e4:	f000 f8e4 	bl	2b0 <trace_printf>
/home/hsk/Desktop/devel/tee-tpm-hyp/optee_examples/acipher/ta/acipher_ta.c:43
      e8:	9807      	ldr	r0, [sp, #28]
      ea:	f001 f867 	bl	11bc <TEE_FreeTransientObject>
TA_InvokeCommandEntryPoint():
/home/hsk/Desktop/devel/tee-tpm-hyp/optee_examples/acipher/ta/acipher_ta.c:162
      ee:	4620      	mov	r0, r4
      f0:	b00f      	add	sp, #60	; 0x3c
      f2:	e8bd 8ff0 	ldmia.w	sp!, {r4, r5, r6, r7, r8, r9, sl, fp, pc}
cmd_gen_key():
/home/hsk/Desktop/devel/tee-tpm-hyp/optee_examples/acipher/ta/acipher_ta.c:47
      f6:	6838      	ldr	r0, [r7, #0]
      f8:	f001 f860 	bl	11bc <TEE_FreeTransientObject>
/home/hsk/Desktop/devel/tee-tpm-hyp/optee_examples/acipher/ta/acipher_ta.c:48
      fc:	9b07      	ldr	r3, [sp, #28]
      fe:	603b      	str	r3, [r7, #0]
     100:	e7f5      	b.n	ee <TA_InvokeCommandEntryPoint+0x92>
cmd_enc():
/home/hsk/Desktop/devel/tee-tpm-hyp/optee_examples/acipher/ta/acipher_ta.c:68
     102:	2a65      	cmp	r2, #101	; 0x65
     104:	d16a      	bne.n	1dc <TA_InvokeCommandEntryPoint+0x180>
/home/hsk/Desktop/devel/tee-tpm-hyp/optee_examples/acipher/ta/acipher_ta.c:70
     106:	6800      	ldr	r0, [r0, #0]
     108:	2800      	cmp	r0, #0
     10a:	d069      	beq.n	1e0 <TA_InvokeCommandEntryPoint+0x184>
/home/hsk/Desktop/devel/tee-tpm-hyp/optee_examples/acipher/ta/acipher_ta.c:73
     10c:	a907      	add	r1, sp, #28
     10e:	f000 ff83 	bl	1018 <TEE_GetObjectInfo1>
/home/hsk/Desktop/devel/tee-tpm-hyp/optee_examples/acipher/ta/acipher_ta.c:74
     112:	4604      	mov	r4, r0
     114:	b160      	cbz	r0, 130 <TA_InvokeCommandEntryPoint+0xd4>
/home/hsk/Desktop/devel/tee-tpm-hyp/optee_examples/acipher/ta/acipher_ta.c:75
     116:	9001      	str	r0, [sp, #4]
     118:	462a      	mov	r2, r5
     11a:	483c      	ldr	r0, [pc, #240]	; (20c <TA_InvokeCommandEntryPoint+0x1b0>)
     11c:	214b      	movs	r1, #75	; 0x4b
     11e:	4b3c      	ldr	r3, [pc, #240]	; (210 <TA_InvokeCommandEntryPoint+0x1b4>)
     120:	4478      	add	r0, pc
     122:	447b      	add	r3, pc
     124:	300c      	adds	r0, #12
     126:	9300      	str	r3, [sp, #0]
     128:	462b      	mov	r3, r5
     12a:	f000 f8c1 	bl	2b0 <trace_printf>
     12e:	e7de      	b.n	ee <TA_InvokeCommandEntryPoint+0x92>
/home/hsk/Desktop/devel/tee-tpm-hyp/optee_examples/acipher/ta/acipher_ta.c:84
     130:	f8df 90e0 	ldr.w	r9, [pc, #224]	; 214 <TA_InvokeCommandEntryPoint+0x1b8>
     134:	4602      	mov	r2, r0
/home/hsk/Desktop/devel/tee-tpm-hyp/optee_examples/acipher/ta/acipher_ta.c:82
     136:	68f3      	ldr	r3, [r6, #12]
/home/hsk/Desktop/devel/tee-tpm-hyp/optee_examples/acipher/ta/acipher_ta.c:84
     138:	a806      	add	r0, sp, #24
/home/hsk/Desktop/devel/tee-tpm-hyp/optee_examples/acipher/ta/acipher_ta.c:82
     13a:	9305      	str	r3, [sp, #20]
/home/hsk/Desktop/devel/tee-tpm-hyp/optee_examples/acipher/ta/acipher_ta.c:84
     13c:	4649      	mov	r1, r9
     13e:	9b08      	ldr	r3, [sp, #32]
/home/hsk/Desktop/devel/tee-tpm-hyp/optee_examples/acipher/ta/acipher_ta.c:79
     140:	f8d6 a000 	ldr.w	sl, [r6]
/home/hsk/Desktop/devel/tee-tpm-hyp/optee_examples/acipher/ta/acipher_ta.c:80
     144:	f8d6 8004 	ldr.w	r8, [r6, #4]
/home/hsk/Desktop/devel/tee-tpm-hyp/optee_examples/acipher/ta/acipher_ta.c:81
     148:	f8d6 b008 	ldr.w	fp, [r6, #8]
/home/hsk/Desktop/devel/tee-tpm-hyp/optee_examples/acipher/ta/acipher_ta.c:84
     14c:	f001 fbc7 	bl	18de <TEE_AllocateOperation>
/home/hsk/Desktop/devel/tee-tpm-hyp/optee_examples/acipher/ta/acipher_ta.c:86
     150:	4604      	mov	r4, r0
     152:	b170      	cbz	r0, 172 <TA_InvokeCommandEntryPoint+0x116>
/home/hsk/Desktop/devel/tee-tpm-hyp/optee_examples/acipher/ta/acipher_ta.c:87
     154:	9b08      	ldr	r3, [sp, #32]
     156:	462a      	mov	r2, r5
     158:	9003      	str	r0, [sp, #12]
     15a:	2157      	movs	r1, #87	; 0x57
     15c:	482e      	ldr	r0, [pc, #184]	; (218 <TA_InvokeCommandEntryPoint+0x1bc>)
     15e:	9302      	str	r3, [sp, #8]
     160:	4b2e      	ldr	r3, [pc, #184]	; (21c <TA_InvokeCommandEntryPoint+0x1c0>)
     162:	4478      	add	r0, pc
     164:	f8cd 9004 	str.w	r9, [sp, #4]
     168:	300c      	adds	r0, #12
     16a:	447b      	add	r3, pc
     16c:	9300      	str	r3, [sp, #0]
     16e:	462b      	mov	r3, r5
     170:	e7a3      	b.n	ba <TA_InvokeCommandEntryPoint+0x5e>
/home/hsk/Desktop/devel/tee-tpm-hyp/optee_examples/acipher/ta/acipher_ta.c:91
     172:	6839      	ldr	r1, [r7, #0]
     174:	9806      	ldr	r0, [sp, #24]
     176:	f001 fed9 	bl	1f2c <TEE_SetOperationKey>
/home/hsk/Desktop/devel/tee-tpm-hyp/optee_examples/acipher/ta/acipher_ta.c:92
     17a:	4604      	mov	r4, r0
     17c:	b178      	cbz	r0, 19e <TA_InvokeCommandEntryPoint+0x142>
/home/hsk/Desktop/devel/tee-tpm-hyp/optee_examples/acipher/ta/acipher_ta.c:93
     17e:	9001      	str	r0, [sp, #4]
     180:	462a      	mov	r2, r5
     182:	4827      	ldr	r0, [pc, #156]	; (220 <TA_InvokeCommandEntryPoint+0x1c4>)
     184:	215d      	movs	r1, #93	; 0x5d
     186:	4b27      	ldr	r3, [pc, #156]	; (224 <TA_InvokeCommandEntryPoint+0x1c8>)
     188:	4478      	add	r0, pc
     18a:	447b      	add	r3, pc
     18c:	300c      	adds	r0, #12
     18e:	9300      	str	r3, [sp, #0]
     190:	462b      	mov	r3, r5
     192:	f000 f88d 	bl	2b0 <trace_printf>
/home/hsk/Desktop/devel/tee-tpm-hyp/optee_examples/acipher/ta/acipher_ta.c:105
     196:	9806      	ldr	r0, [sp, #24]
     198:	f001 fb8e 	bl	18b8 <TEE_FreeOperation>
     19c:	e7a7      	b.n	ee <TA_InvokeCommandEntryPoint+0x92>
/home/hsk/Desktop/devel/tee-tpm-hyp/optee_examples/acipher/ta/acipher_ta.c:97
     19e:	ab05      	add	r3, sp, #20
     1a0:	4602      	mov	r2, r0
     1a2:	9302      	str	r3, [sp, #8]
     1a4:	4601      	mov	r1, r0
     1a6:	e9cd 8b00 	strd	r8, fp, [sp]
     1aa:	4653      	mov	r3, sl
     1ac:	9806      	ldr	r0, [sp, #24]
     1ae:	f002 fbd1 	bl	2954 <TEE_AsymmetricEncrypt>
/home/hsk/Desktop/devel/tee-tpm-hyp/optee_examples/acipher/ta/acipher_ta.c:99
     1b2:	4604      	mov	r4, r0
     1b4:	b178      	cbz	r0, 1d6 <TA_InvokeCommandEntryPoint+0x17a>
/home/hsk/Desktop/devel/tee-tpm-hyp/optee_examples/acipher/ta/acipher_ta.c:100
     1b6:	9003      	str	r0, [sp, #12]
     1b8:	462a      	mov	r2, r5
     1ba:	481b      	ldr	r0, [pc, #108]	; (228 <TA_InvokeCommandEntryPoint+0x1cc>)
     1bc:	2164      	movs	r1, #100	; 0x64
     1be:	68f3      	ldr	r3, [r6, #12]
     1c0:	9302      	str	r3, [sp, #8]
     1c2:	4478      	add	r0, pc
     1c4:	4b19      	ldr	r3, [pc, #100]	; (22c <TA_InvokeCommandEntryPoint+0x1d0>)
     1c6:	300c      	adds	r0, #12
     1c8:	f8cd 8004 	str.w	r8, [sp, #4]
     1cc:	447b      	add	r3, pc
     1ce:	9300      	str	r3, [sp, #0]
     1d0:	462b      	mov	r3, r5
     1d2:	f000 f86d 	bl	2b0 <trace_printf>
/home/hsk/Desktop/devel/tee-tpm-hyp/optee_examples/acipher/ta/acipher_ta.c:102
     1d6:	9b05      	ldr	r3, [sp, #20]
     1d8:	60f3      	str	r3, [r6, #12]
     1da:	e7dc      	b.n	196 <TA_InvokeCommandEntryPoint+0x13a>
/home/hsk/Desktop/devel/tee-tpm-hyp/optee_examples/acipher/ta/acipher_ta.c:69
     1dc:	4c03      	ldr	r4, [pc, #12]	; (1ec <TA_InvokeCommandEntryPoint+0x190>)
     1de:	e786      	b.n	ee <TA_InvokeCommandEntryPoint+0x92>
/home/hsk/Desktop/devel/tee-tpm-hyp/optee_examples/acipher/ta/acipher_ta.c:71
     1e0:	4c03      	ldr	r4, [pc, #12]	; (1f0 <TA_InvokeCommandEntryPoint+0x194>)
TA_InvokeCommandEntryPoint():
/home/hsk/Desktop/devel/tee-tpm-hyp/optee_examples/acipher/ta/acipher_ta.c:157
     1e2:	e784      	b.n	ee <TA_InvokeCommandEntryPoint+0x92>
     1e4:	ffff000a 	.word	0xffff000a
     1e8:	a1000030 	.word	0xa1000030
     1ec:	ffff0006 	.word	0xffff0006
     1f0:	ffff0007 	.word	0xffff0007
     1f4:	00007f2c 	.word	0x00007f2c
     1f8:	00007e2c 	.word	0x00007e2c
     1fc:	00007e25 	.word	0x00007e25
     200:	00007df2 	.word	0x00007df2
     204:	00007e23 	.word	0x00007e23
     208:	00007dc4 	.word	0x00007dc4
     20c:	00007d84 	.word	0x00007d84
     210:	00007df4 	.word	0x00007df4
     214:	60000130 	.word	0x60000130
     218:	00007d42 	.word	0x00007d42
     21c:	00007dc4 	.word	0x00007dc4
     220:	00007d1c 	.word	0x00007d1c
     224:	00007dda 	.word	0x00007dda
     228:	00007ce2 	.word	0x00007ce2
     22c:	00007db1 	.word	0x00007db1

00000230 <append>:
append():
/home/hsk/Desktop/devel/tee-tpm-hyp/optee_os/lib/libutils/ext/trace.c:198
     230:	b40e      	push	{r1, r2, r3}
/home/hsk/Desktop/devel/tee-tpm-hyp/optee_os/lib/libutils/ext/trace.c:203
     232:	f8d0 3100 	ldr.w	r3, [r0, #256]	; 0x100
/home/hsk/Desktop/devel/tee-tpm-hyp/optee_os/lib/libutils/ext/trace.c:198
     236:	b533      	push	{r0, r1, r4, r5, lr}
     238:	4604      	mov	r4, r0
/home/hsk/Desktop/devel/tee-tpm-hyp/optee_os/lib/libutils/ext/trace.c:203
     23a:	b90b      	cbnz	r3, 240 <append+0x10>
/home/hsk/Desktop/devel/tee-tpm-hyp/optee_os/lib/libutils/ext/trace.c:204
     23c:	f8c4 0100 	str.w	r0, [r4, #256]	; 0x100
/home/hsk/Desktop/devel/tee-tpm-hyp/optee_os/lib/libutils/ext/trace.c:205
     240:	f8d4 0100 	ldr.w	r0, [r4, #256]	; 0x100
/home/hsk/Desktop/devel/tee-tpm-hyp/optee_os/lib/libutils/ext/trace.c:206
     244:	ab06      	add	r3, sp, #24
/home/hsk/Desktop/devel/tee-tpm-hyp/optee_os/lib/libutils/ext/trace.c:207
     246:	9a05      	ldr	r2, [sp, #20]
/home/hsk/Desktop/devel/tee-tpm-hyp/optee_os/lib/libutils/ext/trace.c:205
     248:	1b05      	subs	r5, r0, r4
/home/hsk/Desktop/devel/tee-tpm-hyp/optee_os/lib/libutils/ext/trace.c:206
     24a:	9301      	str	r3, [sp, #4]
/home/hsk/Desktop/devel/tee-tpm-hyp/optee_os/lib/libutils/ext/trace.c:205
     24c:	f5c5 7580 	rsb	r5, r5, #256	; 0x100
/home/hsk/Desktop/devel/tee-tpm-hyp/optee_os/lib/libutils/ext/trace.c:207
     250:	4629      	mov	r1, r5
     252:	f000 fcc5 	bl	be0 <vsnprintk>
/home/hsk/Desktop/devel/tee-tpm-hyp/optee_os/lib/libutils/ext/trace.c:209
     256:	2800      	cmp	r0, #0
     258:	db0f      	blt.n	27a <append+0x4a>
/home/hsk/Desktop/devel/tee-tpm-hyp/optee_os/lib/libutils/ext/trace.c:213
     25a:	4285      	cmp	r5, r0
     25c:	dd0d      	ble.n	27a <append+0x4a>
/home/hsk/Desktop/devel/tee-tpm-hyp/optee_os/lib/libutils/ext/trace.c:217
     25e:	4285      	cmp	r5, r0
     260:	bfa8      	it	ge
     262:	4605      	movge	r5, r0
     264:	f8d4 0100 	ldr.w	r0, [r4, #256]	; 0x100
     268:	4405      	add	r5, r0
/home/hsk/Desktop/devel/tee-tpm-hyp/optee_os/lib/libutils/ext/trace.c:218
     26a:	2001      	movs	r0, #1
/home/hsk/Desktop/devel/tee-tpm-hyp/optee_os/lib/libutils/ext/trace.c:217
     26c:	f8c4 5100 	str.w	r5, [r4, #256]	; 0x100
/home/hsk/Desktop/devel/tee-tpm-hyp/optee_os/lib/libutils/ext/trace.c:219
     270:	b002      	add	sp, #8
     272:	e8bd 4030 	ldmia.w	sp!, {r4, r5, lr}
     276:	b003      	add	sp, #12
     278:	4770      	bx	lr
/home/hsk/Desktop/devel/tee-tpm-hyp/optee_os/lib/libutils/ext/trace.c:211
     27a:	2000      	movs	r0, #0
     27c:	e7f8      	b.n	270 <append+0x40>

0000027e <trace_set_level>:
trace_set_level():
/home/hsk/Desktop/devel/tee-tpm-hyp/optee_os/lib/libutils/ext/trace.c:25
     27e:	4b05      	ldr	r3, [pc, #20]	; (294 <trace_set_level+0x16>)
/home/hsk/Desktop/devel/tee-tpm-hyp/optee_os/lib/libutils/ext/trace.c:26
     280:	2804      	cmp	r0, #4
     282:	4a05      	ldr	r2, [pc, #20]	; (298 <trace_set_level+0x1a>)
/home/hsk/Desktop/devel/tee-tpm-hyp/optee_os/lib/libutils/ext/trace.c:25
     284:	447b      	add	r3, pc
     286:	589b      	ldr	r3, [r3, r2]
/home/hsk/Desktop/devel/tee-tpm-hyp/optee_os/lib/libutils/ext/trace.c:26
     288:	d801      	bhi.n	28e <trace_set_level+0x10>
/home/hsk/Desktop/devel/tee-tpm-hyp/optee_os/lib/libutils/ext/trace.c:27
     28a:	6018      	str	r0, [r3, #0]
     28c:	4770      	bx	lr
/home/hsk/Desktop/devel/tee-tpm-hyp/optee_os/lib/libutils/ext/trace.c:29
     28e:	2204      	movs	r2, #4
     290:	601a      	str	r2, [r3, #0]
/home/hsk/Desktop/devel/tee-tpm-hyp/optee_os/lib/libutils/ext/trace.c:30
     292:	4770      	bx	lr
     294:	0000922c 	.word	0x0000922c
     298:	00000010 	.word	0x00000010

0000029c <trace_get_level>:
trace_get_level():
/home/hsk/Desktop/devel/tee-tpm-hyp/optee_os/lib/libutils/ext/trace.c:33
     29c:	4b02      	ldr	r3, [pc, #8]	; (2a8 <trace_get_level+0xc>)
/home/hsk/Desktop/devel/tee-tpm-hyp/optee_os/lib/libutils/ext/trace.c:34
     29e:	4a03      	ldr	r2, [pc, #12]	; (2ac <trace_get_level+0x10>)
/home/hsk/Desktop/devel/tee-tpm-hyp/optee_os/lib/libutils/ext/trace.c:33
     2a0:	447b      	add	r3, pc
/home/hsk/Desktop/devel/tee-tpm-hyp/optee_os/lib/libutils/ext/trace.c:34
     2a2:	589b      	ldr	r3, [r3, r2]
/home/hsk/Desktop/devel/tee-tpm-hyp/optee_os/lib/libutils/ext/trace.c:35
     2a4:	6818      	ldr	r0, [r3, #0]
     2a6:	4770      	bx	lr
     2a8:	00009210 	.word	0x00009210
     2ac:	00000010 	.word	0x00000010

000002b0 <trace_printf>:
trace_printf():
/home/hsk/Desktop/devel/tee-tpm-hyp/optee_os/lib/libutils/ext/trace.c:97
     2b0:	e92d 47f0 	stmdb	sp!, {r4, r5, r6, r7, r8, r9, sl, lr}
     2b4:	4607      	mov	r7, r0
     2b6:	f8df 910c 	ldr.w	r9, [pc, #268]	; 3c4 <trace_printf+0x114>
     2ba:	b0c6      	sub	sp, #280	; 0x118
     2bc:	4688      	mov	r8, r1
     2be:	44f9      	add	r9, pc
     2c0:	4614      	mov	r4, r2
/home/hsk/Desktop/devel/tee-tpm-hyp/optee_os/lib/libutils/ext/trace.c:103
     2c2:	469a      	mov	sl, r3
     2c4:	2b00      	cmp	r3, #0
     2c6:	d06a      	beq.n	39e <trace_printf+0xee>
/home/hsk/Desktop/devel/tee-tpm-hyp/optee_os/lib/libutils/ext/trace.c:103 (discriminator 1)
     2c8:	4b3f      	ldr	r3, [pc, #252]	; (3c8 <trace_printf+0x118>)
     2ca:	f859 3003 	ldr.w	r3, [r9, r3]
     2ce:	681b      	ldr	r3, [r3, #0]
     2d0:	4293      	cmp	r3, r2
     2d2:	db61      	blt.n	398 <trace_printf+0xe8>
trace_level_to_string():
/home/hsk/Desktop/devel/tee-tpm-hyp/optee_os/lib/libutils/ext/trace.c:47
     2d4:	4613      	mov	r3, r2
     2d6:	2a05      	cmp	r2, #5
/home/hsk/Desktop/devel/tee-tpm-hyp/optee_os/lib/libutils/ext/trace.c:55
     2d8:	4a3c      	ldr	r2, [pc, #240]	; (3cc <trace_printf+0x11c>)
/home/hsk/Desktop/devel/tee-tpm-hyp/optee_os/lib/libutils/ext/trace.c:47
     2da:	bf28      	it	cs
     2dc:	2300      	movcs	r3, #0
/home/hsk/Desktop/devel/tee-tpm-hyp/optee_os/lib/libutils/ext/trace.c:55
     2de:	447a      	add	r2, pc
     2e0:	5cd3      	ldrb	r3, [r2, r3]
trace_printf():
/home/hsk/Desktop/devel/tee-tpm-hyp/optee_os/lib/libutils/ext/trace.c:107
     2e2:	4a3b      	ldr	r2, [pc, #236]	; (3d0 <trace_printf+0x120>)
     2e4:	ad06      	add	r5, sp, #24
     2e6:	f44f 7180 	mov.w	r1, #256	; 0x100
     2ea:	4628      	mov	r0, r5
     2ec:	447a      	add	r2, pc
     2ee:	f000 fc7e 	bl	bee <snprintk>
/home/hsk/Desktop/devel/tee-tpm-hyp/optee_os/lib/libutils/ext/trace.c:109
     2f2:	1e06      	subs	r6, r0, #0
     2f4:	db50      	blt.n	398 <trace_printf+0xe8>
/home/hsk/Desktop/devel/tee-tpm-hyp/optee_os/lib/libutils/ext/trace.c:114
     2f6:	4b37      	ldr	r3, [pc, #220]	; (3d4 <trace_printf+0x124>)
     2f8:	f5c6 7180 	rsb	r1, r6, #256	; 0x100
     2fc:	4a36      	ldr	r2, [pc, #216]	; (3d8 <trace_printf+0x128>)
     2fe:	19a8      	adds	r0, r5, r6
     300:	447a      	add	r2, pc
     302:	f859 3003 	ldr.w	r3, [r9, r3]
     306:	9303      	str	r3, [sp, #12]
     308:	f000 fc71 	bl	bee <snprintk>
/home/hsk/Desktop/devel/tee-tpm-hyp/optee_os/lib/libutils/ext/trace.c:116
     30c:	2800      	cmp	r0, #0
     30e:	db43      	blt.n	398 <trace_printf+0xe8>
/home/hsk/Desktop/devel/tee-tpm-hyp/optee_os/lib/libutils/ext/trace.c:118
     310:	4406      	add	r6, r0
/home/hsk/Desktop/devel/tee-tpm-hyp/optee_os/lib/libutils/ext/trace.c:120
     312:	f1ba 0f00 	cmp.w	sl, #0
     316:	d04b      	beq.n	3b0 <trace_printf+0x100>
/home/hsk/Desktop/devel/tee-tpm-hyp/optee_os/lib/libutils/ext/trace.c:120 (discriminator 1)
     318:	231a      	movs	r3, #26
     31a:	fa23 f404 	lsr.w	r4, r3, r4
     31e:	07e3      	lsls	r3, r4, #31
     320:	d546      	bpl.n	3b0 <trace_printf+0x100>
print_thread_id():
/home/hsk/Desktop/devel/tee-tpm-hyp/optee_os/lib/libutils/ext/trace.c:65
     322:	f000 fc93 	bl	c4c <trace_ext_get_thread_id>
trace_printf():
/home/hsk/Desktop/devel/tee-tpm-hyp/optee_os/lib/libutils/ext/trace.c:122
     326:	19ac      	adds	r4, r5, r6
     328:	f5c6 7980 	rsb	r9, r6, #256	; 0x100
print_thread_id():
/home/hsk/Desktop/devel/tee-tpm-hyp/optee_os/lib/libutils/ext/trace.c:67
     32c:	2800      	cmp	r0, #0
     32e:	db38      	blt.n	3a2 <trace_printf+0xf2>
/home/hsk/Desktop/devel/tee-tpm-hyp/optee_os/lib/libutils/ext/trace.c:68
     330:	4a2a      	ldr	r2, [pc, #168]	; (3dc <trace_printf+0x12c>)
     332:	2301      	movs	r3, #1
     334:	9000      	str	r0, [sp, #0]
     336:	447a      	add	r2, pc
/home/hsk/Desktop/devel/tee-tpm-hyp/optee_os/lib/libutils/ext/trace.c:70
     338:	4649      	mov	r1, r9
     33a:	4620      	mov	r0, r4
     33c:	f000 fc57 	bl	bee <snprintk>
trace_printf():
/home/hsk/Desktop/devel/tee-tpm-hyp/optee_os/lib/libutils/ext/trace.c:129
     340:	2800      	cmp	r0, #0
     342:	db29      	blt.n	398 <trace_printf+0xe8>
/home/hsk/Desktop/devel/tee-tpm-hyp/optee_os/lib/libutils/ext/trace.c:131
     344:	1984      	adds	r4, r0, r6
/home/hsk/Desktop/devel/tee-tpm-hyp/optee_os/lib/libutils/ext/trace.c:133
     346:	b167      	cbz	r7, 362 <trace_printf+0xb2>
/home/hsk/Desktop/devel/tee-tpm-hyp/optee_os/lib/libutils/ext/trace.c:134
     348:	4a25      	ldr	r2, [pc, #148]	; (3e0 <trace_printf+0x130>)
     34a:	463b      	mov	r3, r7
     34c:	f8cd 8000 	str.w	r8, [sp]
     350:	f5c4 7180 	rsb	r1, r4, #256	; 0x100
     354:	447a      	add	r2, pc
     356:	1928      	adds	r0, r5, r4
     358:	f000 fc49 	bl	bee <snprintk>
/home/hsk/Desktop/devel/tee-tpm-hyp/optee_os/lib/libutils/ext/trace.c:136
     35c:	2800      	cmp	r0, #0
     35e:	db1b      	blt.n	398 <trace_printf+0xe8>
/home/hsk/Desktop/devel/tee-tpm-hyp/optee_os/lib/libutils/ext/trace.c:138
     360:	4404      	add	r4, r0
/home/hsk/Desktop/devel/tee-tpm-hyp/optee_os/lib/libutils/ext/trace.c:148
     362:	ab4f      	add	r3, sp, #316	; 0x13c
/home/hsk/Desktop/devel/tee-tpm-hyp/optee_os/lib/libutils/ext/trace.c:149
     364:	f5c4 7180 	rsb	r1, r4, #256	; 0x100
     368:	1928      	adds	r0, r5, r4
     36a:	9a4e      	ldr	r2, [sp, #312]	; 0x138
/home/hsk/Desktop/devel/tee-tpm-hyp/optee_os/lib/libutils/ext/trace.c:148
     36c:	9305      	str	r3, [sp, #20]
/home/hsk/Desktop/devel/tee-tpm-hyp/optee_os/lib/libutils/ext/trace.c:149
     36e:	f000 fc37 	bl	be0 <vsnprintk>
/home/hsk/Desktop/devel/tee-tpm-hyp/optee_os/lib/libutils/ext/trace.c:151
     372:	2800      	cmp	r0, #0
/home/hsk/Desktop/devel/tee-tpm-hyp/optee_os/lib/libutils/ext/trace.c:157
     374:	f04f 030a 	mov.w	r3, #10
/home/hsk/Desktop/devel/tee-tpm-hyp/optee_os/lib/libutils/ext/trace.c:152
     378:	bfc8      	it	gt
     37a:	1824      	addgt	r4, r4, r0
     37c:	2cfe      	cmp	r4, #254	; 0xfe
     37e:	bf28      	it	cs
     380:	24fe      	movcs	r4, #254	; 0xfe
/home/hsk/Desktop/devel/tee-tpm-hyp/optee_os/lib/libutils/ext/trace.c:157
     382:	552b      	strb	r3, [r5, r4]
/home/hsk/Desktop/devel/tee-tpm-hyp/optee_os/lib/libutils/ext/trace.c:158
     384:	b114      	cbz	r4, 38c <trace_printf+0xdc>
/home/hsk/Desktop/devel/tee-tpm-hyp/optee_os/lib/libutils/ext/trace.c:158 (discriminator 1)
     386:	5d2b      	ldrb	r3, [r5, r4]
     388:	2b0a      	cmp	r3, #10
     38a:	d019      	beq.n	3c0 <trace_printf+0x110>
/home/hsk/Desktop/devel/tee-tpm-hyp/optee_os/lib/libutils/ext/trace.c:161
     38c:	442c      	add	r4, r5
/home/hsk/Desktop/devel/tee-tpm-hyp/optee_os/lib/libutils/ext/trace.c:163
     38e:	4628      	mov	r0, r5
/home/hsk/Desktop/devel/tee-tpm-hyp/optee_os/lib/libutils/ext/trace.c:161
     390:	2300      	movs	r3, #0
     392:	70a3      	strb	r3, [r4, #2]
/home/hsk/Desktop/devel/tee-tpm-hyp/optee_os/lib/libutils/ext/trace.c:163
     394:	f000 fc50 	bl	c38 <trace_ext_puts>
/home/hsk/Desktop/devel/tee-tpm-hyp/optee_os/lib/libutils/ext/trace.c:164
     398:	b046      	add	sp, #280	; 0x118
     39a:	e8bd 87f0 	ldmia.w	sp!, {r4, r5, r6, r7, r8, r9, sl, pc}
trace_level_to_string():
/home/hsk/Desktop/devel/tee-tpm-hyp/optee_os/lib/libutils/ext/trace.c:50
     39e:	234d      	movs	r3, #77	; 0x4d
     3a0:	e79f      	b.n	2e2 <trace_printf+0x32>
print_thread_id():
/home/hsk/Desktop/devel/tee-tpm-hyp/optee_os/lib/libutils/ext/trace.c:70
     3a2:	4b10      	ldr	r3, [pc, #64]	; (3e4 <trace_printf+0x134>)
     3a4:	4a10      	ldr	r2, [pc, #64]	; (3e8 <trace_printf+0x138>)
     3a6:	447b      	add	r3, pc
     3a8:	9300      	str	r3, [sp, #0]
     3aa:	447a      	add	r2, pc
     3ac:	2301      	movs	r3, #1
     3ae:	e7c3      	b.n	338 <trace_printf+0x88>
trace_printf():
/home/hsk/Desktop/devel/tee-tpm-hyp/optee_os/lib/libutils/ext/trace.c:142
     3b0:	2efe      	cmp	r6, #254	; 0xfe
     3b2:	d8f1      	bhi.n	398 <trace_printf+0xe8>
/home/hsk/Desktop/devel/tee-tpm-hyp/optee_os/lib/libutils/ext/trace.c:144
     3b4:	1c74      	adds	r4, r6, #1
     3b6:	2320      	movs	r3, #32
     3b8:	55ab      	strb	r3, [r5, r6]
/home/hsk/Desktop/devel/tee-tpm-hyp/optee_os/lib/libutils/ext/trace.c:145
     3ba:	2300      	movs	r3, #0
     3bc:	552b      	strb	r3, [r5, r4]
     3be:	e7d0      	b.n	362 <trace_printf+0xb2>
/home/hsk/Desktop/devel/tee-tpm-hyp/optee_os/lib/libutils/ext/trace.c:159
     3c0:	3c01      	subs	r4, #1
     3c2:	e7df      	b.n	384 <trace_printf+0xd4>
     3c4:	000091f2 	.word	0x000091f2
     3c8:	00000010 	.word	0x00000010
     3cc:	00007dd6 	.word	0x00007dd6
     3d0:	00007dd7 	.word	0x00007dd7
     3d4:	00000018 	.word	0x00000018
     3d8:	00007dc7 	.word	0x00007dc7
     3dc:	00007d95 	.word	0x00007d95
     3e0:	00007d82 	.word	0x00007d82
     3e4:	00008443 	.word	0x00008443
     3e8:	00007d27 	.word	0x00007d27

000003ec <dhex_dump>:
dhex_dump():
/home/hsk/Desktop/devel/tee-tpm-hyp/optee_os/lib/libutils/ext/trace.c:225
     3ec:	e92d 4ff0 	stmdb	sp!, {r4, r5, r6, r7, r8, r9, sl, fp, lr}
     3f0:	4617      	mov	r7, r2
     3f2:	4a33      	ldr	r2, [pc, #204]	; (4c0 <dhex_dump+0xd4>)
     3f4:	4689      	mov	r9, r1
/home/hsk/Desktop/devel/tee-tpm-hyp/optee_os/lib/libutils/ext/trace.c:231
     3f6:	4933      	ldr	r1, [pc, #204]	; (4c4 <dhex_dump+0xd8>)
/home/hsk/Desktop/devel/tee-tpm-hyp/optee_os/lib/libutils/ext/trace.c:225
     3f8:	447a      	add	r2, pc
     3fa:	b0c7      	sub	sp, #284	; 0x11c
     3fc:	4680      	mov	r8, r0
/home/hsk/Desktop/devel/tee-tpm-hyp/optee_os/lib/libutils/ext/trace.c:231
     3fe:	5852      	ldr	r2, [r2, r1]
     400:	6812      	ldr	r2, [r2, #0]
     402:	42ba      	cmp	r2, r7
     404:	db1d      	blt.n	442 <dhex_dump+0x56>
     406:	461e      	mov	r6, r3
/home/hsk/Desktop/devel/tee-tpm-hyp/optee_os/lib/libutils/ext/trace.c:240
     408:	4b2f      	ldr	r3, [pc, #188]	; (4c8 <dhex_dump+0xdc>)
/home/hsk/Desktop/devel/tee-tpm-hyp/optee_os/lib/libutils/ext/trace.c:232
     40a:	ac05      	add	r4, sp, #20
/home/hsk/Desktop/devel/tee-tpm-hyp/optee_os/lib/libutils/ext/trace.c:235
     40c:	f8df b0bc 	ldr.w	fp, [pc, #188]	; 4cc <dhex_dump+0xe0>
/home/hsk/Desktop/devel/tee-tpm-hyp/optee_os/lib/libutils/ext/trace.c:240
     410:	447b      	add	r3, pc
     412:	9302      	str	r3, [sp, #8]
/home/hsk/Desktop/devel/tee-tpm-hyp/optee_os/lib/libutils/ext/trace.c:248
     414:	4b2e      	ldr	r3, [pc, #184]	; (4d0 <dhex_dump+0xe4>)
/home/hsk/Desktop/devel/tee-tpm-hyp/optee_os/lib/libutils/ext/trace.c:235
     416:	44fb      	add	fp, pc
/home/hsk/Desktop/devel/tee-tpm-hyp/optee_os/lib/libutils/ext/trace.c:232
     418:	2500      	movs	r5, #0
     41a:	f8c4 5100 	str.w	r5, [r4, #256]	; 0x100
/home/hsk/Desktop/devel/tee-tpm-hyp/optee_os/lib/libutils/ext/trace.c:248
     41e:	447b      	add	r3, pc
     420:	9303      	str	r3, [sp, #12]
/home/hsk/Desktop/devel/tee-tpm-hyp/optee_os/lib/libutils/ext/trace.c:233 (discriminator 1)
     422:	9b50      	ldr	r3, [sp, #320]	; 0x140
     424:	429d      	cmp	r5, r3
     426:	db0f      	blt.n	448 <dhex_dump+0x5c>
/home/hsk/Desktop/devel/tee-tpm-hyp/optee_os/lib/libutils/ext/trace.c:253
     428:	f8d4 3100 	ldr.w	r3, [r4, #256]	; 0x100
     42c:	b14b      	cbz	r3, 442 <dhex_dump+0x56>
/home/hsk/Desktop/devel/tee-tpm-hyp/optee_os/lib/libutils/ext/trace.c:255
     42e:	4b29      	ldr	r3, [pc, #164]	; (4d4 <dhex_dump+0xe8>)
     430:	463a      	mov	r2, r7
     432:	9401      	str	r4, [sp, #4]
     434:	4649      	mov	r1, r9
     436:	447b      	add	r3, pc
     438:	4640      	mov	r0, r8
     43a:	9300      	str	r3, [sp, #0]
     43c:	2301      	movs	r3, #1
     43e:	f7ff ff37 	bl	2b0 <trace_printf>
/home/hsk/Desktop/devel/tee-tpm-hyp/optee_os/lib/libutils/ext/trace.c:263
     442:	b047      	add	sp, #284	; 0x11c
     444:	e8bd 8ff0 	ldmia.w	sp!, {r4, r5, r6, r7, r8, r9, sl, fp, pc}
/home/hsk/Desktop/devel/tee-tpm-hyp/optee_os/lib/libutils/ext/trace.c:234
     448:	f015 0a0f 	ands.w	sl, r5, #15
     44c:	d013      	beq.n	476 <dhex_dump+0x8a>
/home/hsk/Desktop/devel/tee-tpm-hyp/optee_os/lib/libutils/ext/trace.c:240
     44e:	f816 2b01 	ldrb.w	r2, [r6], #1
     452:	4620      	mov	r0, r4
     454:	9902      	ldr	r1, [sp, #8]
     456:	f7ff feeb 	bl	230 <append>
/home/hsk/Desktop/devel/tee-tpm-hyp/optee_os/lib/libutils/ext/trace.c:241
     45a:	b9a8      	cbnz	r0, 488 <dhex_dump+0x9c>
/home/hsk/Desktop/devel/tee-tpm-hyp/optee_os/lib/libutils/ext/trace.c:262
     45c:	481e      	ldr	r0, [pc, #120]	; (4d8 <dhex_dump+0xec>)
     45e:	2203      	movs	r2, #3
     460:	4b1e      	ldr	r3, [pc, #120]	; (4dc <dhex_dump+0xf0>)
     462:	f44f 7183 	mov.w	r1, #262	; 0x106
     466:	4478      	add	r0, pc
     468:	447b      	add	r3, pc
     46a:	3005      	adds	r0, #5
     46c:	9300      	str	r3, [sp, #0]
     46e:	2301      	movs	r3, #1
     470:	f7ff ff1e 	bl	2b0 <trace_printf>
     474:	e7e5      	b.n	442 <dhex_dump+0x56>
/home/hsk/Desktop/devel/tee-tpm-hyp/optee_os/lib/libutils/ext/trace.c:235
     476:	4633      	mov	r3, r6
     478:	2208      	movs	r2, #8
     47a:	4659      	mov	r1, fp
     47c:	4620      	mov	r0, r4
     47e:	f7ff fed7 	bl	230 <append>
/home/hsk/Desktop/devel/tee-tpm-hyp/optee_os/lib/libutils/ext/trace.c:237
     482:	2800      	cmp	r0, #0
     484:	d1e3      	bne.n	44e <dhex_dump+0x62>
     486:	e7e9      	b.n	45c <dhex_dump+0x70>
/home/hsk/Desktop/devel/tee-tpm-hyp/optee_os/lib/libutils/ext/trace.c:243
     488:	f1ba 0f07 	cmp.w	sl, #7
     48c:	d108      	bne.n	4a0 <dhex_dump+0xb4>
/home/hsk/Desktop/devel/tee-tpm-hyp/optee_os/lib/libutils/ext/trace.c:244
     48e:	4914      	ldr	r1, [pc, #80]	; (4e0 <dhex_dump+0xf4>)
     490:	4620      	mov	r0, r4
     492:	4479      	add	r1, pc
     494:	f7ff fecc 	bl	230 <append>
/home/hsk/Desktop/devel/tee-tpm-hyp/optee_os/lib/libutils/ext/trace.c:245
     498:	2800      	cmp	r0, #0
     49a:	d0df      	beq.n	45c <dhex_dump+0x70>
/home/hsk/Desktop/devel/tee-tpm-hyp/optee_os/lib/libutils/ext/trace.c:233 (discriminator 2)
     49c:	3501      	adds	r5, #1
     49e:	e7c0      	b.n	422 <dhex_dump+0x36>
/home/hsk/Desktop/devel/tee-tpm-hyp/optee_os/lib/libutils/ext/trace.c:247
     4a0:	f1ba 0f0f 	cmp.w	sl, #15
     4a4:	d1fa      	bne.n	49c <dhex_dump+0xb0>
/home/hsk/Desktop/devel/tee-tpm-hyp/optee_os/lib/libutils/ext/trace.c:248
     4a6:	9b03      	ldr	r3, [sp, #12]
     4a8:	463a      	mov	r2, r7
     4aa:	9300      	str	r3, [sp, #0]
     4ac:	4649      	mov	r1, r9
     4ae:	2301      	movs	r3, #1
     4b0:	9401      	str	r4, [sp, #4]
     4b2:	4640      	mov	r0, r8
     4b4:	f7ff fefc 	bl	2b0 <trace_printf>
/home/hsk/Desktop/devel/tee-tpm-hyp/optee_os/lib/libutils/ext/trace.c:250
     4b8:	2300      	movs	r3, #0
     4ba:	f8c4 3100 	str.w	r3, [r4, #256]	; 0x100
     4be:	e7ed      	b.n	49c <dhex_dump+0xb0>
     4c0:	000090b8 	.word	0x000090b8
     4c4:	00000010 	.word	0x00000010
     4c8:	00007ccd 	.word	0x00007ccd
     4cc:	00007ccd 	.word	0x00007ccd
     4d0:	00007ccd 	.word	0x00007ccd
     4d4:	00007cb5 	.word	0x00007cb5
     4d8:	00007c4e 	.word	0x00007c4e
     4dc:	00007c86 	.word	0x00007c86
     4e0:	00007c57 	.word	0x00007c57

000004e4 <__vsnprintf>:
__vsnprintf():
/home/hsk/Desktop/devel/tee-tpm-hyp/optee_os/lib/libutils/ext/snprintk.c:137
     4e4:	e92d 4ff0 	stmdb	sp!, {r4, r5, r6, r7, r8, r9, sl, fp, lr}
/home/hsk/Desktop/devel/tee-tpm-hyp/optee_os/lib/libutils/ext/snprintk.c:141
     4e8:	4607      	mov	r7, r0
     4ea:	469b      	mov	fp, r3
/home/hsk/Desktop/devel/tee-tpm-hyp/optee_os/lib/libutils/ext/snprintk.c:137
     4ec:	b09f      	sub	sp, #124	; 0x7c
kprintf():
/home/hsk/Desktop/devel/tee-tpm-hyp/optee_os/lib/libutils/ext/snprintk.c:269
     4ee:	2300      	movs	r3, #0
__vsnprintf():
/home/hsk/Desktop/devel/tee-tpm-hyp/optee_os/lib/libutils/ext/snprintk.c:137
     4f0:	920b      	str	r2, [sp, #44]	; 0x2c
     4f2:	f89d 20a0 	ldrb.w	r2, [sp, #160]	; 0xa0
     4f6:	9213      	str	r2, [sp, #76]	; 0x4c
/home/hsk/Desktop/devel/tee-tpm-hyp/optee_os/lib/libutils/ext/snprintk.c:141
     4f8:	4602      	mov	r2, r0
     4fa:	440a      	add	r2, r1
/home/hsk/Desktop/devel/tee-tpm-hyp/optee_os/lib/libutils/ext/snprintk.c:137
     4fc:	9010      	str	r0, [sp, #64]	; 0x40
     4fe:	9112      	str	r1, [sp, #72]	; 0x48
/home/hsk/Desktop/devel/tee-tpm-hyp/optee_os/lib/libutils/ext/snprintk.c:141
     500:	920e      	str	r2, [sp, #56]	; 0x38
kprintf():
/home/hsk/Desktop/devel/tee-tpm-hyp/optee_os/lib/libutils/ext/snprintk.c:269
     502:	930f      	str	r3, [sp, #60]	; 0x3c
/home/hsk/Desktop/devel/tee-tpm-hyp/optee_os/lib/libutils/ext/snprintk.c:267
     504:	930c      	str	r3, [sp, #48]	; 0x30
/home/hsk/Desktop/devel/tee-tpm-hyp/optee_os/lib/libutils/ext/snprintk.c:275
     506:	9b0b      	ldr	r3, [sp, #44]	; 0x2c
     508:	781b      	ldrb	r3, [r3, #0]
     50a:	2b25      	cmp	r3, #37	; 0x25
     50c:	d021      	beq.n	552 <__vsnprintf+0x6e>
     50e:	b99b      	cbnz	r3, 538 <__vsnprintf+0x54>
__vsnprintf():
/home/hsk/Desktop/devel/tee-tpm-hyp/optee_os/lib/libutils/ext/snprintk.c:143
     510:	9b10      	ldr	r3, [sp, #64]	; 0x40
     512:	b16b      	cbz	r3, 530 <__vsnprintf+0x4c>
/home/hsk/Desktop/devel/tee-tpm-hyp/optee_os/lib/libutils/ext/snprintk.c:143 (discriminator 1)
     514:	9b12      	ldr	r3, [sp, #72]	; 0x48
     516:	b15b      	cbz	r3, 530 <__vsnprintf+0x4c>
/home/hsk/Desktop/devel/tee-tpm-hyp/optee_os/lib/libutils/ext/snprintk.c:145
     518:	9b0c      	ldr	r3, [sp, #48]	; 0x30
     51a:	9a12      	ldr	r2, [sp, #72]	; 0x48
     51c:	4293      	cmp	r3, r2
     51e:	f04f 0300 	mov.w	r3, #0
/home/hsk/Desktop/devel/tee-tpm-hyp/optee_os/lib/libutils/ext/snprintk.c:146
     522:	9a10      	ldr	r2, [sp, #64]	; 0x40
/home/hsk/Desktop/devel/tee-tpm-hyp/optee_os/lib/libutils/ext/snprintk.c:145
     524:	f0c0 8341 	bcc.w	baa <__vsnprintf+0x6c6>
/home/hsk/Desktop/devel/tee-tpm-hyp/optee_os/lib/libutils/ext/snprintk.c:146
     528:	9912      	ldr	r1, [sp, #72]	; 0x48
     52a:	440a      	add	r2, r1
     52c:	f802 3c01 	strb.w	r3, [r2, #-1]
/home/hsk/Desktop/devel/tee-tpm-hyp/optee_os/lib/libutils/ext/snprintk.c:151
     530:	980c      	ldr	r0, [sp, #48]	; 0x30
     532:	b01f      	add	sp, #124	; 0x7c
     534:	e8bd 8ff0 	ldmia.w	sp!, {r4, r5, r6, r7, r8, r9, sl, fp, pc}
kprintf():
/home/hsk/Desktop/devel/tee-tpm-hyp/optee_os/lib/libutils/ext/snprintk.c:276
     538:	9a0c      	ldr	r2, [sp, #48]	; 0x30
     53a:	3201      	adds	r2, #1
     53c:	920c      	str	r2, [sp, #48]	; 0x30
/home/hsk/Desktop/devel/tee-tpm-hyp/optee_os/lib/libutils/ext/snprintk.c:277
     53e:	b127      	cbz	r7, 54a <__vsnprintf+0x66>
     540:	9a0e      	ldr	r2, [sp, #56]	; 0x38
     542:	42ba      	cmp	r2, r7
     544:	d901      	bls.n	54a <__vsnprintf+0x66>
     546:	703b      	strb	r3, [r7, #0]
     548:	3701      	adds	r7, #1
/home/hsk/Desktop/devel/tee-tpm-hyp/optee_os/lib/libutils/ext/snprintk.c:275
     54a:	9b0b      	ldr	r3, [sp, #44]	; 0x2c
     54c:	3301      	adds	r3, #1
     54e:	930b      	str	r3, [sp, #44]	; 0x2c
     550:	e7d9      	b.n	506 <__vsnprintf+0x22>
/home/hsk/Desktop/devel/tee-tpm-hyp/optee_os/lib/libutils/ext/snprintk.c:282
     552:	9b0b      	ldr	r3, [sp, #44]	; 0x2c
/home/hsk/Desktop/devel/tee-tpm-hyp/optee_os/lib/libutils/ext/snprintk.c:288
     554:	f04f 0900 	mov.w	r9, #0
/home/hsk/Desktop/devel/tee-tpm-hyp/optee_os/lib/libutils/ext/snprintk.c:284
     558:	464e      	mov	r6, r9
/home/hsk/Desktop/devel/tee-tpm-hyp/optee_os/lib/libutils/ext/snprintk.c:287
     55a:	f04f 32ff 	mov.w	r2, #4294967295	; 0xffffffff
/home/hsk/Desktop/devel/tee-tpm-hyp/optee_os/lib/libutils/ext/snprintk.c:282
     55e:	3301      	adds	r3, #1
     560:	930b      	str	r3, [sp, #44]	; 0x2c
     562:	465b      	mov	r3, fp
/home/hsk/Desktop/devel/tee-tpm-hyp/optee_os/lib/libutils/ext/snprintk.c:287
     564:	920a      	str	r2, [sp, #40]	; 0x28
/home/hsk/Desktop/devel/tee-tpm-hyp/optee_os/lib/libutils/ext/snprintk.c:286
     566:	f8cd 9034 	str.w	r9, [sp, #52]	; 0x34
/home/hsk/Desktop/devel/tee-tpm-hyp/optee_os/lib/libutils/ext/snprintk.c:290
     56a:	9a0b      	ldr	r2, [sp, #44]	; 0x2c
     56c:	3201      	adds	r2, #1
     56e:	f812 8c01 	ldrb.w	r8, [r2, #-1]
/home/hsk/Desktop/devel/tee-tpm-hyp/optee_os/lib/libutils/ext/snprintk.c:319
     572:	920b      	str	r2, [sp, #44]	; 0x2c
/home/hsk/Desktop/devel/tee-tpm-hyp/optee_os/lib/libutils/ext/snprintk.c:291
     574:	f1b8 0f63 	cmp.w	r8, #99	; 0x63
     578:	f000 8166 	beq.w	848 <__vsnprintf+0x364>
     57c:	dc61      	bgt.n	642 <__vsnprintf+0x15e>
     57e:	f1b8 0f30 	cmp.w	r8, #48	; 0x30
     582:	f000 814b 	beq.w	81c <__vsnprintf+0x338>
     586:	dc25      	bgt.n	5d4 <__vsnprintf+0xf0>
     588:	f1b8 0f2a 	cmp.w	r8, #42	; 0x2a
     58c:	f000 811c 	beq.w	7c8 <__vsnprintf+0x2e4>
     590:	dc13      	bgt.n	5ba <__vsnprintf+0xd6>
     592:	f1b8 0f20 	cmp.w	r8, #32
     596:	f000 810d 	beq.w	7b4 <__vsnprintf+0x2d0>
     59a:	f1b8 0f23 	cmp.w	r8, #35	; 0x23
     59e:	f000 8110 	beq.w	7c2 <__vsnprintf+0x2de>
/home/hsk/Desktop/devel/tee-tpm-hyp/optee_os/lib/libutils/ext/snprintk.c:541
     5a2:	f1b8 0f00 	cmp.w	r8, #0
     5a6:	d0b3      	beq.n	510 <__vsnprintf+0x2c>
/home/hsk/Desktop/devel/tee-tpm-hyp/optee_os/lib/libutils/ext/snprintk.c:545
     5a8:	f10d 0a78 	add.w	sl, sp, #120	; 0x78
     5ac:	469b      	mov	fp, r3
/home/hsk/Desktop/devel/tee-tpm-hyp/optee_os/lib/libutils/ext/snprintk.c:546
     5ae:	2301      	movs	r3, #1
/home/hsk/Desktop/devel/tee-tpm-hyp/optee_os/lib/libutils/ext/snprintk.c:545
     5b0:	f80a 8d28 	strb.w	r8, [sl, #-40]!
     5b4:	e090      	b.n	6d8 <__vsnprintf+0x1f4>
/home/hsk/Desktop/devel/tee-tpm-hyp/optee_os/lib/libutils/ext/snprintk.c:311
     5b6:	4613      	mov	r3, r2
     5b8:	e7d7      	b.n	56a <__vsnprintf+0x86>
/home/hsk/Desktop/devel/tee-tpm-hyp/optee_os/lib/libutils/ext/snprintk.c:291
     5ba:	f1b8 0f2d 	cmp.w	r8, #45	; 0x2d
     5be:	f000 810c 	beq.w	7da <__vsnprintf+0x2f6>
     5c2:	f1b8 0f2e 	cmp.w	r8, #46	; 0x2e
     5c6:	f000 810b 	beq.w	7e0 <__vsnprintf+0x2fc>
     5ca:	f1b8 0f2b 	cmp.w	r8, #43	; 0x2b
     5ce:	d1e8      	bne.n	5a2 <__vsnprintf+0xbe>
/home/hsk/Desktop/devel/tee-tpm-hyp/optee_os/lib/libutils/ext/snprintk.c:319
     5d0:	46c1      	mov	r9, r8
     5d2:	e7ca      	b.n	56a <__vsnprintf+0x86>
/home/hsk/Desktop/devel/tee-tpm-hyp/optee_os/lib/libutils/ext/snprintk.c:291
     5d4:	f1b8 0f44 	cmp.w	r8, #68	; 0x44
     5d8:	f000 818a 	beq.w	8f0 <__vsnprintf+0x40c>
     5dc:	dc13      	bgt.n	606 <__vsnprintf+0x122>
     5de:	f1b8 0f39 	cmp.w	r8, #57	; 0x39
     5e2:	dcde      	bgt.n	5a2 <__vsnprintf+0xbe>
     5e4:	9a0b      	ldr	r2, [sp, #44]	; 0x2c
/home/hsk/Desktop/devel/tee-tpm-hyp/optee_os/lib/libutils/ext/snprintk.c:344
     5e6:	2100      	movs	r1, #0
     5e8:	910d      	str	r1, [sp, #52]	; 0x34
/home/hsk/Desktop/devel/tee-tpm-hyp/optee_os/lib/libutils/ext/snprintk.c:346
     5ea:	990d      	ldr	r1, [sp, #52]	; 0x34
     5ec:	f1a8 0830 	sub.w	r8, r8, #48	; 0x30
     5f0:	200a      	movs	r0, #10
     5f2:	fb00 8101 	mla	r1, r0, r1, r8
/home/hsk/Desktop/devel/tee-tpm-hyp/optee_os/lib/libutils/ext/snprintk.c:347
     5f6:	f812 8b01 	ldrb.w	r8, [r2], #1
/home/hsk/Desktop/devel/tee-tpm-hyp/optee_os/lib/libutils/ext/snprintk.c:346
     5fa:	910d      	str	r1, [sp, #52]	; 0x34
/home/hsk/Desktop/devel/tee-tpm-hyp/optee_os/lib/libutils/ext/snprintk.c:348
     5fc:	f1a8 0130 	sub.w	r1, r8, #48	; 0x30
     600:	2909      	cmp	r1, #9
     602:	d9f2      	bls.n	5ea <__vsnprintf+0x106>
     604:	e7b5      	b.n	572 <__vsnprintf+0x8e>
/home/hsk/Desktop/devel/tee-tpm-hyp/optee_os/lib/libutils/ext/snprintk.c:291
     606:	f1b8 0f55 	cmp.w	r8, #85	; 0x55
     60a:	f000 8228 	beq.w	a5e <__vsnprintf+0x57a>
     60e:	f1b8 0f58 	cmp.w	r8, #88	; 0x58
     612:	d07d      	beq.n	710 <__vsnprintf+0x22c>
     614:	f1b8 0f4f 	cmp.w	r8, #79	; 0x4f
     618:	d1c3      	bne.n	5a2 <__vsnprintf+0xbe>
/home/hsk/Desktop/devel/tee-tpm-hyp/optee_os/lib/libutils/ext/snprintk.c:408
     61a:	f046 0610 	orr.w	r6, r6, #16
/home/hsk/Desktop/devel/tee-tpm-hyp/optee_os/lib/libutils/ext/snprintk.c:411
     61e:	0632      	lsls	r2, r6, #24
     620:	f140 81b2 	bpl.w	988 <__vsnprintf+0x4a4>
     624:	3307      	adds	r3, #7
     626:	f023 0307 	bic.w	r3, r3, #7
     62a:	f103 0b08 	add.w	fp, r3, #8
     62e:	e9d3 4500 	ldrd	r4, r5, [r3]
/home/hsk/Desktop/devel/tee-tpm-hyp/optee_os/lib/libutils/ext/snprintk.c:488
     632:	f04f 0900 	mov.w	r9, #0
     636:	9b0a      	ldr	r3, [sp, #40]	; 0x28
     638:	3301      	adds	r3, #1
     63a:	f000 8098 	beq.w	76e <__vsnprintf+0x28a>
     63e:	464b      	mov	r3, r9
     640:	e084      	b.n	74c <__vsnprintf+0x268>
/home/hsk/Desktop/devel/tee-tpm-hyp/optee_os/lib/libutils/ext/snprintk.c:291
     642:	f1b8 0f6f 	cmp.w	r8, #111	; 0x6f
     646:	d0ea      	beq.n	61e <__vsnprintf+0x13a>
     648:	dc1c      	bgt.n	684 <__vsnprintf+0x1a0>
     64a:	f1b8 0f69 	cmp.w	r8, #105	; 0x69
     64e:	f000 8151 	beq.w	8f4 <__vsnprintf+0x410>
     652:	dc09      	bgt.n	668 <__vsnprintf+0x184>
     654:	f1b8 0f64 	cmp.w	r8, #100	; 0x64
     658:	f000 814c 	beq.w	8f4 <__vsnprintf+0x410>
     65c:	f1b8 0f68 	cmp.w	r8, #104	; 0x68
     660:	d19f      	bne.n	5a2 <__vsnprintf+0xbe>
/home/hsk/Desktop/devel/tee-tpm-hyp/optee_os/lib/libutils/ext/snprintk.c:352
     662:	f046 0640 	orr.w	r6, r6, #64	; 0x40
     666:	e780      	b.n	56a <__vsnprintf+0x86>
/home/hsk/Desktop/devel/tee-tpm-hyp/optee_os/lib/libutils/ext/snprintk.c:291
     668:	f1b8 0f6c 	cmp.w	r8, #108	; 0x6c
     66c:	f000 80d9 	beq.w	822 <__vsnprintf+0x33e>
     670:	f1b8 0f6e 	cmp.w	r8, #110	; 0x6e
     674:	f000 816d 	beq.w	952 <__vsnprintf+0x46e>
     678:	f1b8 0f6a 	cmp.w	r8, #106	; 0x6a
     67c:	d191      	bne.n	5a2 <__vsnprintf+0xbe>
/home/hsk/Desktop/devel/tee-tpm-hyp/optee_os/lib/libutils/ext/snprintk.c:355
     67e:	f046 0680 	orr.w	r6, r6, #128	; 0x80
     682:	e772      	b.n	56a <__vsnprintf+0x86>
/home/hsk/Desktop/devel/tee-tpm-hyp/optee_os/lib/libutils/ext/snprintk.c:291
     684:	f1b8 0f74 	cmp.w	r8, #116	; 0x74
     688:	f000 80d8 	beq.w	83c <__vsnprintf+0x358>
     68c:	dc26      	bgt.n	6dc <__vsnprintf+0x1f8>
     68e:	f1b8 0f71 	cmp.w	r8, #113	; 0x71
     692:	f000 80cd 	beq.w	830 <__vsnprintf+0x34c>
     696:	f2c0 818b 	blt.w	9b0 <__vsnprintf+0x4cc>
     69a:	f1b8 0f73 	cmp.w	r8, #115	; 0x73
     69e:	d180      	bne.n	5a2 <__vsnprintf+0xbe>
/home/hsk/Desktop/devel/tee-tpm-hyp/optee_os/lib/libutils/ext/snprintk.c:442
     6a0:	f8d3 a000 	ldr.w	sl, [r3]
     6a4:	f103 0b04 	add.w	fp, r3, #4
     6a8:	f1ba 0f00 	cmp.w	sl, #0
     6ac:	d102      	bne.n	6b4 <__vsnprintf+0x1d0>
/home/hsk/Desktop/devel/tee-tpm-hyp/optee_os/lib/libutils/ext/snprintk.c:444
     6ae:	f8df a51c 	ldr.w	sl, [pc, #1308]	; bcc <__vsnprintf+0x6e8>
     6b2:	44fa      	add	sl, pc
/home/hsk/Desktop/devel/tee-tpm-hyp/optee_os/lib/libutils/ext/snprintk.c:445
     6b4:	9b0a      	ldr	r3, [sp, #40]	; 0x28
     6b6:	1c5d      	adds	r5, r3, #1
     6b8:	f000 81cd 	beq.w	a56 <__vsnprintf+0x572>
/home/hsk/Desktop/devel/tee-tpm-hyp/optee_os/lib/libutils/ext/snprintk.c:451
     6bc:	461a      	mov	r2, r3
     6be:	2100      	movs	r1, #0
     6c0:	4650      	mov	r0, sl
     6c2:	f007 f932 	bl	792a <memchr>
/home/hsk/Desktop/devel/tee-tpm-hyp/optee_os/lib/libutils/ext/snprintk.c:453
     6c6:	2800      	cmp	r0, #0
     6c8:	f000 81a2 	beq.w	a10 <__vsnprintf+0x52c>
     6cc:	9b0a      	ldr	r3, [sp, #40]	; 0x28
/home/hsk/Desktop/devel/tee-tpm-hyp/optee_os/lib/libutils/ext/snprintk.c:454
     6ce:	eba0 000a 	sub.w	r0, r0, sl
     6d2:	4283      	cmp	r3, r0
     6d4:	bfa8      	it	ge
     6d6:	4603      	movge	r3, r0
/home/hsk/Desktop/devel/tee-tpm-hyp/optee_os/lib/libutils/ext/snprintk.c:546
     6d8:	930a      	str	r3, [sp, #40]	; 0x28
     6da:	e198      	b.n	a0e <__vsnprintf+0x52a>
/home/hsk/Desktop/devel/tee-tpm-hyp/optee_os/lib/libutils/ext/snprintk.c:291
     6dc:	f1b8 0f78 	cmp.w	r8, #120	; 0x78
     6e0:	f000 81de 	beq.w	aa0 <__vsnprintf+0x5bc>
     6e4:	f1b8 0f7a 	cmp.w	r8, #122	; 0x7a
     6e8:	f000 80ab 	beq.w	842 <__vsnprintf+0x35e>
     6ec:	f1b8 0f75 	cmp.w	r8, #117	; 0x75
     6f0:	f47f af57 	bne.w	5a2 <__vsnprintf+0xbe>
/home/hsk/Desktop/devel/tee-tpm-hyp/optee_os/lib/libutils/ext/snprintk.c:467
     6f4:	f016 0280 	ands.w	r2, r6, #128	; 0x80
     6f8:	f000 81b4 	beq.w	a64 <__vsnprintf+0x580>
     6fc:	3307      	adds	r3, #7
     6fe:	f023 0307 	bic.w	r3, r3, #7
     702:	f103 0b08 	add.w	fp, r3, #8
     706:	e9d3 4500 	ldrd	r4, r5, [r3]
/home/hsk/Desktop/devel/tee-tpm-hyp/optee_os/lib/libutils/ext/snprintk.c:482
     70a:	f04f 0900 	mov.w	r9, #0
     70e:	e103      	b.n	918 <__vsnprintf+0x434>
/home/hsk/Desktop/devel/tee-tpm-hyp/optee_os/lib/libutils/ext/snprintk.c:471
     710:	f8df 24bc 	ldr.w	r2, [pc, #1212]	; bd0 <__vsnprintf+0x6ec>
     714:	447a      	add	r2, pc
/home/hsk/Desktop/devel/tee-tpm-hyp/optee_os/lib/libutils/ext/snprintk.c:474
     716:	920f      	str	r2, [sp, #60]	; 0x3c
/home/hsk/Desktop/devel/tee-tpm-hyp/optee_os/lib/libutils/ext/snprintk.c:475
     718:	0634      	lsls	r4, r6, #24
     71a:	f140 81c5 	bpl.w	aa8 <__vsnprintf+0x5c4>
     71e:	3307      	adds	r3, #7
     720:	f023 0307 	bic.w	r3, r3, #7
     724:	f103 0b08 	add.w	fp, r3, #8
     728:	e9d3 4500 	ldrd	r4, r5, [r3]
/home/hsk/Desktop/devel/tee-tpm-hyp/optee_os/lib/libutils/ext/snprintk.c:478
     72c:	07f0      	lsls	r0, r6, #31
     72e:	f140 817a 	bpl.w	a26 <__vsnprintf+0x542>
     732:	ea54 0305 	orrs.w	r3, r4, r5
     736:	f000 8241 	beq.w	bbc <__vsnprintf+0x6d8>
/home/hsk/Desktop/devel/tee-tpm-hyp/optee_os/lib/libutils/ext/snprintk.c:488
     73a:	9b0a      	ldr	r3, [sp, #40]	; 0x28
/home/hsk/Desktop/devel/tee-tpm-hyp/optee_os/lib/libutils/ext/snprintk.c:479
     73c:	f046 0602 	orr.w	r6, r6, #2
/home/hsk/Desktop/devel/tee-tpm-hyp/optee_os/lib/libutils/ext/snprintk.c:488
     740:	3301      	adds	r3, #1
     742:	f000 823e 	beq.w	bc2 <__vsnprintf+0x6de>
     746:	f04f 0900 	mov.w	r9, #0
     74a:	2302      	movs	r3, #2
/home/hsk/Desktop/devel/tee-tpm-hyp/optee_os/lib/libutils/ext/snprintk.c:489
     74c:	f426 6680 	bic.w	r6, r6, #1024	; 0x400
/home/hsk/Desktop/devel/tee-tpm-hyp/optee_os/lib/libutils/ext/snprintk.c:497
     750:	ea54 0205 	orrs.w	r2, r4, r5
     754:	d105      	bne.n	762 <__vsnprintf+0x27e>
     756:	9a0a      	ldr	r2, [sp, #40]	; 0x28
     758:	2a00      	cmp	r2, #0
     75a:	f000 81dc 	beq.w	b16 <__vsnprintf+0x632>
     75e:	2400      	movs	r4, #0
     760:	2500      	movs	r5, #0
/home/hsk/Desktop/devel/tee-tpm-hyp/optee_os/lib/libutils/ext/snprintk.c:503
     762:	2b01      	cmp	r3, #1
     764:	f000 80dc 	beq.w	920 <__vsnprintf+0x43c>
     768:	2b02      	cmp	r3, #2
     76a:	f000 8162 	beq.w	a32 <__vsnprintf+0x54e>
/home/hsk/Desktop/devel/tee-tpm-hyp/optee_os/lib/libutils/ext/snprintk.c:504
     76e:	f10d 0375 	add.w	r3, sp, #117	; 0x75
/home/hsk/Desktop/devel/tee-tpm-hyp/optee_os/lib/libutils/ext/snprintk.c:507
     772:	08e1      	lsrs	r1, r4, #3
     774:	08e8      	lsrs	r0, r5, #3
     776:	ea41 7145 	orr.w	r1, r1, r5, lsl #29
/home/hsk/Desktop/devel/tee-tpm-hyp/optee_os/lib/libutils/ext/snprintk.c:506
     77a:	f004 0207 	and.w	r2, r4, #7
/home/hsk/Desktop/devel/tee-tpm-hyp/optee_os/lib/libutils/ext/snprintk.c:507
     77e:	4605      	mov	r5, r0
     780:	460c      	mov	r4, r1
/home/hsk/Desktop/devel/tee-tpm-hyp/optee_os/lib/libutils/ext/snprintk.c:506
     782:	3230      	adds	r2, #48	; 0x30
     784:	f103 3aff 	add.w	sl, r3, #4294967295	; 0xffffffff
     788:	f803 2c01 	strb.w	r2, [r3, #-1]
/home/hsk/Desktop/devel/tee-tpm-hyp/optee_os/lib/libutils/ext/snprintk.c:508
     78c:	ea54 0105 	orrs.w	r1, r4, r5
     790:	f040 81a0 	bne.w	ad4 <__vsnprintf+0x5f0>
/home/hsk/Desktop/devel/tee-tpm-hyp/optee_os/lib/libutils/ext/snprintk.c:510
     794:	07f1      	lsls	r1, r6, #31
     796:	d506      	bpl.n	7a6 <__vsnprintf+0x2c2>
     798:	2a30      	cmp	r2, #48	; 0x30
     79a:	d004      	beq.n	7a6 <__vsnprintf+0x2c2>
/home/hsk/Desktop/devel/tee-tpm-hyp/optee_os/lib/libutils/ext/snprintk.c:511
     79c:	2230      	movs	r2, #48	; 0x30
     79e:	f80a 2c01 	strb.w	r2, [sl, #-1]
     7a2:	f1a3 0a02 	sub.w	sl, r3, #2
/home/hsk/Desktop/devel/tee-tpm-hyp/optee_os/lib/libutils/ext/snprintk.c:537
     7a6:	f10d 0375 	add.w	r3, sp, #117	; 0x75
     7aa:	980a      	ldr	r0, [sp, #40]	; 0x28
     7ac:	eba3 030a 	sub.w	r3, r3, sl
     7b0:	930a      	str	r3, [sp, #40]	; 0x28
     7b2:	e055      	b.n	860 <__vsnprintf+0x37c>
/home/hsk/Desktop/devel/tee-tpm-hyp/optee_os/lib/libutils/ext/snprintk.c:299
     7b4:	f1b9 0f00 	cmp.w	r9, #0
     7b8:	f04f 0220 	mov.w	r2, #32
     7bc:	bf08      	it	eq
     7be:	4691      	moveq	r9, r2
     7c0:	e6d3      	b.n	56a <__vsnprintf+0x86>
/home/hsk/Desktop/devel/tee-tpm-hyp/optee_os/lib/libutils/ext/snprintk.c:302
     7c2:	f046 0601 	orr.w	r6, r6, #1
     7c6:	e6d0      	b.n	56a <__vsnprintf+0x86>
/home/hsk/Desktop/devel/tee-tpm-hyp/optee_os/lib/libutils/ext/snprintk.c:311
     7c8:	1d1a      	adds	r2, r3, #4
     7ca:	681b      	ldr	r3, [r3, #0]
     7cc:	930d      	str	r3, [sp, #52]	; 0x34
     7ce:	2b00      	cmp	r3, #0
     7d0:	f6bf aef1 	bge.w	5b6 <__vsnprintf+0xd2>
/home/hsk/Desktop/devel/tee-tpm-hyp/optee_os/lib/libutils/ext/snprintk.c:313
     7d4:	425b      	negs	r3, r3
     7d6:	930d      	str	r3, [sp, #52]	; 0x34
/home/hsk/Desktop/devel/tee-tpm-hyp/optee_os/lib/libutils/ext/snprintk.c:311
     7d8:	4613      	mov	r3, r2
/home/hsk/Desktop/devel/tee-tpm-hyp/optee_os/lib/libutils/ext/snprintk.c:316
     7da:	f046 0604 	orr.w	r6, r6, #4
     7de:	e6c4      	b.n	56a <__vsnprintf+0x86>
/home/hsk/Desktop/devel/tee-tpm-hyp/optee_os/lib/libutils/ext/snprintk.c:322
     7e0:	990b      	ldr	r1, [sp, #44]	; 0x2c
     7e2:	9a0b      	ldr	r2, [sp, #44]	; 0x2c
     7e4:	f891 8000 	ldrb.w	r8, [r1]
     7e8:	3201      	adds	r2, #1
     7ea:	f1b8 0f2a 	cmp.w	r8, #42	; 0x2a
     7ee:	d112      	bne.n	816 <__vsnprintf+0x332>
/home/hsk/Desktop/devel/tee-tpm-hyp/optee_os/lib/libutils/ext/snprintk.c:324
     7f0:	6819      	ldr	r1, [r3, #0]
/home/hsk/Desktop/devel/tee-tpm-hyp/optee_os/lib/libutils/ext/snprintk.c:323
     7f2:	3304      	adds	r3, #4
/home/hsk/Desktop/devel/tee-tpm-hyp/optee_os/lib/libutils/ext/snprintk.c:322
     7f4:	920b      	str	r2, [sp, #44]	; 0x2c
/home/hsk/Desktop/devel/tee-tpm-hyp/optee_os/lib/libutils/ext/snprintk.c:324
     7f6:	ea41 71e1 	orr.w	r1, r1, r1, asr #31
     7fa:	910a      	str	r1, [sp, #40]	; 0x28
     7fc:	e6b5      	b.n	56a <__vsnprintf+0x86>
/home/hsk/Desktop/devel/tee-tpm-hyp/optee_os/lib/libutils/ext/snprintk.c:329
     7fe:	980a      	ldr	r0, [sp, #40]	; 0x28
     800:	240a      	movs	r4, #10
/home/hsk/Desktop/devel/tee-tpm-hyp/optee_os/lib/libutils/ext/snprintk.c:330
     802:	f812 8b01 	ldrb.w	r8, [r2], #1
/home/hsk/Desktop/devel/tee-tpm-hyp/optee_os/lib/libutils/ext/snprintk.c:329
     806:	fb04 1100 	mla	r1, r4, r0, r1
     80a:	910a      	str	r1, [sp, #40]	; 0x28
/home/hsk/Desktop/devel/tee-tpm-hyp/optee_os/lib/libutils/ext/snprintk.c:328
     80c:	f1a8 0130 	sub.w	r1, r8, #48	; 0x30
     810:	2909      	cmp	r1, #9
     812:	d9f4      	bls.n	7fe <__vsnprintf+0x31a>
     814:	e6ad      	b.n	572 <__vsnprintf+0x8e>
/home/hsk/Desktop/devel/tee-tpm-hyp/optee_os/lib/libutils/ext/snprintk.c:327
     816:	2100      	movs	r1, #0
     818:	910a      	str	r1, [sp, #40]	; 0x28
     81a:	e7f7      	b.n	80c <__vsnprintf+0x328>
/home/hsk/Desktop/devel/tee-tpm-hyp/optee_os/lib/libutils/ext/snprintk.c:340
     81c:	f446 6680 	orr.w	r6, r6, #1024	; 0x400
     820:	e6a3      	b.n	56a <__vsnprintf+0x86>
/home/hsk/Desktop/devel/tee-tpm-hyp/optee_os/lib/libutils/ext/snprintk.c:358
     822:	9a0b      	ldr	r2, [sp, #44]	; 0x2c
     824:	7812      	ldrb	r2, [r2, #0]
     826:	2a6c      	cmp	r2, #108	; 0x6c
     828:	d105      	bne.n	836 <__vsnprintf+0x352>
     82a:	9a0b      	ldr	r2, [sp, #44]	; 0x2c
     82c:	3201      	adds	r2, #1
     82e:	920b      	str	r2, [sp, #44]	; 0x2c
/home/hsk/Desktop/devel/tee-tpm-hyp/optee_os/lib/libutils/ext/snprintk.c:366
     830:	f046 0620 	orr.w	r6, r6, #32
     834:	e699      	b.n	56a <__vsnprintf+0x86>
/home/hsk/Desktop/devel/tee-tpm-hyp/optee_os/lib/libutils/ext/snprintk.c:362
     836:	f046 0610 	orr.w	r6, r6, #16
     83a:	e696      	b.n	56a <__vsnprintf+0x86>
/home/hsk/Desktop/devel/tee-tpm-hyp/optee_os/lib/libutils/ext/snprintk.c:369
     83c:	f446 7680 	orr.w	r6, r6, #256	; 0x100
     840:	e693      	b.n	56a <__vsnprintf+0x86>
/home/hsk/Desktop/devel/tee-tpm-hyp/optee_os/lib/libutils/ext/snprintk.c:372
     842:	f446 7600 	orr.w	r6, r6, #512	; 0x200
     846:	e690      	b.n	56a <__vsnprintf+0x86>
/home/hsk/Desktop/devel/tee-tpm-hyp/optee_os/lib/libutils/ext/snprintk.c:375
     848:	f10d 0a78 	add.w	sl, sp, #120	; 0x78
/home/hsk/Desktop/devel/tee-tpm-hyp/optee_os/lib/libutils/ext/snprintk.c:285
     84c:	f04f 0900 	mov.w	r9, #0
/home/hsk/Desktop/devel/tee-tpm-hyp/optee_os/lib/libutils/ext/snprintk.c:375
     850:	f103 0b04 	add.w	fp, r3, #4
/home/hsk/Desktop/devel/tee-tpm-hyp/optee_os/lib/libutils/ext/snprintk.c:377
     854:	4648      	mov	r0, r9
/home/hsk/Desktop/devel/tee-tpm-hyp/optee_os/lib/libutils/ext/snprintk.c:375
     856:	681b      	ldr	r3, [r3, #0]
     858:	f80a 3d28 	strb.w	r3, [sl, #-40]!
/home/hsk/Desktop/devel/tee-tpm-hyp/optee_os/lib/libutils/ext/snprintk.c:376
     85c:	2301      	movs	r3, #1
     85e:	930a      	str	r3, [sp, #40]	; 0x28
/home/hsk/Desktop/devel/tee-tpm-hyp/optee_os/lib/libutils/ext/snprintk.c:565
     860:	9b0a      	ldr	r3, [sp, #40]	; 0x28
     862:	4283      	cmp	r3, r0
     864:	bfb8      	it	lt
     866:	4603      	movlt	r3, r0
/home/hsk/Desktop/devel/tee-tpm-hyp/optee_os/lib/libutils/ext/snprintk.c:566
     868:	f1b9 0f00 	cmp.w	r9, #0
     86c:	f000 8156 	beq.w	b1c <__vsnprintf+0x638>
/home/hsk/Desktop/devel/tee-tpm-hyp/optee_os/lib/libutils/ext/snprintk.c:567
     870:	3301      	adds	r3, #1
/home/hsk/Desktop/devel/tee-tpm-hyp/optee_os/lib/libutils/ext/snprintk.c:572
     872:	9a0d      	ldr	r2, [sp, #52]	; 0x34
     874:	990c      	ldr	r1, [sp, #48]	; 0x30
     876:	429a      	cmp	r2, r3
     878:	bfb8      	it	lt
     87a:	461a      	movlt	r2, r3
     87c:	4411      	add	r1, r2
/home/hsk/Desktop/devel/tee-tpm-hyp/optee_os/lib/libutils/ext/snprintk.c:575
     87e:	f240 4204 	movw	r2, #1028	; 0x404
/home/hsk/Desktop/devel/tee-tpm-hyp/optee_os/lib/libutils/ext/snprintk.c:572
     882:	910c      	str	r1, [sp, #48]	; 0x30
/home/hsk/Desktop/devel/tee-tpm-hyp/optee_os/lib/libutils/ext/snprintk.c:575
     884:	ea16 0102 	ands.w	r1, r6, r2
     888:	d105      	bne.n	896 <__vsnprintf+0x3b2>
/home/hsk/Desktop/devel/tee-tpm-hyp/optee_os/lib/libutils/ext/snprintk.c:576
     88a:	9a0d      	ldr	r2, [sp, #52]	; 0x34
/home/hsk/Desktop/devel/tee-tpm-hyp/optee_os/lib/libutils/ext/snprintk.c:578
     88c:	2420      	movs	r4, #32
/home/hsk/Desktop/devel/tee-tpm-hyp/optee_os/lib/libutils/ext/snprintk.c:576
     88e:	1ad2      	subs	r2, r2, r3
/home/hsk/Desktop/devel/tee-tpm-hyp/optee_os/lib/libutils/ext/snprintk.c:577
     890:	2a00      	cmp	r2, #0
     892:	f300 8147 	bgt.w	b24 <__vsnprintf+0x640>
/home/hsk/Desktop/devel/tee-tpm-hyp/optee_os/lib/libutils/ext/snprintk.c:582
     896:	f1b9 0f00 	cmp.w	r9, #0
     89a:	f000 8153 	beq.w	b44 <__vsnprintf+0x660>
/home/hsk/Desktop/devel/tee-tpm-hyp/optee_os/lib/libutils/ext/snprintk.c:583
     89e:	2f00      	cmp	r7, #0
     8a0:	f040 8148 	bne.w	b34 <__vsnprintf+0x650>
/home/hsk/Desktop/devel/tee-tpm-hyp/optee_os/lib/libutils/ext/snprintk.c:586
     8a4:	2700      	movs	r7, #0
/home/hsk/Desktop/devel/tee-tpm-hyp/optee_os/lib/libutils/ext/snprintk.c:590
     8a6:	f5b1 6f80 	cmp.w	r1, #1024	; 0x400
     8aa:	d105      	bne.n	8b8 <__vsnprintf+0x3d4>
/home/hsk/Desktop/devel/tee-tpm-hyp/optee_os/lib/libutils/ext/snprintk.c:591
     8ac:	9a0d      	ldr	r2, [sp, #52]	; 0x34
/home/hsk/Desktop/devel/tee-tpm-hyp/optee_os/lib/libutils/ext/snprintk.c:593
     8ae:	2130      	movs	r1, #48	; 0x30
/home/hsk/Desktop/devel/tee-tpm-hyp/optee_os/lib/libutils/ext/snprintk.c:591
     8b0:	1ad2      	subs	r2, r2, r3
/home/hsk/Desktop/devel/tee-tpm-hyp/optee_os/lib/libutils/ext/snprintk.c:592
     8b2:	2a00      	cmp	r2, #0
     8b4:	f300 815e 	bgt.w	b74 <__vsnprintf+0x690>
/home/hsk/Desktop/devel/tee-tpm-hyp/optee_os/lib/libutils/ext/snprintk.c:597
     8b8:	9a0a      	ldr	r2, [sp, #40]	; 0x28
     8ba:	1a80      	subs	r0, r0, r2
/home/hsk/Desktop/devel/tee-tpm-hyp/optee_os/lib/libutils/ext/snprintk.c:599
     8bc:	2230      	movs	r2, #48	; 0x30
/home/hsk/Desktop/devel/tee-tpm-hyp/optee_os/lib/libutils/ext/snprintk.c:598
     8be:	2800      	cmp	r0, #0
     8c0:	f300 8160 	bgt.w	b84 <__vsnprintf+0x6a0>
     8c4:	2200      	movs	r2, #0
/home/hsk/Desktop/devel/tee-tpm-hyp/optee_os/lib/libutils/ext/snprintk.c:602
     8c6:	990a      	ldr	r1, [sp, #40]	; 0x28
     8c8:	428a      	cmp	r2, r1
     8ca:	f040 8163 	bne.w	b94 <__vsnprintf+0x6b0>
/home/hsk/Desktop/devel/tee-tpm-hyp/optee_os/lib/libutils/ext/snprintk.c:605
     8ce:	0772      	lsls	r2, r6, #29
     8d0:	f57f ae19 	bpl.w	506 <__vsnprintf+0x22>
/home/hsk/Desktop/devel/tee-tpm-hyp/optee_os/lib/libutils/ext/snprintk.c:606
     8d4:	9a0d      	ldr	r2, [sp, #52]	; 0x34
     8d6:	1ad3      	subs	r3, r2, r3
/home/hsk/Desktop/devel/tee-tpm-hyp/optee_os/lib/libutils/ext/snprintk.c:608
     8d8:	2220      	movs	r2, #32
/home/hsk/Desktop/devel/tee-tpm-hyp/optee_os/lib/libutils/ext/snprintk.c:607
     8da:	2b00      	cmp	r3, #0
     8dc:	f77f ae13 	ble.w	506 <__vsnprintf+0x22>
/home/hsk/Desktop/devel/tee-tpm-hyp/optee_os/lib/libutils/ext/snprintk.c:608
     8e0:	b127      	cbz	r7, 8ec <__vsnprintf+0x408>
     8e2:	990e      	ldr	r1, [sp, #56]	; 0x38
     8e4:	42b9      	cmp	r1, r7
     8e6:	d901      	bls.n	8ec <__vsnprintf+0x408>
     8e8:	703a      	strb	r2, [r7, #0]
     8ea:	3701      	adds	r7, #1
     8ec:	3b01      	subs	r3, #1
     8ee:	e7f4      	b.n	8da <__vsnprintf+0x3f6>
/home/hsk/Desktop/devel/tee-tpm-hyp/optee_os/lib/libutils/ext/snprintk.c:380
     8f0:	f046 0610 	orr.w	r6, r6, #16
/home/hsk/Desktop/devel/tee-tpm-hyp/optee_os/lib/libutils/ext/snprintk.c:384
     8f4:	0631      	lsls	r1, r6, #24
     8f6:	d517      	bpl.n	928 <__vsnprintf+0x444>
     8f8:	3307      	adds	r3, #7
     8fa:	f023 0307 	bic.w	r3, r3, #7
     8fe:	f103 0b08 	add.w	fp, r3, #8
     902:	e9d3 4500 	ldrd	r4, r5, [r3]
/home/hsk/Desktop/devel/tee-tpm-hyp/optee_os/lib/libutils/ext/snprintk.c:385
     906:	2c00      	cmp	r4, #0
     908:	f175 0300 	sbcs.w	r3, r5, #0
     90c:	da04      	bge.n	918 <__vsnprintf+0x434>
/home/hsk/Desktop/devel/tee-tpm-hyp/optee_os/lib/libutils/ext/snprintk.c:386
     90e:	4264      	negs	r4, r4
/home/hsk/Desktop/devel/tee-tpm-hyp/optee_os/lib/libutils/ext/snprintk.c:387
     910:	f04f 092d 	mov.w	r9, #45	; 0x2d
/home/hsk/Desktop/devel/tee-tpm-hyp/optee_os/lib/libutils/ext/snprintk.c:386
     914:	eb65 0545 	sbc.w	r5, r5, r5, lsl #1
/home/hsk/Desktop/devel/tee-tpm-hyp/optee_os/lib/libutils/ext/snprintk.c:488
     918:	9b0a      	ldr	r3, [sp, #40]	; 0x28
     91a:	3301      	adds	r3, #1
     91c:	f040 80d8 	bne.w	ad0 <__vsnprintf+0x5ec>
/home/hsk/Desktop/devel/tee-tpm-hyp/optee_os/lib/libutils/ext/snprintk.c:508
     920:	f10d 0375 	add.w	r3, sp, #117	; 0x75
     924:	9311      	str	r3, [sp, #68]	; 0x44
     926:	e0eb      	b.n	b00 <__vsnprintf+0x61c>
/home/hsk/Desktop/devel/tee-tpm-hyp/optee_os/lib/libutils/ext/snprintk.c:384
     928:	05f2      	lsls	r2, r6, #23
     92a:	d504      	bpl.n	936 <__vsnprintf+0x452>
     92c:	f103 0b04 	add.w	fp, r3, #4
     930:	681c      	ldr	r4, [r3, #0]
     932:	17e5      	asrs	r5, r4, #31
     934:	e7e7      	b.n	906 <__vsnprintf+0x422>
     936:	05b5      	lsls	r5, r6, #22
     938:	d4f8      	bmi.n	92c <__vsnprintf+0x448>
     93a:	06b4      	lsls	r4, r6, #26
     93c:	d4dc      	bmi.n	8f8 <__vsnprintf+0x414>
     93e:	f103 0b04 	add.w	fp, r3, #4
     942:	06f0      	lsls	r0, r6, #27
     944:	d4f4      	bmi.n	930 <__vsnprintf+0x44c>
     946:	f016 0f40 	tst.w	r6, #64	; 0x40
     94a:	681c      	ldr	r4, [r3, #0]
     94c:	d0f1      	beq.n	932 <__vsnprintf+0x44e>
     94e:	b224      	sxth	r4, r4
     950:	e7ef      	b.n	932 <__vsnprintf+0x44e>
     952:	469b      	mov	fp, r3
/home/hsk/Desktop/devel/tee-tpm-hyp/optee_os/lib/libutils/ext/snprintk.c:392
     954:	0631      	lsls	r1, r6, #24
     956:	f85b 3b04 	ldr.w	r3, [fp], #4
     95a:	d505      	bpl.n	968 <__vsnprintf+0x484>
/home/hsk/Desktop/devel/tee-tpm-hyp/optee_os/lib/libutils/ext/snprintk.c:399
     95c:	9a0c      	ldr	r2, [sp, #48]	; 0x30
     95e:	4610      	mov	r0, r2
     960:	17d1      	asrs	r1, r2, #31
     962:	e9c3 0100 	strd	r0, r1, [r3]
     966:	e5ce      	b.n	506 <__vsnprintf+0x22>
/home/hsk/Desktop/devel/tee-tpm-hyp/optee_os/lib/libutils/ext/snprintk.c:394
     968:	05f2      	lsls	r2, r6, #23
     96a:	d502      	bpl.n	972 <__vsnprintf+0x48e>
/home/hsk/Desktop/devel/tee-tpm-hyp/optee_os/lib/libutils/ext/snprintk.c:405
     96c:	9a0c      	ldr	r2, [sp, #48]	; 0x30
     96e:	601a      	str	r2, [r3, #0]
     970:	e5c9      	b.n	506 <__vsnprintf+0x22>
/home/hsk/Desktop/devel/tee-tpm-hyp/optee_os/lib/libutils/ext/snprintk.c:396
     972:	05b5      	lsls	r5, r6, #22
     974:	d4fa      	bmi.n	96c <__vsnprintf+0x488>
/home/hsk/Desktop/devel/tee-tpm-hyp/optee_os/lib/libutils/ext/snprintk.c:398
     976:	06b4      	lsls	r4, r6, #26
     978:	d4f0      	bmi.n	95c <__vsnprintf+0x478>
/home/hsk/Desktop/devel/tee-tpm-hyp/optee_os/lib/libutils/ext/snprintk.c:400
     97a:	06f0      	lsls	r0, r6, #27
     97c:	d4f6      	bmi.n	96c <__vsnprintf+0x488>
/home/hsk/Desktop/devel/tee-tpm-hyp/optee_os/lib/libutils/ext/snprintk.c:402
     97e:	0671      	lsls	r1, r6, #25
     980:	d5f4      	bpl.n	96c <__vsnprintf+0x488>
/home/hsk/Desktop/devel/tee-tpm-hyp/optee_os/lib/libutils/ext/snprintk.c:403
     982:	9a0c      	ldr	r2, [sp, #48]	; 0x30
     984:	801a      	strh	r2, [r3, #0]
     986:	e5be      	b.n	506 <__vsnprintf+0x22>
/home/hsk/Desktop/devel/tee-tpm-hyp/optee_os/lib/libutils/ext/snprintk.c:411
     988:	05f5      	lsls	r5, r6, #23
     98a:	d503      	bpl.n	994 <__vsnprintf+0x4b0>
     98c:	f103 0b04 	add.w	fp, r3, #4
     990:	681c      	ldr	r4, [r3, #0]
     992:	e00b      	b.n	9ac <__vsnprintf+0x4c8>
     994:	05b4      	lsls	r4, r6, #22
     996:	d4f9      	bmi.n	98c <__vsnprintf+0x4a8>
     998:	06b0      	lsls	r0, r6, #26
     99a:	f53f ae43 	bmi.w	624 <__vsnprintf+0x140>
     99e:	f103 0b04 	add.w	fp, r3, #4
     9a2:	06f1      	lsls	r1, r6, #27
     9a4:	d4f4      	bmi.n	990 <__vsnprintf+0x4ac>
     9a6:	0672      	lsls	r2, r6, #25
     9a8:	d5f2      	bpl.n	990 <__vsnprintf+0x4ac>
     9aa:	881c      	ldrh	r4, [r3, #0]
     9ac:	2500      	movs	r5, #0
     9ae:	e640      	b.n	632 <__vsnprintf+0x14e>
     9b0:	469b      	mov	fp, r3
/home/hsk/Desktop/devel/tee-tpm-hyp/optee_os/lib/libutils/ext/snprintk.c:415
     9b2:	9b13      	ldr	r3, [sp, #76]	; 0x4c
     9b4:	f85b 4b04 	ldr.w	r4, [fp], #4
     9b8:	2b00      	cmp	r3, #0
     9ba:	d02b      	beq.n	a14 <__vsnprintf+0x530>
     9bc:	9b0b      	ldr	r3, [sp, #44]	; 0x2c
     9be:	781b      	ldrb	r3, [r3, #0]
     9c0:	2b55      	cmp	r3, #85	; 0x55
     9c2:	d127      	bne.n	a14 <__vsnprintf+0x530>
     9c4:	9b0b      	ldr	r3, [sp, #44]	; 0x2c
     9c6:	785b      	ldrb	r3, [r3, #1]
     9c8:	2b6c      	cmp	r3, #108	; 0x6c
     9ca:	d123      	bne.n	a14 <__vsnprintf+0x530>
/home/hsk/Desktop/devel/tee-tpm-hyp/optee_os/lib/libutils/ext/snprintk.c:420
     9cc:	9b0b      	ldr	r3, [sp, #44]	; 0x2c
uuid2str():
/home/hsk/Desktop/devel/tee-tpm-hyp/optee_os/lib/libutils/ext/snprintk.c:223
     9ce:	f10d 0a50 	add.w	sl, sp, #80	; 0x50
     9d2:	4a80      	ldr	r2, [pc, #512]	; (bd4 <__vsnprintf+0x6f0>)
     9d4:	2125      	movs	r1, #37	; 0x25
kprintf():
/home/hsk/Desktop/devel/tee-tpm-hyp/optee_os/lib/libutils/ext/snprintk.c:420
     9d6:	3302      	adds	r3, #2
     9d8:	930b      	str	r3, [sp, #44]	; 0x2c
uuid2str():
/home/hsk/Desktop/devel/tee-tpm-hyp/optee_os/lib/libutils/ext/snprintk.c:223
     9da:	7be3      	ldrb	r3, [r4, #15]
     9dc:	447a      	add	r2, pc
     9de:	9309      	str	r3, [sp, #36]	; 0x24
     9e0:	4650      	mov	r0, sl
     9e2:	7ba3      	ldrb	r3, [r4, #14]
     9e4:	9308      	str	r3, [sp, #32]
     9e6:	7b63      	ldrb	r3, [r4, #13]
     9e8:	9307      	str	r3, [sp, #28]
     9ea:	7b23      	ldrb	r3, [r4, #12]
     9ec:	9306      	str	r3, [sp, #24]
     9ee:	7ae3      	ldrb	r3, [r4, #11]
     9f0:	9305      	str	r3, [sp, #20]
     9f2:	7aa3      	ldrb	r3, [r4, #10]
     9f4:	9304      	str	r3, [sp, #16]
     9f6:	7a63      	ldrb	r3, [r4, #9]
     9f8:	9303      	str	r3, [sp, #12]
     9fa:	7a23      	ldrb	r3, [r4, #8]
     9fc:	9302      	str	r3, [sp, #8]
     9fe:	88e3      	ldrh	r3, [r4, #6]
     a00:	9301      	str	r3, [sp, #4]
     a02:	88a3      	ldrh	r3, [r4, #4]
     a04:	9300      	str	r3, [sp, #0]
     a06:	6823      	ldr	r3, [r4, #0]
     a08:	f000 f8f1 	bl	bee <snprintk>
kprintf():
/home/hsk/Desktop/devel/tee-tpm-hyp/optee_os/lib/libutils/ext/snprintk.c:460
     a0c:	900a      	str	r0, [sp, #40]	; 0x28
/home/hsk/Desktop/devel/tee-tpm-hyp/optee_os/lib/libutils/ext/snprintk.c:285
     a0e:	2000      	movs	r0, #0
/home/hsk/Desktop/devel/tee-tpm-hyp/optee_os/lib/libutils/ext/snprintk.c:461
     a10:	4681      	mov	r9, r0
     a12:	e725      	b.n	860 <__vsnprintf+0x37c>
/home/hsk/Desktop/devel/tee-tpm-hyp/optee_os/lib/libutils/ext/snprintk.c:437
     a14:	4b70      	ldr	r3, [pc, #448]	; (bd8 <__vsnprintf+0x6f4>)
/home/hsk/Desktop/devel/tee-tpm-hyp/optee_os/lib/libutils/ext/snprintk.c:435
     a16:	2500      	movs	r5, #0
/home/hsk/Desktop/devel/tee-tpm-hyp/optee_os/lib/libutils/ext/snprintk.c:438
     a18:	f046 0602 	orr.w	r6, r6, #2
/home/hsk/Desktop/devel/tee-tpm-hyp/optee_os/lib/libutils/ext/snprintk.c:439
     a1c:	f04f 0878 	mov.w	r8, #120	; 0x78
/home/hsk/Desktop/devel/tee-tpm-hyp/optee_os/lib/libutils/ext/snprintk.c:437
     a20:	447b      	add	r3, pc
     a22:	3311      	adds	r3, #17
     a24:	930f      	str	r3, [sp, #60]	; 0x3c
/home/hsk/Desktop/devel/tee-tpm-hyp/optee_os/lib/libutils/ext/snprintk.c:488
     a26:	9b0a      	ldr	r3, [sp, #40]	; 0x28
     a28:	3301      	adds	r3, #1
     a2a:	f47f ae8c 	bne.w	746 <__vsnprintf+0x262>
     a2e:	f04f 0900 	mov.w	r9, #0
/home/hsk/Desktop/devel/tee-tpm-hyp/optee_os/lib/libutils/ext/snprintk.c:523
     a32:	f10d 0a75 	add.w	sl, sp, #117	; 0x75
/home/hsk/Desktop/devel/tee-tpm-hyp/optee_os/lib/libutils/ext/snprintk.c:525
     a36:	f004 030f 	and.w	r3, r4, #15
     a3a:	9a0f      	ldr	r2, [sp, #60]	; 0x3c
     a3c:	5cd3      	ldrb	r3, [r2, r3]
/home/hsk/Desktop/devel/tee-tpm-hyp/optee_os/lib/libutils/ext/snprintk.c:526
     a3e:	092a      	lsrs	r2, r5, #4
/home/hsk/Desktop/devel/tee-tpm-hyp/optee_os/lib/libutils/ext/snprintk.c:525
     a40:	f80a 3d01 	strb.w	r3, [sl, #-1]!
/home/hsk/Desktop/devel/tee-tpm-hyp/optee_os/lib/libutils/ext/snprintk.c:526
     a44:	0923      	lsrs	r3, r4, #4
     a46:	ea43 7305 	orr.w	r3, r3, r5, lsl #28
     a4a:	4615      	mov	r5, r2
     a4c:	461c      	mov	r4, r3
/home/hsk/Desktop/devel/tee-tpm-hyp/optee_os/lib/libutils/ext/snprintk.c:527
     a4e:	ea54 0305 	orrs.w	r3, r4, r5
     a52:	d1f0      	bne.n	a36 <__vsnprintf+0x552>
     a54:	e6a7      	b.n	7a6 <__vsnprintf+0x2c2>
/home/hsk/Desktop/devel/tee-tpm-hyp/optee_os/lib/libutils/ext/snprintk.c:460
     a56:	4650      	mov	r0, sl
     a58:	f006 ff75 	bl	7946 <strlen>
     a5c:	e7d6      	b.n	a0c <__vsnprintf+0x528>
/home/hsk/Desktop/devel/tee-tpm-hyp/optee_os/lib/libutils/ext/snprintk.c:464
     a5e:	f046 0610 	orr.w	r6, r6, #16
     a62:	e647      	b.n	6f4 <__vsnprintf+0x210>
/home/hsk/Desktop/devel/tee-tpm-hyp/optee_os/lib/libutils/ext/snprintk.c:467
     a64:	f416 7980 	ands.w	r9, r6, #256	; 0x100
     a68:	d004      	beq.n	a74 <__vsnprintf+0x590>
     a6a:	681c      	ldr	r4, [r3, #0]
     a6c:	f103 0b04 	add.w	fp, r3, #4
     a70:	2500      	movs	r5, #0
     a72:	e64a      	b.n	70a <__vsnprintf+0x226>
     a74:	f416 7200 	ands.w	r2, r6, #512	; 0x200
     a78:	d004      	beq.n	a84 <__vsnprintf+0x5a0>
     a7a:	f103 0b04 	add.w	fp, r3, #4
     a7e:	681c      	ldr	r4, [r3, #0]
     a80:	2500      	movs	r5, #0
     a82:	e749      	b.n	918 <__vsnprintf+0x434>
     a84:	f016 0920 	ands.w	r9, r6, #32
     a88:	f47f ae38 	bne.w	6fc <__vsnprintf+0x218>
     a8c:	f103 0b04 	add.w	fp, r3, #4
     a90:	f016 0210 	ands.w	r2, r6, #16
     a94:	d1f3      	bne.n	a7e <__vsnprintf+0x59a>
     a96:	f016 0940 	ands.w	r9, r6, #64	; 0x40
     a9a:	d0f0      	beq.n	a7e <__vsnprintf+0x59a>
     a9c:	881c      	ldrh	r4, [r3, #0]
     a9e:	e7e7      	b.n	a70 <__vsnprintf+0x58c>
/home/hsk/Desktop/devel/tee-tpm-hyp/optee_os/lib/libutils/ext/snprintk.c:474
     aa0:	4a4e      	ldr	r2, [pc, #312]	; (bdc <__vsnprintf+0x6f8>)
     aa2:	447a      	add	r2, pc
     aa4:	3211      	adds	r2, #17
     aa6:	e636      	b.n	716 <__vsnprintf+0x232>
/home/hsk/Desktop/devel/tee-tpm-hyp/optee_os/lib/libutils/ext/snprintk.c:475
     aa8:	05f0      	lsls	r0, r6, #23
     aaa:	d503      	bpl.n	ab4 <__vsnprintf+0x5d0>
     aac:	f103 0b04 	add.w	fp, r3, #4
     ab0:	681c      	ldr	r4, [r3, #0]
     ab2:	e00b      	b.n	acc <__vsnprintf+0x5e8>
     ab4:	05b1      	lsls	r1, r6, #22
     ab6:	d4f9      	bmi.n	aac <__vsnprintf+0x5c8>
     ab8:	06b2      	lsls	r2, r6, #26
     aba:	f53f ae30 	bmi.w	71e <__vsnprintf+0x23a>
     abe:	f103 0b04 	add.w	fp, r3, #4
     ac2:	06f5      	lsls	r5, r6, #27
     ac4:	d4f4      	bmi.n	ab0 <__vsnprintf+0x5cc>
     ac6:	0674      	lsls	r4, r6, #25
     ac8:	d5f2      	bpl.n	ab0 <__vsnprintf+0x5cc>
     aca:	881c      	ldrh	r4, [r3, #0]
     acc:	2500      	movs	r5, #0
     ace:	e62d      	b.n	72c <__vsnprintf+0x248>
/home/hsk/Desktop/devel/tee-tpm-hyp/optee_os/lib/libutils/ext/snprintk.c:488
     ad0:	2301      	movs	r3, #1
     ad2:	e63b      	b.n	74c <__vsnprintf+0x268>
/home/hsk/Desktop/devel/tee-tpm-hyp/optee_os/lib/libutils/ext/snprintk.c:508
     ad4:	4653      	mov	r3, sl
     ad6:	e64c      	b.n	772 <__vsnprintf+0x28e>
/home/hsk/Desktop/devel/tee-tpm-hyp/optee_os/lib/libutils/ext/snprintk.c:517
     ad8:	4620      	mov	r0, r4
     ada:	4629      	mov	r1, r5
     adc:	220a      	movs	r2, #10
     ade:	2300      	movs	r3, #0
     ae0:	f000 e89e 	blx	c20 <__aeabi_uldivmod>
     ae4:	9b11      	ldr	r3, [sp, #68]	; 0x44
     ae6:	3230      	adds	r2, #48	; 0x30
/home/hsk/Desktop/devel/tee-tpm-hyp/optee_os/lib/libutils/ext/snprintk.c:518
     ae8:	4620      	mov	r0, r4
     aea:	4629      	mov	r1, r5
/home/hsk/Desktop/devel/tee-tpm-hyp/optee_os/lib/libutils/ext/snprintk.c:517
     aec:	f803 2c01 	strb.w	r2, [r3, #-1]
/home/hsk/Desktop/devel/tee-tpm-hyp/optee_os/lib/libutils/ext/snprintk.c:518
     af0:	220a      	movs	r2, #10
     af2:	2300      	movs	r3, #0
     af4:	f000 e894 	blx	c20 <__aeabi_uldivmod>
     af8:	4604      	mov	r4, r0
     afa:	460d      	mov	r5, r1
     afc:	f8cd a044 	str.w	sl, [sp, #68]	; 0x44
     b00:	9b11      	ldr	r3, [sp, #68]	; 0x44
/home/hsk/Desktop/devel/tee-tpm-hyp/optee_os/lib/libutils/ext/snprintk.c:516
     b02:	2d00      	cmp	r5, #0
     b04:	bf08      	it	eq
     b06:	2c0a      	cmpeq	r4, #10
     b08:	f103 3aff 	add.w	sl, r3, #4294967295	; 0xffffffff
     b0c:	d2e4      	bcs.n	ad8 <__vsnprintf+0x5f4>
/home/hsk/Desktop/devel/tee-tpm-hyp/optee_os/lib/libutils/ext/snprintk.c:520
     b0e:	3430      	adds	r4, #48	; 0x30
     b10:	f803 4c01 	strb.w	r4, [r3, #-1]
     b14:	e647      	b.n	7a6 <__vsnprintf+0x2c2>
/home/hsk/Desktop/devel/tee-tpm-hyp/optee_os/lib/libutils/ext/snprintk.c:496
     b16:	f10d 0a75 	add.w	sl, sp, #117	; 0x75
     b1a:	e644      	b.n	7a6 <__vsnprintf+0x2c2>
/home/hsk/Desktop/devel/tee-tpm-hyp/optee_os/lib/libutils/ext/snprintk.c:568
     b1c:	07b5      	lsls	r5, r6, #30
/home/hsk/Desktop/devel/tee-tpm-hyp/optee_os/lib/libutils/ext/snprintk.c:569
     b1e:	bf48      	it	mi
     b20:	3302      	addmi	r3, #2
     b22:	e6a6      	b.n	872 <__vsnprintf+0x38e>
/home/hsk/Desktop/devel/tee-tpm-hyp/optee_os/lib/libutils/ext/snprintk.c:578
     b24:	b127      	cbz	r7, b30 <__vsnprintf+0x64c>
     b26:	9d0e      	ldr	r5, [sp, #56]	; 0x38
     b28:	42bd      	cmp	r5, r7
     b2a:	d901      	bls.n	b30 <__vsnprintf+0x64c>
     b2c:	703c      	strb	r4, [r7, #0]
     b2e:	3701      	adds	r7, #1
     b30:	3a01      	subs	r2, #1
     b32:	e6ad      	b.n	890 <__vsnprintf+0x3ac>
/home/hsk/Desktop/devel/tee-tpm-hyp/optee_os/lib/libutils/ext/snprintk.c:583
     b34:	9a0e      	ldr	r2, [sp, #56]	; 0x38
     b36:	42ba      	cmp	r2, r7
     b38:	f67f aeb5 	bls.w	8a6 <__vsnprintf+0x3c2>
     b3c:	f887 9000 	strb.w	r9, [r7]
     b40:	3701      	adds	r7, #1
     b42:	e6b0      	b.n	8a6 <__vsnprintf+0x3c2>
/home/hsk/Desktop/devel/tee-tpm-hyp/optee_os/lib/libutils/ext/snprintk.c:584
     b44:	07b4      	lsls	r4, r6, #30
     b46:	f57f aeae 	bpl.w	8a6 <__vsnprintf+0x3c2>
/home/hsk/Desktop/devel/tee-tpm-hyp/optee_os/lib/libutils/ext/snprintk.c:585
     b4a:	2f00      	cmp	r7, #0
     b4c:	f43f aeaa 	beq.w	8a4 <__vsnprintf+0x3c0>
     b50:	9a0e      	ldr	r2, [sp, #56]	; 0x38
     b52:	42ba      	cmp	r2, r7
     b54:	f67f aea7 	bls.w	8a6 <__vsnprintf+0x3c2>
     b58:	2230      	movs	r2, #48	; 0x30
     b5a:	703a      	strb	r2, [r7, #0]
/home/hsk/Desktop/devel/tee-tpm-hyp/optee_os/lib/libutils/ext/snprintk.c:586
     b5c:	1c7a      	adds	r2, r7, #1
     b5e:	f43f aea1 	beq.w	8a4 <__vsnprintf+0x3c0>
     b62:	9c0e      	ldr	r4, [sp, #56]	; 0x38
     b64:	4294      	cmp	r4, r2
     b66:	d903      	bls.n	b70 <__vsnprintf+0x68c>
     b68:	f887 8001 	strb.w	r8, [r7, #1]
     b6c:	3702      	adds	r7, #2
     b6e:	e69a      	b.n	8a6 <__vsnprintf+0x3c2>
     b70:	4617      	mov	r7, r2
     b72:	e698      	b.n	8a6 <__vsnprintf+0x3c2>
/home/hsk/Desktop/devel/tee-tpm-hyp/optee_os/lib/libutils/ext/snprintk.c:593
     b74:	b127      	cbz	r7, b80 <__vsnprintf+0x69c>
     b76:	9c0e      	ldr	r4, [sp, #56]	; 0x38
     b78:	42bc      	cmp	r4, r7
     b7a:	d901      	bls.n	b80 <__vsnprintf+0x69c>
     b7c:	7039      	strb	r1, [r7, #0]
     b7e:	3701      	adds	r7, #1
     b80:	3a01      	subs	r2, #1
     b82:	e696      	b.n	8b2 <__vsnprintf+0x3ce>
/home/hsk/Desktop/devel/tee-tpm-hyp/optee_os/lib/libutils/ext/snprintk.c:599
     b84:	b127      	cbz	r7, b90 <__vsnprintf+0x6ac>
     b86:	990e      	ldr	r1, [sp, #56]	; 0x38
     b88:	42b9      	cmp	r1, r7
     b8a:	d901      	bls.n	b90 <__vsnprintf+0x6ac>
     b8c:	703a      	strb	r2, [r7, #0]
     b8e:	3701      	adds	r7, #1
     b90:	3801      	subs	r0, #1
     b92:	e694      	b.n	8be <__vsnprintf+0x3da>
/home/hsk/Desktop/devel/tee-tpm-hyp/optee_os/lib/libutils/ext/snprintk.c:603
     b94:	b13f      	cbz	r7, ba6 <__vsnprintf+0x6c2>
     b96:	990e      	ldr	r1, [sp, #56]	; 0x38
     b98:	42b9      	cmp	r1, r7
     b9a:	d904      	bls.n	ba6 <__vsnprintf+0x6c2>
     b9c:	f81a 1002 	ldrb.w	r1, [sl, r2]
     ba0:	3701      	adds	r7, #1
     ba2:	f807 1c01 	strb.w	r1, [r7, #-1]
     ba6:	3201      	adds	r2, #1
     ba8:	e68d      	b.n	8c6 <__vsnprintf+0x3e2>
__vsnprintf():
/home/hsk/Desktop/devel/tee-tpm-hyp/optee_os/lib/libutils/ext/snprintk.c:148
     baa:	990c      	ldr	r1, [sp, #48]	; 0x30
     bac:	5453      	strb	r3, [r2, r1]
/home/hsk/Desktop/devel/tee-tpm-hyp/optee_os/lib/libutils/ext/snprintk.c:150
     bae:	e4bf      	b.n	530 <__vsnprintf+0x4c>
kprintf():
/home/hsk/Desktop/devel/tee-tpm-hyp/optee_os/lib/libutils/ext/snprintk.c:489
     bb0:	f426 6680 	bic.w	r6, r6, #1024	; 0x400
/home/hsk/Desktop/devel/tee-tpm-hyp/optee_os/lib/libutils/ext/snprintk.c:482
     bb4:	f04f 0900 	mov.w	r9, #0
/home/hsk/Desktop/devel/tee-tpm-hyp/optee_os/lib/libutils/ext/snprintk.c:476
     bb8:	2302      	movs	r3, #2
     bba:	e5cc      	b.n	756 <__vsnprintf+0x272>
/home/hsk/Desktop/devel/tee-tpm-hyp/optee_os/lib/libutils/ext/snprintk.c:488
     bbc:	9b0a      	ldr	r3, [sp, #40]	; 0x28
     bbe:	3301      	adds	r3, #1
     bc0:	d1f6      	bne.n	bb0 <__vsnprintf+0x6cc>
     bc2:	f04f 33ff 	mov.w	r3, #4294967295	; 0xffffffff
     bc6:	930a      	str	r3, [sp, #40]	; 0x28
     bc8:	e731      	b.n	a2e <__vsnprintf+0x54a>
     bca:	bf00      	nop
     bcc:	00007a6d 	.word	0x00007a6d
     bd0:	000079e9 	.word	0x000079e9
     bd4:	0000774a 	.word	0x0000774a
     bd8:	000076dd 	.word	0x000076dd
     bdc:	0000765b 	.word	0x0000765b

00000be0 <vsnprintk>:
vsnprintk():
/home/hsk/Desktop/devel/tee-tpm-hyp/optee_os/lib/libutils/ext/snprintk.c:129
     be0:	b513      	push	{r0, r1, r4, lr}
/home/hsk/Desktop/devel/tee-tpm-hyp/optee_os/lib/libutils/ext/snprintk.c:130
     be2:	2401      	movs	r4, #1
     be4:	9400      	str	r4, [sp, #0]
     be6:	f7ff fc7d 	bl	4e4 <__vsnprintf>
/home/hsk/Desktop/devel/tee-tpm-hyp/optee_os/lib/libutils/ext/snprintk.c:131
     bea:	b002      	add	sp, #8
     bec:	bd10      	pop	{r4, pc}

00000bee <snprintk>:
snprintk():
/home/hsk/Desktop/devel/tee-tpm-hyp/optee_os/lib/libutils/ext/snprintk.c:112
     bee:	b40c      	push	{r2, r3}
     bf0:	b507      	push	{r0, r1, r2, lr}
     bf2:	ab04      	add	r3, sp, #16
     bf4:	f853 2b04 	ldr.w	r2, [r3], #4
/home/hsk/Desktop/devel/tee-tpm-hyp/optee_os/lib/libutils/ext/snprintk.c:116
     bf8:	9301      	str	r3, [sp, #4]
/home/hsk/Desktop/devel/tee-tpm-hyp/optee_os/lib/libutils/ext/snprintk.c:117
     bfa:	f7ff fff1 	bl	be0 <vsnprintk>
/home/hsk/Desktop/devel/tee-tpm-hyp/optee_os/lib/libutils/ext/snprintk.c:121
     bfe:	b003      	add	sp, #12
     c00:	f85d eb04 	ldr.w	lr, [sp], #4
     c04:	b002      	add	sp, #8
     c06:	4770      	bx	lr

00000c08 <__aeabi_ldivmod>:
__aeabi_ldivmod():
/home/hsk/Desktop/devel/tee-tpm-hyp/optee_os/lib/libutils/isoc/arch/arm/arm32_aeabi_ldivmod_a32.S:24
     c08:	e92d5000 	push	{ip, lr}
/home/hsk/Desktop/devel/tee-tpm-hyp/optee_os/lib/libutils/isoc/arch/arm/arm32_aeabi_ldivmod_a32.S:26
     c0c:	e92d000f 	push	{r0, r1, r2, r3}
/home/hsk/Desktop/devel/tee-tpm-hyp/optee_os/lib/libutils/isoc/arch/arm/arm32_aeabi_ldivmod_a32.S:28
     c10:	e1a0000d 	mov	r0, sp
/home/hsk/Desktop/devel/tee-tpm-hyp/optee_os/lib/libutils/isoc/arch/arm/arm32_aeabi_ldivmod_a32.S:29
     c14:	fa001b6c 	blx	79cc <__l_divmod>
/home/hsk/Desktop/devel/tee-tpm-hyp/optee_os/lib/libutils/isoc/arch/arm/arm32_aeabi_ldivmod_a32.S:30
     c18:	e8bd000f 	pop	{r0, r1, r2, r3}
/home/hsk/Desktop/devel/tee-tpm-hyp/optee_os/lib/libutils/isoc/arch/arm/arm32_aeabi_ldivmod_a32.S:31
     c1c:	e8bd9000 	pop	{ip, pc}

00000c20 <__aeabi_uldivmod>:
__aeabi_uldivmod():
/home/hsk/Desktop/devel/tee-tpm-hyp/optee_os/lib/libutils/isoc/arch/arm/arm32_aeabi_ldivmod_a32.S:42
     c20:	e92d5000 	push	{ip, lr}
/home/hsk/Desktop/devel/tee-tpm-hyp/optee_os/lib/libutils/isoc/arch/arm/arm32_aeabi_ldivmod_a32.S:44
     c24:	e92d000f 	push	{r0, r1, r2, r3}
/home/hsk/Desktop/devel/tee-tpm-hyp/optee_os/lib/libutils/isoc/arch/arm/arm32_aeabi_ldivmod_a32.S:46
     c28:	e1a0000d 	mov	r0, sp
/home/hsk/Desktop/devel/tee-tpm-hyp/optee_os/lib/libutils/isoc/arch/arm/arm32_aeabi_ldivmod_a32.S:47
     c2c:	fb001b48 	blx	7956 <__ul_divmod>
/home/hsk/Desktop/devel/tee-tpm-hyp/optee_os/lib/libutils/isoc/arch/arm/arm32_aeabi_ldivmod_a32.S:48
     c30:	e8bd000f 	pop	{r0, r1, r2, r3}
/home/hsk/Desktop/devel/tee-tpm-hyp/optee_os/lib/libutils/isoc/arch/arm/arm32_aeabi_ldivmod_a32.S:49
     c34:	e8bd9000 	pop	{ip, pc}

00000c38 <trace_ext_puts>:
trace_ext_puts():
/home/hsk/Desktop/devel/tee-tpm-hyp/optee_os/lib/libutee/trace_ext.c:17
     c38:	b510      	push	{r4, lr}
     c3a:	4604      	mov	r4, r0
/home/hsk/Desktop/devel/tee-tpm-hyp/optee_os/lib/libutee/trace_ext.c:18
     c3c:	f006 fe83 	bl	7946 <strlen>
     c40:	4601      	mov	r1, r0
     c42:	4620      	mov	r0, r4
/home/hsk/Desktop/devel/tee-tpm-hyp/optee_os/lib/libutee/trace_ext.c:19
     c44:	e8bd 4010 	ldmia.w	sp!, {r4, lr}
/home/hsk/Desktop/devel/tee-tpm-hyp/optee_os/lib/libutee/trace_ext.c:18
     c48:	f006 bf9e 	b.w	7b88 <__utee_log_from_thumb>

00000c4c <trace_ext_get_thread_id>:
trace_ext_get_thread_id():
/home/hsk/Desktop/devel/tee-tpm-hyp/optee_os/lib/libutee/trace_ext.c:24
     c4c:	f04f 30ff 	mov.w	r0, #4294967295	; 0xffffffff
     c50:	4770      	bx	lr

00000c52 <printf>:
printf():
/home/hsk/Desktop/devel/tee-tpm-hyp/optee_os/lib/libutee/trace_ext.c:32
     c52:	b40f      	push	{r0, r1, r2, r3}
     c54:	b530      	push	{r4, r5, lr}
     c56:	b0c3      	sub	sp, #268	; 0x10c
/home/hsk/Desktop/devel/tee-tpm-hyp/optee_os/lib/libutee/trace_ext.c:37
     c58:	f7ff fb20 	bl	29c <trace_get_level>
     c5c:	2800      	cmp	r0, #0
     c5e:	dd13      	ble.n	c88 <printf+0x36>
/home/hsk/Desktop/devel/tee-tpm-hyp/optee_os/lib/libutee/trace_ext.c:41
     c60:	ad02      	add	r5, sp, #8
/home/hsk/Desktop/devel/tee-tpm-hyp/optee_os/lib/libutee/trace_ext.c:40
     c62:	ab47      	add	r3, sp, #284	; 0x11c
/home/hsk/Desktop/devel/tee-tpm-hyp/optee_os/lib/libutee/trace_ext.c:41
     c64:	9a46      	ldr	r2, [sp, #280]	; 0x118
     c66:	f44f 7180 	mov.w	r1, #256	; 0x100
     c6a:	4628      	mov	r0, r5
/home/hsk/Desktop/devel/tee-tpm-hyp/optee_os/lib/libutee/trace_ext.c:40
     c6c:	9301      	str	r3, [sp, #4]
/home/hsk/Desktop/devel/tee-tpm-hyp/optee_os/lib/libutee/trace_ext.c:41
     c6e:	f006 ff32 	bl	7ad6 <vsnprintf>
/home/hsk/Desktop/devel/tee-tpm-hyp/optee_os/lib/libutee/trace_ext.c:44
     c72:	1e04      	subs	r4, r0, #0
     c74:	db02      	blt.n	c7c <printf+0x2a>
/home/hsk/Desktop/devel/tee-tpm-hyp/optee_os/lib/libutee/trace_ext.c:47
     c76:	4628      	mov	r0, r5
     c78:	f7ff ffde 	bl	c38 <trace_ext_puts>
/home/hsk/Desktop/devel/tee-tpm-hyp/optee_os/lib/libutee/trace_ext.c:50
     c7c:	4620      	mov	r0, r4
     c7e:	b043      	add	sp, #268	; 0x10c
     c80:	e8bd 4030 	ldmia.w	sp!, {r4, r5, lr}
     c84:	b004      	add	sp, #16
     c86:	4770      	bx	lr
/home/hsk/Desktop/devel/tee-tpm-hyp/optee_os/lib/libutee/trace_ext.c:38
     c88:	2400      	movs	r4, #0
     c8a:	e7f7      	b.n	c7c <printf+0x2a>

00000c8c <puts>:
puts():
/home/hsk/Desktop/devel/tee-tpm-hyp/optee_os/lib/libutee/trace_ext.c:53
     c8c:	b510      	push	{r4, lr}
     c8e:	4604      	mov	r4, r0
/home/hsk/Desktop/devel/tee-tpm-hyp/optee_os/lib/libutee/trace_ext.c:54
     c90:	f7ff fb04 	bl	29c <trace_get_level>
     c94:	2800      	cmp	r0, #0
     c96:	dd06      	ble.n	ca6 <puts+0x1a>
/home/hsk/Desktop/devel/tee-tpm-hyp/optee_os/lib/libutee/trace_ext.c:55
     c98:	4620      	mov	r0, r4
     c9a:	f7ff ffcd 	bl	c38 <trace_ext_puts>
/home/hsk/Desktop/devel/tee-tpm-hyp/optee_os/lib/libutee/trace_ext.c:56
     c9e:	4803      	ldr	r0, [pc, #12]	; (cac <puts+0x20>)
     ca0:	4478      	add	r0, pc
     ca2:	f7ff ffc9 	bl	c38 <trace_ext_puts>
/home/hsk/Desktop/devel/tee-tpm-hyp/optee_os/lib/libutee/trace_ext.c:59
     ca6:	2001      	movs	r0, #1
     ca8:	bd10      	pop	{r4, pc}
     caa:	bf00      	nop
     cac:	00007b48 	.word	0x00007b48

00000cb0 <putchar>:
putchar():
/home/hsk/Desktop/devel/tee-tpm-hyp/optee_os/lib/libutee/trace_ext.c:62
     cb0:	b513      	push	{r0, r1, r4, lr}
/home/hsk/Desktop/devel/tee-tpm-hyp/optee_os/lib/libutee/trace_ext.c:63
     cb2:	2300      	movs	r3, #0
/home/hsk/Desktop/devel/tee-tpm-hyp/optee_os/lib/libutee/trace_ext.c:62
     cb4:	4604      	mov	r4, r0
/home/hsk/Desktop/devel/tee-tpm-hyp/optee_os/lib/libutee/trace_ext.c:63
     cb6:	f88d 0004 	strb.w	r0, [sp, #4]
     cba:	f88d 3005 	strb.w	r3, [sp, #5]
/home/hsk/Desktop/devel/tee-tpm-hyp/optee_os/lib/libutee/trace_ext.c:65
     cbe:	f7ff faed 	bl	29c <trace_get_level>
     cc2:	2800      	cmp	r0, #0
     cc4:	dd02      	ble.n	ccc <putchar+0x1c>
/home/hsk/Desktop/devel/tee-tpm-hyp/optee_os/lib/libutee/trace_ext.c:66
     cc6:	a801      	add	r0, sp, #4
     cc8:	f7ff ffb6 	bl	c38 <trace_ext_puts>
/home/hsk/Desktop/devel/tee-tpm-hyp/optee_os/lib/libutee/trace_ext.c:73
     ccc:	b2e0      	uxtb	r0, r4
     cce:	b002      	add	sp, #8
     cd0:	bd10      	pop	{r4, pc}
     cd2:	bf00      	nop

00000cd4 <__utee_from_param>:
__utee_from_param():
/home/hsk/Desktop/devel/tee-tpm-hyp/optee_os/lib/libutee/tee_api.c:23
     cd4:	2300      	movs	r3, #0
/home/hsk/Desktop/devel/tee-tpm-hyp/optee_os/lib/libutee/tee_api.c:20
     cd6:	b5f0      	push	{r4, r5, r6, r7, lr}
/home/hsk/Desktop/devel/tee-tpm-hyp/optee_os/lib/libutee/tee_api.c:39
     cd8:	2600      	movs	r6, #0
     cda:	2700      	movs	r7, #0
/home/hsk/Desktop/devel/tee-tpm-hyp/optee_os/lib/libutee/tee_api.c:35
     cdc:	461d      	mov	r5, r3
/home/hsk/Desktop/devel/tee-tpm-hyp/optee_os/lib/libutee/tee_api.c:23
     cde:	e9c0 1300 	strd	r1, r3, [r0]
/home/hsk/Desktop/devel/tee-tpm-hyp/optee_os/lib/libutee/tee_api.c:25
     ce2:	fa21 f403 	lsr.w	r4, r1, r3
     ce6:	f004 040f 	and.w	r4, r4, #15
     cea:	3c01      	subs	r4, #1
     cec:	2c06      	cmp	r4, #6
     cee:	d813      	bhi.n	d18 <__utee_from_param+0x44>
     cf0:	e8df f004 	tbb	[pc, r4]
     cf4:	12040404 	.word	0x12040404
     cf8:	0404      	.short	0x0404
     cfa:	04          	.byte	0x04
     cfb:	00          	.byte	0x00
/home/hsk/Desktop/devel/tee-tpm-hyp/optee_os/lib/libutee/tee_api.c:35
     cfc:	f852 4013 	ldr.w	r4, [r2, r3, lsl #1]
     d00:	e9c0 4502 	strd	r4, r5, [r0, #8]
/home/hsk/Desktop/devel/tee-tpm-hyp/optee_os/lib/libutee/tee_api.c:36
     d04:	eb02 0443 	add.w	r4, r2, r3, lsl #1
     d08:	6864      	ldr	r4, [r4, #4]
     d0a:	e9c0 4504 	strd	r4, r5, [r0, #16]
     d0e:	3304      	adds	r3, #4
     d10:	3010      	adds	r0, #16
/home/hsk/Desktop/devel/tee-tpm-hyp/optee_os/lib/libutee/tee_api.c:24 (discriminator 2)
     d12:	2b10      	cmp	r3, #16
     d14:	d1e5      	bne.n	ce2 <__utee_from_param+0xe>
/home/hsk/Desktop/devel/tee-tpm-hyp/optee_os/lib/libutee/tee_api.c:44
     d16:	bdf0      	pop	{r4, r5, r6, r7, pc}
/home/hsk/Desktop/devel/tee-tpm-hyp/optee_os/lib/libutee/tee_api.c:39
     d18:	e9c0 6702 	strd	r6, r7, [r0, #8]
/home/hsk/Desktop/devel/tee-tpm-hyp/optee_os/lib/libutee/tee_api.c:40
     d1c:	e9c0 6704 	strd	r6, r7, [r0, #16]
/home/hsk/Desktop/devel/tee-tpm-hyp/optee_os/lib/libutee/tee_api.c:41
     d20:	e7f5      	b.n	d0e <__utee_from_param+0x3a>

00000d22 <__utee_to_param>:
__utee_to_param():
/home/hsk/Desktop/devel/tee-tpm-hyp/optee_os/lib/libutee/tee_api.c:48
     d22:	b5f0      	push	{r4, r5, r6, r7, lr}
/home/hsk/Desktop/devel/tee-tpm-hyp/optee_os/lib/libutee/tee_api.c:50
     d24:	2300      	movs	r3, #0
     d26:	6815      	ldr	r5, [r2, #0]
/home/hsk/Desktop/devel/tee-tpm-hyp/optee_os/lib/libutee/tee_api.c:56
     d28:	fa25 f403 	lsr.w	r4, r5, r3
/home/hsk/Desktop/devel/tee-tpm-hyp/optee_os/lib/libutee/tee_api.c:53
     d2c:	6897      	ldr	r7, [r2, #8]
/home/hsk/Desktop/devel/tee-tpm-hyp/optee_os/lib/libutee/tee_api.c:56
     d2e:	f004 040f 	and.w	r4, r4, #15
/home/hsk/Desktop/devel/tee-tpm-hyp/optee_os/lib/libutee/tee_api.c:54
     d32:	6916      	ldr	r6, [r2, #16]
/home/hsk/Desktop/devel/tee-tpm-hyp/optee_os/lib/libutee/tee_api.c:56
     d34:	3c01      	subs	r4, #1
     d36:	2c06      	cmp	r4, #6
     d38:	d80a      	bhi.n	d50 <__utee_to_param+0x2e>
     d3a:	e8df f004 	tbb	[pc, r4]
     d3e:	0404      	.short	0x0404
     d40:	04040904 	.word	0x04040904
     d44:	04          	.byte	0x04
     d45:	00          	.byte	0x00
/home/hsk/Desktop/devel/tee-tpm-hyp/optee_os/lib/libutee/tee_api.c:67
     d46:	eb00 0443 	add.w	r4, r0, r3, lsl #1
/home/hsk/Desktop/devel/tee-tpm-hyp/optee_os/lib/libutee/tee_api.c:66
     d4a:	f840 7013 	str.w	r7, [r0, r3, lsl #1]
/home/hsk/Desktop/devel/tee-tpm-hyp/optee_os/lib/libutee/tee_api.c:67
     d4e:	6066      	str	r6, [r4, #4]
     d50:	3304      	adds	r3, #4
     d52:	3210      	adds	r2, #16
/home/hsk/Desktop/devel/tee-tpm-hyp/optee_os/lib/libutee/tee_api.c:52 (discriminator 2)
     d54:	2b10      	cmp	r3, #16
     d56:	d1e7      	bne.n	d28 <__utee_to_param+0x6>
/home/hsk/Desktop/devel/tee-tpm-hyp/optee_os/lib/libutee/tee_api.c:74
     d58:	b101      	cbz	r1, d5c <__utee_to_param+0x3a>
/home/hsk/Desktop/devel/tee-tpm-hyp/optee_os/lib/libutee/tee_api.c:75
     d5a:	600d      	str	r5, [r1, #0]
/home/hsk/Desktop/devel/tee-tpm-hyp/optee_os/lib/libutee/tee_api.c:76
     d5c:	bdf0      	pop	{r4, r5, r6, r7, pc}

00000d5e <TEE_OpenTASession>:
TEE_OpenTASession():
/home/hsk/Desktop/devel/tee-tpm-hyp/optee_os/lib/libutee/tee_api.c:84
     d5e:	b5f0      	push	{r4, r5, r6, r7, lr}
     d60:	4605      	mov	r5, r0
     d62:	460f      	mov	r7, r1
     d64:	b097      	sub	sp, #92	; 0x5c
     d66:	4611      	mov	r1, r2
/home/hsk/Desktop/devel/tee-tpm-hyp/optee_os/lib/libutee/tee_api.c:89
     d68:	ac04      	add	r4, sp, #16
     d6a:	461a      	mov	r2, r3
     d6c:	4620      	mov	r0, r4
/home/hsk/Desktop/devel/tee-tpm-hyp/optee_os/lib/libutee/tee_api.c:84
     d6e:	461e      	mov	r6, r3
/home/hsk/Desktop/devel/tee-tpm-hyp/optee_os/lib/libutee/tee_api.c:89
     d70:	f7ff ffb0 	bl	cd4 <__utee_from_param>
/home/hsk/Desktop/devel/tee-tpm-hyp/optee_os/lib/libutee/tee_api.c:90
     d74:	9b1d      	ldr	r3, [sp, #116]	; 0x74
     d76:	9300      	str	r3, [sp, #0]
     d78:	4622      	mov	r2, r4
     d7a:	4639      	mov	r1, r7
     d7c:	4628      	mov	r0, r5
     d7e:	ab03      	add	r3, sp, #12
     d80:	f002 e90e 	blx	2fa0 <utee_open_ta_session>
/home/hsk/Desktop/devel/tee-tpm-hyp/optee_os/lib/libutee/tee_api.c:92
     d84:	4622      	mov	r2, r4
/home/hsk/Desktop/devel/tee-tpm-hyp/optee_os/lib/libutee/tee_api.c:90
     d86:	4605      	mov	r5, r0
/home/hsk/Desktop/devel/tee-tpm-hyp/optee_os/lib/libutee/tee_api.c:92
     d88:	2100      	movs	r1, #0
     d8a:	4630      	mov	r0, r6
     d8c:	f7ff ffc9 	bl	d22 <__utee_to_param>
/home/hsk/Desktop/devel/tee-tpm-hyp/optee_os/lib/libutee/tee_api.c:98
     d90:	b10d      	cbz	r5, d96 <TEE_OpenTASession+0x38>
/home/hsk/Desktop/devel/tee-tpm-hyp/optee_os/lib/libutee/tee_api.c:99
     d92:	2300      	movs	r3, #0
     d94:	9303      	str	r3, [sp, #12]
/home/hsk/Desktop/devel/tee-tpm-hyp/optee_os/lib/libutee/tee_api.c:101
     d96:	9b1c      	ldr	r3, [sp, #112]	; 0x70
/home/hsk/Desktop/devel/tee-tpm-hyp/optee_os/lib/libutee/tee_api.c:103
     d98:	4628      	mov	r0, r5
/home/hsk/Desktop/devel/tee-tpm-hyp/optee_os/lib/libutee/tee_api.c:101
     d9a:	9a03      	ldr	r2, [sp, #12]
     d9c:	601a      	str	r2, [r3, #0]
/home/hsk/Desktop/devel/tee-tpm-hyp/optee_os/lib/libutee/tee_api.c:103
     d9e:	b017      	add	sp, #92	; 0x5c
     da0:	bdf0      	pop	{r4, r5, r6, r7, pc}

00000da2 <TEE_CloseTASession>:
TEE_CloseTASession():
/home/hsk/Desktop/devel/tee-tpm-hyp/optee_os/lib/libutee/tee_api.c:106
     da2:	b508      	push	{r3, lr}
/home/hsk/Desktop/devel/tee-tpm-hyp/optee_os/lib/libutee/tee_api.c:107
     da4:	b130      	cbz	r0, db4 <TEE_CloseTASession+0x12>
/home/hsk/Desktop/devel/tee-tpm-hyp/optee_os/lib/libutee/tee_api.c:108
     da6:	f002 e908 	blx	2fb8 <utee_close_ta_session>
/home/hsk/Desktop/devel/tee-tpm-hyp/optee_os/lib/libutee/tee_api.c:110
     daa:	b118      	cbz	r0, db4 <TEE_CloseTASession+0x12>
/home/hsk/Desktop/devel/tee-tpm-hyp/optee_os/lib/libutee/tee_api.c:113
     dac:	e8bd 4008 	ldmia.w	sp!, {r3, lr}
/home/hsk/Desktop/devel/tee-tpm-hyp/optee_os/lib/libutee/tee_api.c:111
     db0:	f006 be80 	b.w	7ab4 <TEE_Panic>
/home/hsk/Desktop/devel/tee-tpm-hyp/optee_os/lib/libutee/tee_api.c:113
     db4:	bd08      	pop	{r3, pc}

00000db6 <TEE_InvokeTACommand>:
TEE_InvokeTACommand():
/home/hsk/Desktop/devel/tee-tpm-hyp/optee_os/lib/libutee/tee_api.c:120
     db6:	e92d 41f0 	stmdb	sp!, {r4, r5, r6, r7, r8, lr}
     dba:	4604      	mov	r4, r0
     dbc:	460f      	mov	r7, r1
     dbe:	b096      	sub	sp, #88	; 0x58
/home/hsk/Desktop/devel/tee-tpm-hyp/optee_os/lib/libutee/tee_api.c:125
     dc0:	4619      	mov	r1, r3
     dc2:	ad04      	add	r5, sp, #16
/home/hsk/Desktop/devel/tee-tpm-hyp/optee_os/lib/libutee/tee_api.c:120
     dc4:	4690      	mov	r8, r2
/home/hsk/Desktop/devel/tee-tpm-hyp/optee_os/lib/libutee/tee_api.c:125
     dc6:	4628      	mov	r0, r5
/home/hsk/Desktop/devel/tee-tpm-hyp/optee_os/lib/libutee/tee_api.c:120
     dc8:	9e1d      	ldr	r6, [sp, #116]	; 0x74
/home/hsk/Desktop/devel/tee-tpm-hyp/optee_os/lib/libutee/tee_api.c:125
     dca:	9a1c      	ldr	r2, [sp, #112]	; 0x70
     dcc:	f7ff ff82 	bl	cd4 <__utee_from_param>
/home/hsk/Desktop/devel/tee-tpm-hyp/optee_os/lib/libutee/tee_api.c:126
     dd0:	ab03      	add	r3, sp, #12
     dd2:	4642      	mov	r2, r8
     dd4:	9300      	str	r3, [sp, #0]
     dd6:	4639      	mov	r1, r7
     dd8:	462b      	mov	r3, r5
     dda:	4620      	mov	r0, r4
     ddc:	f002 e8f6 	blx	2fcc <utee_invoke_ta_command>
/home/hsk/Desktop/devel/tee-tpm-hyp/optee_os/lib/libutee/tee_api.c:129
     de0:	462a      	mov	r2, r5
/home/hsk/Desktop/devel/tee-tpm-hyp/optee_os/lib/libutee/tee_api.c:126
     de2:	4604      	mov	r4, r0
/home/hsk/Desktop/devel/tee-tpm-hyp/optee_os/lib/libutee/tee_api.c:129
     de4:	2100      	movs	r1, #0
     de6:	981c      	ldr	r0, [sp, #112]	; 0x70
     de8:	f7ff ff9b 	bl	d22 <__utee_to_param>
     dec:	9b03      	ldr	r3, [sp, #12]
/home/hsk/Desktop/devel/tee-tpm-hyp/optee_os/lib/libutee/tee_api.c:131
     dee:	b106      	cbz	r6, df2 <TEE_InvokeTACommand+0x3c>
/home/hsk/Desktop/devel/tee-tpm-hyp/optee_os/lib/libutee/tee_api.c:132
     df0:	6033      	str	r3, [r6, #0]
/home/hsk/Desktop/devel/tee-tpm-hyp/optee_os/lib/libutee/tee_api.c:134
     df2:	2b04      	cmp	r3, #4
     df4:	d009      	beq.n	e0a <TEE_InvokeTACommand+0x54>
/home/hsk/Desktop/devel/tee-tpm-hyp/optee_os/lib/libutee/tee_api.c:137
     df6:	b144      	cbz	r4, e0a <TEE_InvokeTACommand+0x54>
/home/hsk/Desktop/devel/tee-tpm-hyp/optee_os/lib/libutee/tee_api.c:137 (discriminator 1)
     df8:	4b06      	ldr	r3, [pc, #24]	; (e14 <TEE_InvokeTACommand+0x5e>)
     dfa:	429c      	cmp	r4, r3
     dfc:	d005      	beq.n	e0a <TEE_InvokeTACommand+0x54>
/home/hsk/Desktop/devel/tee-tpm-hyp/optee_os/lib/libutee/tee_api.c:138
     dfe:	4b06      	ldr	r3, [pc, #24]	; (e18 <TEE_InvokeTACommand+0x62>)
     e00:	429c      	cmp	r4, r3
     e02:	d002      	beq.n	e0a <TEE_InvokeTACommand+0x54>
/home/hsk/Desktop/devel/tee-tpm-hyp/optee_os/lib/libutee/tee_api.c:140
     e04:	4620      	mov	r0, r4
     e06:	f006 fe55 	bl	7ab4 <TEE_Panic>
/home/hsk/Desktop/devel/tee-tpm-hyp/optee_os/lib/libutee/tee_api.c:143
     e0a:	4620      	mov	r0, r4
     e0c:	b016      	add	sp, #88	; 0x58
     e0e:	e8bd 81f0 	ldmia.w	sp!, {r4, r5, r6, r7, r8, pc}
     e12:	bf00      	nop
     e14:	ffff000c 	.word	0xffff000c
     e18:	ffff3024 	.word	0xffff3024

00000e1c <TEE_GetCancellationFlag>:
TEE_GetCancellationFlag():
/home/hsk/Desktop/devel/tee-tpm-hyp/optee_os/lib/libutee/tee_api.c:148
     e1c:	b507      	push	{r0, r1, r2, lr}
/home/hsk/Desktop/devel/tee-tpm-hyp/optee_os/lib/libutee/tee_api.c:150
     e1e:	a801      	add	r0, sp, #4
     e20:	f002 e8e0 	blx	2fe4 <utee_get_cancellation_flag>
/home/hsk/Desktop/devel/tee-tpm-hyp/optee_os/lib/libutee/tee_api.c:152
     e24:	b108      	cbz	r0, e2a <TEE_GetCancellationFlag+0xe>
/home/hsk/Desktop/devel/tee-tpm-hyp/optee_os/lib/libutee/tee_api.c:153
     e26:	2300      	movs	r3, #0
     e28:	9301      	str	r3, [sp, #4]
/home/hsk/Desktop/devel/tee-tpm-hyp/optee_os/lib/libutee/tee_api.c:155
     e2a:	9801      	ldr	r0, [sp, #4]
     e2c:	3000      	adds	r0, #0
     e2e:	bf18      	it	ne
     e30:	2001      	movne	r0, #1
     e32:	b003      	add	sp, #12
     e34:	f85d fb04 	ldr.w	pc, [sp], #4

00000e38 <TEE_UnmaskCancellation>:
TEE_UnmaskCancellation():
/home/hsk/Desktop/devel/tee-tpm-hyp/optee_os/lib/libutee/tee_api.c:158
     e38:	b507      	push	{r0, r1, r2, lr}
/home/hsk/Desktop/devel/tee-tpm-hyp/optee_os/lib/libutee/tee_api.c:160
     e3a:	a801      	add	r0, sp, #4
     e3c:	f002 e8e6 	blx	300c <utee_unmask_cancellation>
/home/hsk/Desktop/devel/tee-tpm-hyp/optee_os/lib/libutee/tee_api.c:162
     e40:	b108      	cbz	r0, e46 <TEE_UnmaskCancellation+0xe>
/home/hsk/Desktop/devel/tee-tpm-hyp/optee_os/lib/libutee/tee_api.c:163
     e42:	f006 fe37 	bl	7ab4 <TEE_Panic>
/home/hsk/Desktop/devel/tee-tpm-hyp/optee_os/lib/libutee/tee_api.c:165
     e46:	9801      	ldr	r0, [sp, #4]
     e48:	3000      	adds	r0, #0
     e4a:	bf18      	it	ne
     e4c:	2001      	movne	r0, #1
     e4e:	b003      	add	sp, #12
     e50:	f85d fb04 	ldr.w	pc, [sp], #4

00000e54 <TEE_MaskCancellation>:
TEE_MaskCancellation():
/home/hsk/Desktop/devel/tee-tpm-hyp/optee_os/lib/libutee/tee_api.c:168
     e54:	b507      	push	{r0, r1, r2, lr}
/home/hsk/Desktop/devel/tee-tpm-hyp/optee_os/lib/libutee/tee_api.c:170
     e56:	a801      	add	r0, sp, #4
     e58:	f002 e8e2 	blx	3020 <utee_mask_cancellation>
/home/hsk/Desktop/devel/tee-tpm-hyp/optee_os/lib/libutee/tee_api.c:172
     e5c:	b108      	cbz	r0, e62 <TEE_MaskCancellation+0xe>
/home/hsk/Desktop/devel/tee-tpm-hyp/optee_os/lib/libutee/tee_api.c:173
     e5e:	f006 fe29 	bl	7ab4 <TEE_Panic>
/home/hsk/Desktop/devel/tee-tpm-hyp/optee_os/lib/libutee/tee_api.c:175
     e62:	9801      	ldr	r0, [sp, #4]
     e64:	3000      	adds	r0, #0
     e66:	bf18      	it	ne
     e68:	2001      	movne	r0, #1
     e6a:	b003      	add	sp, #12
     e6c:	f85d fb04 	ldr.w	pc, [sp], #4

00000e70 <TEE_CheckMemoryAccessRights>:
TEE_CheckMemoryAccessRights():
/home/hsk/Desktop/devel/tee-tpm-hyp/optee_os/lib/libutee/tee_api.c:184
     e70:	b10a      	cbz	r2, e76 <TEE_CheckMemoryAccessRights+0x6>
/home/hsk/Desktop/devel/tee-tpm-hyp/optee_os/lib/libutee/tee_api.c:188
     e72:	f006 be91 	b.w	7b98 <__utee_check_access_rights_from_thumb>
/home/hsk/Desktop/devel/tee-tpm-hyp/optee_os/lib/libutee/tee_api.c:200
     e76:	4610      	mov	r0, r2
     e78:	4770      	bx	lr

00000e7a <TEE_SetInstanceData>:
TEE_SetInstanceData():
/home/hsk/Desktop/devel/tee-tpm-hyp/optee_os/lib/libutee/tee_api.c:204
     e7a:	4b02      	ldr	r3, [pc, #8]	; (e84 <TEE_SetInstanceData+0xa>)
     e7c:	447b      	add	r3, pc
     e7e:	6018      	str	r0, [r3, #0]
/home/hsk/Desktop/devel/tee-tpm-hyp/optee_os/lib/libutee/tee_api.c:205
     e80:	4770      	bx	lr
     e82:	bf00      	nop
     e84:	00009218 	.word	0x00009218

00000e88 <TEE_GetInstanceData>:
TEE_GetInstanceData():
/home/hsk/Desktop/devel/tee-tpm-hyp/optee_os/lib/libutee/tee_api.c:210
     e88:	4b01      	ldr	r3, [pc, #4]	; (e90 <TEE_GetInstanceData+0x8>)
     e8a:	447b      	add	r3, pc
     e8c:	6818      	ldr	r0, [r3, #0]
     e8e:	4770      	bx	lr
     e90:	0000920a 	.word	0x0000920a

00000e94 <TEE_MemMove>:
TEE_MemMove():
/home/hsk/Desktop/devel/tee-tpm-hyp/optee_os/lib/libutee/tee_api.c:214
     e94:	f006 be40 	b.w	7b18 <memmove>

00000e98 <TEE_MemCompare>:
TEE_MemCompare():
/home/hsk/Desktop/devel/tee-tpm-hyp/optee_os/lib/libutee/tee_api.c:219
     e98:	f006 be24 	b.w	7ae4 <memcmp>

00000e9c <TEE_MemFill>:
TEE_MemFill():
/home/hsk/Desktop/devel/tee-tpm-hyp/optee_os/lib/libutee/tee_api.c:224
     e9c:	f006 be55 	b.w	7b4a <memset>

00000ea0 <TEE_GetSystemTime>:
TEE_GetSystemTime():
/home/hsk/Desktop/devel/tee-tpm-hyp/optee_os/lib/libutee/tee_api.c:230
     ea0:	b508      	push	{r3, lr}
/home/hsk/Desktop/devel/tee-tpm-hyp/optee_os/lib/libutee/tee_api.c:231
     ea2:	4601      	mov	r1, r0
     ea4:	2000      	movs	r0, #0
     ea6:	f002 e8d0 	blx	3048 <utee_get_time>
/home/hsk/Desktop/devel/tee-tpm-hyp/optee_os/lib/libutee/tee_api.c:233
     eaa:	b118      	cbz	r0, eb4 <TEE_GetSystemTime+0x14>
/home/hsk/Desktop/devel/tee-tpm-hyp/optee_os/lib/libutee/tee_api.c:235
     eac:	e8bd 4008 	ldmia.w	sp!, {r3, lr}
/home/hsk/Desktop/devel/tee-tpm-hyp/optee_os/lib/libutee/tee_api.c:234
     eb0:	f006 be00 	b.w	7ab4 <TEE_Panic>
/home/hsk/Desktop/devel/tee-tpm-hyp/optee_os/lib/libutee/tee_api.c:235
     eb4:	bd08      	pop	{r3, pc}

00000eb6 <TEE_Wait>:
TEE_Wait():
/home/hsk/Desktop/devel/tee-tpm-hyp/optee_os/lib/libutee/tee_api.c:238
     eb6:	b510      	push	{r4, lr}
/home/hsk/Desktop/devel/tee-tpm-hyp/optee_os/lib/libutee/tee_api.c:239
     eb8:	f002 e8bc 	blx	3034 <utee_wait>
/home/hsk/Desktop/devel/tee-tpm-hyp/optee_os/lib/libutee/tee_api.c:241
     ebc:	4604      	mov	r4, r0
     ebe:	b120      	cbz	r0, eca <TEE_Wait+0x14>
/home/hsk/Desktop/devel/tee-tpm-hyp/optee_os/lib/libutee/tee_api.c:241 (discriminator 1)
     ec0:	4b03      	ldr	r3, [pc, #12]	; (ed0 <TEE_Wait+0x1a>)
     ec2:	4298      	cmp	r0, r3
     ec4:	d001      	beq.n	eca <TEE_Wait+0x14>
/home/hsk/Desktop/devel/tee-tpm-hyp/optee_os/lib/libutee/tee_api.c:242
     ec6:	f006 fdf5 	bl	7ab4 <TEE_Panic>
/home/hsk/Desktop/devel/tee-tpm-hyp/optee_os/lib/libutee/tee_api.c:245
     eca:	4620      	mov	r0, r4
     ecc:	bd10      	pop	{r4, pc}
     ece:	bf00      	nop
     ed0:	ffff0002 	.word	0xffff0002

00000ed4 <TEE_GetTAPersistentTime>:
TEE_GetTAPersistentTime():
/home/hsk/Desktop/devel/tee-tpm-hyp/optee_os/lib/libutee/tee_api.c:248
     ed4:	b538      	push	{r3, r4, r5, lr}
/home/hsk/Desktop/devel/tee-tpm-hyp/optee_os/lib/libutee/tee_api.c:251
     ed6:	4601      	mov	r1, r0
/home/hsk/Desktop/devel/tee-tpm-hyp/optee_os/lib/libutee/tee_api.c:248
     ed8:	4605      	mov	r5, r0
/home/hsk/Desktop/devel/tee-tpm-hyp/optee_os/lib/libutee/tee_api.c:251
     eda:	2001      	movs	r0, #1
     edc:	f002 e8b4 	blx	3048 <utee_get_time>
/home/hsk/Desktop/devel/tee-tpm-hyp/optee_os/lib/libutee/tee_api.c:253
     ee0:	4604      	mov	r4, r0
     ee2:	b170      	cbz	r0, f02 <TEE_GetTAPersistentTime+0x2e>
/home/hsk/Desktop/devel/tee-tpm-hyp/optee_os/lib/libutee/tee_api.c:253 (discriminator 1)
     ee4:	4b08      	ldr	r3, [pc, #32]	; (f08 <TEE_GetTAPersistentTime+0x34>)
     ee6:	4298      	cmp	r0, r3
     ee8:	d00b      	beq.n	f02 <TEE_GetTAPersistentTime+0x2e>
/home/hsk/Desktop/devel/tee-tpm-hyp/optee_os/lib/libutee/tee_api.c:254
     eea:	2300      	movs	r3, #0
     eec:	602b      	str	r3, [r5, #0]
/home/hsk/Desktop/devel/tee-tpm-hyp/optee_os/lib/libutee/tee_api.c:255
     eee:	606b      	str	r3, [r5, #4]
/home/hsk/Desktop/devel/tee-tpm-hyp/optee_os/lib/libutee/tee_api.c:258
     ef0:	f500 4330 	add.w	r3, r0, #45056	; 0xb000
     ef4:	2b01      	cmp	r3, #1
     ef6:	d904      	bls.n	f02 <TEE_GetTAPersistentTime+0x2e>
/home/hsk/Desktop/devel/tee-tpm-hyp/optee_os/lib/libutee/tee_api.c:261
     ef8:	4b04      	ldr	r3, [pc, #16]	; (f0c <TEE_GetTAPersistentTime+0x38>)
     efa:	4298      	cmp	r0, r3
     efc:	d001      	beq.n	f02 <TEE_GetTAPersistentTime+0x2e>
/home/hsk/Desktop/devel/tee-tpm-hyp/optee_os/lib/libutee/tee_api.c:263
     efe:	f006 fdd9 	bl	7ab4 <TEE_Panic>
/home/hsk/Desktop/devel/tee-tpm-hyp/optee_os/lib/libutee/tee_api.c:266
     f02:	4620      	mov	r0, r4
     f04:	bd38      	pop	{r3, r4, r5, pc}
     f06:	bf00      	nop
     f08:	ffff300f 	.word	0xffff300f
     f0c:	ffff000c 	.word	0xffff000c

00000f10 <TEE_SetTAPersistentTime>:
TEE_SetTAPersistentTime():
/home/hsk/Desktop/devel/tee-tpm-hyp/optee_os/lib/libutee/tee_api.c:269
     f10:	b510      	push	{r4, lr}
/home/hsk/Desktop/devel/tee-tpm-hyp/optee_os/lib/libutee/tee_api.c:272
     f12:	f002 e8a4 	blx	305c <utee_set_ta_time>
/home/hsk/Desktop/devel/tee-tpm-hyp/optee_os/lib/libutee/tee_api.c:274
     f16:	4604      	mov	r4, r0
     f18:	b138      	cbz	r0, f2a <TEE_SetTAPersistentTime+0x1a>
/home/hsk/Desktop/devel/tee-tpm-hyp/optee_os/lib/libutee/tee_api.c:274 (discriminator 1)
     f1a:	4b05      	ldr	r3, [pc, #20]	; (f30 <TEE_SetTAPersistentTime+0x20>)
     f1c:	4298      	cmp	r0, r3
     f1e:	d004      	beq.n	f2a <TEE_SetTAPersistentTime+0x1a>
/home/hsk/Desktop/devel/tee-tpm-hyp/optee_os/lib/libutee/tee_api.c:275
     f20:	4b04      	ldr	r3, [pc, #16]	; (f34 <TEE_SetTAPersistentTime+0x24>)
     f22:	4298      	cmp	r0, r3
     f24:	d001      	beq.n	f2a <TEE_SetTAPersistentTime+0x1a>
/home/hsk/Desktop/devel/tee-tpm-hyp/optee_os/lib/libutee/tee_api.c:277
     f26:	f006 fdc5 	bl	7ab4 <TEE_Panic>
/home/hsk/Desktop/devel/tee-tpm-hyp/optee_os/lib/libutee/tee_api.c:280
     f2a:	4620      	mov	r0, r4
     f2c:	bd10      	pop	{r4, pc}
     f2e:	bf00      	nop
     f30:	ffff000c 	.word	0xffff000c
     f34:	ffff3041 	.word	0xffff3041

00000f38 <TEE_GetREETime>:
TEE_GetREETime():
/home/hsk/Desktop/devel/tee-tpm-hyp/optee_os/lib/libutee/tee_api.c:283
     f38:	b508      	push	{r3, lr}
/home/hsk/Desktop/devel/tee-tpm-hyp/optee_os/lib/libutee/tee_api.c:284
     f3a:	4601      	mov	r1, r0
     f3c:	2002      	movs	r0, #2
     f3e:	f002 e884 	blx	3048 <utee_get_time>
/home/hsk/Desktop/devel/tee-tpm-hyp/optee_os/lib/libutee/tee_api.c:286
     f42:	b118      	cbz	r0, f4c <TEE_GetREETime+0x14>
/home/hsk/Desktop/devel/tee-tpm-hyp/optee_os/lib/libutee/tee_api.c:288
     f44:	e8bd 4008 	ldmia.w	sp!, {r3, lr}
/home/hsk/Desktop/devel/tee-tpm-hyp/optee_os/lib/libutee/tee_api.c:287
     f48:	f006 bdb4 	b.w	7ab4 <TEE_Panic>
/home/hsk/Desktop/devel/tee-tpm-hyp/optee_os/lib/libutee/tee_api.c:288
     f4c:	bd08      	pop	{r3, pc}

00000f4e <TEE_Malloc>:
TEE_Malloc():
/home/hsk/Desktop/devel/tee-tpm-hyp/optee_os/lib/libutee/tee_api.c:291
     f4e:	b507      	push	{r0, r1, r2, lr}
/home/hsk/Desktop/devel/tee-tpm-hyp/optee_os/lib/libutee/tee_api.c:292
     f50:	b931      	cbnz	r1, f60 <TEE_Malloc+0x12>
/home/hsk/Desktop/devel/tee-tpm-hyp/optee_os/lib/libutee/tee_api.c:293
     f52:	4601      	mov	r1, r0
     f54:	2001      	movs	r0, #1
/home/hsk/Desktop/devel/tee-tpm-hyp/optee_os/lib/libutee/tee_api.c:300
     f56:	b003      	add	sp, #12
     f58:	f85d eb04 	ldr.w	lr, [sp], #4
/home/hsk/Desktop/devel/tee-tpm-hyp/optee_os/lib/libutee/tee_api.c:293
     f5c:	f006 b98a 	b.w	7274 <calloc>
/home/hsk/Desktop/devel/tee-tpm-hyp/optee_os/lib/libutee/tee_api.c:294
     f60:	f1b1 4f00 	cmp.w	r1, #2147483648	; 0x80000000
     f64:	d104      	bne.n	f70 <TEE_Malloc+0x22>
/home/hsk/Desktop/devel/tee-tpm-hyp/optee_os/lib/libutee/tee_api.c:300
     f66:	b003      	add	sp, #12
     f68:	f85d eb04 	ldr.w	lr, [sp], #4
/home/hsk/Desktop/devel/tee-tpm-hyp/optee_os/lib/libutee/tee_api.c:295
     f6c:	f006 b95e 	b.w	722c <malloc>
/home/hsk/Desktop/devel/tee-tpm-hyp/optee_os/lib/libutee/tee_api.c:297
     f70:	4b07      	ldr	r3, [pc, #28]	; (f90 <TEE_Malloc+0x42>)
     f72:	4808      	ldr	r0, [pc, #32]	; (f94 <TEE_Malloc+0x46>)
     f74:	447b      	add	r3, pc
     f76:	9300      	str	r3, [sp, #0]
     f78:	2301      	movs	r3, #1
     f7a:	9101      	str	r1, [sp, #4]
     f7c:	461a      	mov	r2, r3
     f7e:	f240 1129 	movw	r1, #297	; 0x129
     f82:	4478      	add	r0, pc
     f84:	f7ff f994 	bl	2b0 <trace_printf>
/home/hsk/Desktop/devel/tee-tpm-hyp/optee_os/lib/libutee/tee_api.c:300
     f88:	2000      	movs	r0, #0
     f8a:	b003      	add	sp, #12
     f8c:	f85d fb04 	ldr.w	pc, [sp], #4
     f90:	000071ee 	.word	0x000071ee
     f94:	000071d5 	.word	0x000071d5

00000f98 <TEE_Realloc>:
TEE_Realloc():
/home/hsk/Desktop/devel/tee-tpm-hyp/optee_os/lib/libutee/tee_api.c:304
     f98:	f006 b990 	b.w	72bc <realloc>

00000f9c <TEE_Free>:
TEE_Free():
/home/hsk/Desktop/devel/tee-tpm-hyp/optee_os/lib/libutee/tee_api.c:309
     f9c:	f006 b962 	b.w	7264 <free>

00000fa0 <TEE_CacheClean>:
TEE_CacheClean():
/home/hsk/Desktop/devel/tee-tpm-hyp/optee_os/lib/libutee/tee_api.c:315
     fa0:	2200      	movs	r2, #0
     fa2:	f006 be01 	b.w	7ba8 <__utee_cache_operation_from_thumb>

00000fa6 <TEE_CacheFlush>:
TEE_CacheFlush():
/home/hsk/Desktop/devel/tee-tpm-hyp/optee_os/lib/libutee/tee_api.c:319
     fa6:	2201      	movs	r2, #1
     fa8:	f006 bdfe 	b.w	7ba8 <__utee_cache_operation_from_thumb>

00000fac <TEE_CacheInvalidate>:
TEE_CacheInvalidate():
/home/hsk/Desktop/devel/tee-tpm-hyp/optee_os/lib/libutee/tee_api.c:324
     fac:	2202      	movs	r2, #2
     fae:	f006 bdfb 	b.w	7ba8 <__utee_cache_operation_from_thumb>
     fb2:	bf00      	nop

00000fb4 <__utee_from_attr>:
__utee_from_attr():
/home/hsk/Desktop/devel/tee-tpm-hyp/optee_os/lib/libutee/tee_api_objects.c:19
     fb4:	2318      	movs	r3, #24
     fb6:	b570      	push	{r4, r5, r6, lr}
     fb8:	2400      	movs	r4, #0
     fba:	fb03 0202 	mla	r2, r3, r2, r0
/home/hsk/Desktop/devel/tee-tpm-hyp/optee_os/lib/libutee/tee_api_objects.c:22 (discriminator 1)
     fbe:	4290      	cmp	r0, r2
     fc0:	d100      	bne.n	fc4 <__utee_from_attr+0x10>
/home/hsk/Desktop/devel/tee-tpm-hyp/optee_os/lib/libutee/tee_api_objects.c:32
     fc2:	bd70      	pop	{r4, r5, r6, pc}
/home/hsk/Desktop/devel/tee-tpm-hyp/optee_os/lib/libutee/tee_api_objects.c:23
     fc4:	680b      	ldr	r3, [r1, #0]
     fc6:	6103      	str	r3, [r0, #16]
/home/hsk/Desktop/devel/tee-tpm-hyp/optee_os/lib/libutee/tee_api_objects.c:24
     fc8:	f013 5300 	ands.w	r3, r3, #536870912	; 0x20000000
     fcc:	688d      	ldr	r5, [r1, #8]
     fce:	d007      	beq.n	fe0 <__utee_from_attr+0x2c>
/home/hsk/Desktop/devel/tee-tpm-hyp/optee_os/lib/libutee/tee_api_objects.c:25
     fd0:	684b      	ldr	r3, [r1, #4]
     fd2:	e9c0 3400 	strd	r3, r4, [r0]
/home/hsk/Desktop/devel/tee-tpm-hyp/optee_os/lib/libutee/tee_api_objects.c:26
     fd6:	e9c0 5402 	strd	r5, r4, [r0, #8]
     fda:	310c      	adds	r1, #12
     fdc:	3018      	adds	r0, #24
     fde:	e7ee      	b.n	fbe <__utee_from_attr+0xa>
/home/hsk/Desktop/devel/tee-tpm-hyp/optee_os/lib/libutee/tee_api_objects.c:28
     fe0:	684e      	ldr	r6, [r1, #4]
     fe2:	e9c0 6300 	strd	r6, r3, [r0]
/home/hsk/Desktop/devel/tee-tpm-hyp/optee_os/lib/libutee/tee_api_objects.c:29
     fe6:	e9c0 5302 	strd	r5, r3, [r0, #8]
     fea:	e7f6      	b.n	fda <__utee_from_attr+0x26>

00000fec <TEE_GetObjectInfo>:
TEE_GetObjectInfo():
/home/hsk/Desktop/devel/tee-tpm-hyp/optee_os/lib/libutee/tee_api_objects.c:42
     fec:	b510      	push	{r4, lr}
     fee:	460c      	mov	r4, r1
/home/hsk/Desktop/devel/tee-tpm-hyp/optee_os/lib/libutee/tee_api_objects.c:45
     ff0:	f002 e8a0 	blx	3134 <utee_cryp_obj_get_info>
/home/hsk/Desktop/devel/tee-tpm-hyp/optee_os/lib/libutee/tee_api_objects.c:47
     ff4:	b108      	cbz	r0, ffa <TEE_GetObjectInfo+0xe>
/home/hsk/Desktop/devel/tee-tpm-hyp/optee_os/lib/libutee/tee_api_objects.c:48
     ff6:	f006 fd5d 	bl	7ab4 <TEE_Panic>
/home/hsk/Desktop/devel/tee-tpm-hyp/optee_os/lib/libutee/tee_api_objects.c:50
     ffa:	6822      	ldr	r2, [r4, #0]
     ffc:	4b05      	ldr	r3, [pc, #20]	; (1014 <TEE_GetObjectInfo+0x28>)
     ffe:	429a      	cmp	r2, r3
    1000:	d106      	bne.n	1010 <TEE_GetObjectInfo+0x24>
/home/hsk/Desktop/devel/tee-tpm-hyp/optee_os/lib/libutee/tee_api_objects.c:51
    1002:	2300      	movs	r3, #0
    1004:	6063      	str	r3, [r4, #4]
/home/hsk/Desktop/devel/tee-tpm-hyp/optee_os/lib/libutee/tee_api_objects.c:52
    1006:	60a3      	str	r3, [r4, #8]
/home/hsk/Desktop/devel/tee-tpm-hyp/optee_os/lib/libutee/tee_api_objects.c:53
    1008:	60e3      	str	r3, [r4, #12]
/home/hsk/Desktop/devel/tee-tpm-hyp/optee_os/lib/libutee/tee_api_objects.c:54
    100a:	6123      	str	r3, [r4, #16]
/home/hsk/Desktop/devel/tee-tpm-hyp/optee_os/lib/libutee/tee_api_objects.c:55
    100c:	6163      	str	r3, [r4, #20]
/home/hsk/Desktop/devel/tee-tpm-hyp/optee_os/lib/libutee/tee_api_objects.c:56
    100e:	61a3      	str	r3, [r4, #24]
/home/hsk/Desktop/devel/tee-tpm-hyp/optee_os/lib/libutee/tee_api_objects.c:58
    1010:	bd10      	pop	{r4, pc}
    1012:	bf00      	nop
    1014:	a00000be 	.word	0xa00000be

00001018 <TEE_GetObjectInfo1>:
TEE_GetObjectInfo1():
/home/hsk/Desktop/devel/tee-tpm-hyp/optee_os/lib/libutee/tee_api_objects.c:61
    1018:	b510      	push	{r4, lr}
/home/hsk/Desktop/devel/tee-tpm-hyp/optee_os/lib/libutee/tee_api_objects.c:64
    101a:	f002 e88c 	blx	3134 <utee_cryp_obj_get_info>
/home/hsk/Desktop/devel/tee-tpm-hyp/optee_os/lib/libutee/tee_api_objects.c:66
    101e:	4604      	mov	r4, r0
    1020:	b130      	cbz	r0, 1030 <TEE_GetObjectInfo1+0x18>
/home/hsk/Desktop/devel/tee-tpm-hyp/optee_os/lib/libutee/tee_api_objects.c:66 (discriminator 1)
    1022:	4b04      	ldr	r3, [pc, #16]	; (1034 <TEE_GetObjectInfo1+0x1c>)
    1024:	f020 0202 	bic.w	r2, r0, #2
    1028:	429a      	cmp	r2, r3
    102a:	d001      	beq.n	1030 <TEE_GetObjectInfo1+0x18>
/home/hsk/Desktop/devel/tee-tpm-hyp/optee_os/lib/libutee/tee_api_objects.c:69
    102c:	f006 fd42 	bl	7ab4 <TEE_Panic>
/home/hsk/Desktop/devel/tee-tpm-hyp/optee_os/lib/libutee/tee_api_objects.c:72
    1030:	4620      	mov	r0, r4
    1032:	bd10      	pop	{r4, pc}
    1034:	f0100001 	.word	0xf0100001

00001038 <TEE_RestrictObjectUsage1>:
TEE_RestrictObjectUsage1():
/home/hsk/Desktop/devel/tee-tpm-hyp/optee_os/lib/libutee/tee_api_objects.c:96
    1038:	b510      	push	{r4, lr}
/home/hsk/Desktop/devel/tee-tpm-hyp/optee_os/lib/libutee/tee_api_objects.c:99
    103a:	f002 e886 	blx	3148 <utee_cryp_obj_restrict_usage>
/home/hsk/Desktop/devel/tee-tpm-hyp/optee_os/lib/libutee/tee_api_objects.c:101
    103e:	4604      	mov	r4, r0
    1040:	b130      	cbz	r0, 1050 <TEE_RestrictObjectUsage1+0x18>
/home/hsk/Desktop/devel/tee-tpm-hyp/optee_os/lib/libutee/tee_api_objects.c:101 (discriminator 1)
    1042:	4b04      	ldr	r3, [pc, #16]	; (1054 <TEE_RestrictObjectUsage1+0x1c>)
    1044:	f020 0202 	bic.w	r2, r0, #2
    1048:	429a      	cmp	r2, r3
    104a:	d001      	beq.n	1050 <TEE_RestrictObjectUsage1+0x18>
/home/hsk/Desktop/devel/tee-tpm-hyp/optee_os/lib/libutee/tee_api_objects.c:104
    104c:	f006 fd32 	bl	7ab4 <TEE_Panic>
/home/hsk/Desktop/devel/tee-tpm-hyp/optee_os/lib/libutee/tee_api_objects.c:107
    1050:	4620      	mov	r0, r4
    1052:	bd10      	pop	{r4, pc}
    1054:	f0100001 	.word	0xf0100001

00001058 <TEE_RestrictObjectUsage>:
TEE_RestrictObjectUsage():
/home/hsk/Desktop/devel/tee-tpm-hyp/optee_os/lib/libutee/tee_api_objects.c:81
    1058:	b530      	push	{r4, r5, lr}
    105a:	460d      	mov	r5, r1
    105c:	4604      	mov	r4, r0
    105e:	b089      	sub	sp, #36	; 0x24
/home/hsk/Desktop/devel/tee-tpm-hyp/optee_os/lib/libutee/tee_api_objects.c:85
    1060:	a901      	add	r1, sp, #4
    1062:	f002 e868 	blx	3134 <utee_cryp_obj_get_info>
/home/hsk/Desktop/devel/tee-tpm-hyp/optee_os/lib/libutee/tee_api_objects.c:86
    1066:	4b06      	ldr	r3, [pc, #24]	; (1080 <TEE_RestrictObjectUsage+0x28>)
    1068:	9a01      	ldr	r2, [sp, #4]
    106a:	429a      	cmp	r2, r3
    106c:	d006      	beq.n	107c <TEE_RestrictObjectUsage+0x24>
/home/hsk/Desktop/devel/tee-tpm-hyp/optee_os/lib/libutee/tee_api_objects.c:89
    106e:	4629      	mov	r1, r5
    1070:	4620      	mov	r0, r4
    1072:	f7ff ffe1 	bl	1038 <TEE_RestrictObjectUsage1>
/home/hsk/Desktop/devel/tee-tpm-hyp/optee_os/lib/libutee/tee_api_objects.c:91
    1076:	b108      	cbz	r0, 107c <TEE_RestrictObjectUsage+0x24>
/home/hsk/Desktop/devel/tee-tpm-hyp/optee_os/lib/libutee/tee_api_objects.c:92
    1078:	f006 fd1c 	bl	7ab4 <TEE_Panic>
/home/hsk/Desktop/devel/tee-tpm-hyp/optee_os/lib/libutee/tee_api_objects.c:93
    107c:	b009      	add	sp, #36	; 0x24
    107e:	bd30      	pop	{r4, r5, pc}
    1080:	a00000be 	.word	0xa00000be

00001084 <TEE_GetObjectBufferAttribute>:
TEE_GetObjectBufferAttribute():
/home/hsk/Desktop/devel/tee-tpm-hyp/optee_os/lib/libutee/tee_api_objects.c:112
    1084:	e92d 41f0 	stmdb	sp!, {r4, r5, r6, r7, r8, lr}
    1088:	460e      	mov	r6, r1
    108a:	4607      	mov	r7, r0
    108c:	b08a      	sub	sp, #40	; 0x28
    108e:	4690      	mov	r8, r2
/home/hsk/Desktop/devel/tee-tpm-hyp/optee_os/lib/libutee/tee_api_objects.c:117
    1090:	a903      	add	r1, sp, #12
/home/hsk/Desktop/devel/tee-tpm-hyp/optee_os/lib/libutee/tee_api_objects.c:112
    1092:	461d      	mov	r5, r3
/home/hsk/Desktop/devel/tee-tpm-hyp/optee_os/lib/libutee/tee_api_objects.c:117
    1094:	f002 e84e 	blx	3134 <utee_cryp_obj_get_info>
/home/hsk/Desktop/devel/tee-tpm-hyp/optee_os/lib/libutee/tee_api_objects.c:118
    1098:	4604      	mov	r4, r0
    109a:	b970      	cbnz	r0, 10ba <TEE_GetObjectBufferAttribute+0x36>
/home/hsk/Desktop/devel/tee-tpm-hyp/optee_os/lib/libutee/tee_api_objects.c:122
    109c:	00b3      	lsls	r3, r6, #2
    109e:	d422      	bmi.n	10e6 <TEE_GetObjectBufferAttribute+0x62>
/home/hsk/Desktop/devel/tee-tpm-hyp/optee_os/lib/libutee/tee_api_objects.c:127
    10a0:	682b      	ldr	r3, [r5, #0]
/home/hsk/Desktop/devel/tee-tpm-hyp/optee_os/lib/libutee/tee_api_objects.c:128
    10a2:	4642      	mov	r2, r8
/home/hsk/Desktop/devel/tee-tpm-hyp/optee_os/lib/libutee/tee_api_objects.c:127
    10a4:	e9cd 3000 	strd	r3, r0, [sp]
/home/hsk/Desktop/devel/tee-tpm-hyp/optee_os/lib/libutee/tee_api_objects.c:128
    10a8:	4631      	mov	r1, r6
    10aa:	466b      	mov	r3, sp
    10ac:	4638      	mov	r0, r7
    10ae:	f002 e856 	blx	315c <utee_cryp_obj_get_attr>
/home/hsk/Desktop/devel/tee-tpm-hyp/optee_os/lib/libutee/tee_api_objects.c:130
    10b2:	9b00      	ldr	r3, [sp, #0]
    10b4:	602b      	str	r3, [r5, #0]
/home/hsk/Desktop/devel/tee-tpm-hyp/optee_os/lib/libutee/tee_api_objects.c:133
    10b6:	4604      	mov	r4, r0
    10b8:	b188      	cbz	r0, 10de <TEE_GetObjectBufferAttribute+0x5a>
/home/hsk/Desktop/devel/tee-tpm-hyp/optee_os/lib/libutee/tee_api_objects.c:133 (discriminator 1)
    10ba:	4b0c      	ldr	r3, [pc, #48]	; (10ec <TEE_GetObjectBufferAttribute+0x68>)
    10bc:	429c      	cmp	r4, r3
    10be:	d00e      	beq.n	10de <TEE_GetObjectBufferAttribute+0x5a>
/home/hsk/Desktop/devel/tee-tpm-hyp/optee_os/lib/libutee/tee_api_objects.c:134
    10c0:	3308      	adds	r3, #8
    10c2:	429c      	cmp	r4, r3
    10c4:	d00b      	beq.n	10de <TEE_GetObjectBufferAttribute+0x5a>
/home/hsk/Desktop/devel/tee-tpm-hyp/optee_os/lib/libutee/tee_api_objects.c:135
    10c6:	f1a3 637e 	sub.w	r3, r3, #266338304	; 0xfe00000
    10ca:	f1a3 130f 	sub.w	r3, r3, #983055	; 0xf000f
    10ce:	429c      	cmp	r4, r3
    10d0:	d005      	beq.n	10de <TEE_GetObjectBufferAttribute+0x5a>
/home/hsk/Desktop/devel/tee-tpm-hyp/optee_os/lib/libutee/tee_api_objects.c:136
    10d2:	3302      	adds	r3, #2
    10d4:	429c      	cmp	r4, r3
    10d6:	d002      	beq.n	10de <TEE_GetObjectBufferAttribute+0x5a>
/home/hsk/Desktop/devel/tee-tpm-hyp/optee_os/lib/libutee/tee_api_objects.c:138
    10d8:	4620      	mov	r0, r4
    10da:	f006 fceb 	bl	7ab4 <TEE_Panic>
/home/hsk/Desktop/devel/tee-tpm-hyp/optee_os/lib/libutee/tee_api_objects.c:141
    10de:	4620      	mov	r0, r4
    10e0:	b00a      	add	sp, #40	; 0x28
    10e2:	e8bd 81f0 	ldmia.w	sp!, {r4, r5, r6, r7, r8, pc}
/home/hsk/Desktop/devel/tee-tpm-hyp/optee_os/lib/libutee/tee_api_objects.c:123
    10e6:	4c02      	ldr	r4, [pc, #8]	; (10f0 <TEE_GetObjectBufferAttribute+0x6c>)
    10e8:	e7f6      	b.n	10d8 <TEE_GetObjectBufferAttribute+0x54>
    10ea:	bf00      	nop
    10ec:	ffff0008 	.word	0xffff0008
    10f0:	ffff0006 	.word	0xffff0006

000010f4 <TEE_GetObjectValueAttribute>:
TEE_GetObjectValueAttribute():
/home/hsk/Desktop/devel/tee-tpm-hyp/optee_os/lib/libutee/tee_api_objects.c:146
    10f4:	e92d 41f0 	stmdb	sp!, {r4, r5, r6, r7, r8, lr}
    10f8:	460f      	mov	r7, r1
    10fa:	4680      	mov	r8, r0
    10fc:	b08c      	sub	sp, #48	; 0x30
    10fe:	4616      	mov	r6, r2
/home/hsk/Desktop/devel/tee-tpm-hyp/optee_os/lib/libutee/tee_api_objects.c:152
    1100:	a905      	add	r1, sp, #20
/home/hsk/Desktop/devel/tee-tpm-hyp/optee_os/lib/libutee/tee_api_objects.c:150
    1102:	2208      	movs	r2, #8
/home/hsk/Desktop/devel/tee-tpm-hyp/optee_os/lib/libutee/tee_api_objects.c:146
    1104:	461d      	mov	r5, r3
/home/hsk/Desktop/devel/tee-tpm-hyp/optee_os/lib/libutee/tee_api_objects.c:150
    1106:	2300      	movs	r3, #0
    1108:	e9cd 2300 	strd	r2, r3, [sp]
/home/hsk/Desktop/devel/tee-tpm-hyp/optee_os/lib/libutee/tee_api_objects.c:152
    110c:	f002 e812 	blx	3134 <utee_cryp_obj_get_info>
/home/hsk/Desktop/devel/tee-tpm-hyp/optee_os/lib/libutee/tee_api_objects.c:153
    1110:	4604      	mov	r4, r0
    1112:	b948      	cbnz	r0, 1128 <TEE_GetObjectValueAttribute+0x34>
/home/hsk/Desktop/devel/tee-tpm-hyp/optee_os/lib/libutee/tee_api_objects.c:157
    1114:	00bb      	lsls	r3, r7, #2
    1116:	d527      	bpl.n	1168 <TEE_GetObjectValueAttribute+0x74>
/home/hsk/Desktop/devel/tee-tpm-hyp/optee_os/lib/libutee/tee_api_objects.c:162
    1118:	466b      	mov	r3, sp
    111a:	aa03      	add	r2, sp, #12
    111c:	4639      	mov	r1, r7
    111e:	4640      	mov	r0, r8
    1120:	f002 e81c 	blx	315c <utee_cryp_obj_get_attr>
/home/hsk/Desktop/devel/tee-tpm-hyp/optee_os/lib/libutee/tee_api_objects.c:166
    1124:	4604      	mov	r4, r0
    1126:	b158      	cbz	r0, 1140 <TEE_GetObjectValueAttribute+0x4c>
/home/hsk/Desktop/devel/tee-tpm-hyp/optee_os/lib/libutee/tee_api_objects.c:166 (discriminator 1)
    1128:	4b10      	ldr	r3, [pc, #64]	; (116c <TEE_GetObjectValueAttribute+0x78>)
    112a:	429c      	cmp	r4, r3
    112c:	d008      	beq.n	1140 <TEE_GetObjectValueAttribute+0x4c>
/home/hsk/Desktop/devel/tee-tpm-hyp/optee_os/lib/libutee/tee_api_objects.c:167
    112e:	4b10      	ldr	r3, [pc, #64]	; (1170 <TEE_GetObjectValueAttribute+0x7c>)
    1130:	429c      	cmp	r4, r3
    1132:	d005      	beq.n	1140 <TEE_GetObjectValueAttribute+0x4c>
/home/hsk/Desktop/devel/tee-tpm-hyp/optee_os/lib/libutee/tee_api_objects.c:168
    1134:	3302      	adds	r3, #2
    1136:	429c      	cmp	r4, r3
    1138:	d002      	beq.n	1140 <TEE_GetObjectValueAttribute+0x4c>
/home/hsk/Desktop/devel/tee-tpm-hyp/optee_os/lib/libutee/tee_api_objects.c:170
    113a:	4620      	mov	r0, r4
    113c:	f006 fcba 	bl	7ab4 <TEE_Panic>
/home/hsk/Desktop/devel/tee-tpm-hyp/optee_os/lib/libutee/tee_api_objects.c:172
    1140:	e9dd 2300 	ldrd	r2, r3, [sp]
    1144:	2b00      	cmp	r3, #0
    1146:	bf08      	it	eq
    1148:	2a08      	cmpeq	r2, #8
    114a:	d002      	beq.n	1152 <TEE_GetObjectValueAttribute+0x5e>
/home/hsk/Desktop/devel/tee-tpm-hyp/optee_os/lib/libutee/tee_api_objects.c:173
    114c:	2000      	movs	r0, #0
    114e:	f006 fcb1 	bl	7ab4 <TEE_Panic>
/home/hsk/Desktop/devel/tee-tpm-hyp/optee_os/lib/libutee/tee_api_objects.c:175
    1152:	b92c      	cbnz	r4, 1160 <TEE_GetObjectValueAttribute+0x6c>
/home/hsk/Desktop/devel/tee-tpm-hyp/optee_os/lib/libutee/tee_api_objects.c:176
    1154:	b10e      	cbz	r6, 115a <TEE_GetObjectValueAttribute+0x66>
/home/hsk/Desktop/devel/tee-tpm-hyp/optee_os/lib/libutee/tee_api_objects.c:177
    1156:	9b03      	ldr	r3, [sp, #12]
    1158:	6033      	str	r3, [r6, #0]
/home/hsk/Desktop/devel/tee-tpm-hyp/optee_os/lib/libutee/tee_api_objects.c:178
    115a:	b10d      	cbz	r5, 1160 <TEE_GetObjectValueAttribute+0x6c>
/home/hsk/Desktop/devel/tee-tpm-hyp/optee_os/lib/libutee/tee_api_objects.c:179
    115c:	9b04      	ldr	r3, [sp, #16]
    115e:	602b      	str	r3, [r5, #0]
/home/hsk/Desktop/devel/tee-tpm-hyp/optee_os/lib/libutee/tee_api_objects.c:183
    1160:	4620      	mov	r0, r4
    1162:	b00c      	add	sp, #48	; 0x30
    1164:	e8bd 81f0 	ldmia.w	sp!, {r4, r5, r6, r7, r8, pc}
/home/hsk/Desktop/devel/tee-tpm-hyp/optee_os/lib/libutee/tee_api_objects.c:158
    1168:	4c02      	ldr	r4, [pc, #8]	; (1174 <TEE_GetObjectValueAttribute+0x80>)
    116a:	e7e6      	b.n	113a <TEE_GetObjectValueAttribute+0x46>
    116c:	ffff0008 	.word	0xffff0008
    1170:	f0100001 	.word	0xf0100001
    1174:	ffff0006 	.word	0xffff0006

00001178 <TEE_CloseObject>:
TEE_CloseObject():
/home/hsk/Desktop/devel/tee-tpm-hyp/optee_os/lib/libutee/tee_api_objects.c:186
    1178:	b508      	push	{r3, lr}
/home/hsk/Desktop/devel/tee-tpm-hyp/optee_os/lib/libutee/tee_api_objects.c:189
    117a:	b130      	cbz	r0, 118a <TEE_CloseObject+0x12>
/home/hsk/Desktop/devel/tee-tpm-hyp/optee_os/lib/libutee/tee_api_objects.c:192
    117c:	f002 e802 	blx	3184 <utee_cryp_obj_close>
/home/hsk/Desktop/devel/tee-tpm-hyp/optee_os/lib/libutee/tee_api_objects.c:193
    1180:	b118      	cbz	r0, 118a <TEE_CloseObject+0x12>
/home/hsk/Desktop/devel/tee-tpm-hyp/optee_os/lib/libutee/tee_api_objects.c:195
    1182:	e8bd 4008 	ldmia.w	sp!, {r3, lr}
/home/hsk/Desktop/devel/tee-tpm-hyp/optee_os/lib/libutee/tee_api_objects.c:194
    1186:	f006 bc95 	b.w	7ab4 <TEE_Panic>
/home/hsk/Desktop/devel/tee-tpm-hyp/optee_os/lib/libutee/tee_api_objects.c:195
    118a:	bd08      	pop	{r3, pc}

0000118c <TEE_AllocateTransientObject>:
TEE_AllocateTransientObject():
/home/hsk/Desktop/devel/tee-tpm-hyp/optee_os/lib/libutee/tee_api_objects.c:202
    118c:	b537      	push	{r0, r1, r2, r4, r5, lr}
    118e:	4615      	mov	r5, r2
/home/hsk/Desktop/devel/tee-tpm-hyp/optee_os/lib/libutee/tee_api_objects.c:206
    1190:	aa01      	add	r2, sp, #4
    1192:	f001 efee 	blx	3170 <utee_cryp_obj_alloc>
/home/hsk/Desktop/devel/tee-tpm-hyp/optee_os/lib/libutee/tee_api_objects.c:208
    1196:	4604      	mov	r4, r0
    1198:	b150      	cbz	r0, 11b0 <TEE_AllocateTransientObject+0x24>
/home/hsk/Desktop/devel/tee-tpm-hyp/optee_os/lib/libutee/tee_api_objects.c:208 (discriminator 1)
    119a:	4b07      	ldr	r3, [pc, #28]	; (11b8 <TEE_AllocateTransientObject+0x2c>)
    119c:	4298      	cmp	r0, r3
    119e:	d004      	beq.n	11aa <TEE_AllocateTransientObject+0x1e>
/home/hsk/Desktop/devel/tee-tpm-hyp/optee_os/lib/libutee/tee_api_objects.c:209
    11a0:	3b02      	subs	r3, #2
    11a2:	4298      	cmp	r0, r3
    11a4:	d001      	beq.n	11aa <TEE_AllocateTransientObject+0x1e>
/home/hsk/Desktop/devel/tee-tpm-hyp/optee_os/lib/libutee/tee_api_objects.c:211
    11a6:	f006 fc85 	bl	7ab4 <TEE_Panic>
/home/hsk/Desktop/devel/tee-tpm-hyp/optee_os/lib/libutee/tee_api_objects.c:217
    11aa:	4620      	mov	r0, r4
    11ac:	b003      	add	sp, #12
    11ae:	bd30      	pop	{r4, r5, pc}
/home/hsk/Desktop/devel/tee-tpm-hyp/optee_os/lib/libutee/tee_api_objects.c:214
    11b0:	9b01      	ldr	r3, [sp, #4]
    11b2:	602b      	str	r3, [r5, #0]
    11b4:	e7f9      	b.n	11aa <TEE_AllocateTransientObject+0x1e>
    11b6:	bf00      	nop
    11b8:	ffff000c 	.word	0xffff000c

000011bc <TEE_FreeTransientObject>:
TEE_FreeTransientObject():
/home/hsk/Desktop/devel/tee-tpm-hyp/optee_os/lib/libutee/tee_api_objects.c:220
    11bc:	b510      	push	{r4, lr}
/home/hsk/Desktop/devel/tee-tpm-hyp/optee_os/lib/libutee/tee_api_objects.c:224
    11be:	4604      	mov	r4, r0
/home/hsk/Desktop/devel/tee-tpm-hyp/optee_os/lib/libutee/tee_api_objects.c:220
    11c0:	b088      	sub	sp, #32
/home/hsk/Desktop/devel/tee-tpm-hyp/optee_os/lib/libutee/tee_api_objects.c:224
    11c2:	b188      	cbz	r0, 11e8 <TEE_FreeTransientObject+0x2c>
/home/hsk/Desktop/devel/tee-tpm-hyp/optee_os/lib/libutee/tee_api_objects.c:227
    11c4:	a901      	add	r1, sp, #4
    11c6:	f001 efb6 	blx	3134 <utee_cryp_obj_get_info>
/home/hsk/Desktop/devel/tee-tpm-hyp/optee_os/lib/libutee/tee_api_objects.c:228
    11ca:	b108      	cbz	r0, 11d0 <TEE_FreeTransientObject+0x14>
/home/hsk/Desktop/devel/tee-tpm-hyp/optee_os/lib/libutee/tee_api_objects.c:229
    11cc:	f006 fc72 	bl	7ab4 <TEE_Panic>
/home/hsk/Desktop/devel/tee-tpm-hyp/optee_os/lib/libutee/tee_api_objects.c:231
    11d0:	9b07      	ldr	r3, [sp, #28]
    11d2:	03db      	lsls	r3, r3, #15
    11d4:	d502      	bpl.n	11dc <TEE_FreeTransientObject+0x20>
/home/hsk/Desktop/devel/tee-tpm-hyp/optee_os/lib/libutee/tee_api_objects.c:232
    11d6:	2000      	movs	r0, #0
    11d8:	f006 fc6c 	bl	7ab4 <TEE_Panic>
/home/hsk/Desktop/devel/tee-tpm-hyp/optee_os/lib/libutee/tee_api_objects.c:234
    11dc:	4620      	mov	r0, r4
    11de:	f001 efd2 	blx	3184 <utee_cryp_obj_close>
/home/hsk/Desktop/devel/tee-tpm-hyp/optee_os/lib/libutee/tee_api_objects.c:235
    11e2:	b108      	cbz	r0, 11e8 <TEE_FreeTransientObject+0x2c>
/home/hsk/Desktop/devel/tee-tpm-hyp/optee_os/lib/libutee/tee_api_objects.c:236
    11e4:	f006 fc66 	bl	7ab4 <TEE_Panic>
/home/hsk/Desktop/devel/tee-tpm-hyp/optee_os/lib/libutee/tee_api_objects.c:237
    11e8:	b008      	add	sp, #32
    11ea:	bd10      	pop	{r4, pc}

000011ec <TEE_ResetTransientObject>:
TEE_ResetTransientObject():
/home/hsk/Desktop/devel/tee-tpm-hyp/optee_os/lib/libutee/tee_api_objects.c:240
    11ec:	b510      	push	{r4, lr}
/home/hsk/Desktop/devel/tee-tpm-hyp/optee_os/lib/libutee/tee_api_objects.c:244
    11ee:	4604      	mov	r4, r0
/home/hsk/Desktop/devel/tee-tpm-hyp/optee_os/lib/libutee/tee_api_objects.c:240
    11f0:	b088      	sub	sp, #32
/home/hsk/Desktop/devel/tee-tpm-hyp/optee_os/lib/libutee/tee_api_objects.c:244
    11f2:	b188      	cbz	r0, 1218 <TEE_ResetTransientObject+0x2c>
/home/hsk/Desktop/devel/tee-tpm-hyp/optee_os/lib/libutee/tee_api_objects.c:247
    11f4:	a901      	add	r1, sp, #4
    11f6:	f001 ef9e 	blx	3134 <utee_cryp_obj_get_info>
/home/hsk/Desktop/devel/tee-tpm-hyp/optee_os/lib/libutee/tee_api_objects.c:248
    11fa:	b108      	cbz	r0, 1200 <TEE_ResetTransientObject+0x14>
/home/hsk/Desktop/devel/tee-tpm-hyp/optee_os/lib/libutee/tee_api_objects.c:249
    11fc:	f006 fc5a 	bl	7ab4 <TEE_Panic>
/home/hsk/Desktop/devel/tee-tpm-hyp/optee_os/lib/libutee/tee_api_objects.c:251
    1200:	9b07      	ldr	r3, [sp, #28]
    1202:	03db      	lsls	r3, r3, #15
    1204:	d502      	bpl.n	120c <TEE_ResetTransientObject+0x20>
/home/hsk/Desktop/devel/tee-tpm-hyp/optee_os/lib/libutee/tee_api_objects.c:252
    1206:	2000      	movs	r0, #0
    1208:	f006 fc54 	bl	7ab4 <TEE_Panic>
/home/hsk/Desktop/devel/tee-tpm-hyp/optee_os/lib/libutee/tee_api_objects.c:254
    120c:	4620      	mov	r0, r4
    120e:	f001 efc4 	blx	3198 <utee_cryp_obj_reset>
/home/hsk/Desktop/devel/tee-tpm-hyp/optee_os/lib/libutee/tee_api_objects.c:255
    1212:	b108      	cbz	r0, 1218 <TEE_ResetTransientObject+0x2c>
/home/hsk/Desktop/devel/tee-tpm-hyp/optee_os/lib/libutee/tee_api_objects.c:256
    1214:	f006 fc4e 	bl	7ab4 <TEE_Panic>
/home/hsk/Desktop/devel/tee-tpm-hyp/optee_os/lib/libutee/tee_api_objects.c:257
    1218:	b008      	add	sp, #32
    121a:	bd10      	pop	{r4, pc}

0000121c <TEE_PopulateTransientObject>:
TEE_PopulateTransientObject():
/home/hsk/Desktop/devel/tee-tpm-hyp/optee_os/lib/libutee/tee_api_objects.c:265
    121c:	2318      	movs	r3, #24
/home/hsk/Desktop/devel/tee-tpm-hyp/optee_os/lib/libutee/tee_api_objects.c:262
    121e:	e92d 41f0 	stmdb	sp!, {r4, r5, r6, r7, r8, lr}
    1222:	4688      	mov	r8, r1
    1224:	b088      	sub	sp, #32
/home/hsk/Desktop/devel/tee-tpm-hyp/optee_os/lib/libutee/tee_api_objects.c:265
    1226:	4353      	muls	r3, r2
/home/hsk/Desktop/devel/tee-tpm-hyp/optee_os/lib/libutee/tee_api_objects.c:262
    1228:	af00      	add	r7, sp, #0
/home/hsk/Desktop/devel/tee-tpm-hyp/optee_os/lib/libutee/tee_api_objects.c:267
    122a:	1d39      	adds	r1, r7, #4
/home/hsk/Desktop/devel/tee-tpm-hyp/optee_os/lib/libutee/tee_api_objects.c:262
    122c:	4606      	mov	r6, r0
/home/hsk/Desktop/devel/tee-tpm-hyp/optee_os/lib/libutee/tee_api_objects.c:265
    122e:	3308      	adds	r3, #8
/home/hsk/Desktop/devel/tee-tpm-hyp/optee_os/lib/libutee/tee_api_objects.c:262
    1230:	4614      	mov	r4, r2
/home/hsk/Desktop/devel/tee-tpm-hyp/optee_os/lib/libutee/tee_api_objects.c:265
    1232:	ebad 0d03 	sub.w	sp, sp, r3
    1236:	466d      	mov	r5, sp
/home/hsk/Desktop/devel/tee-tpm-hyp/optee_os/lib/libutee/tee_api_objects.c:267
    1238:	f001 ef7c 	blx	3134 <utee_cryp_obj_get_info>
/home/hsk/Desktop/devel/tee-tpm-hyp/optee_os/lib/libutee/tee_api_objects.c:268
    123c:	b108      	cbz	r0, 1242 <TEE_PopulateTransientObject+0x26>
/home/hsk/Desktop/devel/tee-tpm-hyp/optee_os/lib/libutee/tee_api_objects.c:269
    123e:	f006 fc39 	bl	7ab4 <TEE_Panic>
/home/hsk/Desktop/devel/tee-tpm-hyp/optee_os/lib/libutee/tee_api_objects.c:272
    1242:	69fb      	ldr	r3, [r7, #28]
    1244:	03da      	lsls	r2, r3, #15
    1246:	d502      	bpl.n	124e <TEE_PopulateTransientObject+0x32>
/home/hsk/Desktop/devel/tee-tpm-hyp/optee_os/lib/libutee/tee_api_objects.c:273
    1248:	2000      	movs	r0, #0
    124a:	f006 fc33 	bl	7ab4 <TEE_Panic>
/home/hsk/Desktop/devel/tee-tpm-hyp/optee_os/lib/libutee/tee_api_objects.c:276
    124e:	69fb      	ldr	r3, [r7, #28]
    1250:	039b      	lsls	r3, r3, #14
    1252:	d502      	bpl.n	125a <TEE_PopulateTransientObject+0x3e>
/home/hsk/Desktop/devel/tee-tpm-hyp/optee_os/lib/libutee/tee_api_objects.c:277
    1254:	2000      	movs	r0, #0
    1256:	f006 fc2d 	bl	7ab4 <TEE_Panic>
/home/hsk/Desktop/devel/tee-tpm-hyp/optee_os/lib/libutee/tee_api_objects.c:279
    125a:	4622      	mov	r2, r4
    125c:	4641      	mov	r1, r8
    125e:	4628      	mov	r0, r5
    1260:	f7ff fea8 	bl	fb4 <__utee_from_attr>
/home/hsk/Desktop/devel/tee-tpm-hyp/optee_os/lib/libutee/tee_api_objects.c:280
    1264:	4622      	mov	r2, r4
    1266:	4629      	mov	r1, r5
    1268:	4630      	mov	r0, r6
    126a:	f001 efa0 	blx	31ac <utee_cryp_obj_populate>
/home/hsk/Desktop/devel/tee-tpm-hyp/optee_os/lib/libutee/tee_api_objects.c:281
    126e:	4604      	mov	r4, r0
    1270:	b120      	cbz	r0, 127c <TEE_PopulateTransientObject+0x60>
/home/hsk/Desktop/devel/tee-tpm-hyp/optee_os/lib/libutee/tee_api_objects.c:281 (discriminator 1)
    1272:	4b05      	ldr	r3, [pc, #20]	; (1288 <TEE_PopulateTransientObject+0x6c>)
    1274:	4298      	cmp	r0, r3
    1276:	d001      	beq.n	127c <TEE_PopulateTransientObject+0x60>
/home/hsk/Desktop/devel/tee-tpm-hyp/optee_os/lib/libutee/tee_api_objects.c:282
    1278:	f006 fc1c 	bl	7ab4 <TEE_Panic>
/home/hsk/Desktop/devel/tee-tpm-hyp/optee_os/lib/libutee/tee_api_objects.c:284
    127c:	4620      	mov	r0, r4
    127e:	3720      	adds	r7, #32
    1280:	46bd      	mov	sp, r7
    1282:	e8bd 81f0 	ldmia.w	sp!, {r4, r5, r6, r7, r8, pc}
    1286:	bf00      	nop
    1288:	ffff0006 	.word	0xffff0006

0000128c <TEE_InitRefAttribute>:
TEE_InitRefAttribute():
/home/hsk/Desktop/devel/tee-tpm-hyp/optee_os/lib/libutee/tee_api_objects.c:288
    128c:	b5f8      	push	{r3, r4, r5, r6, r7, lr}
    128e:	460d      	mov	r5, r1
    1290:	4617      	mov	r7, r2
    1292:	461e      	mov	r6, r3
/home/hsk/Desktop/devel/tee-tpm-hyp/optee_os/lib/libutee/tee_api_objects.c:289
    1294:	4604      	mov	r4, r0
    1296:	b908      	cbnz	r0, 129c <TEE_InitRefAttribute+0x10>
/home/hsk/Desktop/devel/tee-tpm-hyp/optee_os/lib/libutee/tee_api_objects.c:290
    1298:	f006 fc0c 	bl	7ab4 <TEE_Panic>
/home/hsk/Desktop/devel/tee-tpm-hyp/optee_os/lib/libutee/tee_api_objects.c:291
    129c:	00ab      	lsls	r3, r5, #2
    129e:	d502      	bpl.n	12a6 <TEE_InitRefAttribute+0x1a>
/home/hsk/Desktop/devel/tee-tpm-hyp/optee_os/lib/libutee/tee_api_objects.c:292
    12a0:	2000      	movs	r0, #0
    12a2:	f006 fc07 	bl	7ab4 <TEE_Panic>
/home/hsk/Desktop/devel/tee-tpm-hyp/optee_os/lib/libutee/tee_api_objects.c:294
    12a6:	e9c4 5700 	strd	r5, r7, [r4]
/home/hsk/Desktop/devel/tee-tpm-hyp/optee_os/lib/libutee/tee_api_objects.c:295
    12aa:	60a6      	str	r6, [r4, #8]
/home/hsk/Desktop/devel/tee-tpm-hyp/optee_os/lib/libutee/tee_api_objects.c:296
    12ac:	bdf8      	pop	{r3, r4, r5, r6, r7, pc}

000012ae <TEE_InitValueAttribute>:
TEE_InitValueAttribute():
/home/hsk/Desktop/devel/tee-tpm-hyp/optee_os/lib/libutee/tee_api_objects.c:300
    12ae:	b5f8      	push	{r3, r4, r5, r6, r7, lr}
    12b0:	460d      	mov	r5, r1
    12b2:	4617      	mov	r7, r2
    12b4:	461e      	mov	r6, r3
/home/hsk/Desktop/devel/tee-tpm-hyp/optee_os/lib/libutee/tee_api_objects.c:301
    12b6:	4604      	mov	r4, r0
    12b8:	b908      	cbnz	r0, 12be <TEE_InitValueAttribute+0x10>
/home/hsk/Desktop/devel/tee-tpm-hyp/optee_os/lib/libutee/tee_api_objects.c:302
    12ba:	f006 fbfb 	bl	7ab4 <TEE_Panic>
/home/hsk/Desktop/devel/tee-tpm-hyp/optee_os/lib/libutee/tee_api_objects.c:303
    12be:	f015 5000 	ands.w	r0, r5, #536870912	; 0x20000000
    12c2:	d101      	bne.n	12c8 <TEE_InitValueAttribute+0x1a>
/home/hsk/Desktop/devel/tee-tpm-hyp/optee_os/lib/libutee/tee_api_objects.c:304
    12c4:	f006 fbf6 	bl	7ab4 <TEE_Panic>
/home/hsk/Desktop/devel/tee-tpm-hyp/optee_os/lib/libutee/tee_api_objects.c:306
    12c8:	e9c4 5700 	strd	r5, r7, [r4]
/home/hsk/Desktop/devel/tee-tpm-hyp/optee_os/lib/libutee/tee_api_objects.c:307
    12cc:	60a6      	str	r6, [r4, #8]
/home/hsk/Desktop/devel/tee-tpm-hyp/optee_os/lib/libutee/tee_api_objects.c:308
    12ce:	bdf8      	pop	{r3, r4, r5, r6, r7, pc}

000012d0 <TEE_CopyObjectAttributes1>:
TEE_CopyObjectAttributes1():
/home/hsk/Desktop/devel/tee-tpm-hyp/optee_os/lib/libutee/tee_api_objects.c:333
    12d0:	b570      	push	{r4, r5, r6, lr}
    12d2:	460d      	mov	r5, r1
    12d4:	4606      	mov	r6, r0
    12d6:	b08e      	sub	sp, #56	; 0x38
/home/hsk/Desktop/devel/tee-tpm-hyp/optee_os/lib/libutee/tee_api_objects.c:338
    12d8:	4669      	mov	r1, sp
    12da:	f001 ef2c 	blx	3134 <utee_cryp_obj_get_info>
/home/hsk/Desktop/devel/tee-tpm-hyp/optee_os/lib/libutee/tee_api_objects.c:339
    12de:	4604      	mov	r4, r0
    12e0:	b9e0      	cbnz	r0, 131c <TEE_CopyObjectAttributes1+0x4c>
/home/hsk/Desktop/devel/tee-tpm-hyp/optee_os/lib/libutee/tee_api_objects.c:342
    12e2:	a907      	add	r1, sp, #28
    12e4:	4628      	mov	r0, r5
    12e6:	f001 ef26 	blx	3134 <utee_cryp_obj_get_info>
/home/hsk/Desktop/devel/tee-tpm-hyp/optee_os/lib/libutee/tee_api_objects.c:343
    12ea:	4604      	mov	r4, r0
    12ec:	b9b0      	cbnz	r0, 131c <TEE_CopyObjectAttributes1+0x4c>
/home/hsk/Desktop/devel/tee-tpm-hyp/optee_os/lib/libutee/tee_api_objects.c:346
    12ee:	9b0d      	ldr	r3, [sp, #52]	; 0x34
    12f0:	0399      	lsls	r1, r3, #14
    12f2:	d401      	bmi.n	12f8 <TEE_CopyObjectAttributes1+0x28>
/home/hsk/Desktop/devel/tee-tpm-hyp/optee_os/lib/libutee/tee_api_objects.c:347
    12f4:	f006 fbde 	bl	7ab4 <TEE_Panic>
/home/hsk/Desktop/devel/tee-tpm-hyp/optee_os/lib/libutee/tee_api_objects.c:349
    12f8:	9b06      	ldr	r3, [sp, #24]
    12fa:	03da      	lsls	r2, r3, #15
    12fc:	d502      	bpl.n	1304 <TEE_CopyObjectAttributes1+0x34>
/home/hsk/Desktop/devel/tee-tpm-hyp/optee_os/lib/libutee/tee_api_objects.c:350
    12fe:	2000      	movs	r0, #0
    1300:	f006 fbd8 	bl	7ab4 <TEE_Panic>
/home/hsk/Desktop/devel/tee-tpm-hyp/optee_os/lib/libutee/tee_api_objects.c:352
    1304:	9b06      	ldr	r3, [sp, #24]
    1306:	039b      	lsls	r3, r3, #14
    1308:	d502      	bpl.n	1310 <TEE_CopyObjectAttributes1+0x40>
/home/hsk/Desktop/devel/tee-tpm-hyp/optee_os/lib/libutee/tee_api_objects.c:353
    130a:	2000      	movs	r0, #0
    130c:	f006 fbd2 	bl	7ab4 <TEE_Panic>
/home/hsk/Desktop/devel/tee-tpm-hyp/optee_os/lib/libutee/tee_api_objects.c:355
    1310:	4629      	mov	r1, r5
    1312:	4630      	mov	r0, r6
    1314:	f001 ef54 	blx	31c0 <utee_cryp_obj_copy>
/home/hsk/Desktop/devel/tee-tpm-hyp/optee_os/lib/libutee/tee_api_objects.c:359
    1318:	4604      	mov	r4, r0
    131a:	b140      	cbz	r0, 132e <TEE_CopyObjectAttributes1+0x5e>
/home/hsk/Desktop/devel/tee-tpm-hyp/optee_os/lib/libutee/tee_api_objects.c:359 (discriminator 1)
    131c:	4b05      	ldr	r3, [pc, #20]	; (1334 <TEE_CopyObjectAttributes1+0x64>)
    131e:	429c      	cmp	r4, r3
    1320:	d005      	beq.n	132e <TEE_CopyObjectAttributes1+0x5e>
/home/hsk/Desktop/devel/tee-tpm-hyp/optee_os/lib/libutee/tee_api_objects.c:360
    1322:	3302      	adds	r3, #2
    1324:	429c      	cmp	r4, r3
    1326:	d002      	beq.n	132e <TEE_CopyObjectAttributes1+0x5e>
/home/hsk/Desktop/devel/tee-tpm-hyp/optee_os/lib/libutee/tee_api_objects.c:362
    1328:	4620      	mov	r0, r4
    132a:	f006 fbc3 	bl	7ab4 <TEE_Panic>
/home/hsk/Desktop/devel/tee-tpm-hyp/optee_os/lib/libutee/tee_api_objects.c:365
    132e:	4620      	mov	r0, r4
    1330:	b00e      	add	sp, #56	; 0x38
    1332:	bd70      	pop	{r4, r5, r6, pc}
    1334:	f0100001 	.word	0xf0100001

00001338 <TEE_CopyObjectAttributes>:
TEE_CopyObjectAttributes():
/home/hsk/Desktop/devel/tee-tpm-hyp/optee_os/lib/libutee/tee_api_objects.c:318
    1338:	b530      	push	{r4, r5, lr}
    133a:	460c      	mov	r4, r1
    133c:	4605      	mov	r5, r0
    133e:	b089      	sub	sp, #36	; 0x24
/home/hsk/Desktop/devel/tee-tpm-hyp/optee_os/lib/libutee/tee_api_objects.c:322
    1340:	4620      	mov	r0, r4
    1342:	a901      	add	r1, sp, #4
    1344:	f001 eef6 	blx	3134 <utee_cryp_obj_get_info>
/home/hsk/Desktop/devel/tee-tpm-hyp/optee_os/lib/libutee/tee_api_objects.c:323
    1348:	4b06      	ldr	r3, [pc, #24]	; (1364 <TEE_CopyObjectAttributes+0x2c>)
    134a:	9a01      	ldr	r2, [sp, #4]
    134c:	429a      	cmp	r2, r3
    134e:	d006      	beq.n	135e <TEE_CopyObjectAttributes+0x26>
/home/hsk/Desktop/devel/tee-tpm-hyp/optee_os/lib/libutee/tee_api_objects.c:326
    1350:	4621      	mov	r1, r4
    1352:	4628      	mov	r0, r5
    1354:	f7ff ffbc 	bl	12d0 <TEE_CopyObjectAttributes1>
/home/hsk/Desktop/devel/tee-tpm-hyp/optee_os/lib/libutee/tee_api_objects.c:327
    1358:	b108      	cbz	r0, 135e <TEE_CopyObjectAttributes+0x26>
/home/hsk/Desktop/devel/tee-tpm-hyp/optee_os/lib/libutee/tee_api_objects.c:328
    135a:	f006 fbab 	bl	7ab4 <TEE_Panic>
/home/hsk/Desktop/devel/tee-tpm-hyp/optee_os/lib/libutee/tee_api_objects.c:329
    135e:	b009      	add	sp, #36	; 0x24
    1360:	bd30      	pop	{r4, r5, pc}
    1362:	bf00      	nop
    1364:	a00000be 	.word	0xa00000be

00001368 <TEE_GenerateKey>:
TEE_GenerateKey():
/home/hsk/Desktop/devel/tee-tpm-hyp/optee_os/lib/libutee/tee_api_objects.c:369
    1368:	e92d 41f0 	stmdb	sp!, {r4, r5, r6, r7, r8, lr}
    136c:	461c      	mov	r4, r3
/home/hsk/Desktop/devel/tee-tpm-hyp/optee_os/lib/libutee/tee_api_objects.c:371
    136e:	2318      	movs	r3, #24
/home/hsk/Desktop/devel/tee-tpm-hyp/optee_os/lib/libutee/tee_api_objects.c:369
    1370:	b082      	sub	sp, #8
    1372:	af02      	add	r7, sp, #8
    1374:	4605      	mov	r5, r0
/home/hsk/Desktop/devel/tee-tpm-hyp/optee_os/lib/libutee/tee_api_objects.c:371
    1376:	4363      	muls	r3, r4
/home/hsk/Desktop/devel/tee-tpm-hyp/optee_os/lib/libutee/tee_api_objects.c:369
    1378:	4688      	mov	r8, r1
    137a:	4611      	mov	r1, r2
/home/hsk/Desktop/devel/tee-tpm-hyp/optee_os/lib/libutee/tee_api_objects.c:373
    137c:	4622      	mov	r2, r4
/home/hsk/Desktop/devel/tee-tpm-hyp/optee_os/lib/libutee/tee_api_objects.c:371
    137e:	3308      	adds	r3, #8
    1380:	ebad 0d03 	sub.w	sp, sp, r3
    1384:	ae02      	add	r6, sp, #8
/home/hsk/Desktop/devel/tee-tpm-hyp/optee_os/lib/libutee/tee_api_objects.c:373
    1386:	4630      	mov	r0, r6
    1388:	f7ff fe14 	bl	fb4 <__utee_from_attr>
/home/hsk/Desktop/devel/tee-tpm-hyp/optee_os/lib/libutee/tee_api_objects.c:374
    138c:	4b0f      	ldr	r3, [pc, #60]	; (13cc <TEE_GenerateKey+0x64>)
    138e:	4810      	ldr	r0, [pc, #64]	; (13d0 <TEE_GenerateKey+0x68>)
    1390:	2203      	movs	r2, #3
    1392:	447b      	add	r3, pc
    1394:	f44f 71bb 	mov.w	r1, #374	; 0x176
    1398:	9300      	str	r3, [sp, #0]
    139a:	4478      	add	r0, pc
    139c:	2301      	movs	r3, #1
    139e:	9501      	str	r5, [sp, #4]
    13a0:	f7fe ff86 	bl	2b0 <trace_printf>
/home/hsk/Desktop/devel/tee-tpm-hyp/optee_os/lib/libutee/tee_api_objects.c:375
    13a4:	4623      	mov	r3, r4
    13a6:	4632      	mov	r2, r6
    13a8:	4641      	mov	r1, r8
    13aa:	4628      	mov	r0, r5
    13ac:	f001 effe 	blx	33ac <utee_cryp_obj_generate_key>
/home/hsk/Desktop/devel/tee-tpm-hyp/optee_os/lib/libutee/tee_api_objects.c:378
    13b0:	4604      	mov	r4, r0
    13b2:	b120      	cbz	r0, 13be <TEE_GenerateKey+0x56>
/home/hsk/Desktop/devel/tee-tpm-hyp/optee_os/lib/libutee/tee_api_objects.c:378 (discriminator 1)
    13b4:	4b04      	ldr	r3, [pc, #16]	; (13c8 <TEE_GenerateKey+0x60>)
    13b6:	4298      	cmp	r0, r3
    13b8:	d001      	beq.n	13be <TEE_GenerateKey+0x56>
/home/hsk/Desktop/devel/tee-tpm-hyp/optee_os/lib/libutee/tee_api_objects.c:379
    13ba:	f006 fb7b 	bl	7ab4 <TEE_Panic>
/home/hsk/Desktop/devel/tee-tpm-hyp/optee_os/lib/libutee/tee_api_objects.c:382
    13be:	4620      	mov	r0, r4
    13c0:	46bd      	mov	sp, r7
    13c2:	e8bd 81f0 	ldmia.w	sp!, {r4, r5, r6, r7, r8, pc}
    13c6:	bf00      	nop
    13c8:	ffff0006 	.word	0xffff0006
    13cc:	00006df1 	.word	0x00006df1
    13d0:	00006dd9 	.word	0x00006dd9

000013d4 <TEE_OpenPersistentObject>:
TEE_OpenPersistentObject():
/home/hsk/Desktop/devel/tee-tpm-hyp/optee_os/lib/libutee/tee_api_objects.c:389
    13d4:	b530      	push	{r4, r5, lr}
    13d6:	b085      	sub	sp, #20
    13d8:	9d08      	ldr	r5, [sp, #32]
/home/hsk/Desktop/devel/tee-tpm-hyp/optee_os/lib/libutee/tee_api_objects.c:393
    13da:	b919      	cbnz	r1, 13e4 <TEE_OpenPersistentObject+0x10>
/home/hsk/Desktop/devel/tee-tpm-hyp/optee_os/lib/libutee/tee_api_objects.c:394
    13dc:	4c12      	ldr	r4, [pc, #72]	; (1428 <TEE_OpenPersistentObject+0x54>)
/home/hsk/Desktop/devel/tee-tpm-hyp/optee_os/lib/libutee/tee_api_objects.c:423
    13de:	4620      	mov	r0, r4
    13e0:	b005      	add	sp, #20
    13e2:	bd30      	pop	{r4, r5, pc}
/home/hsk/Desktop/devel/tee-tpm-hyp/optee_os/lib/libutee/tee_api_objects.c:398
    13e4:	2a40      	cmp	r2, #64	; 0x40
    13e6:	d809      	bhi.n	13fc <TEE_OpenPersistentObject+0x28>
/home/hsk/Desktop/devel/tee-tpm-hyp/optee_os/lib/libutee/tee_api_objects.c:403
    13e8:	b145      	cbz	r5, 13fc <TEE_OpenPersistentObject+0x28>
/home/hsk/Desktop/devel/tee-tpm-hyp/optee_os/lib/libutee/tee_api_objects.c:408
    13ea:	ac03      	add	r4, sp, #12
    13ec:	9400      	str	r4, [sp, #0]
    13ee:	f001 ef58 	blx	32a0 <utee_storage_obj_open>
/home/hsk/Desktop/devel/tee-tpm-hyp/optee_os/lib/libutee/tee_api_objects.c:410
    13f2:	4604      	mov	r4, r0
    13f4:	b920      	cbnz	r0, 1400 <TEE_OpenPersistentObject+0x2c>
/home/hsk/Desktop/devel/tee-tpm-hyp/optee_os/lib/libutee/tee_api_objects.c:411
    13f6:	9b03      	ldr	r3, [sp, #12]
    13f8:	602b      	str	r3, [r5, #0]
    13fa:	e7f0      	b.n	13de <TEE_OpenPersistentObject+0xa>
    13fc:	4c0b      	ldr	r4, [pc, #44]	; (142c <TEE_OpenPersistentObject+0x58>)
    13fe:	e00e      	b.n	141e <TEE_OpenPersistentObject+0x4a>
/home/hsk/Desktop/devel/tee-tpm-hyp/optee_os/lib/libutee/tee_api_objects.c:414
    1400:	4b09      	ldr	r3, [pc, #36]	; (1428 <TEE_OpenPersistentObject+0x54>)
    1402:	4298      	cmp	r0, r3
    1404:	d0ea      	beq.n	13dc <TEE_OpenPersistentObject+0x8>
/home/hsk/Desktop/devel/tee-tpm-hyp/optee_os/lib/libutee/tee_api_objects.c:415
    1406:	4b0a      	ldr	r3, [pc, #40]	; (1430 <TEE_OpenPersistentObject+0x5c>)
    1408:	429c      	cmp	r4, r3
    140a:	d0e8      	beq.n	13de <TEE_OpenPersistentObject+0xa>
/home/hsk/Desktop/devel/tee-tpm-hyp/optee_os/lib/libutee/tee_api_objects.c:416
    140c:	3309      	adds	r3, #9
    140e:	429c      	cmp	r4, r3
    1410:	d0e5      	beq.n	13de <TEE_OpenPersistentObject+0xa>
/home/hsk/Desktop/devel/tee-tpm-hyp/optee_os/lib/libutee/tee_api_objects.c:417
    1412:	4b08      	ldr	r3, [pc, #32]	; (1434 <TEE_OpenPersistentObject+0x60>)
    1414:	429c      	cmp	r4, r3
    1416:	d0e2      	beq.n	13de <TEE_OpenPersistentObject+0xa>
/home/hsk/Desktop/devel/tee-tpm-hyp/optee_os/lib/libutee/tee_api_objects.c:418
    1418:	3302      	adds	r3, #2
    141a:	429c      	cmp	r4, r3
    141c:	d0df      	beq.n	13de <TEE_OpenPersistentObject+0xa>
/home/hsk/Desktop/devel/tee-tpm-hyp/optee_os/lib/libutee/tee_api_objects.c:420
    141e:	4620      	mov	r0, r4
    1420:	f006 fb48 	bl	7ab4 <TEE_Panic>
/home/hsk/Desktop/devel/tee-tpm-hyp/optee_os/lib/libutee/tee_api_objects.c:422
    1424:	e7db      	b.n	13de <TEE_OpenPersistentObject+0xa>
    1426:	bf00      	nop
    1428:	ffff0008 	.word	0xffff0008
    142c:	ffff0006 	.word	0xffff0006
    1430:	ffff0003 	.word	0xffff0003
    1434:	f0100001 	.word	0xf0100001

00001438 <TEE_CreatePersistentObject>:
TEE_CreatePersistentObject():
/home/hsk/Desktop/devel/tee-tpm-hyp/optee_os/lib/libutee/tee_api_objects.c:431
    1438:	b570      	push	{r4, r5, r6, lr}
    143a:	b086      	sub	sp, #24
    143c:	9c0d      	ldr	r4, [sp, #52]	; 0x34
/home/hsk/Desktop/devel/tee-tpm-hyp/optee_os/lib/libutee/tee_api_objects.c:435
    143e:	2900      	cmp	r1, #0
    1440:	d033      	beq.n	14aa <TEE_CreatePersistentObject+0x72>
/home/hsk/Desktop/devel/tee-tpm-hyp/optee_os/lib/libutee/tee_api_objects.c:440
    1442:	2a40      	cmp	r2, #64	; 0x40
    1444:	d835      	bhi.n	14b2 <TEE_CreatePersistentObject+0x7a>
/home/hsk/Desktop/devel/tee-tpm-hyp/optee_os/lib/libutee/tee_api_objects.c:445
    1446:	ad05      	add	r5, sp, #20
    1448:	9503      	str	r5, [sp, #12]
    144a:	9d0c      	ldr	r5, [sp, #48]	; 0x30
    144c:	9502      	str	r5, [sp, #8]
    144e:	9d0b      	ldr	r5, [sp, #44]	; 0x2c
    1450:	9501      	str	r5, [sp, #4]
    1452:	9d0a      	ldr	r5, [sp, #40]	; 0x28
    1454:	9500      	str	r5, [sp, #0]
    1456:	f001 ef30 	blx	32b8 <utee_storage_obj_create>
/home/hsk/Desktop/devel/tee-tpm-hyp/optee_os/lib/libutee/tee_api_objects.c:448
    145a:	b970      	cbnz	r0, 147a <TEE_CreatePersistentObject+0x42>
    145c:	9b05      	ldr	r3, [sp, #20]
/home/hsk/Desktop/devel/tee-tpm-hyp/optee_os/lib/libutee/tee_api_objects.c:449
    145e:	b114      	cbz	r4, 1466 <TEE_CreatePersistentObject+0x2e>
/home/hsk/Desktop/devel/tee-tpm-hyp/optee_os/lib/libutee/tee_api_objects.c:450
    1460:	6023      	str	r3, [r4, #0]
/home/hsk/Desktop/devel/tee-tpm-hyp/optee_os/lib/libutee/tee_api_objects.c:469
    1462:	b006      	add	sp, #24
    1464:	bd70      	pop	{r4, r5, r6, pc}
/home/hsk/Desktop/devel/tee-tpm-hyp/optee_os/lib/libutee/tee_api_objects.c:452
    1466:	4618      	mov	r0, r3
    1468:	f001 ee8c 	blx	3184 <utee_cryp_obj_close>
/home/hsk/Desktop/devel/tee-tpm-hyp/optee_os/lib/libutee/tee_api_objects.c:453
    146c:	2800      	cmp	r0, #0
    146e:	d0f8      	beq.n	1462 <TEE_CreatePersistentObject+0x2a>
/home/hsk/Desktop/devel/tee-tpm-hyp/optee_os/lib/libutee/tee_api_objects.c:459
    1470:	4b12      	ldr	r3, [pc, #72]	; (14bc <TEE_CreatePersistentObject+0x84>)
    1472:	4298      	cmp	r0, r3
    1474:	d106      	bne.n	1484 <TEE_CreatePersistentObject+0x4c>
/home/hsk/Desktop/devel/tee-tpm-hyp/optee_os/lib/libutee/tee_api_objects.c:458
    1476:	4811      	ldr	r0, [pc, #68]	; (14bc <TEE_CreatePersistentObject+0x84>)
    1478:	e7f3      	b.n	1462 <TEE_CreatePersistentObject+0x2a>
/home/hsk/Desktop/devel/tee-tpm-hyp/optee_os/lib/libutee/tee_api_objects.c:457
    147a:	2c00      	cmp	r4, #0
    147c:	d0f8      	beq.n	1470 <TEE_CreatePersistentObject+0x38>
/home/hsk/Desktop/devel/tee-tpm-hyp/optee_os/lib/libutee/tee_api_objects.c:458
    147e:	2300      	movs	r3, #0
    1480:	6023      	str	r3, [r4, #0]
    1482:	e7f5      	b.n	1470 <TEE_CreatePersistentObject+0x38>
/home/hsk/Desktop/devel/tee-tpm-hyp/optee_os/lib/libutee/tee_api_objects.c:459 (discriminator 1)
    1484:	4b0e      	ldr	r3, [pc, #56]	; (14c0 <TEE_CreatePersistentObject+0x88>)
    1486:	4298      	cmp	r0, r3
    1488:	d0eb      	beq.n	1462 <TEE_CreatePersistentObject+0x2a>
/home/hsk/Desktop/devel/tee-tpm-hyp/optee_os/lib/libutee/tee_api_objects.c:460
    148a:	3309      	adds	r3, #9
    148c:	4298      	cmp	r0, r3
    148e:	d0e8      	beq.n	1462 <TEE_CreatePersistentObject+0x2a>
/home/hsk/Desktop/devel/tee-tpm-hyp/optee_os/lib/libutee/tee_api_objects.c:461
    1490:	4b0c      	ldr	r3, [pc, #48]	; (14c4 <TEE_CreatePersistentObject+0x8c>)
    1492:	4298      	cmp	r0, r3
    1494:	d0e5      	beq.n	1462 <TEE_CreatePersistentObject+0x2a>
/home/hsk/Desktop/devel/tee-tpm-hyp/optee_os/lib/libutee/tee_api_objects.c:462
    1496:	4b0c      	ldr	r3, [pc, #48]	; (14c8 <TEE_CreatePersistentObject+0x90>)
    1498:	4298      	cmp	r0, r3
    149a:	d0e2      	beq.n	1462 <TEE_CreatePersistentObject+0x2a>
/home/hsk/Desktop/devel/tee-tpm-hyp/optee_os/lib/libutee/tee_api_objects.c:463
    149c:	3302      	adds	r3, #2
    149e:	4298      	cmp	r0, r3
    14a0:	d0df      	beq.n	1462 <TEE_CreatePersistentObject+0x2a>
/home/hsk/Desktop/devel/tee-tpm-hyp/optee_os/lib/libutee/tee_api_objects.c:466
    14a2:	f006 fb07 	bl	7ab4 <TEE_Panic>
/home/hsk/Desktop/devel/tee-tpm-hyp/optee_os/lib/libutee/tee_api_objects.c:468
    14a6:	2000      	movs	r0, #0
    14a8:	e7db      	b.n	1462 <TEE_CreatePersistentObject+0x2a>
/home/hsk/Desktop/devel/tee-tpm-hyp/optee_os/lib/libutee/tee_api_objects.c:457
    14aa:	2c00      	cmp	r4, #0
    14ac:	d0e3      	beq.n	1476 <TEE_CreatePersistentObject+0x3e>
/home/hsk/Desktop/devel/tee-tpm-hyp/optee_os/lib/libutee/tee_api_objects.c:458
    14ae:	6021      	str	r1, [r4, #0]
    14b0:	e7e1      	b.n	1476 <TEE_CreatePersistentObject+0x3e>
/home/hsk/Desktop/devel/tee-tpm-hyp/optee_os/lib/libutee/tee_api_objects.c:457
    14b2:	b10c      	cbz	r4, 14b8 <TEE_CreatePersistentObject+0x80>
/home/hsk/Desktop/devel/tee-tpm-hyp/optee_os/lib/libutee/tee_api_objects.c:458
    14b4:	2300      	movs	r3, #0
    14b6:	6023      	str	r3, [r4, #0]
/home/hsk/Desktop/devel/tee-tpm-hyp/optee_os/lib/libutee/tee_api_objects.c:441
    14b8:	4804      	ldr	r0, [pc, #16]	; (14cc <TEE_CreatePersistentObject+0x94>)
    14ba:	e7f2      	b.n	14a2 <TEE_CreatePersistentObject+0x6a>
    14bc:	ffff0008 	.word	0xffff0008
    14c0:	ffff0003 	.word	0xffff0003
    14c4:	ffff3041 	.word	0xffff3041
    14c8:	f0100001 	.word	0xf0100001
    14cc:	ffff0006 	.word	0xffff0006

000014d0 <TEE_CloseAndDeletePersistentObject1>:
TEE_CloseAndDeletePersistentObject1():
/home/hsk/Desktop/devel/tee-tpm-hyp/optee_os/lib/libutee/tee_api_objects.c:491
    14d0:	b510      	push	{r4, lr}
/home/hsk/Desktop/devel/tee-tpm-hyp/optee_os/lib/libutee/tee_api_objects.c:494
    14d2:	b150      	cbz	r0, 14ea <TEE_CloseAndDeletePersistentObject1+0x1a>
/home/hsk/Desktop/devel/tee-tpm-hyp/optee_os/lib/libutee/tee_api_objects.c:497
    14d4:	f001 eefc 	blx	32d0 <utee_storage_obj_del>
/home/hsk/Desktop/devel/tee-tpm-hyp/optee_os/lib/libutee/tee_api_objects.c:499
    14d8:	4604      	mov	r4, r0
    14da:	b120      	cbz	r0, 14e6 <TEE_CloseAndDeletePersistentObject1+0x16>
/home/hsk/Desktop/devel/tee-tpm-hyp/optee_os/lib/libutee/tee_api_objects.c:499 (discriminator 1)
    14dc:	4b04      	ldr	r3, [pc, #16]	; (14f0 <TEE_CloseAndDeletePersistentObject1+0x20>)
    14de:	4298      	cmp	r0, r3
    14e0:	d001      	beq.n	14e6 <TEE_CloseAndDeletePersistentObject1+0x16>
/home/hsk/Desktop/devel/tee-tpm-hyp/optee_os/lib/libutee/tee_api_objects.c:500
    14e2:	f006 fae7 	bl	7ab4 <TEE_Panic>
/home/hsk/Desktop/devel/tee-tpm-hyp/optee_os/lib/libutee/tee_api_objects.c:503
    14e6:	4620      	mov	r0, r4
    14e8:	bd10      	pop	{r4, pc}
/home/hsk/Desktop/devel/tee-tpm-hyp/optee_os/lib/libutee/tee_api_objects.c:495
    14ea:	4c01      	ldr	r4, [pc, #4]	; (14f0 <TEE_CloseAndDeletePersistentObject1+0x20>)
    14ec:	e7fb      	b.n	14e6 <TEE_CloseAndDeletePersistentObject1+0x16>
    14ee:	bf00      	nop
    14f0:	f0100003 	.word	0xf0100003

000014f4 <TEE_CloseAndDeletePersistentObject>:
TEE_CloseAndDeletePersistentObject():
/home/hsk/Desktop/devel/tee-tpm-hyp/optee_os/lib/libutee/tee_api_objects.c:478
    14f4:	b508      	push	{r3, lr}
/home/hsk/Desktop/devel/tee-tpm-hyp/optee_os/lib/libutee/tee_api_objects.c:481
    14f6:	b138      	cbz	r0, 1508 <TEE_CloseAndDeletePersistentObject+0x14>
/home/hsk/Desktop/devel/tee-tpm-hyp/optee_os/lib/libutee/tee_api_objects.c:484
    14f8:	f7ff ffea 	bl	14d0 <TEE_CloseAndDeletePersistentObject1>
/home/hsk/Desktop/devel/tee-tpm-hyp/optee_os/lib/libutee/tee_api_objects.c:486
    14fc:	b120      	cbz	r0, 1508 <TEE_CloseAndDeletePersistentObject+0x14>
/home/hsk/Desktop/devel/tee-tpm-hyp/optee_os/lib/libutee/tee_api_objects.c:487
    14fe:	2000      	movs	r0, #0
/home/hsk/Desktop/devel/tee-tpm-hyp/optee_os/lib/libutee/tee_api_objects.c:488
    1500:	e8bd 4008 	ldmia.w	sp!, {r3, lr}
/home/hsk/Desktop/devel/tee-tpm-hyp/optee_os/lib/libutee/tee_api_objects.c:487
    1504:	f006 bad6 	b.w	7ab4 <TEE_Panic>
/home/hsk/Desktop/devel/tee-tpm-hyp/optee_os/lib/libutee/tee_api_objects.c:488
    1508:	bd08      	pop	{r3, pc}

0000150a <TEE_RenamePersistentObject>:
TEE_RenamePersistentObject():
/home/hsk/Desktop/devel/tee-tpm-hyp/optee_os/lib/libutee/tee_api_objects.c:509
    150a:	b510      	push	{r4, lr}
/home/hsk/Desktop/devel/tee-tpm-hyp/optee_os/lib/libutee/tee_api_objects.c:512
    150c:	b1a0      	cbz	r0, 1538 <TEE_RenamePersistentObject+0x2e>
/home/hsk/Desktop/devel/tee-tpm-hyp/optee_os/lib/libutee/tee_api_objects.c:517
    150e:	b1a9      	cbz	r1, 153c <TEE_RenamePersistentObject+0x32>
/home/hsk/Desktop/devel/tee-tpm-hyp/optee_os/lib/libutee/tee_api_objects.c:522
    1510:	2a40      	cmp	r2, #64	; 0x40
    1512:	d813      	bhi.n	153c <TEE_RenamePersistentObject+0x32>
/home/hsk/Desktop/devel/tee-tpm-hyp/optee_os/lib/libutee/tee_api_objects.c:527
    1514:	f001 eee6 	blx	32e4 <utee_storage_obj_rename>
/home/hsk/Desktop/devel/tee-tpm-hyp/optee_os/lib/libutee/tee_api_objects.c:531
    1518:	4604      	mov	r4, r0
    151a:	b158      	cbz	r0, 1534 <TEE_RenamePersistentObject+0x2a>
/home/hsk/Desktop/devel/tee-tpm-hyp/optee_os/lib/libutee/tee_api_objects.c:531 (discriminator 1)
    151c:	4b08      	ldr	r3, [pc, #32]	; (1540 <TEE_RenamePersistentObject+0x36>)
    151e:	4298      	cmp	r0, r3
    1520:	d008      	beq.n	1534 <TEE_RenamePersistentObject+0x2a>
/home/hsk/Desktop/devel/tee-tpm-hyp/optee_os/lib/libutee/tee_api_objects.c:532
    1522:	4b08      	ldr	r3, [pc, #32]	; (1544 <TEE_RenamePersistentObject+0x3a>)
    1524:	4298      	cmp	r0, r3
    1526:	d005      	beq.n	1534 <TEE_RenamePersistentObject+0x2a>
/home/hsk/Desktop/devel/tee-tpm-hyp/optee_os/lib/libutee/tee_api_objects.c:533
    1528:	3302      	adds	r3, #2
    152a:	4298      	cmp	r0, r3
    152c:	d002      	beq.n	1534 <TEE_RenamePersistentObject+0x2a>
/home/hsk/Desktop/devel/tee-tpm-hyp/optee_os/lib/libutee/tee_api_objects.c:535
    152e:	4620      	mov	r0, r4
    1530:	f006 fac0 	bl	7ab4 <TEE_Panic>
/home/hsk/Desktop/devel/tee-tpm-hyp/optee_os/lib/libutee/tee_api_objects.c:538
    1534:	4620      	mov	r0, r4
    1536:	bd10      	pop	{r4, pc}
/home/hsk/Desktop/devel/tee-tpm-hyp/optee_os/lib/libutee/tee_api_objects.c:513
    1538:	4c03      	ldr	r4, [pc, #12]	; (1548 <TEE_RenamePersistentObject+0x3e>)
    153a:	e7f8      	b.n	152e <TEE_RenamePersistentObject+0x24>
/home/hsk/Desktop/devel/tee-tpm-hyp/optee_os/lib/libutee/tee_api_objects.c:518
    153c:	4c03      	ldr	r4, [pc, #12]	; (154c <TEE_RenamePersistentObject+0x42>)
    153e:	e7f6      	b.n	152e <TEE_RenamePersistentObject+0x24>
    1540:	ffff0003 	.word	0xffff0003
    1544:	f0100001 	.word	0xf0100001
    1548:	ffff0008 	.word	0xffff0008
    154c:	ffff0006 	.word	0xffff0006

00001550 <TEE_AllocatePersistentObjectEnumerator>:
TEE_AllocatePersistentObjectEnumerator():
/home/hsk/Desktop/devel/tee-tpm-hyp/optee_os/lib/libutee/tee_api_objects.c:542
    1550:	b537      	push	{r0, r1, r2, r4, r5, lr}
/home/hsk/Desktop/devel/tee-tpm-hyp/optee_os/lib/libutee/tee_api_objects.c:546
    1552:	4605      	mov	r5, r0
    1554:	b190      	cbz	r0, 157c <TEE_AllocatePersistentObjectEnumerator+0x2c>
/home/hsk/Desktop/devel/tee-tpm-hyp/optee_os/lib/libutee/tee_api_objects.c:549
    1556:	a801      	add	r0, sp, #4
    1558:	f001 eece 	blx	32f8 <utee_storage_alloc_enum>
/home/hsk/Desktop/devel/tee-tpm-hyp/optee_os/lib/libutee/tee_api_objects.c:551
    155c:	4604      	mov	r4, r0
    155e:	b108      	cbz	r0, 1564 <TEE_AllocatePersistentObjectEnumerator+0x14>
/home/hsk/Desktop/devel/tee-tpm-hyp/optee_os/lib/libutee/tee_api_objects.c:552
    1560:	2300      	movs	r3, #0
    1562:	9301      	str	r3, [sp, #4]
/home/hsk/Desktop/devel/tee-tpm-hyp/optee_os/lib/libutee/tee_api_objects.c:554
    1564:	9b01      	ldr	r3, [sp, #4]
    1566:	602b      	str	r3, [r5, #0]
/home/hsk/Desktop/devel/tee-tpm-hyp/optee_os/lib/libutee/tee_api_objects.c:556
    1568:	b12c      	cbz	r4, 1576 <TEE_AllocatePersistentObjectEnumerator+0x26>
/home/hsk/Desktop/devel/tee-tpm-hyp/optee_os/lib/libutee/tee_api_objects.c:556 (discriminator 1)
    156a:	4b05      	ldr	r3, [pc, #20]	; (1580 <TEE_AllocatePersistentObjectEnumerator+0x30>)
    156c:	429c      	cmp	r4, r3
    156e:	d002      	beq.n	1576 <TEE_AllocatePersistentObjectEnumerator+0x26>
/home/hsk/Desktop/devel/tee-tpm-hyp/optee_os/lib/libutee/tee_api_objects.c:558
    1570:	4620      	mov	r0, r4
    1572:	f006 fa9f 	bl	7ab4 <TEE_Panic>
/home/hsk/Desktop/devel/tee-tpm-hyp/optee_os/lib/libutee/tee_api_objects.c:561
    1576:	4620      	mov	r0, r4
    1578:	b003      	add	sp, #12
    157a:	bd30      	pop	{r4, r5, pc}
/home/hsk/Desktop/devel/tee-tpm-hyp/optee_os/lib/libutee/tee_api_objects.c:547
    157c:	4c01      	ldr	r4, [pc, #4]	; (1584 <TEE_AllocatePersistentObjectEnumerator+0x34>)
    157e:	e7fa      	b.n	1576 <TEE_AllocatePersistentObjectEnumerator+0x26>
    1580:	ffff0003 	.word	0xffff0003
    1584:	ffff0006 	.word	0xffff0006

00001588 <TEE_FreePersistentObjectEnumerator>:
TEE_FreePersistentObjectEnumerator():
/home/hsk/Desktop/devel/tee-tpm-hyp/optee_os/lib/libutee/tee_api_objects.c:564
    1588:	b508      	push	{r3, lr}
/home/hsk/Desktop/devel/tee-tpm-hyp/optee_os/lib/libutee/tee_api_objects.c:567
    158a:	b130      	cbz	r0, 159a <TEE_FreePersistentObjectEnumerator+0x12>
/home/hsk/Desktop/devel/tee-tpm-hyp/optee_os/lib/libutee/tee_api_objects.c:570
    158c:	f001 eebe 	blx	330c <utee_storage_free_enum>
/home/hsk/Desktop/devel/tee-tpm-hyp/optee_os/lib/libutee/tee_api_objects.c:572
    1590:	b118      	cbz	r0, 159a <TEE_FreePersistentObjectEnumerator+0x12>
/home/hsk/Desktop/devel/tee-tpm-hyp/optee_os/lib/libutee/tee_api_objects.c:574
    1592:	e8bd 4008 	ldmia.w	sp!, {r3, lr}
/home/hsk/Desktop/devel/tee-tpm-hyp/optee_os/lib/libutee/tee_api_objects.c:573
    1596:	f006 ba8d 	b.w	7ab4 <TEE_Panic>
/home/hsk/Desktop/devel/tee-tpm-hyp/optee_os/lib/libutee/tee_api_objects.c:574
    159a:	bd08      	pop	{r3, pc}

0000159c <TEE_ResetPersistentObjectEnumerator>:
TEE_ResetPersistentObjectEnumerator():
/home/hsk/Desktop/devel/tee-tpm-hyp/optee_os/lib/libutee/tee_api_objects.c:577
    159c:	b508      	push	{r3, lr}
/home/hsk/Desktop/devel/tee-tpm-hyp/optee_os/lib/libutee/tee_api_objects.c:580
    159e:	b130      	cbz	r0, 15ae <TEE_ResetPersistentObjectEnumerator+0x12>
/home/hsk/Desktop/devel/tee-tpm-hyp/optee_os/lib/libutee/tee_api_objects.c:583
    15a0:	f001 eebe 	blx	3320 <utee_storage_reset_enum>
/home/hsk/Desktop/devel/tee-tpm-hyp/optee_os/lib/libutee/tee_api_objects.c:585
    15a4:	b118      	cbz	r0, 15ae <TEE_ResetPersistentObjectEnumerator+0x12>
/home/hsk/Desktop/devel/tee-tpm-hyp/optee_os/lib/libutee/tee_api_objects.c:587
    15a6:	e8bd 4008 	ldmia.w	sp!, {r3, lr}
/home/hsk/Desktop/devel/tee-tpm-hyp/optee_os/lib/libutee/tee_api_objects.c:586
    15aa:	f006 ba83 	b.w	7ab4 <TEE_Panic>
/home/hsk/Desktop/devel/tee-tpm-hyp/optee_os/lib/libutee/tee_api_objects.c:587
    15ae:	bd08      	pop	{r3, pc}

000015b0 <TEE_StartPersistentObjectEnumerator>:
TEE_StartPersistentObjectEnumerator():
/home/hsk/Desktop/devel/tee-tpm-hyp/optee_os/lib/libutee/tee_api_objects.c:592
    15b0:	b510      	push	{r4, lr}
/home/hsk/Desktop/devel/tee-tpm-hyp/optee_os/lib/libutee/tee_api_objects.c:595
    15b2:	f001 eec0 	blx	3334 <utee_storage_start_enum>
/home/hsk/Desktop/devel/tee-tpm-hyp/optee_os/lib/libutee/tee_api_objects.c:598
    15b6:	4604      	mov	r4, r0
    15b8:	b148      	cbz	r0, 15ce <TEE_StartPersistentObjectEnumerator+0x1e>
/home/hsk/Desktop/devel/tee-tpm-hyp/optee_os/lib/libutee/tee_api_objects.c:598 (discriminator 1)
    15ba:	4b06      	ldr	r3, [pc, #24]	; (15d4 <TEE_StartPersistentObjectEnumerator+0x24>)
    15bc:	4298      	cmp	r0, r3
    15be:	d006      	beq.n	15ce <TEE_StartPersistentObjectEnumerator+0x1e>
/home/hsk/Desktop/devel/tee-tpm-hyp/optee_os/lib/libutee/tee_api_objects.c:599
    15c0:	4b05      	ldr	r3, [pc, #20]	; (15d8 <TEE_StartPersistentObjectEnumerator+0x28>)
    15c2:	f020 0202 	bic.w	r2, r0, #2
    15c6:	429a      	cmp	r2, r3
    15c8:	d001      	beq.n	15ce <TEE_StartPersistentObjectEnumerator+0x1e>
/home/hsk/Desktop/devel/tee-tpm-hyp/optee_os/lib/libutee/tee_api_objects.c:602
    15ca:	f006 fa73 	bl	7ab4 <TEE_Panic>
/home/hsk/Desktop/devel/tee-tpm-hyp/optee_os/lib/libutee/tee_api_objects.c:605
    15ce:	4620      	mov	r0, r4
    15d0:	bd10      	pop	{r4, pc}
    15d2:	bf00      	nop
    15d4:	ffff0008 	.word	0xffff0008
    15d8:	f0100001 	.word	0xf0100001

000015dc <TEE_GetNextPersistentObject>:
TEE_GetNextPersistentObject():
/home/hsk/Desktop/devel/tee-tpm-hyp/optee_os/lib/libutee/tee_api_objects.c:610
    15dc:	b510      	push	{r4, lr}
    15de:	461c      	mov	r4, r3
    15e0:	b08a      	sub	sp, #40	; 0x28
/home/hsk/Desktop/devel/tee-tpm-hyp/optee_os/lib/libutee/tee_api_objects.c:616
    15e2:	b1e2      	cbz	r2, 161e <TEE_GetNextPersistentObject+0x42>
/home/hsk/Desktop/devel/tee-tpm-hyp/optee_os/lib/libutee/tee_api_objects.c:621
    15e4:	b1db      	cbz	r3, 161e <TEE_GetNextPersistentObject+0x42>
/home/hsk/Desktop/devel/tee-tpm-hyp/optee_os/lib/libutee/tee_api_objects.c:626
    15e6:	b901      	cbnz	r1, 15ea <TEE_GetNextPersistentObject+0xe>
/home/hsk/Desktop/devel/tee-tpm-hyp/optee_os/lib/libutee/tee_api_objects.c:629
    15e8:	a903      	add	r1, sp, #12
/home/hsk/Desktop/devel/tee-tpm-hyp/optee_os/lib/libutee/tee_api_objects.c:630
    15ea:	6823      	ldr	r3, [r4, #0]
    15ec:	9300      	str	r3, [sp, #0]
    15ee:	2300      	movs	r3, #0
    15f0:	9301      	str	r3, [sp, #4]
/home/hsk/Desktop/devel/tee-tpm-hyp/optee_os/lib/libutee/tee_api_objects.c:631
    15f2:	466b      	mov	r3, sp
    15f4:	f001 eea8 	blx	3348 <utee_storage_next_enum>
/home/hsk/Desktop/devel/tee-tpm-hyp/optee_os/lib/libutee/tee_api_objects.c:633
    15f8:	9b00      	ldr	r3, [sp, #0]
    15fa:	6023      	str	r3, [r4, #0]
/home/hsk/Desktop/devel/tee-tpm-hyp/optee_os/lib/libutee/tee_api_objects.c:636
    15fc:	4604      	mov	r4, r0
    15fe:	b158      	cbz	r0, 1618 <TEE_GetNextPersistentObject+0x3c>
/home/hsk/Desktop/devel/tee-tpm-hyp/optee_os/lib/libutee/tee_api_objects.c:636 (discriminator 1)
    1600:	4b08      	ldr	r3, [pc, #32]	; (1624 <TEE_GetNextPersistentObject+0x48>)
    1602:	4298      	cmp	r0, r3
    1604:	d008      	beq.n	1618 <TEE_GetNextPersistentObject+0x3c>
/home/hsk/Desktop/devel/tee-tpm-hyp/optee_os/lib/libutee/tee_api_objects.c:637
    1606:	4b08      	ldr	r3, [pc, #32]	; (1628 <TEE_GetNextPersistentObject+0x4c>)
    1608:	4298      	cmp	r0, r3
    160a:	d005      	beq.n	1618 <TEE_GetNextPersistentObject+0x3c>
/home/hsk/Desktop/devel/tee-tpm-hyp/optee_os/lib/libutee/tee_api_objects.c:638
    160c:	3302      	adds	r3, #2
    160e:	4298      	cmp	r0, r3
    1610:	d002      	beq.n	1618 <TEE_GetNextPersistentObject+0x3c>
/home/hsk/Desktop/devel/tee-tpm-hyp/optee_os/lib/libutee/tee_api_objects.c:640
    1612:	4620      	mov	r0, r4
    1614:	f006 fa4e 	bl	7ab4 <TEE_Panic>
/home/hsk/Desktop/devel/tee-tpm-hyp/optee_os/lib/libutee/tee_api_objects.c:643
    1618:	4620      	mov	r0, r4
    161a:	b00a      	add	sp, #40	; 0x28
    161c:	bd10      	pop	{r4, pc}
    161e:	4c03      	ldr	r4, [pc, #12]	; (162c <TEE_GetNextPersistentObject+0x50>)
    1620:	e7f7      	b.n	1612 <TEE_GetNextPersistentObject+0x36>
    1622:	bf00      	nop
    1624:	ffff0008 	.word	0xffff0008
    1628:	f0100001 	.word	0xf0100001
    162c:	ffff0006 	.word	0xffff0006

00001630 <TEE_ReadObjectData>:
TEE_ReadObjectData():
/home/hsk/Desktop/devel/tee-tpm-hyp/optee_os/lib/libutee/tee_api_objects.c:649
    1630:	b513      	push	{r0, r1, r4, lr}
    1632:	461c      	mov	r4, r3
/home/hsk/Desktop/devel/tee-tpm-hyp/optee_os/lib/libutee/tee_api_objects.c:653
    1634:	b1b0      	cbz	r0, 1664 <TEE_ReadObjectData+0x34>
/home/hsk/Desktop/devel/tee-tpm-hyp/optee_os/lib/libutee/tee_api_objects.c:658
    1636:	681b      	ldr	r3, [r3, #0]
    1638:	9300      	str	r3, [sp, #0]
    163a:	2300      	movs	r3, #0
    163c:	9301      	str	r3, [sp, #4]
/home/hsk/Desktop/devel/tee-tpm-hyp/optee_os/lib/libutee/tee_api_objects.c:659
    163e:	466b      	mov	r3, sp
    1640:	f001 ee8c 	blx	335c <utee_storage_obj_read>
/home/hsk/Desktop/devel/tee-tpm-hyp/optee_os/lib/libutee/tee_api_objects.c:661
    1644:	9b00      	ldr	r3, [sp, #0]
    1646:	6023      	str	r3, [r4, #0]
/home/hsk/Desktop/devel/tee-tpm-hyp/optee_os/lib/libutee/tee_api_objects.c:664
    1648:	4604      	mov	r4, r0
    164a:	b140      	cbz	r0, 165e <TEE_ReadObjectData+0x2e>
/home/hsk/Desktop/devel/tee-tpm-hyp/optee_os/lib/libutee/tee_api_objects.c:664 (discriminator 1)
    164c:	4b06      	ldr	r3, [pc, #24]	; (1668 <TEE_ReadObjectData+0x38>)
    164e:	4298      	cmp	r0, r3
    1650:	d005      	beq.n	165e <TEE_ReadObjectData+0x2e>
/home/hsk/Desktop/devel/tee-tpm-hyp/optee_os/lib/libutee/tee_api_objects.c:665
    1652:	3302      	adds	r3, #2
    1654:	4298      	cmp	r0, r3
    1656:	d002      	beq.n	165e <TEE_ReadObjectData+0x2e>
/home/hsk/Desktop/devel/tee-tpm-hyp/optee_os/lib/libutee/tee_api_objects.c:667
    1658:	4620      	mov	r0, r4
    165a:	f006 fa2b 	bl	7ab4 <TEE_Panic>
/home/hsk/Desktop/devel/tee-tpm-hyp/optee_os/lib/libutee/tee_api_objects.c:670
    165e:	4620      	mov	r0, r4
    1660:	b002      	add	sp, #8
    1662:	bd10      	pop	{r4, pc}
/home/hsk/Desktop/devel/tee-tpm-hyp/optee_os/lib/libutee/tee_api_objects.c:654
    1664:	4c01      	ldr	r4, [pc, #4]	; (166c <TEE_ReadObjectData+0x3c>)
    1666:	e7f7      	b.n	1658 <TEE_ReadObjectData+0x28>
    1668:	f0100001 	.word	0xf0100001
    166c:	ffff0006 	.word	0xffff0006

00001670 <TEE_WriteObjectData>:
TEE_WriteObjectData():
/home/hsk/Desktop/devel/tee-tpm-hyp/optee_os/lib/libutee/tee_api_objects.c:674
    1670:	b510      	push	{r4, lr}
/home/hsk/Desktop/devel/tee-tpm-hyp/optee_os/lib/libutee/tee_api_objects.c:677
    1672:	b1a0      	cbz	r0, 169e <TEE_WriteObjectData+0x2e>
/home/hsk/Desktop/devel/tee-tpm-hyp/optee_os/lib/libutee/tee_api_objects.c:687
    1674:	f001 ee7c 	blx	3370 <utee_storage_obj_write>
/home/hsk/Desktop/devel/tee-tpm-hyp/optee_os/lib/libutee/tee_api_objects.c:690
    1678:	4604      	mov	r4, r0
    167a:	b170      	cbz	r0, 169a <TEE_WriteObjectData+0x2a>
/home/hsk/Desktop/devel/tee-tpm-hyp/optee_os/lib/libutee/tee_api_objects.c:690 (discriminator 1)
    167c:	4b09      	ldr	r3, [pc, #36]	; (16a4 <TEE_WriteObjectData+0x34>)
    167e:	4298      	cmp	r0, r3
    1680:	d00b      	beq.n	169a <TEE_WriteObjectData+0x2a>
/home/hsk/Desktop/devel/tee-tpm-hyp/optee_os/lib/libutee/tee_api_objects.c:691
    1682:	3b32      	subs	r3, #50	; 0x32
    1684:	4298      	cmp	r0, r3
    1686:	d008      	beq.n	169a <TEE_WriteObjectData+0x2a>
/home/hsk/Desktop/devel/tee-tpm-hyp/optee_os/lib/libutee/tee_api_objects.c:692
    1688:	4b07      	ldr	r3, [pc, #28]	; (16a8 <TEE_WriteObjectData+0x38>)
    168a:	4298      	cmp	r0, r3
    168c:	d005      	beq.n	169a <TEE_WriteObjectData+0x2a>
/home/hsk/Desktop/devel/tee-tpm-hyp/optee_os/lib/libutee/tee_api_objects.c:693
    168e:	3302      	adds	r3, #2
    1690:	4298      	cmp	r0, r3
    1692:	d002      	beq.n	169a <TEE_WriteObjectData+0x2a>
/home/hsk/Desktop/devel/tee-tpm-hyp/optee_os/lib/libutee/tee_api_objects.c:695
    1694:	4620      	mov	r0, r4
    1696:	f006 fa0d 	bl	7ab4 <TEE_Panic>
/home/hsk/Desktop/devel/tee-tpm-hyp/optee_os/lib/libutee/tee_api_objects.c:698
    169a:	4620      	mov	r0, r4
    169c:	bd10      	pop	{r4, pc}
/home/hsk/Desktop/devel/tee-tpm-hyp/optee_os/lib/libutee/tee_api_objects.c:678
    169e:	4c03      	ldr	r4, [pc, #12]	; (16ac <TEE_WriteObjectData+0x3c>)
    16a0:	e7f8      	b.n	1694 <TEE_WriteObjectData+0x24>
    16a2:	bf00      	nop
    16a4:	ffff3041 	.word	0xffff3041
    16a8:	f0100001 	.word	0xf0100001
    16ac:	ffff0006 	.word	0xffff0006

000016b0 <TEE_TruncateObjectData>:
TEE_TruncateObjectData():
/home/hsk/Desktop/devel/tee-tpm-hyp/optee_os/lib/libutee/tee_api_objects.c:701
    16b0:	b510      	push	{r4, lr}
/home/hsk/Desktop/devel/tee-tpm-hyp/optee_os/lib/libutee/tee_api_objects.c:704
    16b2:	b170      	cbz	r0, 16d2 <TEE_TruncateObjectData+0x22>
/home/hsk/Desktop/devel/tee-tpm-hyp/optee_os/lib/libutee/tee_api_objects.c:709
    16b4:	f001 ee66 	blx	3384 <utee_storage_obj_trunc>
/home/hsk/Desktop/devel/tee-tpm-hyp/optee_os/lib/libutee/tee_api_objects.c:712
    16b8:	4604      	mov	r4, r0
    16ba:	b140      	cbz	r0, 16ce <TEE_TruncateObjectData+0x1e>
/home/hsk/Desktop/devel/tee-tpm-hyp/optee_os/lib/libutee/tee_api_objects.c:712 (discriminator 1)
    16bc:	4b07      	ldr	r3, [pc, #28]	; (16dc <TEE_TruncateObjectData+0x2c>)
    16be:	4298      	cmp	r0, r3
    16c0:	d005      	beq.n	16ce <TEE_TruncateObjectData+0x1e>
/home/hsk/Desktop/devel/tee-tpm-hyp/optee_os/lib/libutee/tee_api_objects.c:713
    16c2:	4b07      	ldr	r3, [pc, #28]	; (16e0 <TEE_TruncateObjectData+0x30>)
    16c4:	4298      	cmp	r0, r3
    16c6:	d002      	beq.n	16ce <TEE_TruncateObjectData+0x1e>
/home/hsk/Desktop/devel/tee-tpm-hyp/optee_os/lib/libutee/tee_api_objects.c:714
    16c8:	3302      	adds	r3, #2
    16ca:	4298      	cmp	r0, r3
    16cc:	d102      	bne.n	16d4 <TEE_TruncateObjectData+0x24>
/home/hsk/Desktop/devel/tee-tpm-hyp/optee_os/lib/libutee/tee_api_objects.c:719
    16ce:	4620      	mov	r0, r4
    16d0:	bd10      	pop	{r4, pc}
/home/hsk/Desktop/devel/tee-tpm-hyp/optee_os/lib/libutee/tee_api_objects.c:705
    16d2:	4c04      	ldr	r4, [pc, #16]	; (16e4 <TEE_TruncateObjectData+0x34>)
/home/hsk/Desktop/devel/tee-tpm-hyp/optee_os/lib/libutee/tee_api_objects.c:716
    16d4:	4620      	mov	r0, r4
    16d6:	f006 f9ed 	bl	7ab4 <TEE_Panic>
/home/hsk/Desktop/devel/tee-tpm-hyp/optee_os/lib/libutee/tee_api_objects.c:718
    16da:	e7f8      	b.n	16ce <TEE_TruncateObjectData+0x1e>
    16dc:	ffff3041 	.word	0xffff3041
    16e0:	f0100001 	.word	0xf0100001
    16e4:	ffff0006 	.word	0xffff0006

000016e8 <TEE_SeekObjectData>:
TEE_SeekObjectData():
/home/hsk/Desktop/devel/tee-tpm-hyp/optee_os/lib/libutee/tee_api_objects.c:723
    16e8:	b5f0      	push	{r4, r5, r6, r7, lr}
    16ea:	460d      	mov	r5, r1
    16ec:	4616      	mov	r6, r2
    16ee:	b089      	sub	sp, #36	; 0x24
/home/hsk/Desktop/devel/tee-tpm-hyp/optee_os/lib/libutee/tee_api_objects.c:727
    16f0:	4607      	mov	r7, r0
    16f2:	b368      	cbz	r0, 1750 <TEE_SeekObjectData+0x68>
/home/hsk/Desktop/devel/tee-tpm-hyp/optee_os/lib/libutee/tee_api_objects.c:732
    16f4:	a901      	add	r1, sp, #4
    16f6:	f001 ed1e 	blx	3134 <utee_cryp_obj_get_info>
/home/hsk/Desktop/devel/tee-tpm-hyp/optee_os/lib/libutee/tee_api_objects.c:733
    16fa:	4604      	mov	r4, r0
    16fc:	b9d8      	cbnz	r0, 1736 <TEE_SeekObjectData+0x4e>
/home/hsk/Desktop/devel/tee-tpm-hyp/optee_os/lib/libutee/tee_api_objects.c:736
    16fe:	2e01      	cmp	r6, #1
    1700:	d004      	beq.n	170c <TEE_SeekObjectData+0x24>
    1702:	d310      	bcc.n	1726 <TEE_SeekObjectData+0x3e>
    1704:	2e02      	cmp	r6, #2
    1706:	d00a      	beq.n	171e <TEE_SeekObjectData+0x36>
/home/hsk/Desktop/devel/tee-tpm-hyp/optee_os/lib/libutee/tee_api_objects.c:762
    1708:	4c12      	ldr	r4, [pc, #72]	; (1754 <TEE_SeekObjectData+0x6c>)
    170a:	e01d      	b.n	1748 <TEE_SeekObjectData+0x60>
/home/hsk/Desktop/devel/tee-tpm-hyp/optee_os/lib/libutee/tee_api_objects.c:744
    170c:	2d00      	cmp	r5, #0
    170e:	dd0a      	ble.n	1726 <TEE_SeekObjectData+0x3e>
/home/hsk/Desktop/devel/tee-tpm-hyp/optee_os/lib/libutee/tee_api_objects.c:744 (discriminator 1)
    1710:	9b06      	ldr	r3, [sp, #24]
    1712:	42dd      	cmn	r5, r3
    1714:	d307      	bcc.n	1726 <TEE_SeekObjectData+0x3e>
/home/hsk/Desktop/devel/tee-tpm-hyp/optee_os/lib/libutee/tee_api_objects.c:749
    1716:	4c10      	ldr	r4, [pc, #64]	; (1758 <TEE_SeekObjectData+0x70>)
/home/hsk/Desktop/devel/tee-tpm-hyp/optee_os/lib/libutee/tee_api_objects.c:776
    1718:	4620      	mov	r0, r4
    171a:	b009      	add	sp, #36	; 0x24
    171c:	bdf0      	pop	{r4, r5, r6, r7, pc}
/home/hsk/Desktop/devel/tee-tpm-hyp/optee_os/lib/libutee/tee_api_objects.c:754
    171e:	2d00      	cmp	r5, #0
    1720:	dd01      	ble.n	1726 <TEE_SeekObjectData+0x3e>
/home/hsk/Desktop/devel/tee-tpm-hyp/optee_os/lib/libutee/tee_api_objects.c:754 (discriminator 1)
    1722:	9b05      	ldr	r3, [sp, #20]
    1724:	e7f5      	b.n	1712 <TEE_SeekObjectData+0x2a>
/home/hsk/Desktop/devel/tee-tpm-hyp/optee_os/lib/libutee/tee_api_objects.c:766
    1726:	4632      	mov	r2, r6
    1728:	4629      	mov	r1, r5
    172a:	4638      	mov	r0, r7
    172c:	f001 ee34 	blx	3398 <utee_storage_obj_seek>
/home/hsk/Desktop/devel/tee-tpm-hyp/optee_os/lib/libutee/tee_api_objects.c:769
    1730:	4604      	mov	r4, r0
    1732:	2800      	cmp	r0, #0
    1734:	d0f0      	beq.n	1718 <TEE_SeekObjectData+0x30>
/home/hsk/Desktop/devel/tee-tpm-hyp/optee_os/lib/libutee/tee_api_objects.c:769 (discriminator 1)
    1736:	4b08      	ldr	r3, [pc, #32]	; (1758 <TEE_SeekObjectData+0x70>)
    1738:	429c      	cmp	r4, r3
    173a:	d0ec      	beq.n	1716 <TEE_SeekObjectData+0x2e>
/home/hsk/Desktop/devel/tee-tpm-hyp/optee_os/lib/libutee/tee_api_objects.c:770
    173c:	4b07      	ldr	r3, [pc, #28]	; (175c <TEE_SeekObjectData+0x74>)
    173e:	429c      	cmp	r4, r3
    1740:	d0ea      	beq.n	1718 <TEE_SeekObjectData+0x30>
/home/hsk/Desktop/devel/tee-tpm-hyp/optee_os/lib/libutee/tee_api_objects.c:771
    1742:	3302      	adds	r3, #2
    1744:	429c      	cmp	r4, r3
    1746:	d0e7      	beq.n	1718 <TEE_SeekObjectData+0x30>
/home/hsk/Desktop/devel/tee-tpm-hyp/optee_os/lib/libutee/tee_api_objects.c:773
    1748:	4620      	mov	r0, r4
    174a:	f006 f9b3 	bl	7ab4 <TEE_Panic>
/home/hsk/Desktop/devel/tee-tpm-hyp/optee_os/lib/libutee/tee_api_objects.c:775
    174e:	e7e3      	b.n	1718 <TEE_SeekObjectData+0x30>
/home/hsk/Desktop/devel/tee-tpm-hyp/optee_os/lib/libutee/tee_api_objects.c:728
    1750:	4c03      	ldr	r4, [pc, #12]	; (1760 <TEE_SeekObjectData+0x78>)
    1752:	e7f9      	b.n	1748 <TEE_SeekObjectData+0x60>
    1754:	ffff0008 	.word	0xffff0008
    1758:	ffff300f 	.word	0xffff300f
    175c:	f0100001 	.word	0xf0100001
    1760:	ffff0006 	.word	0xffff0006

00001764 <tee_buffer_update>:
tee_buffer_update():
/home/hsk/Desktop/devel/tee-tpm-hyp/optee_os/lib/libutee/tee_api_operations.c:852
    1764:	e92d 4ff0 	stmdb	sp!, {r4, r5, r6, r7, r8, r9, sl, fp, lr}
    1768:	4604      	mov	r4, r0
    176a:	461d      	mov	r5, r3
    176c:	b087      	sub	sp, #28
/home/hsk/Desktop/devel/tee-tpm-hyp/optee_os/lib/libutee/tee_api_operations.c:864
    176e:	4690      	mov	r8, r2
/home/hsk/Desktop/devel/tee-tpm-hyp/optee_os/lib/libutee/tee_api_operations.c:852
    1770:	9103      	str	r1, [sp, #12]
/home/hsk/Desktop/devel/tee-tpm-hyp/optee_os/lib/libutee/tee_api_operations.c:864
    1772:	b962      	cbnz	r2, 178e <tee_buffer_update+0x2a>
/home/hsk/Desktop/devel/tee-tpm-hyp/optee_os/lib/libutee/tee_api_operations.c:865
    1774:	b93b      	cbnz	r3, 1786 <tee_buffer_update+0x22>
/home/hsk/Desktop/devel/tee-tpm-hyp/optee_os/lib/libutee/tee_api_operations.c:858
    1776:	2600      	movs	r6, #0
/home/hsk/Desktop/devel/tee-tpm-hyp/optee_os/lib/libutee/tee_api_operations.c:940
    1778:	9b11      	ldr	r3, [sp, #68]	; 0x44
    177a:	2000      	movs	r0, #0
    177c:	e9c3 6000 	strd	r6, r0, [r3]
/home/hsk/Desktop/devel/tee-tpm-hyp/optee_os/lib/libutee/tee_api_operations.c:942
    1780:	b007      	add	sp, #28
    1782:	e8bd 8ff0 	ldmia.w	sp!, {r4, r5, r6, r7, r8, r9, sl, fp, pc}
/home/hsk/Desktop/devel/tee-tpm-hyp/optee_os/lib/libutee/tee_api_operations.c:866
    1786:	4610      	mov	r0, r2
    1788:	f006 f994 	bl	7ab4 <TEE_Panic>
    178c:	e7f3      	b.n	1776 <tee_buffer_update+0x12>
/home/hsk/Desktop/devel/tee-tpm-hyp/optee_os/lib/libutee/tee_api_operations.c:870
    178e:	f890 9030 	ldrb.w	r9, [r0, #48]	; 0x30
    1792:	6b46      	ldr	r6, [r0, #52]	; 0x34
    1794:	f1b9 0f00 	cmp.w	r9, #0
    1798:	d06d      	beq.n	1876 <tee_buffer_update+0x112>
/home/hsk/Desktop/devel/tee-tpm-hyp/optee_os/lib/libutee/tee_api_operations.c:871
    179a:	ea4f 0a46 	mov.w	sl, r6, lsl #1
/home/hsk/Desktop/devel/tee-tpm-hyp/optee_os/lib/libutee/tee_api_operations.c:872
    179e:	f04f 0901 	mov.w	r9, #1
/home/hsk/Desktop/devel/tee-tpm-hyp/optee_os/lib/libutee/tee_api_operations.c:878
    17a2:	6ba0      	ldr	r0, [r4, #56]	; 0x38
/home/hsk/Desktop/devel/tee-tpm-hyp/optee_os/lib/libutee/tee_api_operations.c:857
    17a4:	9b11      	ldr	r3, [sp, #68]	; 0x44
    17a6:	f8d3 b000 	ldr.w	fp, [r3]
/home/hsk/Desktop/devel/tee-tpm-hyp/optee_os/lib/libutee/tee_api_operations.c:878
    17aa:	b1b8      	cbz	r0, 17dc <tee_buffer_update+0x78>
/home/hsk/Desktop/devel/tee-tpm-hyp/optee_os/lib/libutee/tee_api_operations.c:880
    17ac:	42b0      	cmp	r0, r6
    17ae:	d264      	bcs.n	187a <tee_buffer_update+0x116>
/home/hsk/Desktop/devel/tee-tpm-hyp/optee_os/lib/libutee/tee_api_operations.c:881
    17b0:	1a36      	subs	r6, r6, r0
/home/hsk/Desktop/devel/tee-tpm-hyp/optee_os/lib/libutee/tee_api_operations.c:884
    17b2:	6ae3      	ldr	r3, [r4, #44]	; 0x2c
/home/hsk/Desktop/devel/tee-tpm-hyp/optee_os/lib/libutee/tee_api_operations.c:883
    17b4:	42ae      	cmp	r6, r5
    17b6:	bf28      	it	cs
    17b8:	462e      	movcs	r6, r5
/home/hsk/Desktop/devel/tee-tpm-hyp/optee_os/lib/libutee/tee_api_operations.c:884
    17ba:	4641      	mov	r1, r8
    17bc:	4632      	mov	r2, r6
    17be:	4418      	add	r0, r3
    17c0:	f006 f99f 	bl	7b02 <memcpy>
/home/hsk/Desktop/devel/tee-tpm-hyp/optee_os/lib/libutee/tee_api_operations.c:885
    17c4:	6ba3      	ldr	r3, [r4, #56]	; 0x38
/home/hsk/Desktop/devel/tee-tpm-hyp/optee_os/lib/libutee/tee_api_operations.c:888
    17c6:	6b61      	ldr	r1, [r4, #52]	; 0x34
/home/hsk/Desktop/devel/tee-tpm-hyp/optee_os/lib/libutee/tee_api_operations.c:885
    17c8:	4433      	add	r3, r6
    17ca:	63a3      	str	r3, [r4, #56]	; 0x38
/home/hsk/Desktop/devel/tee-tpm-hyp/optee_os/lib/libutee/tee_api_operations.c:888
    17cc:	fbb3 f2f1 	udiv	r2, r3, r1
    17d0:	fb01 3312 	mls	r3, r1, r2, r3
    17d4:	2b00      	cmp	r3, #0
    17d6:	d1ce      	bne.n	1776 <tee_buffer_update+0x12>
/home/hsk/Desktop/devel/tee-tpm-hyp/optee_os/lib/libutee/tee_api_operations.c:886
    17d8:	44b0      	add	r8, r6
/home/hsk/Desktop/devel/tee-tpm-hyp/optee_os/lib/libutee/tee_api_operations.c:887
    17da:	1bad      	subs	r5, r5, r6
/home/hsk/Desktop/devel/tee-tpm-hyp/optee_os/lib/libutee/tee_api_operations.c:893
    17dc:	6ba6      	ldr	r6, [r4, #56]	; 0x38
/home/hsk/Desktop/devel/tee-tpm-hyp/optee_os/lib/libutee/tee_api_operations.c:857
    17de:	465a      	mov	r2, fp
    17e0:	44d1      	add	r9, sl
/home/hsk/Desktop/devel/tee-tpm-hyp/optee_os/lib/libutee/tee_api_operations.c:893
    17e2:	b32e      	cbz	r6, 1830 <tee_buffer_update+0xcc>
/home/hsk/Desktop/devel/tee-tpm-hyp/optee_os/lib/libutee/tee_api_operations.c:894 (discriminator 1)
    17e4:	1971      	adds	r1, r6, r5
/home/hsk/Desktop/devel/tee-tpm-hyp/optee_os/lib/libutee/tee_api_operations.c:893 (discriminator 1)
    17e6:	4549      	cmp	r1, r9
    17e8:	d35b      	bcc.n	18a2 <tee_buffer_update+0x13e>
/home/hsk/Desktop/devel/tee-tpm-hyp/optee_os/lib/libutee/tee_api_operations.c:895
    17ea:	6b63      	ldr	r3, [r4, #52]	; 0x34
/home/hsk/Desktop/devel/tee-tpm-hyp/optee_os/lib/libutee/tee_api_operations.c:899
    17ec:	6be0      	ldr	r0, [r4, #60]	; 0x3c
/home/hsk/Desktop/devel/tee-tpm-hyp/optee_os/lib/libutee/tee_api_operations.c:895
    17ee:	1e5f      	subs	r7, r3, #1
    17f0:	425b      	negs	r3, r3
    17f2:	eba7 070a 	sub.w	r7, r7, sl
/home/hsk/Desktop/devel/tee-tpm-hyp/optee_os/lib/libutee/tee_api_operations.c:898
    17f6:	f8cd b010 	str.w	fp, [sp, #16]
/home/hsk/Desktop/devel/tee-tpm-hyp/optee_os/lib/libutee/tee_api_operations.c:895
    17fa:	440f      	add	r7, r1
/home/hsk/Desktop/devel/tee-tpm-hyp/optee_os/lib/libutee/tee_api_operations.c:899
    17fc:	6ae1      	ldr	r1, [r4, #44]	; 0x2c
/home/hsk/Desktop/devel/tee-tpm-hyp/optee_os/lib/libutee/tee_api_operations.c:895
    17fe:	401f      	ands	r7, r3
/home/hsk/Desktop/devel/tee-tpm-hyp/optee_os/lib/libutee/tee_api_operations.c:898
    1800:	2300      	movs	r3, #0
/home/hsk/Desktop/devel/tee-tpm-hyp/optee_os/lib/libutee/tee_api_operations.c:897
    1802:	42b7      	cmp	r7, r6
/home/hsk/Desktop/devel/tee-tpm-hyp/optee_os/lib/libutee/tee_api_operations.c:898
    1804:	9305      	str	r3, [sp, #20]
/home/hsk/Desktop/devel/tee-tpm-hyp/optee_os/lib/libutee/tee_api_operations.c:897
    1806:	bf28      	it	cs
    1808:	4637      	movcs	r7, r6
/home/hsk/Desktop/devel/tee-tpm-hyp/optee_os/lib/libutee/tee_api_operations.c:899
    180a:	ab04      	add	r3, sp, #16
    180c:	463a      	mov	r2, r7
    180e:	9300      	str	r3, [sp, #0]
    1810:	9e03      	ldr	r6, [sp, #12]
    1812:	9b10      	ldr	r3, [sp, #64]	; 0x40
    1814:	47b0      	blx	r6
/home/hsk/Desktop/devel/tee-tpm-hyp/optee_os/lib/libutee/tee_api_operations.c:900
    1816:	b108      	cbz	r0, 181c <tee_buffer_update+0xb8>
/home/hsk/Desktop/devel/tee-tpm-hyp/optee_os/lib/libutee/tee_api_operations.c:901
    1818:	f006 f94c 	bl	7ab4 <TEE_Panic>
/home/hsk/Desktop/devel/tee-tpm-hyp/optee_os/lib/libutee/tee_api_operations.c:905
    181c:	6ba3      	ldr	r3, [r4, #56]	; 0x38
/home/hsk/Desktop/devel/tee-tpm-hyp/optee_os/lib/libutee/tee_api_operations.c:902
    181e:	9e04      	ldr	r6, [sp, #16]
/home/hsk/Desktop/devel/tee-tpm-hyp/optee_os/lib/libutee/tee_api_operations.c:905
    1820:	1bdb      	subs	r3, r3, r7
    1822:	63a3      	str	r3, [r4, #56]	; 0x38
/home/hsk/Desktop/devel/tee-tpm-hyp/optee_os/lib/libutee/tee_api_operations.c:906
    1824:	bb63      	cbnz	r3, 1880 <tee_buffer_update+0x11c>
/home/hsk/Desktop/devel/tee-tpm-hyp/optee_os/lib/libutee/tee_api_operations.c:902
    1826:	9b10      	ldr	r3, [sp, #64]	; 0x40
/home/hsk/Desktop/devel/tee-tpm-hyp/optee_os/lib/libutee/tee_api_operations.c:903
    1828:	ebab 0206 	sub.w	r2, fp, r6
/home/hsk/Desktop/devel/tee-tpm-hyp/optee_os/lib/libutee/tee_api_operations.c:902
    182c:	4433      	add	r3, r6
    182e:	9310      	str	r3, [sp, #64]	; 0x40
/home/hsk/Desktop/devel/tee-tpm-hyp/optee_os/lib/libutee/tee_api_operations.c:917
    1830:	454d      	cmp	r5, r9
    1832:	d32b      	bcc.n	188c <tee_buffer_update+0x128>
    1834:	6b63      	ldr	r3, [r4, #52]	; 0x34
/home/hsk/Desktop/devel/tee-tpm-hyp/optee_os/lib/libutee/tee_api_operations.c:919
    1836:	6821      	ldr	r1, [r4, #0]
    1838:	4f1e      	ldr	r7, [pc, #120]	; (18b4 <tee_buffer_update+0x150>)
    183a:	4258      	negs	r0, r3
    183c:	42b9      	cmp	r1, r7
    183e:	d132      	bne.n	18a6 <tee_buffer_update+0x142>
/home/hsk/Desktop/devel/tee-tpm-hyp/optee_os/lib/libutee/tee_api_operations.c:920
    1840:	3b01      	subs	r3, #1
    1842:	eba3 0a0a 	sub.w	sl, r3, sl
    1846:	eb0a 0105 	add.w	r1, sl, r5
    184a:	ea01 0a00 	and.w	sl, r1, r0
/home/hsk/Desktop/devel/tee-tpm-hyp/optee_os/lib/libutee/tee_api_operations.c:924
    184e:	2300      	movs	r3, #0
    1850:	9204      	str	r2, [sp, #16]
    1852:	9305      	str	r3, [sp, #20]
/home/hsk/Desktop/devel/tee-tpm-hyp/optee_os/lib/libutee/tee_api_operations.c:925
    1854:	4652      	mov	r2, sl
    1856:	ab04      	add	r3, sp, #16
    1858:	4641      	mov	r1, r8
    185a:	9300      	str	r3, [sp, #0]
    185c:	6be0      	ldr	r0, [r4, #60]	; 0x3c
    185e:	9b10      	ldr	r3, [sp, #64]	; 0x40
    1860:	9f03      	ldr	r7, [sp, #12]
    1862:	47b8      	blx	r7
/home/hsk/Desktop/devel/tee-tpm-hyp/optee_os/lib/libutee/tee_api_operations.c:926
    1864:	b108      	cbz	r0, 186a <tee_buffer_update+0x106>
/home/hsk/Desktop/devel/tee-tpm-hyp/optee_os/lib/libutee/tee_api_operations.c:927
    1866:	f006 f925 	bl	7ab4 <TEE_Panic>
/home/hsk/Desktop/devel/tee-tpm-hyp/optee_os/lib/libutee/tee_api_operations.c:932
    186a:	9b04      	ldr	r3, [sp, #16]
/home/hsk/Desktop/devel/tee-tpm-hyp/optee_os/lib/libutee/tee_api_operations.c:928
    186c:	44d0      	add	r8, sl
/home/hsk/Desktop/devel/tee-tpm-hyp/optee_os/lib/libutee/tee_api_operations.c:929
    186e:	eba5 050a 	sub.w	r5, r5, sl
/home/hsk/Desktop/devel/tee-tpm-hyp/optee_os/lib/libutee/tee_api_operations.c:932
    1872:	441e      	add	r6, r3
    1874:	e00a      	b.n	188c <tee_buffer_update+0x128>
    1876:	46b2      	mov	sl, r6
    1878:	e793      	b.n	17a2 <tee_buffer_update+0x3e>
/home/hsk/Desktop/devel/tee-tpm-hyp/optee_os/lib/libutee/tee_api_operations.c:883
    187a:	ebaa 0600 	sub.w	r6, sl, r0
    187e:	e798      	b.n	17b2 <tee_buffer_update+0x4e>
/home/hsk/Desktop/devel/tee-tpm-hyp/optee_os/lib/libutee/tee_api_operations.c:910
    1880:	6ae0      	ldr	r0, [r4, #44]	; 0x2c
    1882:	ebaa 0207 	sub.w	r2, sl, r7
    1886:	19c1      	adds	r1, r0, r7
    1888:	f006 f93b 	bl	7b02 <memcpy>
/home/hsk/Desktop/devel/tee-tpm-hyp/optee_os/lib/libutee/tee_api_operations.c:936
    188c:	6ba3      	ldr	r3, [r4, #56]	; 0x38
    188e:	462a      	mov	r2, r5
    1890:	6ae0      	ldr	r0, [r4, #44]	; 0x2c
    1892:	4641      	mov	r1, r8
    1894:	4418      	add	r0, r3
    1896:	f006 f934 	bl	7b02 <memcpy>
/home/hsk/Desktop/devel/tee-tpm-hyp/optee_os/lib/libutee/tee_api_operations.c:937
    189a:	6ba3      	ldr	r3, [r4, #56]	; 0x38
    189c:	441d      	add	r5, r3
    189e:	63a5      	str	r5, [r4, #56]	; 0x38
    18a0:	e76a      	b.n	1778 <tee_buffer_update+0x14>
/home/hsk/Desktop/devel/tee-tpm-hyp/optee_os/lib/libutee/tee_api_operations.c:858
    18a2:	2600      	movs	r6, #0
    18a4:	e7c4      	b.n	1830 <tee_buffer_update+0xcc>
/home/hsk/Desktop/devel/tee-tpm-hyp/optee_os/lib/libutee/tee_api_operations.c:922
    18a6:	eba3 0a0a 	sub.w	sl, r3, sl
    18aa:	44aa      	add	sl, r5
    18ac:	ea0a 0a00 	and.w	sl, sl, r0
    18b0:	e7cd      	b.n	184e <tee_buffer_update+0xea>
    18b2:	bf00      	nop
    18b4:	10000310 	.word	0x10000310

000018b8 <TEE_FreeOperation>:
TEE_FreeOperation():
/home/hsk/Desktop/devel/tee-tpm-hyp/optee_os/lib/libutee/tee_api_operations.c:351
    18b8:	b510      	push	{r4, lr}
/home/hsk/Desktop/devel/tee-tpm-hyp/optee_os/lib/libutee/tee_api_operations.c:354
    18ba:	4604      	mov	r4, r0
    18bc:	b908      	cbnz	r0, 18c2 <TEE_FreeOperation+0xa>
/home/hsk/Desktop/devel/tee-tpm-hyp/optee_os/lib/libutee/tee_api_operations.c:355
    18be:	f006 f8f9 	bl	7ab4 <TEE_Panic>
/home/hsk/Desktop/devel/tee-tpm-hyp/optee_os/lib/libutee/tee_api_operations.c:362
    18c2:	6be0      	ldr	r0, [r4, #60]	; 0x3c
    18c4:	f001 ebea 	blx	309c <utee_cryp_state_free>
/home/hsk/Desktop/devel/tee-tpm-hyp/optee_os/lib/libutee/tee_api_operations.c:363
    18c8:	b108      	cbz	r0, 18ce <TEE_FreeOperation+0x16>
/home/hsk/Desktop/devel/tee-tpm-hyp/optee_os/lib/libutee/tee_api_operations.c:364
    18ca:	f006 f8f3 	bl	7ab4 <TEE_Panic>
/home/hsk/Desktop/devel/tee-tpm-hyp/optee_os/lib/libutee/tee_api_operations.c:366
    18ce:	6ae0      	ldr	r0, [r4, #44]	; 0x2c
    18d0:	f7ff fb64 	bl	f9c <TEE_Free>
/home/hsk/Desktop/devel/tee-tpm-hyp/optee_os/lib/libutee/tee_api_operations.c:367
    18d4:	4620      	mov	r0, r4
/home/hsk/Desktop/devel/tee-tpm-hyp/optee_os/lib/libutee/tee_api_operations.c:368
    18d6:	e8bd 4010 	ldmia.w	sp!, {r4, lr}
/home/hsk/Desktop/devel/tee-tpm-hyp/optee_os/lib/libutee/tee_api_operations.c:367
    18da:	f7ff bb5f 	b.w	f9c <TEE_Free>

000018de <TEE_AllocateOperation>:
TEE_AllocateOperation():
/home/hsk/Desktop/devel/tee-tpm-hyp/optee_os/lib/libutee/tee_api_operations.c:37
    18de:	e92d 4ff0 	stmdb	sp!, {r4, r5, r6, r7, r8, r9, sl, fp, lr}
    18e2:	460c      	mov	r4, r1
    18e4:	4617      	mov	r7, r2
    18e6:	b087      	sub	sp, #28
    18e8:	4699      	mov	r9, r3
/home/hsk/Desktop/devel/tee-tpm-hyp/optee_os/lib/libutee/tee_api_operations.c:46
    18ea:	9003      	str	r0, [sp, #12]
    18ec:	b908      	cbnz	r0, 18f2 <TEE_AllocateOperation+0x14>
/home/hsk/Desktop/devel/tee-tpm-hyp/optee_os/lib/libutee/tee_api_operations.c:47
    18ee:	f006 f8e1 	bl	7ab4 <TEE_Panic>
/home/hsk/Desktop/devel/tee-tpm-hyp/optee_os/lib/libutee/tee_api_operations.c:49
    18f2:	4bb6      	ldr	r3, [pc, #728]	; (1bcc <TEE_AllocateOperation+0x2ee>)
    18f4:	429c      	cmp	r4, r3
    18f6:	f000 81c0 	beq.w	1c7a <TEE_AllocateOperation+0x39c>
/home/hsk/Desktop/devel/tee-tpm-hyp/optee_os/lib/libutee/tee_api_operations.c:53
    18fa:	4bb5      	ldr	r3, [pc, #724]	; (1bd0 <TEE_AllocateOperation+0x2f2>)
    18fc:	429c      	cmp	r4, r3
    18fe:	d068      	beq.n	19d2 <TEE_AllocateOperation+0xf4>
    1900:	d840      	bhi.n	1984 <TEE_AllocateOperation+0xa6>
    1902:	4ab4      	ldr	r2, [pc, #720]	; (1bd4 <TEE_AllocateOperation+0x2f6>)
    1904:	4294      	cmp	r4, r2
    1906:	d055      	beq.n	19b4 <TEE_AllocateOperation+0xd6>
    1908:	d82e      	bhi.n	1968 <TEE_AllocateOperation+0x8a>
    190a:	f5a2 5287 	sub.w	r2, r2, #4320	; 0x10e0
    190e:	3a10      	subs	r2, #16
    1910:	4294      	cmp	r4, r2
    1912:	d041      	beq.n	1998 <TEE_AllocateOperation+0xba>
    1914:	f502 5280 	add.w	r2, r2, #4096	; 0x1000
    1918:	4294      	cmp	r4, r2
    191a:	d05f      	beq.n	19dc <TEE_AllocateOperation+0xfe>
/home/hsk/Desktop/devel/tee-tpm-hyp/optee_os/lib/libutee/tee_api_operations.c:108
    191c:	4aae      	ldr	r2, [pc, #696]	; (1bd8 <TEE_AllocateOperation+0x2fa>)
    191e:	4294      	cmp	r4, r2
    1920:	f000 80e6 	beq.w	1af0 <TEE_AllocateOperation+0x212>
    1924:	f200 80cf 	bhi.w	1ac6 <TEE_AllocateOperation+0x1e8>
    1928:	4bac      	ldr	r3, [pc, #688]	; (1bdc <TEE_AllocateOperation+0x2fe>)
    192a:	429c      	cmp	r4, r3
    192c:	d076      	beq.n	1a1c <TEE_AllocateOperation+0x13e>
    192e:	f200 8087 	bhi.w	1a40 <TEE_AllocateOperation+0x162>
    1932:	4bab      	ldr	r3, [pc, #684]	; (1be0 <TEE_AllocateOperation+0x302>)
    1934:	429c      	cmp	r4, r3
    1936:	f000 818e 	beq.w	1c56 <TEE_AllocateOperation+0x378>
    193a:	d864      	bhi.n	1a06 <TEE_AllocateOperation+0x128>
    193c:	f46f 71ff 	mvn.w	r1, #510	; 0x1fe
    1940:	440b      	add	r3, r1
    1942:	429c      	cmp	r4, r3
    1944:	d854      	bhi.n	19f0 <TEE_AllocateOperation+0x112>
    1946:	3b01      	subs	r3, #1
    1948:	429c      	cmp	r4, r3
    194a:	d209      	bcs.n	1960 <TEE_AllocateOperation+0x82>
    194c:	f5a3 7380 	sub.w	r3, r3, #256	; 0x100
    1950:	429c      	cmp	r4, r3
    1952:	d338      	bcc.n	19c6 <TEE_AllocateOperation+0xe8>
    1954:	3301      	adds	r3, #1
    1956:	429c      	cmp	r4, r3
    1958:	d902      	bls.n	1960 <TEE_AllocateOperation+0x82>
    195a:	3302      	adds	r3, #2
    195c:	429c      	cmp	r4, r3
    195e:	d132      	bne.n	19c6 <TEE_AllocateOperation+0xe8>
    1960:	f04f 0800 	mov.w	r8, #0
/home/hsk/Desktop/devel/tee-tpm-hyp/optee_os/lib/libutee/tee_api_operations.c:44
    1964:	4646      	mov	r6, r8
    1966:	e179      	b.n	1c5c <TEE_AllocateOperation+0x37e>
/home/hsk/Desktop/devel/tee-tpm-hyp/optee_os/lib/libutee/tee_api_operations.c:53
    1968:	4a9e      	ldr	r2, [pc, #632]	; (1be4 <TEE_AllocateOperation+0x306>)
    196a:	4294      	cmp	r4, r2
    196c:	d02d      	beq.n	19ca <TEE_AllocateOperation+0xec>
    196e:	f502 6271 	add.w	r2, r2, #3856	; 0xf10
    1972:	4294      	cmp	r4, r2
    1974:	d035      	beq.n	19e2 <TEE_AllocateOperation+0x104>
    1976:	f5a2 5280 	sub.w	r2, r2, #4096	; 0x1000
    197a:	4294      	cmp	r4, r2
    197c:	d1ce      	bne.n	191c <TEE_AllocateOperation+0x3e>
/home/hsk/Desktop/devel/tee-tpm-hyp/optee_os/lib/libutee/tee_api_operations.c:87
    197e:	f5b9 7f80 	cmp.w	r9, #256	; 0x100
    1982:	e00b      	b.n	199c <TEE_AllocateOperation+0xbe>
/home/hsk/Desktop/devel/tee-tpm-hyp/optee_os/lib/libutee/tee_api_operations.c:53
    1984:	4a98      	ldr	r2, [pc, #608]	; (1be8 <TEE_AllocateOperation+0x30a>)
    1986:	4294      	cmp	r4, r2
    1988:	d028      	beq.n	19dc <TEE_AllocateOperation+0xfe>
    198a:	d809      	bhi.n	19a0 <TEE_AllocateOperation+0xc2>
    198c:	4a97      	ldr	r2, [pc, #604]	; (1bec <TEE_AllocateOperation+0x30e>)
    198e:	4294      	cmp	r4, r2
    1990:	d02a      	beq.n	19e8 <TEE_AllocateOperation+0x10a>
    1992:	4a97      	ldr	r2, [pc, #604]	; (1bf0 <TEE_AllocateOperation+0x312>)
    1994:	4294      	cmp	r4, r2
    1996:	d1c1      	bne.n	191c <TEE_AllocateOperation+0x3e>
/home/hsk/Desktop/devel/tee-tpm-hyp/optee_os/lib/libutee/tee_api_operations.c:75
    1998:	f1b9 0fc0 	cmp.w	r9, #192	; 0xc0
/home/hsk/Desktop/devel/tee-tpm-hyp/optee_os/lib/libutee/tee_api_operations.c:99
    199c:	d0be      	beq.n	191c <TEE_AllocateOperation+0x3e>
    199e:	e012      	b.n	19c6 <TEE_AllocateOperation+0xe8>
/home/hsk/Desktop/devel/tee-tpm-hyp/optee_os/lib/libutee/tee_api_operations.c:53
    19a0:	4a94      	ldr	r2, [pc, #592]	; (1bf4 <TEE_AllocateOperation+0x316>)
    19a2:	4294      	cmp	r4, r2
    19a4:	d01d      	beq.n	19e2 <TEE_AllocateOperation+0x104>
    19a6:	f502 5280 	add.w	r2, r2, #4096	; 0x1000
    19aa:	4294      	cmp	r4, r2
    19ac:	d01c      	beq.n	19e8 <TEE_AllocateOperation+0x10a>
    19ae:	f5a2 5200 	sub.w	r2, r2, #8192	; 0x2000
    19b2:	e7e2      	b.n	197a <TEE_AllocateOperation+0x9c>
/home/hsk/Desktop/devel/tee-tpm-hyp/optee_os/lib/libutee/tee_api_operations.c:55
    19b4:	f5a9 7300 	sub.w	r3, r9, #512	; 0x200
    19b8:	f5b3 7f00 	cmp.w	r3, #512	; 0x200
    19bc:	d803      	bhi.n	19c6 <TEE_AllocateOperation+0xe8>
/home/hsk/Desktop/devel/tee-tpm-hyp/optee_os/lib/libutee/tee_api_operations.c:59
    19be:	f019 0f3f 	tst.w	r9, #63	; 0x3f
    19c2:	f000 8095 	beq.w	1af0 <TEE_AllocateOperation+0x212>
/home/hsk/Desktop/devel/tee-tpm-hyp/optee_os/lib/libutee/tee_api_operations.c:56
    19c6:	4e8c      	ldr	r6, [pc, #560]	; (1bf8 <TEE_AllocateOperation+0x31a>)
    19c8:	e1ad      	b.n	1d26 <TEE_AllocateOperation+0x448>
/home/hsk/Desktop/devel/tee-tpm-hyp/optee_os/lib/libutee/tee_api_operations.c:64
    19ca:	f5b9 6f00 	cmp.w	r9, #2048	; 0x800
/home/hsk/Desktop/devel/tee-tpm-hyp/optee_os/lib/libutee/tee_api_operations.c:108
    19ce:	d1fa      	bne.n	19c6 <TEE_AllocateOperation+0xe8>
    19d0:	e08e      	b.n	1af0 <TEE_AllocateOperation+0x212>
/home/hsk/Desktop/devel/tee-tpm-hyp/optee_os/lib/libutee/tee_api_operations.c:69
    19d2:	f429 6380 	bic.w	r3, r9, #1024	; 0x400
    19d6:	f5b3 6f00 	cmp.w	r3, #2048	; 0x800
    19da:	e7f8      	b.n	19ce <TEE_AllocateOperation+0xf0>
/home/hsk/Desktop/devel/tee-tpm-hyp/optee_os/lib/libutee/tee_api_operations.c:81
    19dc:	f1b9 0fe0 	cmp.w	r9, #224	; 0xe0
    19e0:	e7dc      	b.n	199c <TEE_AllocateOperation+0xbe>
/home/hsk/Desktop/devel/tee-tpm-hyp/optee_os/lib/libutee/tee_api_operations.c:93
    19e2:	f5b9 7fc0 	cmp.w	r9, #384	; 0x180
    19e6:	e7d9      	b.n	199c <TEE_AllocateOperation+0xbe>
/home/hsk/Desktop/devel/tee-tpm-hyp/optee_os/lib/libutee/tee_api_operations.c:99
    19e8:	f240 2209 	movw	r2, #521	; 0x209
    19ec:	4591      	cmp	r9, r2
    19ee:	e7d5      	b.n	199c <TEE_AllocateOperation+0xbe>
/home/hsk/Desktop/devel/tee-tpm-hyp/optee_os/lib/libutee/tee_api_operations.c:108
    19f0:	4b82      	ldr	r3, [pc, #520]	; (1bfc <TEE_AllocateOperation+0x31e>)
    19f2:	429c      	cmp	r4, r3
    19f4:	d0b4      	beq.n	1960 <TEE_AllocateOperation+0x82>
    19f6:	33fd      	adds	r3, #253	; 0xfd
    19f8:	429c      	cmp	r4, r3
    19fa:	d1e4      	bne.n	19c6 <TEE_AllocateOperation+0xe8>
    19fc:	f04f 0800 	mov.w	r8, #0
/home/hsk/Desktop/devel/tee-tpm-hyp/optee_os/lib/libutee/tee_api_operations.c:41
    1a00:	2301      	movs	r3, #1
/home/hsk/Desktop/devel/tee-tpm-hyp/optee_os/lib/libutee/tee_api_operations.c:44
    1a02:	4646      	mov	r6, r8
    1a04:	e130      	b.n	1c68 <TEE_AllocateOperation+0x38a>
/home/hsk/Desktop/devel/tee-tpm-hyp/optee_os/lib/libutee/tee_api_operations.c:108
    1a06:	4b7e      	ldr	r3, [pc, #504]	; (1c00 <TEE_AllocateOperation+0x322>)
    1a08:	429c      	cmp	r4, r3
    1a0a:	d80f      	bhi.n	1a2c <TEE_AllocateOperation+0x14e>
    1a0c:	3b01      	subs	r3, #1
    1a0e:	429c      	cmp	r4, r3
    1a10:	d204      	bcs.n	1a1c <TEE_AllocateOperation+0x13e>
    1a12:	f104 4350 	add.w	r3, r4, #3489660928	; 0xd0000000
    1a16:	3b01      	subs	r3, #1
    1a18:	2b05      	cmp	r3, #5
    1a1a:	d8d4      	bhi.n	19c6 <TEE_AllocateOperation+0xe8>
/home/hsk/Desktop/devel/tee-tpm-hyp/optee_os/lib/libutee/tee_api_operations.c:244
    1a1c:	2f04      	cmp	r7, #4
    1a1e:	d1d2      	bne.n	19c6 <TEE_AllocateOperation+0xe8>
/home/hsk/Desktop/devel/tee-tpm-hyp/optee_os/lib/libutee/tee_api_operations.c:44
    1a20:	2600      	movs	r6, #0
/home/hsk/Desktop/devel/tee-tpm-hyp/optee_os/lib/libutee/tee_api_operations.c:246
    1a22:	2208      	movs	r2, #8
/home/hsk/Desktop/devel/tee-tpm-hyp/optee_os/lib/libutee/tee_api_operations.c:43
    1a24:	46b2      	mov	sl, r6
/home/hsk/Desktop/devel/tee-tpm-hyp/optee_os/lib/libutee/tee_api_operations.c:41
    1a26:	2301      	movs	r3, #1
    1a28:	46b0      	mov	r8, r6
    1a2a:	e13c      	b.n	1ca6 <TEE_AllocateOperation+0x3c8>
/home/hsk/Desktop/devel/tee-tpm-hyp/optee_os/lib/libutee/tee_api_operations.c:108
    1a2c:	4b75      	ldr	r3, [pc, #468]	; (1c04 <TEE_AllocateOperation+0x326>)
    1a2e:	429c      	cmp	r4, r3
    1a30:	d0f4      	beq.n	1a1c <TEE_AllocateOperation+0x13e>
    1a32:	d3c8      	bcc.n	19c6 <TEE_AllocateOperation+0xe8>
    1a34:	f104 4350 	add.w	r3, r4, #3489660928	; 0xd0000000
    1a38:	f5a3 63a2 	sub.w	r3, r3, #1296	; 0x510
    1a3c:	2b01      	cmp	r3, #1
    1a3e:	e7ec      	b.n	1a1a <TEE_AllocateOperation+0x13c>
    1a40:	4b71      	ldr	r3, [pc, #452]	; (1c08 <TEE_AllocateOperation+0x32a>)
    1a42:	429c      	cmp	r4, r3
    1a44:	d01a      	beq.n	1a7c <TEE_AllocateOperation+0x19e>
    1a46:	d822      	bhi.n	1a8e <TEE_AllocateOperation+0x1b0>
    1a48:	4b70      	ldr	r3, [pc, #448]	; (1c0c <TEE_AllocateOperation+0x32e>)
    1a4a:	429c      	cmp	r4, r3
    1a4c:	d80e      	bhi.n	1a6c <TEE_AllocateOperation+0x18e>
    1a4e:	f1b4 4fa0 	cmp.w	r4, #1342177280	; 0x50000000
    1a52:	f200 811f 	bhi.w	1c94 <TEE_AllocateOperation+0x3b6>
    1a56:	4b6e      	ldr	r3, [pc, #440]	; (1c10 <TEE_AllocateOperation+0x332>)
    1a58:	429c      	cmp	r4, r3
    1a5a:	d081      	beq.n	1960 <TEE_AllocateOperation+0x82>
    1a5c:	f503 7380 	add.w	r3, r3, #256	; 0x100
    1a60:	429c      	cmp	r4, r3
    1a62:	d0cb      	beq.n	19fc <TEE_AllocateOperation+0x11e>
    1a64:	4b6b      	ldr	r3, [pc, #428]	; (1c14 <TEE_AllocateOperation+0x336>)
    1a66:	429c      	cmp	r4, r3
    1a68:	d1ad      	bne.n	19c6 <TEE_AllocateOperation+0xe8>
    1a6a:	e7d7      	b.n	1a1c <TEE_AllocateOperation+0x13e>
    1a6c:	4b6a      	ldr	r3, [pc, #424]	; (1c18 <TEE_AllocateOperation+0x33a>)
    1a6e:	429c      	cmp	r4, r3
    1a70:	f000 8106 	beq.w	1c80 <TEE_AllocateOperation+0x3a2>
    1a74:	f503 7380 	add.w	r3, r3, #256	; 0x100
    1a78:	429c      	cmp	r4, r3
    1a7a:	d1a4      	bne.n	19c6 <TEE_AllocateOperation+0xe8>
/home/hsk/Desktop/devel/tee-tpm-hyp/optee_os/lib/libutee/tee_api_operations.c:173
    1a7c:	2f00      	cmp	r7, #0
    1a7e:	f000 815e 	beq.w	1d3e <TEE_AllocateOperation+0x460>
/home/hsk/Desktop/devel/tee-tpm-hyp/optee_os/lib/libutee/tee_api_operations.c:175
    1a82:	2f01      	cmp	r7, #1
    1a84:	d19f      	bne.n	19c6 <TEE_AllocateOperation+0xe8>
/home/hsk/Desktop/devel/tee-tpm-hyp/optee_os/lib/libutee/tee_api_operations.c:44
    1a86:	2600      	movs	r6, #0
/home/hsk/Desktop/devel/tee-tpm-hyp/optee_os/lib/libutee/tee_api_operations.c:176
    1a88:	46ba      	mov	sl, r7
/home/hsk/Desktop/devel/tee-tpm-hyp/optee_os/lib/libutee/tee_api_operations.c:177
    1a8a:	2204      	movs	r2, #4
    1a8c:	e7cb      	b.n	1a26 <TEE_AllocateOperation+0x148>
/home/hsk/Desktop/devel/tee-tpm-hyp/optee_os/lib/libutee/tee_api_operations.c:108
    1a8e:	4b63      	ldr	r3, [pc, #396]	; (1c1c <TEE_AllocateOperation+0x33e>)
    1a90:	429c      	cmp	r4, r3
    1a92:	d0f3      	beq.n	1a7c <TEE_AllocateOperation+0x19e>
    1a94:	d80a      	bhi.n	1aac <TEE_AllocateOperation+0x1ce>
    1a96:	f5a3 1300 	sub.w	r3, r3, #2097152	; 0x200000
    1a9a:	429c      	cmp	r4, r3
    1a9c:	d0ee      	beq.n	1a7c <TEE_AllocateOperation+0x19e>
    1a9e:	f503 1380 	add.w	r3, r3, #1048576	; 0x100000
    1aa2:	429c      	cmp	r4, r3
    1aa4:	d0ea      	beq.n	1a7c <TEE_AllocateOperation+0x19e>
    1aa6:	f5a3 1300 	sub.w	r3, r3, #2097152	; 0x200000
    1aaa:	e7e5      	b.n	1a78 <TEE_AllocateOperation+0x19a>
    1aac:	4b5c      	ldr	r3, [pc, #368]	; (1c20 <TEE_AllocateOperation+0x342>)
    1aae:	429c      	cmp	r4, r3
    1ab0:	d01e      	beq.n	1af0 <TEE_AllocateOperation+0x212>
    1ab2:	d802      	bhi.n	1aba <TEE_AllocateOperation+0x1dc>
    1ab4:	f2a3 73ef 	subw	r3, r3, #2031	; 0x7ef
    1ab8:	e003      	b.n	1ac2 <TEE_AllocateOperation+0x1e4>
    1aba:	4b5a      	ldr	r3, [pc, #360]	; (1c24 <TEE_AllocateOperation+0x346>)
    1abc:	429c      	cmp	r4, r3
    1abe:	d017      	beq.n	1af0 <TEE_AllocateOperation+0x212>
    1ac0:	33f0      	adds	r3, #240	; 0xf0
    1ac2:	429c      	cmp	r4, r3
    1ac4:	e783      	b.n	19ce <TEE_AllocateOperation+0xf0>
    1ac6:	4a4a      	ldr	r2, [pc, #296]	; (1bf0 <TEE_AllocateOperation+0x312>)
    1ac8:	4294      	cmp	r4, r2
    1aca:	d065      	beq.n	1b98 <TEE_AllocateOperation+0x2ba>
    1acc:	d844      	bhi.n	1b58 <TEE_AllocateOperation+0x27a>
    1ace:	4a56      	ldr	r2, [pc, #344]	; (1c28 <TEE_AllocateOperation+0x34a>)
    1ad0:	4294      	cmp	r4, r2
    1ad2:	d00d      	beq.n	1af0 <TEE_AllocateOperation+0x212>
    1ad4:	d81e      	bhi.n	1b14 <TEE_AllocateOperation+0x236>
    1ad6:	f5a2 52bf 	sub.w	r2, r2, #6112	; 0x17e0
    1ada:	3a0f      	subs	r2, #15
    1adc:	4294      	cmp	r4, r2
    1ade:	d007      	beq.n	1af0 <TEE_AllocateOperation+0x212>
    1ae0:	d810      	bhi.n	1b04 <TEE_AllocateOperation+0x226>
    1ae2:	4b40      	ldr	r3, [pc, #256]	; (1be4 <TEE_AllocateOperation+0x306>)
    1ae4:	429c      	cmp	r4, r3
    1ae6:	d003      	beq.n	1af0 <TEE_AllocateOperation+0x212>
    1ae8:	f203 63ff 	addw	r3, r3, #1791	; 0x6ff
    1aec:	429c      	cmp	r4, r3
    1aee:	d1e1      	bne.n	1ab4 <TEE_AllocateOperation+0x1d6>
/home/hsk/Desktop/devel/tee-tpm-hyp/optee_os/lib/libutee/tee_api_operations.c:157
    1af0:	2f02      	cmp	r7, #2
    1af2:	f000 811f 	beq.w	1d34 <TEE_AllocateOperation+0x456>
/home/hsk/Desktop/devel/tee-tpm-hyp/optee_os/lib/libutee/tee_api_operations.c:160
    1af6:	2f03      	cmp	r7, #3
    1af8:	f47f af65 	bne.w	19c6 <TEE_AllocateOperation+0xe8>
/home/hsk/Desktop/devel/tee-tpm-hyp/optee_os/lib/libutee/tee_api_operations.c:44
    1afc:	2600      	movs	r6, #0
/home/hsk/Desktop/devel/tee-tpm-hyp/optee_os/lib/libutee/tee_api_operations.c:161
    1afe:	2220      	movs	r2, #32
/home/hsk/Desktop/devel/tee-tpm-hyp/optee_os/lib/libutee/tee_api_operations.c:43
    1b00:	46b2      	mov	sl, r6
    1b02:	e790      	b.n	1a26 <TEE_AllocateOperation+0x148>
/home/hsk/Desktop/devel/tee-tpm-hyp/optee_os/lib/libutee/tee_api_operations.c:108
    1b04:	4a49      	ldr	r2, [pc, #292]	; (1c2c <TEE_AllocateOperation+0x34e>)
    1b06:	4294      	cmp	r4, r2
    1b08:	d0f2      	beq.n	1af0 <TEE_AllocateOperation+0x212>
    1b0a:	f602 0211 	addw	r2, r2, #2065	; 0x811
    1b0e:	4294      	cmp	r4, r2
    1b10:	d1d7      	bne.n	1ac2 <TEE_AllocateOperation+0x1e4>
    1b12:	e7ed      	b.n	1af0 <TEE_AllocateOperation+0x212>
    1b14:	4b46      	ldr	r3, [pc, #280]	; (1c30 <TEE_AllocateOperation+0x352>)
    1b16:	429c      	cmp	r4, r3
    1b18:	d0ea      	beq.n	1af0 <TEE_AllocateOperation+0x212>
    1b1a:	d810      	bhi.n	1b3e <TEE_AllocateOperation+0x260>
    1b1c:	f5a3 1300 	sub.w	r3, r3, #2097152	; 0x200000
    1b20:	f5a3 5300 	sub.w	r3, r3, #8192	; 0x2000
    1b24:	429c      	cmp	r4, r3
    1b26:	d0e3      	beq.n	1af0 <TEE_AllocateOperation+0x212>
    1b28:	f503 1380 	add.w	r3, r3, #1048576	; 0x100000
    1b2c:	f503 5380 	add.w	r3, r3, #4096	; 0x1000
    1b30:	429c      	cmp	r4, r3
    1b32:	d0dd      	beq.n	1af0 <TEE_AllocateOperation+0x212>
    1b34:	f5a3 1343 	sub.w	r3, r3, #3194880	; 0x30c000
    1b38:	f5a3 5388 	sub.w	r3, r3, #4352	; 0x1100
    1b3c:	e7c1      	b.n	1ac2 <TEE_AllocateOperation+0x1e4>
    1b3e:	4b3d      	ldr	r3, [pc, #244]	; (1c34 <TEE_AllocateOperation+0x356>)
    1b40:	429c      	cmp	r4, r3
    1b42:	d0d5      	beq.n	1af0 <TEE_AllocateOperation+0x212>
    1b44:	4b3c      	ldr	r3, [pc, #240]	; (1c38 <TEE_AllocateOperation+0x35a>)
    1b46:	429c      	cmp	r4, r3
    1b48:	d026      	beq.n	1b98 <TEE_AllocateOperation+0x2ba>
    1b4a:	f1a3 637a 	sub.w	r3, r3, #262144000	; 0xfa00000
    1b4e:	f5a3 236a 	sub.w	r3, r3, #958464	; 0xea000
    1b52:	f2a3 7302 	subw	r3, r3, #1794	; 0x702
    1b56:	e7b4      	b.n	1ac2 <TEE_AllocateOperation+0x1e4>
    1b58:	4b26      	ldr	r3, [pc, #152]	; (1bf4 <TEE_AllocateOperation+0x316>)
    1b5a:	429c      	cmp	r4, r3
    1b5c:	d01c      	beq.n	1b98 <TEE_AllocateOperation+0x2ba>
    1b5e:	d824      	bhi.n	1baa <TEE_AllocateOperation+0x2cc>
    1b60:	f5a3 53fc 	sub.w	r3, r3, #8064	; 0x1f80
    1b64:	429c      	cmp	r4, r3
    1b66:	d80b      	bhi.n	1b80 <TEE_AllocateOperation+0x2a2>
    1b68:	3b02      	subs	r3, #2
    1b6a:	429c      	cmp	r4, r3
    1b6c:	d214      	bcs.n	1b98 <TEE_AllocateOperation+0x2ba>
    1b6e:	f5a3 5380 	sub.w	r3, r3, #4096	; 0x1000
    1b72:	429c      	cmp	r4, r3
    1b74:	d010      	beq.n	1b98 <TEE_AllocateOperation+0x2ba>
    1b76:	f603 7382 	addw	r3, r3, #3970	; 0xf82
    1b7a:	429c      	cmp	r4, r3
    1b7c:	d00c      	beq.n	1b98 <TEE_AllocateOperation+0x2ba>
    1b7e:	e722      	b.n	19c6 <TEE_AllocateOperation+0xe8>
    1b80:	4b2e      	ldr	r3, [pc, #184]	; (1c3c <TEE_AllocateOperation+0x35e>)
    1b82:	429c      	cmp	r4, r3
    1b84:	d008      	beq.n	1b98 <TEE_AllocateOperation+0x2ba>
    1b86:	f4ff af1e 	bcc.w	19c6 <TEE_AllocateOperation+0xe8>
    1b8a:	f104 4300 	add.w	r3, r4, #2147483648	; 0x80000000
    1b8e:	f5a3 5343 	sub.w	r3, r3, #12480	; 0x30c0
    1b92:	2b01      	cmp	r3, #1
    1b94:	f63f af17 	bhi.w	19c6 <TEE_AllocateOperation+0xe8>
/home/hsk/Desktop/devel/tee-tpm-hyp/optee_os/lib/libutee/tee_api_operations.c:212
    1b98:	2f06      	cmp	r7, #6
    1b9a:	f47f af14 	bne.w	19c6 <TEE_AllocateOperation+0xe8>
/home/hsk/Desktop/devel/tee-tpm-hyp/optee_os/lib/libutee/tee_api_operations.c:44
    1b9e:	2600      	movs	r6, #0
/home/hsk/Desktop/devel/tee-tpm-hyp/optee_os/lib/libutee/tee_api_operations.c:214
    1ba0:	f04f 0a01 	mov.w	sl, #1
/home/hsk/Desktop/devel/tee-tpm-hyp/optee_os/lib/libutee/tee_api_operations.c:215
    1ba4:	2240      	movs	r2, #64	; 0x40
/home/hsk/Desktop/devel/tee-tpm-hyp/optee_os/lib/libutee/tee_api_operations.c:41
    1ba6:	4653      	mov	r3, sl
    1ba8:	e73e      	b.n	1a28 <TEE_AllocateOperation+0x14a>
/home/hsk/Desktop/devel/tee-tpm-hyp/optee_os/lib/libutee/tee_api_operations.c:108
    1baa:	4b25      	ldr	r3, [pc, #148]	; (1c40 <TEE_AllocateOperation+0x362>)
    1bac:	429c      	cmp	r4, r3
    1bae:	d849      	bhi.n	1c44 <TEE_AllocateOperation+0x366>
    1bb0:	3b01      	subs	r3, #1
    1bb2:	429c      	cmp	r4, r3
    1bb4:	d2f0      	bcs.n	1b98 <TEE_AllocateOperation+0x2ba>
    1bb6:	f5a3 5380 	sub.w	r3, r3, #4096	; 0x1000
    1bba:	429c      	cmp	r4, r3
    1bbc:	f4ff af03 	bcc.w	19c6 <TEE_AllocateOperation+0xe8>
    1bc0:	3301      	adds	r3, #1
    1bc2:	429c      	cmp	r4, r3
    1bc4:	d9e8      	bls.n	1b98 <TEE_AllocateOperation+0x2ba>
    1bc6:	f603 7381 	addw	r3, r3, #3969	; 0xf81
    1bca:	e7d6      	b.n	1b7a <TEE_AllocateOperation+0x29c>
    1bcc:	10000410 	.word	0x10000410
    1bd0:	70004131 	.word	0x70004131
    1bd4:	70002131 	.word	0x70002131
    1bd8:	70002830 	.word	0x70002830
    1bdc:	30000513 	.word	0x30000513
    1be0:	10000310 	.word	0x10000310
    1be4:	70003131 	.word	0x70003131
    1be8:	80002042 	.word	0x80002042
    1bec:	70005041 	.word	0x70005041
    1bf0:	80001042 	.word	0x80001042
    1bf4:	80004042 	.word	0x80004042
    1bf8:	ffff000a 	.word	0xffff000a
    1bfc:	10000113 	.word	0x10000113
    1c00:	30000111 	.word	0x30000111
    1c04:	30000113 	.word	0x30000113
    1c08:	60210230 	.word	0x60210230
    1c0c:	50000006 	.word	0x50000006
    1c10:	40000710 	.word	0x40000710
    1c14:	30000610 	.word	0x30000610
    1c18:	60000030 	.word	0x60000030
    1c1c:	60610230 	.word	0x60610230
    1c20:	70001830 	.word	0x70001830
    1c24:	70002041 	.word	0x70002041
    1c28:	70005830 	.word	0x70005830
    1c2c:	70004830 	.word	0x70004830
    1c30:	70414930 	.word	0x70414930
    1c34:	70616930 	.word	0x70616930
    1c38:	80000032 	.word	0x80000032
    1c3c:	80003042 	.word	0x80003042
    1c40:	800050c1 	.word	0x800050c1
    1c44:	4b6f      	ldr	r3, [pc, #444]	; (1e04 <TEE_AllocateOperation+0x526>)
    1c46:	429c      	cmp	r4, r3
    1c48:	f4ff aebd 	bcc.w	19c6 <TEE_AllocateOperation+0xe8>
    1c4c:	3301      	adds	r3, #1
    1c4e:	429c      	cmp	r4, r3
    1c50:	d9a2      	bls.n	1b98 <TEE_AllocateOperation+0x2ba>
    1c52:	4b6d      	ldr	r3, [pc, #436]	; (1e08 <TEE_AllocateOperation+0x52a>)
    1c54:	e735      	b.n	1ac2 <TEE_AllocateOperation+0x1e4>
    1c56:	f04f 0800 	mov.w	r8, #0
/home/hsk/Desktop/devel/tee-tpm-hyp/optee_os/lib/libutee/tee_api_operations.c:111
    1c5a:	2601      	movs	r6, #1
/home/hsk/Desktop/devel/tee-tpm-hyp/optee_os/lib/libutee/tee_api_operations.c:120
    1c5c:	b2e3      	uxtb	r3, r4
/home/hsk/Desktop/devel/tee-tpm-hyp/optee_os/lib/libutee/tee_api_operations.c:123
    1c5e:	2b10      	cmp	r3, #16
    1c60:	f04f 0310 	mov.w	r3, #16
    1c64:	bf18      	it	ne
    1c66:	2308      	movne	r3, #8
/home/hsk/Desktop/devel/tee-tpm-hyp/optee_os/lib/libutee/tee_api_operations.c:127
    1c68:	2f00      	cmp	r7, #0
    1c6a:	d060      	beq.n	1d2e <TEE_AllocateOperation+0x450>
/home/hsk/Desktop/devel/tee-tpm-hyp/optee_os/lib/libutee/tee_api_operations.c:129
    1c6c:	2f01      	cmp	r7, #1
    1c6e:	f47f aeaa 	bne.w	19c6 <TEE_AllocateOperation+0xe8>
/home/hsk/Desktop/devel/tee-tpm-hyp/optee_os/lib/libutee/tee_api_operations.c:43
    1c72:	f04f 0a00 	mov.w	sl, #0
/home/hsk/Desktop/devel/tee-tpm-hyp/optee_os/lib/libutee/tee_api_operations.c:130
    1c76:	2204      	movs	r2, #4
    1c78:	e015      	b.n	1ca6 <TEE_AllocateOperation+0x3c8>
/home/hsk/Desktop/devel/tee-tpm-hyp/optee_os/lib/libutee/tee_api_operations.c:50
    1c7a:	f44f 2800 	mov.w	r8, #524288	; 0x80000
    1c7e:	e7ec      	b.n	1c5a <TEE_AllocateOperation+0x37c>
/home/hsk/Desktop/devel/tee-tpm-hyp/optee_os/lib/libutee/tee_api_operations.c:184
    1c80:	2f00      	cmp	r7, #0
    1c82:	d062      	beq.n	1d4a <TEE_AllocateOperation+0x46c>
/home/hsk/Desktop/devel/tee-tpm-hyp/optee_os/lib/libutee/tee_api_operations.c:186
    1c84:	2f01      	cmp	r7, #1
    1c86:	f47f ae9e 	bne.w	19c6 <TEE_AllocateOperation+0xe8>
/home/hsk/Desktop/devel/tee-tpm-hyp/optee_os/lib/libutee/tee_api_operations.c:44
    1c8a:	2600      	movs	r6, #0
/home/hsk/Desktop/devel/tee-tpm-hyp/optee_os/lib/libutee/tee_api_operations.c:187
    1c8c:	f04f 0a01 	mov.w	sl, #1
/home/hsk/Desktop/devel/tee-tpm-hyp/optee_os/lib/libutee/tee_api_operations.c:188
    1c90:	2214      	movs	r2, #20
    1c92:	e788      	b.n	1ba6 <TEE_AllocateOperation+0x2c8>
/home/hsk/Desktop/devel/tee-tpm-hyp/optee_os/lib/libutee/tee_api_operations.c:224
    1c94:	2f05      	cmp	r7, #5
    1c96:	f47f ae96 	bne.w	19c6 <TEE_AllocateOperation+0xe8>
/home/hsk/Desktop/devel/tee-tpm-hyp/optee_os/lib/libutee/tee_api_operations.c:44
    1c9a:	2600      	movs	r6, #0
/home/hsk/Desktop/devel/tee-tpm-hyp/optee_os/lib/libutee/tee_api_operations.c:41
    1c9c:	2301      	movs	r3, #1
/home/hsk/Desktop/devel/tee-tpm-hyp/optee_os/lib/libutee/tee_api_operations.c:43
    1c9e:	46b2      	mov	sl, r6
/home/hsk/Desktop/devel/tee-tpm-hyp/optee_os/lib/libutee/tee_api_operations.c:228
    1ca0:	4632      	mov	r2, r6
/home/hsk/Desktop/devel/tee-tpm-hyp/optee_os/lib/libutee/tee_api_operations.c:227
    1ca2:	f44f 2880 	mov.w	r8, #262144	; 0x40000
/home/hsk/Desktop/devel/tee-tpm-hyp/optee_os/lib/libutee/tee_api_operations.c:253
    1ca6:	2100      	movs	r1, #0
    1ca8:	2044      	movs	r0, #68	; 0x44
    1caa:	9205      	str	r2, [sp, #20]
    1cac:	9304      	str	r3, [sp, #16]
    1cae:	f7ff f94e 	bl	f4e <TEE_Malloc>
/home/hsk/Desktop/devel/tee-tpm-hyp/optee_os/lib/libutee/tee_api_operations.c:254
    1cb2:	4605      	mov	r5, r0
    1cb4:	2800      	cmp	r0, #0
    1cb6:	f000 80a0 	beq.w	1dfa <TEE_AllocateOperation+0x51c>
/home/hsk/Desktop/devel/tee-tpm-hyp/optee_os/lib/libutee/tee_api_operations.c:260
    1cba:	4953      	ldr	r1, [pc, #332]	; (1e08 <TEE_AllocateOperation+0x52a>)
/home/hsk/Desktop/devel/tee-tpm-hyp/optee_os/lib/libutee/tee_api_operations.c:258
    1cbc:	ea4f 7b14 	mov.w	fp, r4, lsr #28
/home/hsk/Desktop/devel/tee-tpm-hyp/optee_os/lib/libutee/tee_api_operations.c:257
    1cc0:	6004      	str	r4, [r0, #0]
/home/hsk/Desktop/devel/tee-tpm-hyp/optee_os/lib/libutee/tee_api_operations.c:260
    1cc2:	428c      	cmp	r4, r1
    1cc4:	9b04      	ldr	r3, [sp, #16]
    1cc6:	9a05      	ldr	r2, [sp, #20]
    1cc8:	d044      	beq.n	1d54 <TEE_AllocateOperation+0x476>
/home/hsk/Desktop/devel/tee-tpm-hyp/optee_os/lib/libutee/tee_api_operations.c:258
    1cca:	f8c0 b004 	str.w	fp, [r0, #4]
/home/hsk/Desktop/devel/tee-tpm-hyp/optee_os/lib/libutee/tee_api_operations.c:263
    1cce:	60af      	str	r7, [r5, #8]
/home/hsk/Desktop/devel/tee-tpm-hyp/optee_os/lib/libutee/tee_api_operations.c:268
    1cd0:	2b01      	cmp	r3, #1
/home/hsk/Desktop/devel/tee-tpm-hyp/optee_os/lib/libutee/tee_api_operations.c:264
    1cd2:	f8c5 9010 	str.w	r9, [r5, #16]
/home/hsk/Desktop/devel/tee-tpm-hyp/optee_os/lib/libutee/tee_api_operations.c:265
    1cd6:	61aa      	str	r2, [r5, #24]
/home/hsk/Desktop/devel/tee-tpm-hyp/optee_os/lib/libutee/tee_api_operations.c:266
    1cd8:	f8c5 801c 	str.w	r8, [r5, #28]
/home/hsk/Desktop/devel/tee-tpm-hyp/optee_os/lib/libutee/tee_api_operations.c:268
    1cdc:	d13d      	bne.n	1d5a <TEE_AllocateOperation+0x47c>
/home/hsk/Desktop/devel/tee-tpm-hyp/optee_os/lib/libutee/tee_api_operations.c:281
    1cde:	636b      	str	r3, [r5, #52]	; 0x34
/home/hsk/Desktop/devel/tee-tpm-hyp/optee_os/lib/libutee/tee_api_operations.c:284
    1ce0:	f1bb 0f05 	cmp.w	fp, #5
/home/hsk/Desktop/devel/tee-tpm-hyp/optee_os/lib/libutee/tee_api_operations.c:282
    1ce4:	f885 6030 	strb.w	r6, [r5, #48]	; 0x30
/home/hsk/Desktop/devel/tee-tpm-hyp/optee_os/lib/libutee/tee_api_operations.c:284
    1ce8:	d14b      	bne.n	1d82 <TEE_AllocateOperation+0x4a4>
/home/hsk/Desktop/devel/tee-tpm-hyp/optee_os/lib/libutee/tee_api_operations.c:308
    1cea:	f105 033c 	add.w	r3, r5, #60	; 0x3c
    1cee:	9300      	str	r3, [sp, #0]
    1cf0:	4639      	mov	r1, r7
    1cf2:	4620      	mov	r0, r4
    1cf4:	6a6b      	ldr	r3, [r5, #36]	; 0x24
    1cf6:	6a2a      	ldr	r2, [r5, #32]
    1cf8:	f001 e9ba 	blx	3070 <utee_cryp_state_alloc>
/home/hsk/Desktop/devel/tee-tpm-hyp/optee_os/lib/libutee/tee_api_operations.c:310
    1cfc:	4606      	mov	r6, r0
    1cfe:	2800      	cmp	r0, #0
    1d00:	d164      	bne.n	1dcc <TEE_AllocateOperation+0x4ee>
/home/hsk/Desktop/devel/tee-tpm-hyp/optee_os/lib/libutee/tee_api_operations.c:318
    1d02:	f1bb 0f05 	cmp.w	fp, #5
    1d06:	d10a      	bne.n	1d1e <TEE_AllocateOperation+0x440>
/home/hsk/Desktop/devel/tee-tpm-hyp/optee_os/lib/libutee/tee_api_operations.c:319
    1d08:	4602      	mov	r2, r0
    1d0a:	4601      	mov	r1, r0
    1d0c:	6be8      	ldr	r0, [r5, #60]	; 0x3c
    1d0e:	f001 e9d0 	blx	30b0 <utee_hash_init>
/home/hsk/Desktop/devel/tee-tpm-hyp/optee_os/lib/libutee/tee_api_operations.c:320
    1d12:	2800      	cmp	r0, #0
    1d14:	d173      	bne.n	1dfe <TEE_AllocateOperation+0x520>
/home/hsk/Desktop/devel/tee-tpm-hyp/optee_os/lib/libutee/tee_api_operations.c:323
    1d16:	69eb      	ldr	r3, [r5, #28]
    1d18:	f443 3300 	orr.w	r3, r3, #131072	; 0x20000
    1d1c:	61eb      	str	r3, [r5, #28]
/home/hsk/Desktop/devel/tee-tpm-hyp/optee_os/lib/libutee/tee_api_operations.c:326
    1d1e:	2300      	movs	r3, #0
    1d20:	62ab      	str	r3, [r5, #40]	; 0x28
/home/hsk/Desktop/devel/tee-tpm-hyp/optee_os/lib/libutee/tee_api_operations.c:328
    1d22:	9b03      	ldr	r3, [sp, #12]
    1d24:	601d      	str	r5, [r3, #0]
/home/hsk/Desktop/devel/tee-tpm-hyp/optee_os/lib/libutee/tee_api_operations.c:348
    1d26:	4630      	mov	r0, r6
    1d28:	b007      	add	sp, #28
    1d2a:	e8bd 8ff0 	ldmia.w	sp!, {r4, r5, r6, r7, r8, r9, sl, fp, pc}
/home/hsk/Desktop/devel/tee-tpm-hyp/optee_os/lib/libutee/tee_api_operations.c:43
    1d2e:	46ba      	mov	sl, r7
/home/hsk/Desktop/devel/tee-tpm-hyp/optee_os/lib/libutee/tee_api_operations.c:128
    1d30:	2202      	movs	r2, #2
    1d32:	e7b8      	b.n	1ca6 <TEE_AllocateOperation+0x3c8>
/home/hsk/Desktop/devel/tee-tpm-hyp/optee_os/lib/libutee/tee_api_operations.c:44
    1d34:	2600      	movs	r6, #0
/home/hsk/Desktop/devel/tee-tpm-hyp/optee_os/lib/libutee/tee_api_operations.c:158
    1d36:	f04f 0a01 	mov.w	sl, #1
/home/hsk/Desktop/devel/tee-tpm-hyp/optee_os/lib/libutee/tee_api_operations.c:159
    1d3a:	2210      	movs	r2, #16
    1d3c:	e733      	b.n	1ba6 <TEE_AllocateOperation+0x2c8>
    1d3e:	46b8      	mov	r8, r7
/home/hsk/Desktop/devel/tee-tpm-hyp/optee_os/lib/libutee/tee_api_operations.c:44
    1d40:	463e      	mov	r6, r7
/home/hsk/Desktop/devel/tee-tpm-hyp/optee_os/lib/libutee/tee_api_operations.c:43
    1d42:	46ba      	mov	sl, r7
/home/hsk/Desktop/devel/tee-tpm-hyp/optee_os/lib/libutee/tee_api_operations.c:174
    1d44:	2202      	movs	r2, #2
/home/hsk/Desktop/devel/tee-tpm-hyp/optee_os/lib/libutee/tee_api_operations.c:41
    1d46:	2301      	movs	r3, #1
    1d48:	e7ad      	b.n	1ca6 <TEE_AllocateOperation+0x3c8>
    1d4a:	46b8      	mov	r8, r7
/home/hsk/Desktop/devel/tee-tpm-hyp/optee_os/lib/libutee/tee_api_operations.c:44
    1d4c:	463e      	mov	r6, r7
/home/hsk/Desktop/devel/tee-tpm-hyp/optee_os/lib/libutee/tee_api_operations.c:43
    1d4e:	46ba      	mov	sl, r7
/home/hsk/Desktop/devel/tee-tpm-hyp/optee_os/lib/libutee/tee_api_operations.c:185
    1d50:	2222      	movs	r2, #34	; 0x22
    1d52:	e7f8      	b.n	1d46 <TEE_AllocateOperation+0x468>
/home/hsk/Desktop/devel/tee-tpm-hyp/optee_os/lib/libutee/tee_api_operations.c:261
    1d54:	2107      	movs	r1, #7
    1d56:	6041      	str	r1, [r0, #4]
    1d58:	e7b9      	b.n	1cce <TEE_AllocateOperation+0x3f0>
/home/hsk/Desktop/devel/tee-tpm-hyp/optee_os/lib/libutee/tee_api_operations.c:271
    1d5a:	b186      	cbz	r6, 1d7e <TEE_AllocateOperation+0x4a0>
/home/hsk/Desktop/devel/tee-tpm-hyp/optee_os/lib/libutee/tee_api_operations.c:272
    1d5c:	0058      	lsls	r0, r3, #1
/home/hsk/Desktop/devel/tee-tpm-hyp/optee_os/lib/libutee/tee_api_operations.c:274
    1d5e:	f04f 4100 	mov.w	r1, #2147483648	; 0x80000000
    1d62:	9304      	str	r3, [sp, #16]
    1d64:	f7ff f8f3 	bl	f4e <TEE_Malloc>
/home/hsk/Desktop/devel/tee-tpm-hyp/optee_os/lib/libutee/tee_api_operations.c:276
    1d68:	9b04      	ldr	r3, [sp, #16]
/home/hsk/Desktop/devel/tee-tpm-hyp/optee_os/lib/libutee/tee_api_operations.c:274
    1d6a:	62e8      	str	r0, [r5, #44]	; 0x2c
/home/hsk/Desktop/devel/tee-tpm-hyp/optee_os/lib/libutee/tee_api_operations.c:276
    1d6c:	2800      	cmp	r0, #0
    1d6e:	d1b6      	bne.n	1cde <TEE_AllocateOperation+0x400>
/home/hsk/Desktop/devel/tee-tpm-hyp/optee_os/lib/libutee/tee_api_operations.c:277
    1d70:	4e26      	ldr	r6, [pc, #152]	; (1e0c <TEE_AllocateOperation+0x52e>)
/home/hsk/Desktop/devel/tee-tpm-hyp/optee_os/lib/libutee/tee_api_operations.c:336
    1d72:	6beb      	ldr	r3, [r5, #60]	; 0x3c
    1d74:	b3a3      	cbz	r3, 1de0 <TEE_AllocateOperation+0x502>
/home/hsk/Desktop/devel/tee-tpm-hyp/optee_os/lib/libutee/tee_api_operations.c:337
    1d76:	4628      	mov	r0, r5
    1d78:	f7ff fd9e 	bl	18b8 <TEE_FreeOperation>
    1d7c:	e7d3      	b.n	1d26 <TEE_AllocateOperation+0x448>
    1d7e:	4618      	mov	r0, r3
    1d80:	e7ed      	b.n	1d5e <TEE_AllocateOperation+0x480>
/home/hsk/Desktop/devel/tee-tpm-hyp/optee_os/lib/libutee/tee_api_operations.c:286
    1d82:	f1ba 0f00 	cmp.w	sl, #0
    1d86:	f04f 4220 	mov.w	r2, #2684354560	; 0xa0000000
    1d8a:	f04f 4321 	mov.w	r3, #2701131776	; 0xa1000000
    1d8e:	fa5f f884 	uxtb.w	r8, r4
    1d92:	bf08      	it	eq
    1d94:	4613      	moveq	r3, r2
    1d96:	ea48 0803 	orr.w	r8, r8, r3
/home/hsk/Desktop/devel/tee-tpm-hyp/optee_os/lib/libutee/tee_api_operations.c:293
    1d9a:	69eb      	ldr	r3, [r5, #28]
    1d9c:	031a      	lsls	r2, r3, #12
    1d9e:	d501      	bpl.n	1da4 <TEE_AllocateOperation+0x4c6>
/home/hsk/Desktop/devel/tee-tpm-hyp/optee_os/lib/libutee/tee_api_operations.c:294
    1da0:	ea4f 0959 	mov.w	r9, r9, lsr #1
/home/hsk/Desktop/devel/tee-tpm-hyp/optee_os/lib/libutee/tee_api_operations.c:296
    1da4:	f105 0220 	add.w	r2, r5, #32
    1da8:	4649      	mov	r1, r9
    1daa:	4640      	mov	r0, r8
    1dac:	f7ff f9ee 	bl	118c <TEE_AllocateTransientObject>
/home/hsk/Desktop/devel/tee-tpm-hyp/optee_os/lib/libutee/tee_api_operations.c:297
    1db0:	4606      	mov	r6, r0
    1db2:	b958      	cbnz	r0, 1dcc <TEE_AllocateOperation+0x4ee>
/home/hsk/Desktop/devel/tee-tpm-hyp/optee_os/lib/libutee/tee_api_operations.c:300
    1db4:	69eb      	ldr	r3, [r5, #28]
    1db6:	031b      	lsls	r3, r3, #12
    1db8:	d597      	bpl.n	1cea <TEE_AllocateOperation+0x40c>
/home/hsk/Desktop/devel/tee-tpm-hyp/optee_os/lib/libutee/tee_api_operations.c:301
    1dba:	f105 0224 	add.w	r2, r5, #36	; 0x24
    1dbe:	4649      	mov	r1, r9
    1dc0:	4640      	mov	r0, r8
    1dc2:	f7ff f9e3 	bl	118c <TEE_AllocateTransientObject>
/home/hsk/Desktop/devel/tee-tpm-hyp/optee_os/lib/libutee/tee_api_operations.c:303
    1dc6:	4606      	mov	r6, r0
    1dc8:	2800      	cmp	r0, #0
    1dca:	d08e      	beq.n	1cea <TEE_AllocateOperation+0x40c>
/home/hsk/Desktop/devel/tee-tpm-hyp/optee_os/lib/libutee/tee_api_operations.c:332
    1dcc:	4b0f      	ldr	r3, [pc, #60]	; (1e0c <TEE_AllocateOperation+0x52e>)
    1dce:	429e      	cmp	r6, r3
    1dd0:	d0ce      	beq.n	1d70 <TEE_AllocateOperation+0x492>
/home/hsk/Desktop/devel/tee-tpm-hyp/optee_os/lib/libutee/tee_api_operations.c:332 (discriminator 1)
    1dd2:	4b0f      	ldr	r3, [pc, #60]	; (1e10 <TEE_AllocateOperation+0x532>)
    1dd4:	429e      	cmp	r6, r3
    1dd6:	d0cc      	beq.n	1d72 <TEE_AllocateOperation+0x494>
/home/hsk/Desktop/devel/tee-tpm-hyp/optee_os/lib/libutee/tee_api_operations.c:334
    1dd8:	4630      	mov	r0, r6
    1dda:	f005 fe6b 	bl	7ab4 <TEE_Panic>
    1dde:	e7c8      	b.n	1d72 <TEE_AllocateOperation+0x494>
/home/hsk/Desktop/devel/tee-tpm-hyp/optee_os/lib/libutee/tee_api_operations.c:339
    1de0:	6ae8      	ldr	r0, [r5, #44]	; 0x2c
    1de2:	f7ff f8db 	bl	f9c <TEE_Free>
/home/hsk/Desktop/devel/tee-tpm-hyp/optee_os/lib/libutee/tee_api_operations.c:340
    1de6:	6a28      	ldr	r0, [r5, #32]
    1de8:	f7ff f9e8 	bl	11bc <TEE_FreeTransientObject>
/home/hsk/Desktop/devel/tee-tpm-hyp/optee_os/lib/libutee/tee_api_operations.c:341
    1dec:	6a68      	ldr	r0, [r5, #36]	; 0x24
    1dee:	f7ff f9e5 	bl	11bc <TEE_FreeTransientObject>
/home/hsk/Desktop/devel/tee-tpm-hyp/optee_os/lib/libutee/tee_api_operations.c:342
    1df2:	4628      	mov	r0, r5
    1df4:	f7ff f8d2 	bl	f9c <TEE_Free>
    1df8:	e795      	b.n	1d26 <TEE_AllocateOperation+0x448>
/home/hsk/Desktop/devel/tee-tpm-hyp/optee_os/lib/libutee/tee_api_operations.c:255
    1dfa:	4e04      	ldr	r6, [pc, #16]	; (1e0c <TEE_AllocateOperation+0x52e>)
    1dfc:	e793      	b.n	1d26 <TEE_AllocateOperation+0x448>
/home/hsk/Desktop/devel/tee-tpm-hyp/optee_os/lib/libutee/tee_api_operations.c:330
    1dfe:	4606      	mov	r6, r0
    1e00:	e7e4      	b.n	1dcc <TEE_AllocateOperation+0x4ee>
    1e02:	bf00      	nop
    1e04:	800060c0 	.word	0x800060c0
    1e08:	f0000830 	.word	0xf0000830
    1e0c:	ffff000c 	.word	0xffff000c
    1e10:	ffff000a 	.word	0xffff000a

00001e14 <TEE_GetOperationInfo>:
TEE_GetOperationInfo():
/home/hsk/Desktop/devel/tee-tpm-hyp/optee_os/lib/libutee/tee_api_operations.c:372
    1e14:	b538      	push	{r3, r4, r5, lr}
    1e16:	460c      	mov	r4, r1
/home/hsk/Desktop/devel/tee-tpm-hyp/optee_os/lib/libutee/tee_api_operations.c:373
    1e18:	4605      	mov	r5, r0
    1e1a:	b908      	cbnz	r0, 1e20 <TEE_GetOperationInfo+0xc>
/home/hsk/Desktop/devel/tee-tpm-hyp/optee_os/lib/libutee/tee_api_operations.c:374
    1e1c:	f005 fe4a 	bl	7ab4 <TEE_Panic>
/home/hsk/Desktop/devel/tee-tpm-hyp/optee_os/lib/libutee/tee_api_operations.c:376
    1e20:	b914      	cbnz	r4, 1e28 <TEE_GetOperationInfo+0x14>
/home/hsk/Desktop/devel/tee-tpm-hyp/optee_os/lib/libutee/tee_api_operations.c:377
    1e22:	4620      	mov	r0, r4
    1e24:	f005 fe46 	bl	7ab4 <TEE_Panic>
/home/hsk/Desktop/devel/tee-tpm-hyp/optee_os/lib/libutee/tee_api_operations.c:379
    1e28:	cd0f      	ldmia	r5!, {r0, r1, r2, r3}
    1e2a:	c40f      	stmia	r4!, {r0, r1, r2, r3}
    1e2c:	e895 000f 	ldmia.w	r5, {r0, r1, r2, r3}
    1e30:	e884 000f 	stmia.w	r4, {r0, r1, r2, r3}
/home/hsk/Desktop/devel/tee-tpm-hyp/optee_os/lib/libutee/tee_api_operations.c:380
    1e34:	bd38      	pop	{r3, r4, r5, pc}

00001e36 <TEE_GetOperationInfoMultiple>:
TEE_GetOperationInfoMultiple():
/home/hsk/Desktop/devel/tee-tpm-hyp/optee_os/lib/libutee/tee_api_operations.c:385
    1e36:	b5f0      	push	{r4, r5, r6, r7, lr}
    1e38:	460c      	mov	r4, r1
/home/hsk/Desktop/devel/tee-tpm-hyp/optee_os/lib/libutee/tee_api_operations.c:392
    1e3a:	4605      	mov	r5, r0
/home/hsk/Desktop/devel/tee-tpm-hyp/optee_os/lib/libutee/tee_api_operations.c:385
    1e3c:	b08f      	sub	sp, #60	; 0x3c
/home/hsk/Desktop/devel/tee-tpm-hyp/optee_os/lib/libutee/tee_api_operations.c:392
    1e3e:	2800      	cmp	r0, #0
    1e40:	d04a      	beq.n	1ed8 <TEE_GetOperationInfoMultiple+0xa2>
/home/hsk/Desktop/devel/tee-tpm-hyp/optee_os/lib/libutee/tee_api_operations.c:397
    1e42:	2900      	cmp	r1, #0
    1e44:	d048      	beq.n	1ed8 <TEE_GetOperationInfoMultiple+0xa2>
/home/hsk/Desktop/devel/tee-tpm-hyp/optee_os/lib/libutee/tee_api_operations.c:402
    1e46:	2a00      	cmp	r2, #0
    1e48:	d046      	beq.n	1ed8 <TEE_GetOperationInfoMultiple+0xa2>
/home/hsk/Desktop/devel/tee-tpm-hyp/optee_os/lib/libutee/tee_api_operations.c:407
    1e4a:	6817      	ldr	r7, [r2, #0]
    1e4c:	3f20      	subs	r7, #32
    1e4e:	08ff      	lsrs	r7, r7, #3
/home/hsk/Desktop/devel/tee-tpm-hyp/optee_os/lib/libutee/tee_api_operations.c:410
    1e50:	2f02      	cmp	r7, #2
    1e52:	d841      	bhi.n	1ed8 <TEE_GetOperationInfoMultiple+0xa2>
/home/hsk/Desktop/devel/tee-tpm-hyp/optee_os/lib/libutee/tee_api_operations.c:416
    1e54:	69c3      	ldr	r3, [r0, #28]
    1e56:	031b      	lsls	r3, r3, #12
    1e58:	d505      	bpl.n	1e66 <TEE_GetOperationInfoMultiple+0x30>
/home/hsk/Desktop/devel/tee-tpm-hyp/optee_os/lib/libutee/tee_api_operations.c:417
    1e5a:	2f02      	cmp	r7, #2
    1e5c:	d004      	beq.n	1e68 <TEE_GetOperationInfoMultiple+0x32>
/home/hsk/Desktop/devel/tee-tpm-hyp/optee_os/lib/libutee/tee_api_operations.c:419
    1e5e:	4e21      	ldr	r6, [pc, #132]	; (1ee4 <TEE_GetOperationInfoMultiple+0xae>)
/home/hsk/Desktop/devel/tee-tpm-hyp/optee_os/lib/libutee/tee_api_operations.c:476
    1e60:	4630      	mov	r0, r6
    1e62:	b00f      	add	sp, #60	; 0x3c
    1e64:	bdf0      	pop	{r4, r5, r6, r7, pc}
/home/hsk/Desktop/devel/tee-tpm-hyp/optee_os/lib/libutee/tee_api_operations.c:424 (discriminator 1)
    1e66:	b30f      	cbz	r7, 1eac <TEE_GetOperationInfoMultiple+0x76>
/home/hsk/Desktop/devel/tee-tpm-hyp/optee_os/lib/libutee/tee_api_operations.c:425
    1e68:	2300      	movs	r3, #0
/home/hsk/Desktop/devel/tee-tpm-hyp/optee_os/lib/libutee/tee_api_operations.c:424
    1e6a:	2f02      	cmp	r7, #2
/home/hsk/Desktop/devel/tee-tpm-hyp/optee_os/lib/libutee/tee_api_operations.c:425
    1e6c:	6223      	str	r3, [r4, #32]
/home/hsk/Desktop/devel/tee-tpm-hyp/optee_os/lib/libutee/tee_api_operations.c:426
    1e6e:	6263      	str	r3, [r4, #36]	; 0x24
/home/hsk/Desktop/devel/tee-tpm-hyp/optee_os/lib/libutee/tee_api_operations.c:424
    1e70:	d11a      	bne.n	1ea8 <TEE_GetOperationInfoMultiple+0x72>
/home/hsk/Desktop/devel/tee-tpm-hyp/optee_os/lib/libutee/tee_api_operations.c:425
    1e72:	62a3      	str	r3, [r4, #40]	; 0x28
/home/hsk/Desktop/devel/tee-tpm-hyp/optee_os/lib/libutee/tee_api_operations.c:430
    1e74:	a907      	add	r1, sp, #28
/home/hsk/Desktop/devel/tee-tpm-hyp/optee_os/lib/libutee/tee_api_operations.c:426
    1e76:	62e3      	str	r3, [r4, #44]	; 0x2c
/home/hsk/Desktop/devel/tee-tpm-hyp/optee_os/lib/libutee/tee_api_operations.c:430
    1e78:	6a68      	ldr	r0, [r5, #36]	; 0x24
    1e7a:	f7ff f8cd 	bl	1018 <TEE_GetObjectInfo1>
/home/hsk/Desktop/devel/tee-tpm-hyp/optee_os/lib/libutee/tee_api_operations.c:432
    1e7e:	4606      	mov	r6, r0
    1e80:	b970      	cbnz	r0, 1ea0 <TEE_GetOperationInfoMultiple+0x6a>
/home/hsk/Desktop/devel/tee-tpm-hyp/optee_os/lib/libutee/tee_api_operations.c:435
    1e82:	9b08      	ldr	r3, [sp, #32]
    1e84:	62a3      	str	r3, [r4, #40]	; 0x28
/home/hsk/Desktop/devel/tee-tpm-hyp/optee_os/lib/libutee/tee_api_operations.c:437
    1e86:	69ab      	ldr	r3, [r5, #24]
    1e88:	62e3      	str	r3, [r4, #44]	; 0x2c
/home/hsk/Desktop/devel/tee-tpm-hyp/optee_os/lib/libutee/tee_api_operations.c:442
    1e8a:	4669      	mov	r1, sp
    1e8c:	6a28      	ldr	r0, [r5, #32]
    1e8e:	f7ff f8c3 	bl	1018 <TEE_GetObjectInfo1>
/home/hsk/Desktop/devel/tee-tpm-hyp/optee_os/lib/libutee/tee_api_operations.c:444
    1e92:	4606      	mov	r6, r0
    1e94:	b1d8      	cbz	r0, 1ece <TEE_GetOperationInfoMultiple+0x98>
/home/hsk/Desktop/devel/tee-tpm-hyp/optee_os/lib/libutee/tee_api_operations.c:445
    1e96:	2f02      	cmp	r7, #2
    1e98:	d102      	bne.n	1ea0 <TEE_GetOperationInfoMultiple+0x6a>
/home/hsk/Desktop/devel/tee-tpm-hyp/optee_os/lib/libutee/tee_api_operations.c:447
    1e9a:	2300      	movs	r3, #0
    1e9c:	62a3      	str	r3, [r4, #40]	; 0x28
/home/hsk/Desktop/devel/tee-tpm-hyp/optee_os/lib/libutee/tee_api_operations.c:449
    1e9e:	62e3      	str	r3, [r4, #44]	; 0x2c
/home/hsk/Desktop/devel/tee-tpm-hyp/optee_os/lib/libutee/tee_api_operations.c:471
    1ea0:	4b10      	ldr	r3, [pc, #64]	; (1ee4 <TEE_GetOperationInfoMultiple+0xae>)
    1ea2:	429e      	cmp	r6, r3
    1ea4:	d0db      	beq.n	1e5e <TEE_GetOperationInfoMultiple+0x28>
    1ea6:	e018      	b.n	1eda <TEE_GetOperationInfoMultiple+0xa4>
/home/hsk/Desktop/devel/tee-tpm-hyp/optee_os/lib/libutee/tee_api_operations.c:441
    1ea8:	2f00      	cmp	r7, #0
    1eaa:	d1ee      	bne.n	1e8a <TEE_GetOperationInfoMultiple+0x54>
/home/hsk/Desktop/devel/tee-tpm-hyp/optee_os/lib/libutee/tee_api_operations.c:461
    1eac:	682b      	ldr	r3, [r5, #0]
/home/hsk/Desktop/devel/tee-tpm-hyp/optee_os/lib/libutee/tee_api_operations.c:468
    1eae:	2600      	movs	r6, #0
/home/hsk/Desktop/devel/tee-tpm-hyp/optee_os/lib/libutee/tee_api_operations.c:461
    1eb0:	6023      	str	r3, [r4, #0]
/home/hsk/Desktop/devel/tee-tpm-hyp/optee_os/lib/libutee/tee_api_operations.c:462
    1eb2:	686b      	ldr	r3, [r5, #4]
    1eb4:	6063      	str	r3, [r4, #4]
/home/hsk/Desktop/devel/tee-tpm-hyp/optee_os/lib/libutee/tee_api_operations.c:463
    1eb6:	68ab      	ldr	r3, [r5, #8]
    1eb8:	60a3      	str	r3, [r4, #8]
/home/hsk/Desktop/devel/tee-tpm-hyp/optee_os/lib/libutee/tee_api_operations.c:464
    1eba:	68eb      	ldr	r3, [r5, #12]
    1ebc:	60e3      	str	r3, [r4, #12]
/home/hsk/Desktop/devel/tee-tpm-hyp/optee_os/lib/libutee/tee_api_operations.c:465
    1ebe:	692b      	ldr	r3, [r5, #16]
    1ec0:	6123      	str	r3, [r4, #16]
/home/hsk/Desktop/devel/tee-tpm-hyp/optee_os/lib/libutee/tee_api_operations.c:466
    1ec2:	69eb      	ldr	r3, [r5, #28]
    1ec4:	6163      	str	r3, [r4, #20]
/home/hsk/Desktop/devel/tee-tpm-hyp/optee_os/lib/libutee/tee_api_operations.c:467
    1ec6:	6aab      	ldr	r3, [r5, #40]	; 0x28
    1ec8:	61a3      	str	r3, [r4, #24]
/home/hsk/Desktop/devel/tee-tpm-hyp/optee_os/lib/libutee/tee_api_operations.c:468
    1eca:	61e7      	str	r7, [r4, #28]
    1ecc:	e7c8      	b.n	1e60 <TEE_GetOperationInfoMultiple+0x2a>
/home/hsk/Desktop/devel/tee-tpm-hyp/optee_os/lib/libutee/tee_api_operations.c:454
    1ece:	9b01      	ldr	r3, [sp, #4]
    1ed0:	6223      	str	r3, [r4, #32]
/home/hsk/Desktop/devel/tee-tpm-hyp/optee_os/lib/libutee/tee_api_operations.c:456
    1ed2:	69ab      	ldr	r3, [r5, #24]
    1ed4:	6263      	str	r3, [r4, #36]	; 0x24
    1ed6:	e7e9      	b.n	1eac <TEE_GetOperationInfoMultiple+0x76>
/home/hsk/Desktop/devel/tee-tpm-hyp/optee_os/lib/libutee/tee_api_operations.c:393
    1ed8:	4e03      	ldr	r6, [pc, #12]	; (1ee8 <TEE_GetOperationInfoMultiple+0xb2>)
/home/hsk/Desktop/devel/tee-tpm-hyp/optee_os/lib/libutee/tee_api_operations.c:473
    1eda:	4630      	mov	r0, r6
    1edc:	f005 fdea 	bl	7ab4 <TEE_Panic>
/home/hsk/Desktop/devel/tee-tpm-hyp/optee_os/lib/libutee/tee_api_operations.c:475
    1ee0:	e7be      	b.n	1e60 <TEE_GetOperationInfoMultiple+0x2a>
    1ee2:	bf00      	nop
    1ee4:	ffff0010 	.word	0xffff0010
    1ee8:	ffff0006 	.word	0xffff0006

00001eec <TEE_ResetOperation>:
TEE_ResetOperation():
/home/hsk/Desktop/devel/tee-tpm-hyp/optee_os/lib/libutee/tee_api_operations.c:479
    1eec:	b510      	push	{r4, lr}
/home/hsk/Desktop/devel/tee-tpm-hyp/optee_os/lib/libutee/tee_api_operations.c:482
    1eee:	4604      	mov	r4, r0
    1ef0:	b908      	cbnz	r0, 1ef6 <TEE_ResetOperation+0xa>
/home/hsk/Desktop/devel/tee-tpm-hyp/optee_os/lib/libutee/tee_api_operations.c:483
    1ef2:	f005 fddf 	bl	7ab4 <TEE_Panic>
/home/hsk/Desktop/devel/tee-tpm-hyp/optee_os/lib/libutee/tee_api_operations.c:485
    1ef6:	69e0      	ldr	r0, [r4, #28]
    1ef8:	f410 2080 	ands.w	r0, r0, #262144	; 0x40000
    1efc:	d101      	bne.n	1f02 <TEE_ResetOperation+0x16>
/home/hsk/Desktop/devel/tee-tpm-hyp/optee_os/lib/libutee/tee_api_operations.c:486
    1efe:	f005 fdd9 	bl	7ab4 <TEE_Panic>
/home/hsk/Desktop/devel/tee-tpm-hyp/optee_os/lib/libutee/tee_api_operations.c:490
    1f02:	6863      	ldr	r3, [r4, #4]
/home/hsk/Desktop/devel/tee-tpm-hyp/optee_os/lib/libutee/tee_api_operations.c:488
    1f04:	2200      	movs	r2, #0
    1f06:	62a2      	str	r2, [r4, #40]	; 0x28
/home/hsk/Desktop/devel/tee-tpm-hyp/optee_os/lib/libutee/tee_api_operations.c:490
    1f08:	2b05      	cmp	r3, #5
    1f0a:	d10b      	bne.n	1f24 <TEE_ResetOperation+0x38>
/home/hsk/Desktop/devel/tee-tpm-hyp/optee_os/lib/libutee/tee_api_operations.c:491
    1f0c:	4611      	mov	r1, r2
    1f0e:	6be0      	ldr	r0, [r4, #60]	; 0x3c
    1f10:	f001 e8ce 	blx	30b0 <utee_hash_init>
/home/hsk/Desktop/devel/tee-tpm-hyp/optee_os/lib/libutee/tee_api_operations.c:492
    1f14:	b108      	cbz	r0, 1f1a <TEE_ResetOperation+0x2e>
/home/hsk/Desktop/devel/tee-tpm-hyp/optee_os/lib/libutee/tee_api_operations.c:493
    1f16:	f005 fdcd 	bl	7ab4 <TEE_Panic>
/home/hsk/Desktop/devel/tee-tpm-hyp/optee_os/lib/libutee/tee_api_operations.c:494
    1f1a:	69e3      	ldr	r3, [r4, #28]
    1f1c:	f443 3300 	orr.w	r3, r3, #131072	; 0x20000
/home/hsk/Desktop/devel/tee-tpm-hyp/optee_os/lib/libutee/tee_api_operations.c:496
    1f20:	61e3      	str	r3, [r4, #28]
/home/hsk/Desktop/devel/tee-tpm-hyp/optee_os/lib/libutee/tee_api_operations.c:498
    1f22:	bd10      	pop	{r4, pc}
/home/hsk/Desktop/devel/tee-tpm-hyp/optee_os/lib/libutee/tee_api_operations.c:496
    1f24:	69e3      	ldr	r3, [r4, #28]
    1f26:	f423 3300 	bic.w	r3, r3, #131072	; 0x20000
    1f2a:	e7f9      	b.n	1f20 <TEE_ResetOperation+0x34>

00001f2c <TEE_SetOperationKey>:
TEE_SetOperationKey():
/home/hsk/Desktop/devel/tee-tpm-hyp/optee_os/lib/libutee/tee_api_operations.c:502
    1f2c:	b5f0      	push	{r4, r5, r6, r7, lr}
    1f2e:	460e      	mov	r6, r1
/home/hsk/Desktop/devel/tee-tpm-hyp/optee_os/lib/libutee/tee_api_operations.c:507
    1f30:	4604      	mov	r4, r0
/home/hsk/Desktop/devel/tee-tpm-hyp/optee_os/lib/libutee/tee_api_operations.c:502
    1f32:	b089      	sub	sp, #36	; 0x24
/home/hsk/Desktop/devel/tee-tpm-hyp/optee_os/lib/libutee/tee_api_operations.c:507
    1f34:	b920      	cbnz	r0, 1f40 <TEE_SetOperationKey+0x14>
/home/hsk/Desktop/devel/tee-tpm-hyp/optee_os/lib/libutee/tee_api_operations.c:519
    1f36:	4d1e      	ldr	r5, [pc, #120]	; (1fb0 <TEE_SetOperationKey+0x84>)
/home/hsk/Desktop/devel/tee-tpm-hyp/optee_os/lib/libutee/tee_api_operations.c:571
    1f38:	4628      	mov	r0, r5
    1f3a:	f005 fdbb 	bl	7ab4 <TEE_Panic>
/home/hsk/Desktop/devel/tee-tpm-hyp/optee_os/lib/libutee/tee_api_operations.c:573
    1f3e:	e02d      	b.n	1f9c <TEE_SetOperationKey+0x70>
/home/hsk/Desktop/devel/tee-tpm-hyp/optee_os/lib/libutee/tee_api_operations.c:512
    1f40:	6a83      	ldr	r3, [r0, #40]	; 0x28
    1f42:	2b00      	cmp	r3, #0
    1f44:	d1f7      	bne.n	1f36 <TEE_SetOperationKey+0xa>
/home/hsk/Desktop/devel/tee-tpm-hyp/optee_os/lib/libutee/tee_api_operations.c:517
    1f46:	b919      	cbnz	r1, 1f50 <TEE_SetOperationKey+0x24>
/home/hsk/Desktop/devel/tee-tpm-hyp/optee_os/lib/libutee/tee_api_operations.c:519
    1f48:	6a00      	ldr	r0, [r0, #32]
    1f4a:	f7ff f94f 	bl	11ec <TEE_ResetTransientObject>
    1f4e:	e7f2      	b.n	1f36 <TEE_SetOperationKey+0xa>
/home/hsk/Desktop/devel/tee-tpm-hyp/optee_os/lib/libutee/tee_api_operations.c:525
    1f50:	6843      	ldr	r3, [r0, #4]
    1f52:	2b05      	cmp	r3, #5
    1f54:	d0ef      	beq.n	1f36 <TEE_SetOperationKey+0xa>
/home/hsk/Desktop/devel/tee-tpm-hyp/optee_os/lib/libutee/tee_api_operations.c:531
    1f56:	69c3      	ldr	r3, [r0, #28]
    1f58:	031b      	lsls	r3, r3, #12
    1f5a:	d4ec      	bmi.n	1f36 <TEE_SetOperationKey+0xa>
/home/hsk/Desktop/devel/tee-tpm-hyp/optee_os/lib/libutee/tee_api_operations.c:537
    1f5c:	a901      	add	r1, sp, #4
    1f5e:	4630      	mov	r0, r6
    1f60:	f7ff f85a 	bl	1018 <TEE_GetObjectInfo1>
/home/hsk/Desktop/devel/tee-tpm-hyp/optee_os/lib/libutee/tee_api_operations.c:539
    1f64:	4605      	mov	r5, r0
    1f66:	b9e0      	cbnz	r0, 1fa2 <TEE_SetOperationKey+0x76>
/home/hsk/Desktop/devel/tee-tpm-hyp/optee_os/lib/libutee/tee_api_operations.c:543
    1f68:	69a3      	ldr	r3, [r4, #24]
    1f6a:	9a04      	ldr	r2, [sp, #16]
    1f6c:	4393      	bics	r3, r2
    1f6e:	d1e2      	bne.n	1f36 <TEE_SetOperationKey+0xa>
/home/hsk/Desktop/devel/tee-tpm-hyp/optee_os/lib/libutee/tee_api_operations.c:549
    1f70:	9f02      	ldr	r7, [sp, #8]
    1f72:	6923      	ldr	r3, [r4, #16]
    1f74:	42bb      	cmp	r3, r7
    1f76:	d3de      	bcc.n	1f36 <TEE_SetOperationKey+0xa>
/home/hsk/Desktop/devel/tee-tpm-hyp/optee_os/lib/libutee/tee_api_operations.c:556
    1f78:	6a20      	ldr	r0, [r4, #32]
    1f7a:	f7ff f937 	bl	11ec <TEE_ResetTransientObject>
/home/hsk/Desktop/devel/tee-tpm-hyp/optee_os/lib/libutee/tee_api_operations.c:557
    1f7e:	69e3      	ldr	r3, [r4, #28]
/home/hsk/Desktop/devel/tee-tpm-hyp/optee_os/lib/libutee/tee_api_operations.c:559
    1f80:	4631      	mov	r1, r6
    1f82:	6a20      	ldr	r0, [r4, #32]
/home/hsk/Desktop/devel/tee-tpm-hyp/optee_os/lib/libutee/tee_api_operations.c:557
    1f84:	f423 2380 	bic.w	r3, r3, #262144	; 0x40000
    1f88:	61e3      	str	r3, [r4, #28]
/home/hsk/Desktop/devel/tee-tpm-hyp/optee_os/lib/libutee/tee_api_operations.c:559
    1f8a:	f7ff f9a1 	bl	12d0 <TEE_CopyObjectAttributes1>
/home/hsk/Desktop/devel/tee-tpm-hyp/optee_os/lib/libutee/tee_api_operations.c:560
    1f8e:	4605      	mov	r5, r0
    1f90:	b938      	cbnz	r0, 1fa2 <TEE_SetOperationKey+0x76>
/home/hsk/Desktop/devel/tee-tpm-hyp/optee_os/lib/libutee/tee_api_operations.c:563
    1f92:	69e3      	ldr	r3, [r4, #28]
/home/hsk/Desktop/devel/tee-tpm-hyp/optee_os/lib/libutee/tee_api_operations.c:565
    1f94:	6167      	str	r7, [r4, #20]
/home/hsk/Desktop/devel/tee-tpm-hyp/optee_os/lib/libutee/tee_api_operations.c:563
    1f96:	f443 2380 	orr.w	r3, r3, #262144	; 0x40000
    1f9a:	61e3      	str	r3, [r4, #28]
/home/hsk/Desktop/devel/tee-tpm-hyp/optee_os/lib/libutee/tee_api_operations.c:574
    1f9c:	4628      	mov	r0, r5
    1f9e:	b009      	add	sp, #36	; 0x24
    1fa0:	bdf0      	pop	{r4, r5, r6, r7, pc}
/home/hsk/Desktop/devel/tee-tpm-hyp/optee_os/lib/libutee/tee_api_operations.c:568
    1fa2:	4b04      	ldr	r3, [pc, #16]	; (1fb4 <TEE_SetOperationKey+0x88>)
    1fa4:	429d      	cmp	r5, r3
    1fa6:	d0f9      	beq.n	1f9c <TEE_SetOperationKey+0x70>
/home/hsk/Desktop/devel/tee-tpm-hyp/optee_os/lib/libutee/tee_api_operations.c:569
    1fa8:	4b03      	ldr	r3, [pc, #12]	; (1fb8 <TEE_SetOperationKey+0x8c>)
    1faa:	429d      	cmp	r5, r3
    1fac:	d0f6      	beq.n	1f9c <TEE_SetOperationKey+0x70>
    1fae:	e7c3      	b.n	1f38 <TEE_SetOperationKey+0xc>
    1fb0:	ffff0006 	.word	0xffff0006
    1fb4:	f0100001 	.word	0xf0100001
    1fb8:	f0100003 	.word	0xf0100003

00001fbc <TEE_SetOperationKey2>:
TEE_SetOperationKey2():
/home/hsk/Desktop/devel/tee-tpm-hyp/optee_os/lib/libutee/tee_api_operations.c:578
    1fbc:	e92d 41f0 	stmdb	sp!, {r4, r5, r6, r7, r8, lr}
    1fc0:	4688      	mov	r8, r1
    1fc2:	4616      	mov	r6, r2
    1fc4:	b08e      	sub	sp, #56	; 0x38
/home/hsk/Desktop/devel/tee-tpm-hyp/optee_os/lib/libutee/tee_api_operations.c:584
    1fc6:	4604      	mov	r4, r0
    1fc8:	b130      	cbz	r0, 1fd8 <TEE_SetOperationKey2+0x1c>
/home/hsk/Desktop/devel/tee-tpm-hyp/optee_os/lib/libutee/tee_api_operations.c:589
    1fca:	6a83      	ldr	r3, [r0, #40]	; 0x28
    1fcc:	b923      	cbnz	r3, 1fd8 <TEE_SetOperationKey2+0x1c>
/home/hsk/Desktop/devel/tee-tpm-hyp/optee_os/lib/libutee/tee_api_operations.c:598
    1fce:	b129      	cbz	r1, 1fdc <TEE_SetOperationKey2+0x20>
/home/hsk/Desktop/devel/tee-tpm-hyp/optee_os/lib/libutee/tee_api_operations.c:598 (discriminator 1)
    1fd0:	b952      	cbnz	r2, 1fe8 <TEE_SetOperationKey2+0x2c>
/home/hsk/Desktop/devel/tee-tpm-hyp/optee_os/lib/libutee/tee_api_operations.c:604
    1fd2:	6a60      	ldr	r0, [r4, #36]	; 0x24
    1fd4:	f7ff f90a 	bl	11ec <TEE_ResetTransientObject>
/home/hsk/Desktop/devel/tee-tpm-hyp/optee_os/lib/libutee/tee_api_operations.c:578
    1fd8:	4d31      	ldr	r5, [pc, #196]	; (20a0 <TEE_SetOperationKey2+0xe4>)
    1fda:	e05c      	b.n	2096 <TEE_SetOperationKey2+0xda>
/home/hsk/Desktop/devel/tee-tpm-hyp/optee_os/lib/libutee/tee_api_operations.c:601
    1fdc:	6a00      	ldr	r0, [r0, #32]
    1fde:	f7ff f905 	bl	11ec <TEE_ResetTransientObject>
/home/hsk/Desktop/devel/tee-tpm-hyp/optee_os/lib/libutee/tee_api_operations.c:603
    1fe2:	2e00      	cmp	r6, #0
    1fe4:	d1f8      	bne.n	1fd8 <TEE_SetOperationKey2+0x1c>
    1fe6:	e7f4      	b.n	1fd2 <TEE_SetOperationKey2+0x16>
/home/hsk/Desktop/devel/tee-tpm-hyp/optee_os/lib/libutee/tee_api_operations.c:610
    1fe8:	6843      	ldr	r3, [r0, #4]
    1fea:	2b05      	cmp	r3, #5
    1fec:	d0f4      	beq.n	1fd8 <TEE_SetOperationKey2+0x1c>
/home/hsk/Desktop/devel/tee-tpm-hyp/optee_os/lib/libutee/tee_api_operations.c:616
    1fee:	69c3      	ldr	r3, [r0, #28]
    1ff0:	031b      	lsls	r3, r3, #12
    1ff2:	d5f1      	bpl.n	1fd8 <TEE_SetOperationKey2+0x1c>
/home/hsk/Desktop/devel/tee-tpm-hyp/optee_os/lib/libutee/tee_api_operations.c:622
    1ff4:	4669      	mov	r1, sp
    1ff6:	4640      	mov	r0, r8
    1ff8:	f7ff f80e 	bl	1018 <TEE_GetObjectInfo1>
/home/hsk/Desktop/devel/tee-tpm-hyp/optee_os/lib/libutee/tee_api_operations.c:624
    1ffc:	4605      	mov	r5, r0
    1ffe:	2800      	cmp	r0, #0
    2000:	d13d      	bne.n	207e <TEE_SetOperationKey2+0xc2>
/home/hsk/Desktop/devel/tee-tpm-hyp/optee_os/lib/libutee/tee_api_operations.c:628
    2002:	69a3      	ldr	r3, [r4, #24]
    2004:	9a03      	ldr	r2, [sp, #12]
    2006:	4393      	bics	r3, r2
    2008:	d1e6      	bne.n	1fd8 <TEE_SetOperationKey2+0x1c>
/home/hsk/Desktop/devel/tee-tpm-hyp/optee_os/lib/libutee/tee_api_operations.c:634
    200a:	a907      	add	r1, sp, #28
    200c:	4630      	mov	r0, r6
    200e:	f7ff f803 	bl	1018 <TEE_GetObjectInfo1>
/home/hsk/Desktop/devel/tee-tpm-hyp/optee_os/lib/libutee/tee_api_operations.c:636
    2012:	4605      	mov	r5, r0
    2014:	b138      	cbz	r0, 2026 <TEE_SetOperationKey2+0x6a>
/home/hsk/Desktop/devel/tee-tpm-hyp/optee_os/lib/libutee/tee_api_operations.c:637
    2016:	4b23      	ldr	r3, [pc, #140]	; (20a4 <TEE_SetOperationKey2+0xe8>)
    2018:	429d      	cmp	r5, r3
    201a:	d133      	bne.n	2084 <TEE_SetOperationKey2+0xc8>
/home/hsk/Desktop/devel/tee-tpm-hyp/optee_os/lib/libutee/tee_api_operations.c:578
    201c:	4d22      	ldr	r5, [pc, #136]	; (20a8 <TEE_SetOperationKey2+0xec>)
/home/hsk/Desktop/devel/tee-tpm-hyp/optee_os/lib/libutee/tee_api_operations.c:699
    201e:	4628      	mov	r0, r5
    2020:	b00e      	add	sp, #56	; 0x38
    2022:	e8bd 81f0 	ldmia.w	sp!, {r4, r5, r6, r7, r8, pc}
/home/hsk/Desktop/devel/tee-tpm-hyp/optee_os/lib/libutee/tee_api_operations.c:643
    2026:	69a3      	ldr	r3, [r4, #24]
    2028:	9a0a      	ldr	r2, [sp, #40]	; 0x28
    202a:	4393      	bics	r3, r2
    202c:	d1d4      	bne.n	1fd8 <TEE_SetOperationKey2+0x1c>
/home/hsk/Desktop/devel/tee-tpm-hyp/optee_os/lib/libutee/tee_api_operations.c:653
    202e:	6822      	ldr	r2, [r4, #0]
    2030:	4b1e      	ldr	r3, [pc, #120]	; (20ac <TEE_SetOperationKey2+0xf0>)
    2032:	9f01      	ldr	r7, [sp, #4]
    2034:	429a      	cmp	r2, r3
    2036:	d102      	bne.n	203e <TEE_SetOperationKey2+0x82>
/home/hsk/Desktop/devel/tee-tpm-hyp/optee_os/lib/libutee/tee_api_operations.c:653 (discriminator 1)
    2038:	9b08      	ldr	r3, [sp, #32]
    203a:	42bb      	cmp	r3, r7
    203c:	d1cc      	bne.n	1fd8 <TEE_SetOperationKey2+0x1c>
/home/hsk/Desktop/devel/tee-tpm-hyp/optee_os/lib/libutee/tee_api_operations.c:660
    203e:	6923      	ldr	r3, [r4, #16]
    2040:	42bb      	cmp	r3, r7
    2042:	d3c9      	bcc.n	1fd8 <TEE_SetOperationKey2+0x1c>
/home/hsk/Desktop/devel/tee-tpm-hyp/optee_os/lib/libutee/tee_api_operations.c:671
    2044:	6a20      	ldr	r0, [r4, #32]
    2046:	f7ff f8d1 	bl	11ec <TEE_ResetTransientObject>
/home/hsk/Desktop/devel/tee-tpm-hyp/optee_os/lib/libutee/tee_api_operations.c:672
    204a:	6a60      	ldr	r0, [r4, #36]	; 0x24
    204c:	f7ff f8ce 	bl	11ec <TEE_ResetTransientObject>
/home/hsk/Desktop/devel/tee-tpm-hyp/optee_os/lib/libutee/tee_api_operations.c:673
    2050:	69e3      	ldr	r3, [r4, #28]
/home/hsk/Desktop/devel/tee-tpm-hyp/optee_os/lib/libutee/tee_api_operations.c:675
    2052:	4641      	mov	r1, r8
    2054:	6a20      	ldr	r0, [r4, #32]
/home/hsk/Desktop/devel/tee-tpm-hyp/optee_os/lib/libutee/tee_api_operations.c:673
    2056:	f423 2380 	bic.w	r3, r3, #262144	; 0x40000
    205a:	61e3      	str	r3, [r4, #28]
/home/hsk/Desktop/devel/tee-tpm-hyp/optee_os/lib/libutee/tee_api_operations.c:675
    205c:	f7ff f938 	bl	12d0 <TEE_CopyObjectAttributes1>
/home/hsk/Desktop/devel/tee-tpm-hyp/optee_os/lib/libutee/tee_api_operations.c:676
    2060:	4605      	mov	r5, r0
    2062:	b960      	cbnz	r0, 207e <TEE_SetOperationKey2+0xc2>
/home/hsk/Desktop/devel/tee-tpm-hyp/optee_os/lib/libutee/tee_api_operations.c:679
    2064:	4631      	mov	r1, r6
    2066:	6a60      	ldr	r0, [r4, #36]	; 0x24
    2068:	f7ff f932 	bl	12d0 <TEE_CopyObjectAttributes1>
/home/hsk/Desktop/devel/tee-tpm-hyp/optee_os/lib/libutee/tee_api_operations.c:680
    206c:	4605      	mov	r5, r0
    206e:	2800      	cmp	r0, #0
    2070:	d1d1      	bne.n	2016 <TEE_SetOperationKey2+0x5a>
/home/hsk/Desktop/devel/tee-tpm-hyp/optee_os/lib/libutee/tee_api_operations.c:686
    2072:	69e3      	ldr	r3, [r4, #28]
/home/hsk/Desktop/devel/tee-tpm-hyp/optee_os/lib/libutee/tee_api_operations.c:688
    2074:	6167      	str	r7, [r4, #20]
/home/hsk/Desktop/devel/tee-tpm-hyp/optee_os/lib/libutee/tee_api_operations.c:686
    2076:	f443 2380 	orr.w	r3, r3, #262144	; 0x40000
    207a:	61e3      	str	r3, [r4, #28]
    207c:	e7cf      	b.n	201e <TEE_SetOperationKey2+0x62>
/home/hsk/Desktop/devel/tee-tpm-hyp/optee_os/lib/libutee/tee_api_operations.c:691
    207e:	4b09      	ldr	r3, [pc, #36]	; (20a4 <TEE_SetOperationKey2+0xe8>)
    2080:	429d      	cmp	r5, r3
    2082:	d0cc      	beq.n	201e <TEE_SetOperationKey2+0x62>
/home/hsk/Desktop/devel/tee-tpm-hyp/optee_os/lib/libutee/tee_api_operations.c:692
    2084:	4b08      	ldr	r3, [pc, #32]	; (20a8 <TEE_SetOperationKey2+0xec>)
    2086:	429d      	cmp	r5, r3
    2088:	d0c8      	beq.n	201c <TEE_SetOperationKey2+0x60>
/home/hsk/Desktop/devel/tee-tpm-hyp/optee_os/lib/libutee/tee_api_operations.c:693
    208a:	3301      	adds	r3, #1
    208c:	429d      	cmp	r5, r3
    208e:	d0c6      	beq.n	201e <TEE_SetOperationKey2+0x62>
/home/hsk/Desktop/devel/tee-tpm-hyp/optee_os/lib/libutee/tee_api_operations.c:694
    2090:	3301      	adds	r3, #1
    2092:	429d      	cmp	r5, r3
    2094:	d0c3      	beq.n	201e <TEE_SetOperationKey2+0x62>
/home/hsk/Desktop/devel/tee-tpm-hyp/optee_os/lib/libutee/tee_api_operations.c:696
    2096:	4628      	mov	r0, r5
    2098:	f005 fd0c 	bl	7ab4 <TEE_Panic>
/home/hsk/Desktop/devel/tee-tpm-hyp/optee_os/lib/libutee/tee_api_operations.c:698
    209c:	e7bf      	b.n	201e <TEE_SetOperationKey2+0x62>
    209e:	bf00      	nop
    20a0:	ffff0006 	.word	0xffff0006
    20a4:	f0100001 	.word	0xf0100001
    20a8:	f0100002 	.word	0xf0100002
    20ac:	10000410 	.word	0x10000410

000020b0 <TEE_CopyOperation>:
TEE_CopyOperation():
/home/hsk/Desktop/devel/tee-tpm-hyp/optee_os/lib/libutee/tee_api_operations.c:702
    20b0:	b538      	push	{r3, r4, r5, lr}
    20b2:	460c      	mov	r4, r1
/home/hsk/Desktop/devel/tee-tpm-hyp/optee_os/lib/libutee/tee_api_operations.c:705
    20b4:	4605      	mov	r5, r0
    20b6:	b100      	cbz	r0, 20ba <TEE_CopyOperation+0xa>
/home/hsk/Desktop/devel/tee-tpm-hyp/optee_os/lib/libutee/tee_api_operations.c:705 (discriminator 1)
    20b8:	b911      	cbnz	r1, 20c0 <TEE_CopyOperation+0x10>
/home/hsk/Desktop/devel/tee-tpm-hyp/optee_os/lib/libutee/tee_api_operations.c:706
    20ba:	2000      	movs	r0, #0
    20bc:	f005 fcfa 	bl	7ab4 <TEE_Panic>
/home/hsk/Desktop/devel/tee-tpm-hyp/optee_os/lib/libutee/tee_api_operations.c:707
    20c0:	682a      	ldr	r2, [r5, #0]
    20c2:	6823      	ldr	r3, [r4, #0]
    20c4:	429a      	cmp	r2, r3
    20c6:	d002      	beq.n	20ce <TEE_CopyOperation+0x1e>
/home/hsk/Desktop/devel/tee-tpm-hyp/optee_os/lib/libutee/tee_api_operations.c:708
    20c8:	2000      	movs	r0, #0
    20ca:	f005 fcf3 	bl	7ab4 <TEE_Panic>
/home/hsk/Desktop/devel/tee-tpm-hyp/optee_os/lib/libutee/tee_api_operations.c:709
    20ce:	6863      	ldr	r3, [r4, #4]
    20d0:	2b05      	cmp	r3, #5
    20d2:	d00a      	beq.n	20ea <TEE_CopyOperation+0x3a>
    20d4:	69e3      	ldr	r3, [r4, #28]
/home/hsk/Desktop/devel/tee-tpm-hyp/optee_os/lib/libutee/tee_api_operations.c:713
    20d6:	f413 2280 	ands.w	r2, r3, #262144	; 0x40000
    20da:	d030      	beq.n	213e <TEE_CopyOperation+0x8e>
/home/hsk/Desktop/devel/tee-tpm-hyp/optee_os/lib/libutee/tee_api_operations.c:714
    20dc:	6a21      	ldr	r1, [r4, #32]
/home/hsk/Desktop/devel/tee-tpm-hyp/optee_os/lib/libutee/tee_api_operations.c:715
    20de:	6a62      	ldr	r2, [r4, #36]	; 0x24
/home/hsk/Desktop/devel/tee-tpm-hyp/optee_os/lib/libutee/tee_api_operations.c:720
    20e0:	4628      	mov	r0, r5
/home/hsk/Desktop/devel/tee-tpm-hyp/optee_os/lib/libutee/tee_api_operations.c:718
    20e2:	031b      	lsls	r3, r3, #12
    20e4:	d42d      	bmi.n	2142 <TEE_CopyOperation+0x92>
/home/hsk/Desktop/devel/tee-tpm-hyp/optee_os/lib/libutee/tee_api_operations.c:720
    20e6:	f7ff ff21 	bl	1f2c <TEE_SetOperationKey>
/home/hsk/Desktop/devel/tee-tpm-hyp/optee_os/lib/libutee/tee_api_operations.c:725
    20ea:	69e3      	ldr	r3, [r4, #28]
    20ec:	61eb      	str	r3, [r5, #28]
/home/hsk/Desktop/devel/tee-tpm-hyp/optee_os/lib/libutee/tee_api_operations.c:726
    20ee:	6963      	ldr	r3, [r4, #20]
    20f0:	616b      	str	r3, [r5, #20]
/home/hsk/Desktop/devel/tee-tpm-hyp/optee_os/lib/libutee/tee_api_operations.c:727
    20f2:	6aa3      	ldr	r3, [r4, #40]	; 0x28
    20f4:	62ab      	str	r3, [r5, #40]	; 0x28
/home/hsk/Desktop/devel/tee-tpm-hyp/optee_os/lib/libutee/tee_api_operations.c:729
    20f6:	f895 2030 	ldrb.w	r2, [r5, #48]	; 0x30
    20fa:	f894 3030 	ldrb.w	r3, [r4, #48]	; 0x30
    20fe:	429a      	cmp	r2, r3
    2100:	d103      	bne.n	210a <TEE_CopyOperation+0x5a>
/home/hsk/Desktop/devel/tee-tpm-hyp/optee_os/lib/libutee/tee_api_operations.c:729 (discriminator 1)
    2102:	6b6a      	ldr	r2, [r5, #52]	; 0x34
    2104:	6b63      	ldr	r3, [r4, #52]	; 0x34
    2106:	429a      	cmp	r2, r3
    2108:	d002      	beq.n	2110 <TEE_CopyOperation+0x60>
/home/hsk/Desktop/devel/tee-tpm-hyp/optee_os/lib/libutee/tee_api_operations.c:731
    210a:	2000      	movs	r0, #0
    210c:	f005 fcd2 	bl	7ab4 <TEE_Panic>
/home/hsk/Desktop/devel/tee-tpm-hyp/optee_os/lib/libutee/tee_api_operations.c:733
    2110:	6ae8      	ldr	r0, [r5, #44]	; 0x2c
    2112:	6ae3      	ldr	r3, [r4, #44]	; 0x2c
    2114:	b1c0      	cbz	r0, 2148 <TEE_CopyOperation+0x98>
/home/hsk/Desktop/devel/tee-tpm-hyp/optee_os/lib/libutee/tee_api_operations.c:734
    2116:	b913      	cbnz	r3, 211e <TEE_CopyOperation+0x6e>
/home/hsk/Desktop/devel/tee-tpm-hyp/optee_os/lib/libutee/tee_api_operations.c:735
    2118:	4618      	mov	r0, r3
    211a:	f005 fccb 	bl	7ab4 <TEE_Panic>
/home/hsk/Desktop/devel/tee-tpm-hyp/optee_os/lib/libutee/tee_api_operations.c:737
    211e:	6ba2      	ldr	r2, [r4, #56]	; 0x38
    2120:	6ae1      	ldr	r1, [r4, #44]	; 0x2c
    2122:	6ae8      	ldr	r0, [r5, #44]	; 0x2c
    2124:	f005 fced 	bl	7b02 <memcpy>
/home/hsk/Desktop/devel/tee-tpm-hyp/optee_os/lib/libutee/tee_api_operations.c:738
    2128:	6ba3      	ldr	r3, [r4, #56]	; 0x38
    212a:	63ab      	str	r3, [r5, #56]	; 0x38
/home/hsk/Desktop/devel/tee-tpm-hyp/optee_os/lib/libutee/tee_api_operations.c:743
    212c:	6be1      	ldr	r1, [r4, #60]	; 0x3c
    212e:	6be8      	ldr	r0, [r5, #60]	; 0x3c
    2130:	f000 efaa 	blx	3088 <utee_cryp_state_copy>
/home/hsk/Desktop/devel/tee-tpm-hyp/optee_os/lib/libutee/tee_api_operations.c:744
    2134:	b168      	cbz	r0, 2152 <TEE_CopyOperation+0xa2>
/home/hsk/Desktop/devel/tee-tpm-hyp/optee_os/lib/libutee/tee_api_operations.c:746
    2136:	e8bd 4038 	ldmia.w	sp!, {r3, r4, r5, lr}
/home/hsk/Desktop/devel/tee-tpm-hyp/optee_os/lib/libutee/tee_api_operations.c:745
    213a:	f005 bcbb 	b.w	7ab4 <TEE_Panic>
/home/hsk/Desktop/devel/tee-tpm-hyp/optee_os/lib/libutee/tee_api_operations.c:710
    213e:	4611      	mov	r1, r2
    2140:	e7ce      	b.n	20e0 <TEE_CopyOperation+0x30>
/home/hsk/Desktop/devel/tee-tpm-hyp/optee_os/lib/libutee/tee_api_operations.c:722
    2142:	f7ff ff3b 	bl	1fbc <TEE_SetOperationKey2>
    2146:	e7d0      	b.n	20ea <TEE_CopyOperation+0x3a>
/home/hsk/Desktop/devel/tee-tpm-hyp/optee_os/lib/libutee/tee_api_operations.c:739
    2148:	2b00      	cmp	r3, #0
    214a:	d0ef      	beq.n	212c <TEE_CopyOperation+0x7c>
/home/hsk/Desktop/devel/tee-tpm-hyp/optee_os/lib/libutee/tee_api_operations.c:740
    214c:	f005 fcb2 	bl	7ab4 <TEE_Panic>
    2150:	e7ec      	b.n	212c <TEE_CopyOperation+0x7c>
/home/hsk/Desktop/devel/tee-tpm-hyp/optee_os/lib/libutee/tee_api_operations.c:746
    2152:	bd38      	pop	{r3, r4, r5, pc}

00002154 <TEE_DigestUpdate>:
TEE_DigestUpdate():
/home/hsk/Desktop/devel/tee-tpm-hyp/optee_os/lib/libutee/tee_api_operations.c:768
    2154:	b570      	push	{r4, r5, r6, lr}
    2156:	460d      	mov	r5, r1
    2158:	4616      	mov	r6, r2
/home/hsk/Desktop/devel/tee-tpm-hyp/optee_os/lib/libutee/tee_api_operations.c:771
    215a:	4604      	mov	r4, r0
    215c:	b110      	cbz	r0, 2164 <TEE_DigestUpdate+0x10>
/home/hsk/Desktop/devel/tee-tpm-hyp/optee_os/lib/libutee/tee_api_operations.c:771 (discriminator 1)
    215e:	6843      	ldr	r3, [r0, #4]
    2160:	2b05      	cmp	r3, #5
    2162:	d002      	beq.n	216a <TEE_DigestUpdate+0x16>
/home/hsk/Desktop/devel/tee-tpm-hyp/optee_os/lib/libutee/tee_api_operations.c:773
    2164:	2000      	movs	r0, #0
    2166:	f005 fca5 	bl	7ab4 <TEE_Panic>
/home/hsk/Desktop/devel/tee-tpm-hyp/optee_os/lib/libutee/tee_api_operations.c:775
    216a:	2301      	movs	r3, #1
/home/hsk/Desktop/devel/tee-tpm-hyp/optee_os/lib/libutee/tee_api_operations.c:777
    216c:	4632      	mov	r2, r6
/home/hsk/Desktop/devel/tee-tpm-hyp/optee_os/lib/libutee/tee_api_operations.c:775
    216e:	62a3      	str	r3, [r4, #40]	; 0x28
/home/hsk/Desktop/devel/tee-tpm-hyp/optee_os/lib/libutee/tee_api_operations.c:777
    2170:	4629      	mov	r1, r5
    2172:	6be0      	ldr	r0, [r4, #60]	; 0x3c
    2174:	f000 efa6 	blx	30c4 <utee_hash_update>
/home/hsk/Desktop/devel/tee-tpm-hyp/optee_os/lib/libutee/tee_api_operations.c:778
    2178:	b118      	cbz	r0, 2182 <TEE_DigestUpdate+0x2e>
/home/hsk/Desktop/devel/tee-tpm-hyp/optee_os/lib/libutee/tee_api_operations.c:780
    217a:	e8bd 4070 	ldmia.w	sp!, {r4, r5, r6, lr}
/home/hsk/Desktop/devel/tee-tpm-hyp/optee_os/lib/libutee/tee_api_operations.c:779
    217e:	f005 bc99 	b.w	7ab4 <TEE_Panic>
/home/hsk/Desktop/devel/tee-tpm-hyp/optee_os/lib/libutee/tee_api_operations.c:780
    2182:	bd70      	pop	{r4, r5, r6, pc}

00002184 <TEE_DigestDoFinal>:
TEE_DigestDoFinal():
/home/hsk/Desktop/devel/tee-tpm-hyp/optee_os/lib/libutee/tee_api_operations.c:784
    2184:	b530      	push	{r4, r5, lr}
/home/hsk/Desktop/devel/tee-tpm-hyp/optee_os/lib/libutee/tee_api_operations.c:788
    2186:	4605      	mov	r5, r0
/home/hsk/Desktop/devel/tee-tpm-hyp/optee_os/lib/libutee/tee_api_operations.c:784
    2188:	b085      	sub	sp, #20
    218a:	9c08      	ldr	r4, [sp, #32]
/home/hsk/Desktop/devel/tee-tpm-hyp/optee_os/lib/libutee/tee_api_operations.c:788
    218c:	b328      	cbz	r0, 21da <TEE_DigestDoFinal+0x56>
/home/hsk/Desktop/devel/tee-tpm-hyp/optee_os/lib/libutee/tee_api_operations.c:788 (discriminator 1)
    218e:	b901      	cbnz	r1, 2192 <TEE_DigestDoFinal+0xe>
/home/hsk/Desktop/devel/tee-tpm-hyp/optee_os/lib/libutee/tee_api_operations.c:789
    2190:	bb1a      	cbnz	r2, 21da <TEE_DigestDoFinal+0x56>
/home/hsk/Desktop/devel/tee-tpm-hyp/optee_os/lib/libutee/tee_api_operations.c:789 (discriminator 1)
    2192:	b313      	cbz	r3, 21da <TEE_DigestDoFinal+0x56>
/home/hsk/Desktop/devel/tee-tpm-hyp/optee_os/lib/libutee/tee_api_operations.c:790
    2194:	b30c      	cbz	r4, 21da <TEE_DigestDoFinal+0x56>
/home/hsk/Desktop/devel/tee-tpm-hyp/optee_os/lib/libutee/tee_api_operations.c:791
    2196:	6868      	ldr	r0, [r5, #4]
    2198:	2805      	cmp	r0, #5
    219a:	d11e      	bne.n	21da <TEE_DigestDoFinal+0x56>
/home/hsk/Desktop/devel/tee-tpm-hyp/optee_os/lib/libutee/tee_api_operations.c:797
    219c:	6820      	ldr	r0, [r4, #0]
    219e:	9002      	str	r0, [sp, #8]
    21a0:	2000      	movs	r0, #0
    21a2:	9003      	str	r0, [sp, #12]
/home/hsk/Desktop/devel/tee-tpm-hyp/optee_os/lib/libutee/tee_api_operations.c:798
    21a4:	a802      	add	r0, sp, #8
    21a6:	9000      	str	r0, [sp, #0]
    21a8:	6be8      	ldr	r0, [r5, #60]	; 0x3c
    21aa:	f000 ef96 	blx	30d8 <utee_hash_final>
/home/hsk/Desktop/devel/tee-tpm-hyp/optee_os/lib/libutee/tee_api_operations.c:799
    21ae:	9b02      	ldr	r3, [sp, #8]
    21b0:	6023      	str	r3, [r4, #0]
/home/hsk/Desktop/devel/tee-tpm-hyp/optee_os/lib/libutee/tee_api_operations.c:800
    21b2:	4604      	mov	r4, r0
    21b4:	b9b0      	cbnz	r0, 21e4 <TEE_DigestDoFinal+0x60>
init_hash_operation():
/home/hsk/Desktop/devel/tee-tpm-hyp/optee_os/lib/libutee/tee_api_operations.c:759
    21b6:	4602      	mov	r2, r0
    21b8:	4601      	mov	r1, r0
    21ba:	6be8      	ldr	r0, [r5, #60]	; 0x3c
    21bc:	f000 ef78 	blx	30b0 <utee_hash_init>
/home/hsk/Desktop/devel/tee-tpm-hyp/optee_os/lib/libutee/tee_api_operations.c:760
    21c0:	b108      	cbz	r0, 21c6 <TEE_DigestDoFinal+0x42>
/home/hsk/Desktop/devel/tee-tpm-hyp/optee_os/lib/libutee/tee_api_operations.c:761
    21c2:	f005 fc77 	bl	7ab4 <TEE_Panic>
/home/hsk/Desktop/devel/tee-tpm-hyp/optee_os/lib/libutee/tee_api_operations.c:763
    21c6:	69eb      	ldr	r3, [r5, #28]
/home/hsk/Desktop/devel/tee-tpm-hyp/optee_os/lib/libutee/tee_api_operations.c:762
    21c8:	2200      	movs	r2, #0
    21ca:	63aa      	str	r2, [r5, #56]	; 0x38
/home/hsk/Desktop/devel/tee-tpm-hyp/optee_os/lib/libutee/tee_api_operations.c:763
    21cc:	f443 3300 	orr.w	r3, r3, #131072	; 0x20000
TEE_DigestDoFinal():
/home/hsk/Desktop/devel/tee-tpm-hyp/optee_os/lib/libutee/tee_api_operations.c:806
    21d0:	62aa      	str	r2, [r5, #40]	; 0x28
init_hash_operation():
/home/hsk/Desktop/devel/tee-tpm-hyp/optee_os/lib/libutee/tee_api_operations.c:763
    21d2:	61eb      	str	r3, [r5, #28]
TEE_DigestDoFinal():
/home/hsk/Desktop/devel/tee-tpm-hyp/optee_os/lib/libutee/tee_api_operations.c:814
    21d4:	4620      	mov	r0, r4
    21d6:	b005      	add	sp, #20
    21d8:	bd30      	pop	{r4, r5, pc}
/home/hsk/Desktop/devel/tee-tpm-hyp/optee_os/lib/libutee/tee_api_operations.c:793
    21da:	4c04      	ldr	r4, [pc, #16]	; (21ec <TEE_DigestDoFinal+0x68>)
/home/hsk/Desktop/devel/tee-tpm-hyp/optee_os/lib/libutee/tee_api_operations.c:811
    21dc:	4620      	mov	r0, r4
    21de:	f005 fc69 	bl	7ab4 <TEE_Panic>
/home/hsk/Desktop/devel/tee-tpm-hyp/optee_os/lib/libutee/tee_api_operations.c:813
    21e2:	e7f7      	b.n	21d4 <TEE_DigestDoFinal+0x50>
/home/hsk/Desktop/devel/tee-tpm-hyp/optee_os/lib/libutee/tee_api_operations.c:809
    21e4:	4b02      	ldr	r3, [pc, #8]	; (21f0 <TEE_DigestDoFinal+0x6c>)
    21e6:	4298      	cmp	r0, r3
    21e8:	d0f4      	beq.n	21d4 <TEE_DigestDoFinal+0x50>
    21ea:	e7f7      	b.n	21dc <TEE_DigestDoFinal+0x58>
    21ec:	ffff0006 	.word	0xffff0006
    21f0:	ffff0010 	.word	0xffff0010

000021f4 <TEE_CipherInit>:
TEE_CipherInit():
/home/hsk/Desktop/devel/tee-tpm-hyp/optee_os/lib/libutee/tee_api_operations.c:820
    21f4:	b570      	push	{r4, r5, r6, lr}
    21f6:	460d      	mov	r5, r1
    21f8:	4616      	mov	r6, r2
/home/hsk/Desktop/devel/tee-tpm-hyp/optee_os/lib/libutee/tee_api_operations.c:823
    21fa:	4604      	mov	r4, r0
    21fc:	b908      	cbnz	r0, 2202 <TEE_CipherInit+0xe>
/home/hsk/Desktop/devel/tee-tpm-hyp/optee_os/lib/libutee/tee_api_operations.c:824
    21fe:	f005 fc59 	bl	7ab4 <TEE_Panic>
/home/hsk/Desktop/devel/tee-tpm-hyp/optee_os/lib/libutee/tee_api_operations.c:826
    2202:	6863      	ldr	r3, [r4, #4]
    2204:	2b01      	cmp	r3, #1
    2206:	d002      	beq.n	220e <TEE_CipherInit+0x1a>
/home/hsk/Desktop/devel/tee-tpm-hyp/optee_os/lib/libutee/tee_api_operations.c:827
    2208:	2000      	movs	r0, #0
    220a:	f005 fc53 	bl	7ab4 <TEE_Panic>
/home/hsk/Desktop/devel/tee-tpm-hyp/optee_os/lib/libutee/tee_api_operations.c:829
    220e:	69e3      	ldr	r3, [r4, #28]
    2210:	035b      	lsls	r3, r3, #13
    2212:	d501      	bpl.n	2218 <TEE_CipherInit+0x24>
/home/hsk/Desktop/devel/tee-tpm-hyp/optee_os/lib/libutee/tee_api_operations.c:829 (discriminator 1)
    2214:	6a23      	ldr	r3, [r4, #32]
    2216:	b913      	cbnz	r3, 221e <TEE_CipherInit+0x2a>
/home/hsk/Desktop/devel/tee-tpm-hyp/optee_os/lib/libutee/tee_api_operations.c:831
    2218:	2000      	movs	r0, #0
    221a:	f005 fc4b 	bl	7ab4 <TEE_Panic>
/home/hsk/Desktop/devel/tee-tpm-hyp/optee_os/lib/libutee/tee_api_operations.c:833
    221e:	6aa3      	ldr	r3, [r4, #40]	; 0x28
    2220:	b113      	cbz	r3, 2228 <TEE_CipherInit+0x34>
/home/hsk/Desktop/devel/tee-tpm-hyp/optee_os/lib/libutee/tee_api_operations.c:834
    2222:	4620      	mov	r0, r4
    2224:	f7ff fe62 	bl	1eec <TEE_ResetOperation>
/home/hsk/Desktop/devel/tee-tpm-hyp/optee_os/lib/libutee/tee_api_operations.c:836
    2228:	2301      	movs	r3, #1
/home/hsk/Desktop/devel/tee-tpm-hyp/optee_os/lib/libutee/tee_api_operations.c:838
    222a:	4632      	mov	r2, r6
/home/hsk/Desktop/devel/tee-tpm-hyp/optee_os/lib/libutee/tee_api_operations.c:836
    222c:	62a3      	str	r3, [r4, #40]	; 0x28
/home/hsk/Desktop/devel/tee-tpm-hyp/optee_os/lib/libutee/tee_api_operations.c:838
    222e:	4629      	mov	r1, r5
    2230:	6be0      	ldr	r0, [r4, #60]	; 0x3c
    2232:	f000 ef5e 	blx	30f0 <utee_cipher_init>
/home/hsk/Desktop/devel/tee-tpm-hyp/optee_os/lib/libutee/tee_api_operations.c:839
    2236:	b108      	cbz	r0, 223c <TEE_CipherInit+0x48>
/home/hsk/Desktop/devel/tee-tpm-hyp/optee_os/lib/libutee/tee_api_operations.c:840
    2238:	f005 fc3c 	bl	7ab4 <TEE_Panic>
/home/hsk/Desktop/devel/tee-tpm-hyp/optee_os/lib/libutee/tee_api_operations.c:842
    223c:	2300      	movs	r3, #0
    223e:	63a3      	str	r3, [r4, #56]	; 0x38
/home/hsk/Desktop/devel/tee-tpm-hyp/optee_os/lib/libutee/tee_api_operations.c:843
    2240:	69e3      	ldr	r3, [r4, #28]
    2242:	f443 3300 	orr.w	r3, r3, #131072	; 0x20000
    2246:	61e3      	str	r3, [r4, #28]
/home/hsk/Desktop/devel/tee-tpm-hyp/optee_os/lib/libutee/tee_api_operations.c:844
    2248:	bd70      	pop	{r4, r5, r6, pc}

0000224a <TEE_CipherUpdate>:
TEE_CipherUpdate():
/home/hsk/Desktop/devel/tee-tpm-hyp/optee_os/lib/libutee/tee_api_operations.c:946
    224a:	b5f0      	push	{r4, r5, r6, r7, lr}
    224c:	4f36      	ldr	r7, [pc, #216]	; (2328 <TEE_CipherUpdate+0xde>)
    224e:	b087      	sub	sp, #28
    2250:	447f      	add	r7, pc
    2252:	9d0c      	ldr	r5, [sp, #48]	; 0x30
/home/hsk/Desktop/devel/tee-tpm-hyp/optee_os/lib/libutee/tee_api_operations.c:951
    2254:	2800      	cmp	r0, #0
    2256:	d060      	beq.n	231a <TEE_CipherUpdate+0xd0>
/home/hsk/Desktop/devel/tee-tpm-hyp/optee_os/lib/libutee/tee_api_operations.c:951 (discriminator 1)
    2258:	b909      	cbnz	r1, 225e <TEE_CipherUpdate+0x14>
/home/hsk/Desktop/devel/tee-tpm-hyp/optee_os/lib/libutee/tee_api_operations.c:952
    225a:	2a00      	cmp	r2, #0
    225c:	d15d      	bne.n	231a <TEE_CipherUpdate+0xd0>
/home/hsk/Desktop/devel/tee-tpm-hyp/optee_os/lib/libutee/tee_api_operations.c:952 (discriminator 1)
    225e:	2d00      	cmp	r5, #0
    2260:	d05b      	beq.n	231a <TEE_CipherUpdate+0xd0>
/home/hsk/Desktop/devel/tee-tpm-hyp/optee_os/lib/libutee/tee_api_operations.c:953
    2262:	b913      	cbnz	r3, 226a <TEE_CipherUpdate+0x20>
/home/hsk/Desktop/devel/tee-tpm-hyp/optee_os/lib/libutee/tee_api_operations.c:954
    2264:	682c      	ldr	r4, [r5, #0]
    2266:	2c00      	cmp	r4, #0
    2268:	d157      	bne.n	231a <TEE_CipherUpdate+0xd0>
/home/hsk/Desktop/devel/tee-tpm-hyp/optee_os/lib/libutee/tee_api_operations.c:959
    226a:	6844      	ldr	r4, [r0, #4]
    226c:	2c01      	cmp	r4, #1
    226e:	d154      	bne.n	231a <TEE_CipherUpdate+0xd0>
/home/hsk/Desktop/devel/tee-tpm-hyp/optee_os/lib/libutee/tee_api_operations.c:964
    2270:	69c4      	ldr	r4, [r0, #28]
    2272:	03a4      	lsls	r4, r4, #14
    2274:	d551      	bpl.n	231a <TEE_CipherUpdate+0xd0>
/home/hsk/Desktop/devel/tee-tpm-hyp/optee_os/lib/libutee/tee_api_operations.c:969
    2276:	6a84      	ldr	r4, [r0, #40]	; 0x28
    2278:	2c01      	cmp	r4, #1
    227a:	d14e      	bne.n	231a <TEE_CipherUpdate+0xd0>
/home/hsk/Desktop/devel/tee-tpm-hyp/optee_os/lib/libutee/tee_api_operations.c:974
    227c:	b929      	cbnz	r1, 228a <TEE_CipherUpdate+0x40>
/home/hsk/Desktop/devel/tee-tpm-hyp/optee_os/lib/libutee/tee_api_operations.c:974 (discriminator 1)
    227e:	b922      	cbnz	r2, 228a <TEE_CipherUpdate+0x40>
/home/hsk/Desktop/devel/tee-tpm-hyp/optee_os/lib/libutee/tee_api_operations.c:976
    2280:	4614      	mov	r4, r2
/home/hsk/Desktop/devel/tee-tpm-hyp/optee_os/lib/libutee/tee_api_operations.c:975
    2282:	602a      	str	r2, [r5, #0]
/home/hsk/Desktop/devel/tee-tpm-hyp/optee_os/lib/libutee/tee_api_operations.c:1025
    2284:	4620      	mov	r0, r4
    2286:	b007      	add	sp, #28
    2288:	bdf0      	pop	{r4, r5, r6, r7, pc}
/home/hsk/Desktop/devel/tee-tpm-hyp/optee_os/lib/libutee/tee_api_operations.c:981
    228a:	6b46      	ldr	r6, [r0, #52]	; 0x34
    228c:	2e01      	cmp	r6, #1
    228e:	d916      	bls.n	22be <TEE_CipherUpdate+0x74>
/home/hsk/Desktop/devel/tee-tpm-hyp/optee_os/lib/libutee/tee_api_operations.c:982
    2290:	6b84      	ldr	r4, [r0, #56]	; 0x38
    2292:	4414      	add	r4, r2
    2294:	fbb4 f4f6 	udiv	r4, r4, r6
    2298:	4374      	muls	r4, r6
/home/hsk/Desktop/devel/tee-tpm-hyp/optee_os/lib/libutee/tee_api_operations.c:987
    229a:	f890 c030 	ldrb.w	ip, [r0, #48]	; 0x30
    229e:	f1bc 0f00 	cmp.w	ip, #0
    22a2:	d005      	beq.n	22b0 <TEE_CipherUpdate+0x66>
/home/hsk/Desktop/devel/tee-tpm-hyp/optee_os/lib/libutee/tee_api_operations.c:988
    22a4:	ea4f 0c46 	mov.w	ip, r6, lsl #1
    22a8:	45a4      	cmp	ip, r4
    22aa:	d20a      	bcs.n	22c2 <TEE_CipherUpdate+0x78>
/home/hsk/Desktop/devel/tee-tpm-hyp/optee_os/lib/libutee/tee_api_operations.c:989
    22ac:	eba4 040c 	sub.w	r4, r4, ip
/home/hsk/Desktop/devel/tee-tpm-hyp/optee_os/lib/libutee/tee_api_operations.c:998
    22b0:	f8d5 c000 	ldr.w	ip, [r5]
    22b4:	45a4      	cmp	ip, r4
    22b6:	d206      	bcs.n	22c6 <TEE_CipherUpdate+0x7c>
/home/hsk/Desktop/devel/tee-tpm-hyp/optee_os/lib/libutee/tee_api_operations.c:999
    22b8:	602c      	str	r4, [r5, #0]
/home/hsk/Desktop/devel/tee-tpm-hyp/optee_os/lib/libutee/tee_api_operations.c:1000
    22ba:	4c19      	ldr	r4, [pc, #100]	; (2320 <TEE_CipherUpdate+0xd6>)
    22bc:	e7e2      	b.n	2284 <TEE_CipherUpdate+0x3a>
    22be:	4614      	mov	r4, r2
    22c0:	e7eb      	b.n	229a <TEE_CipherUpdate+0x50>
/home/hsk/Desktop/devel/tee-tpm-hyp/optee_os/lib/libutee/tee_api_operations.c:991
    22c2:	2400      	movs	r4, #0
    22c4:	e7f4      	b.n	22b0 <TEE_CipherUpdate+0x66>
/home/hsk/Desktop/devel/tee-tpm-hyp/optee_os/lib/libutee/tee_api_operations.c:1004
    22c6:	2400      	movs	r4, #0
    22c8:	f8cd c010 	str.w	ip, [sp, #16]
    22cc:	9405      	str	r4, [sp, #20]
/home/hsk/Desktop/devel/tee-tpm-hyp/optee_os/lib/libutee/tee_api_operations.c:1005
    22ce:	2e01      	cmp	r6, #1
    22d0:	d916      	bls.n	2300 <TEE_CipherUpdate+0xb6>
/home/hsk/Desktop/devel/tee-tpm-hyp/optee_os/lib/libutee/tee_api_operations.c:1006
    22d2:	4c16      	ldr	r4, [pc, #88]	; (232c <TEE_CipherUpdate+0xe2>)
    22d4:	593c      	ldr	r4, [r7, r4]
    22d6:	9403      	str	r4, [sp, #12]
    22d8:	ac04      	add	r4, sp, #16
    22da:	e9cd 3400 	strd	r3, r4, [sp]
    22de:	4613      	mov	r3, r2
    22e0:	460a      	mov	r2, r1
    22e2:	9903      	ldr	r1, [sp, #12]
    22e4:	f7ff fa3e 	bl	1764 <tee_buffer_update>
/home/hsk/Desktop/devel/tee-tpm-hyp/optee_os/lib/libutee/tee_api_operations.c:1010
    22e8:	4604      	mov	r4, r0
/home/hsk/Desktop/devel/tee-tpm-hyp/optee_os/lib/libutee/tee_api_operations.c:1017
    22ea:	9b04      	ldr	r3, [sp, #16]
    22ec:	602b      	str	r3, [r5, #0]
/home/hsk/Desktop/devel/tee-tpm-hyp/optee_os/lib/libutee/tee_api_operations.c:1020
    22ee:	2c00      	cmp	r4, #0
    22f0:	d0c8      	beq.n	2284 <TEE_CipherUpdate+0x3a>
/home/hsk/Desktop/devel/tee-tpm-hyp/optee_os/lib/libutee/tee_api_operations.c:1020 (discriminator 1)
    22f2:	4b0b      	ldr	r3, [pc, #44]	; (2320 <TEE_CipherUpdate+0xd6>)
    22f4:	429c      	cmp	r4, r3
    22f6:	d0c5      	beq.n	2284 <TEE_CipherUpdate+0x3a>
/home/hsk/Desktop/devel/tee-tpm-hyp/optee_os/lib/libutee/tee_api_operations.c:1022
    22f8:	4620      	mov	r0, r4
    22fa:	f005 fbdb 	bl	7ab4 <TEE_Panic>
/home/hsk/Desktop/devel/tee-tpm-hyp/optee_os/lib/libutee/tee_api_operations.c:1024
    22fe:	e7c1      	b.n	2284 <TEE_CipherUpdate+0x3a>
/home/hsk/Desktop/devel/tee-tpm-hyp/optee_os/lib/libutee/tee_api_operations.c:1009
    2300:	b12a      	cbz	r2, 230e <TEE_CipherUpdate+0xc4>
/home/hsk/Desktop/devel/tee-tpm-hyp/optee_os/lib/libutee/tee_api_operations.c:1010
    2302:	ac04      	add	r4, sp, #16
    2304:	9400      	str	r4, [sp, #0]
    2306:	6bc0      	ldr	r0, [r0, #60]	; 0x3c
    2308:	f000 eefc 	blx	3104 <utee_cipher_update>
    230c:	e7ec      	b.n	22e8 <TEE_CipherUpdate+0x9e>
/home/hsk/Desktop/devel/tee-tpm-hyp/optee_os/lib/libutee/tee_api_operations.c:1014
    230e:	2000      	movs	r0, #0
    2310:	2100      	movs	r1, #0
/home/hsk/Desktop/devel/tee-tpm-hyp/optee_os/lib/libutee/tee_api_operations.c:1013
    2312:	4614      	mov	r4, r2
/home/hsk/Desktop/devel/tee-tpm-hyp/optee_os/lib/libutee/tee_api_operations.c:1014
    2314:	e9cd 0104 	strd	r0, r1, [sp, #16]
    2318:	e7e7      	b.n	22ea <TEE_CipherUpdate+0xa0>
/home/hsk/Desktop/devel/tee-tpm-hyp/optee_os/lib/libutee/tee_api_operations.c:955
    231a:	4c02      	ldr	r4, [pc, #8]	; (2324 <TEE_CipherUpdate+0xda>)
    231c:	e7ec      	b.n	22f8 <TEE_CipherUpdate+0xae>
    231e:	bf00      	nop
    2320:	ffff0010 	.word	0xffff0010
    2324:	ffff0006 	.word	0xffff0006
    2328:	00007260 	.word	0x00007260
    232c:	0000002c 	.word	0x0000002c

00002330 <TEE_CipherDoFinal>:
TEE_CipherDoFinal():
/home/hsk/Desktop/devel/tee-tpm-hyp/optee_os/lib/libutee/tee_api_operations.c:1030
    2330:	e92d 43f0 	stmdb	sp!, {r4, r5, r6, r7, r8, r9, lr}
    2334:	4698      	mov	r8, r3
    2336:	4c3f      	ldr	r4, [pc, #252]	; (2434 <TEE_CipherDoFinal+0x104>)
    2338:	b087      	sub	sp, #28
/home/hsk/Desktop/devel/tee-tpm-hyp/optee_os/lib/libutee/tee_api_operations.c:1037
    233a:	4605      	mov	r5, r0
/home/hsk/Desktop/devel/tee-tpm-hyp/optee_os/lib/libutee/tee_api_operations.c:1030
    233c:	447c      	add	r4, pc
    233e:	9f0e      	ldr	r7, [sp, #56]	; 0x38
/home/hsk/Desktop/devel/tee-tpm-hyp/optee_os/lib/libutee/tee_api_operations.c:1037
    2340:	2800      	cmp	r0, #0
    2342:	d068      	beq.n	2416 <TEE_CipherDoFinal+0xe6>
/home/hsk/Desktop/devel/tee-tpm-hyp/optee_os/lib/libutee/tee_api_operations.c:1037 (discriminator 1)
    2344:	b909      	cbnz	r1, 234a <TEE_CipherDoFinal+0x1a>
/home/hsk/Desktop/devel/tee-tpm-hyp/optee_os/lib/libutee/tee_api_operations.c:1038
    2346:	2a00      	cmp	r2, #0
    2348:	d165      	bne.n	2416 <TEE_CipherDoFinal+0xe6>
/home/hsk/Desktop/devel/tee-tpm-hyp/optee_os/lib/libutee/tee_api_operations.c:1038 (discriminator 1)
    234a:	2f00      	cmp	r7, #0
    234c:	d063      	beq.n	2416 <TEE_CipherDoFinal+0xe6>
/home/hsk/Desktop/devel/tee-tpm-hyp/optee_os/lib/libutee/tee_api_operations.c:1039
    234e:	f1b8 0f00 	cmp.w	r8, #0
    2352:	d102      	bne.n	235a <TEE_CipherDoFinal+0x2a>
/home/hsk/Desktop/devel/tee-tpm-hyp/optee_os/lib/libutee/tee_api_operations.c:1040
    2354:	683b      	ldr	r3, [r7, #0]
    2356:	2b00      	cmp	r3, #0
    2358:	d15d      	bne.n	2416 <TEE_CipherDoFinal+0xe6>
/home/hsk/Desktop/devel/tee-tpm-hyp/optee_os/lib/libutee/tee_api_operations.c:1045
    235a:	686b      	ldr	r3, [r5, #4]
    235c:	2b01      	cmp	r3, #1
    235e:	d15a      	bne.n	2416 <TEE_CipherDoFinal+0xe6>
/home/hsk/Desktop/devel/tee-tpm-hyp/optee_os/lib/libutee/tee_api_operations.c:1050
    2360:	69eb      	ldr	r3, [r5, #28]
    2362:	039b      	lsls	r3, r3, #14
    2364:	d557      	bpl.n	2416 <TEE_CipherDoFinal+0xe6>
/home/hsk/Desktop/devel/tee-tpm-hyp/optee_os/lib/libutee/tee_api_operations.c:1055
    2366:	6aab      	ldr	r3, [r5, #40]	; 0x28
    2368:	2b01      	cmp	r3, #1
    236a:	d154      	bne.n	2416 <TEE_CipherDoFinal+0xe6>
/home/hsk/Desktop/devel/tee-tpm-hyp/optee_os/lib/libutee/tee_api_operations.c:1064
    236c:	682b      	ldr	r3, [r5, #0]
    236e:	f423 7380 	bic.w	r3, r3, #256	; 0x100
    2372:	f103 4070 	add.w	r0, r3, #4026531840	; 0xf0000000
    2376:	3810      	subs	r0, #16
    2378:	2801      	cmp	r0, #1
    237a:	6b68      	ldr	r0, [r5, #52]	; 0x34
    237c:	d902      	bls.n	2384 <TEE_CipherDoFinal+0x54>
/home/hsk/Desktop/devel/tee-tpm-hyp/optee_os/lib/libutee/tee_api_operations.c:1067 (discriminator 1)
    237e:	4e2a      	ldr	r6, [pc, #168]	; (2428 <TEE_CipherDoFinal+0xf8>)
    2380:	42b3      	cmp	r3, r6
    2382:	d107      	bne.n	2394 <TEE_CipherDoFinal+0x64>
/home/hsk/Desktop/devel/tee-tpm-hyp/optee_os/lib/libutee/tee_api_operations.c:1070
    2384:	6bab      	ldr	r3, [r5, #56]	; 0x38
    2386:	4413      	add	r3, r2
    2388:	fbb3 f6f0 	udiv	r6, r3, r0
    238c:	fb00 3316 	mls	r3, r0, r6, r3
    2390:	2b00      	cmp	r3, #0
    2392:	d140      	bne.n	2416 <TEE_CipherDoFinal+0xe6>
/home/hsk/Desktop/devel/tee-tpm-hyp/optee_os/lib/libutee/tee_api_operations.c:1082
    2394:	2801      	cmp	r0, #1
    2396:	d90b      	bls.n	23b0 <TEE_CipherDoFinal+0x80>
/home/hsk/Desktop/devel/tee-tpm-hyp/optee_os/lib/libutee/tee_api_operations.c:1083
    2398:	6bab      	ldr	r3, [r5, #56]	; 0x38
    239a:	4413      	add	r3, r2
/home/hsk/Desktop/devel/tee-tpm-hyp/optee_os/lib/libutee/tee_api_operations.c:1087
    239c:	f8d7 c000 	ldr.w	ip, [r7]
    23a0:	459c      	cmp	ip, r3
    23a2:	d207      	bcs.n	23b4 <TEE_CipherDoFinal+0x84>
/home/hsk/Desktop/devel/tee-tpm-hyp/optee_os/lib/libutee/tee_api_operations.c:1089
    23a4:	4c21      	ldr	r4, [pc, #132]	; (242c <TEE_CipherDoFinal+0xfc>)
/home/hsk/Desktop/devel/tee-tpm-hyp/optee_os/lib/libutee/tee_api_operations.c:1088
    23a6:	603b      	str	r3, [r7, #0]
/home/hsk/Desktop/devel/tee-tpm-hyp/optee_os/lib/libutee/tee_api_operations.c:1126
    23a8:	4620      	mov	r0, r4
    23aa:	b007      	add	sp, #28
    23ac:	e8bd 83f0 	ldmia.w	sp!, {r4, r5, r6, r7, r8, r9, pc}
    23b0:	4613      	mov	r3, r2
    23b2:	e7f3      	b.n	239c <TEE_CipherDoFinal+0x6c>
/home/hsk/Desktop/devel/tee-tpm-hyp/optee_os/lib/libutee/tee_api_operations.c:1093
    23b4:	2600      	movs	r6, #0
/home/hsk/Desktop/devel/tee-tpm-hyp/optee_os/lib/libutee/tee_api_operations.c:1094
    23b6:	2801      	cmp	r0, #1
/home/hsk/Desktop/devel/tee-tpm-hyp/optee_os/lib/libutee/tee_api_operations.c:1093
    23b8:	e9cd c604 	strd	ip, r6, [sp, #16]
    23bc:	f10d 0910 	add.w	r9, sp, #16
/home/hsk/Desktop/devel/tee-tpm-hyp/optee_os/lib/libutee/tee_api_operations.c:1094
    23c0:	d925      	bls.n	240e <TEE_CipherDoFinal+0xde>
/home/hsk/Desktop/devel/tee-tpm-hyp/optee_os/lib/libutee/tee_api_operations.c:1095
    23c2:	4b1d      	ldr	r3, [pc, #116]	; (2438 <TEE_CipherDoFinal+0x108>)
    23c4:	4628      	mov	r0, r5
    23c6:	58e3      	ldr	r3, [r4, r3]
    23c8:	9303      	str	r3, [sp, #12]
    23ca:	4613      	mov	r3, r2
    23cc:	e9cd 8900 	strd	r8, r9, [sp]
    23d0:	460a      	mov	r2, r1
    23d2:	9903      	ldr	r1, [sp, #12]
    23d4:	f7ff f9c6 	bl	1764 <tee_buffer_update>
/home/hsk/Desktop/devel/tee-tpm-hyp/optee_os/lib/libutee/tee_api_operations.c:1097
    23d8:	4604      	mov	r4, r0
    23da:	bb08      	cbnz	r0, 2420 <TEE_CipherDoFinal+0xf0>
/home/hsk/Desktop/devel/tee-tpm-hyp/optee_os/lib/libutee/tee_api_operations.c:1103
    23dc:	683b      	ldr	r3, [r7, #0]
/home/hsk/Desktop/devel/tee-tpm-hyp/optee_os/lib/libutee/tee_api_operations.c:1104
    23de:	f8cd 9000 	str.w	r9, [sp]
/home/hsk/Desktop/devel/tee-tpm-hyp/optee_os/lib/libutee/tee_api_operations.c:1100
    23e2:	9e04      	ldr	r6, [sp, #16]
/home/hsk/Desktop/devel/tee-tpm-hyp/optee_os/lib/libutee/tee_api_operations.c:1104
    23e4:	6baa      	ldr	r2, [r5, #56]	; 0x38
    23e6:	6ae9      	ldr	r1, [r5, #44]	; 0x2c
/home/hsk/Desktop/devel/tee-tpm-hyp/optee_os/lib/libutee/tee_api_operations.c:1103
    23e8:	1b9b      	subs	r3, r3, r6
    23ea:	e9cd 3004 	strd	r3, r0, [sp, #16]
/home/hsk/Desktop/devel/tee-tpm-hyp/optee_os/lib/libutee/tee_api_operations.c:1104
    23ee:	eb08 0306 	add.w	r3, r8, r6
/home/hsk/Desktop/devel/tee-tpm-hyp/optee_os/lib/libutee/tee_api_operations.c:1107
    23f2:	6be8      	ldr	r0, [r5, #60]	; 0x3c
    23f4:	f000 ee92 	blx	311c <utee_cipher_final>
    23f8:	4604      	mov	r4, r0
/home/hsk/Desktop/devel/tee-tpm-hyp/optee_os/lib/libutee/tee_api_operations.c:1110
    23fa:	b988      	cbnz	r0, 2420 <TEE_CipherDoFinal+0xf0>
/home/hsk/Desktop/devel/tee-tpm-hyp/optee_os/lib/libutee/tee_api_operations.c:1113
    23fc:	9b04      	ldr	r3, [sp, #16]
    23fe:	441e      	add	r6, r3
/home/hsk/Desktop/devel/tee-tpm-hyp/optee_os/lib/libutee/tee_api_operations.c:1114
    2400:	603e      	str	r6, [r7, #0]
/home/hsk/Desktop/devel/tee-tpm-hyp/optee_os/lib/libutee/tee_api_operations.c:1118
    2402:	62a8      	str	r0, [r5, #40]	; 0x28
/home/hsk/Desktop/devel/tee-tpm-hyp/optee_os/lib/libutee/tee_api_operations.c:1116
    2404:	69eb      	ldr	r3, [r5, #28]
    2406:	f423 3300 	bic.w	r3, r3, #131072	; 0x20000
    240a:	61eb      	str	r3, [r5, #28]
    240c:	e7cc      	b.n	23a8 <TEE_CipherDoFinal+0x78>
/home/hsk/Desktop/devel/tee-tpm-hyp/optee_os/lib/libutee/tee_api_operations.c:1107
    240e:	f8cd 9000 	str.w	r9, [sp]
    2412:	4643      	mov	r3, r8
    2414:	e7ed      	b.n	23f2 <TEE_CipherDoFinal+0xc2>
/home/hsk/Desktop/devel/tee-tpm-hyp/optee_os/lib/libutee/tee_api_operations.c:1041
    2416:	4c06      	ldr	r4, [pc, #24]	; (2430 <TEE_CipherDoFinal+0x100>)
/home/hsk/Desktop/devel/tee-tpm-hyp/optee_os/lib/libutee/tee_api_operations.c:1123
    2418:	4620      	mov	r0, r4
    241a:	f005 fb4b 	bl	7ab4 <TEE_Panic>
/home/hsk/Desktop/devel/tee-tpm-hyp/optee_os/lib/libutee/tee_api_operations.c:1125
    241e:	e7c3      	b.n	23a8 <TEE_CipherDoFinal+0x78>
/home/hsk/Desktop/devel/tee-tpm-hyp/optee_os/lib/libutee/tee_api_operations.c:1121
    2420:	4b02      	ldr	r3, [pc, #8]	; (242c <TEE_CipherDoFinal+0xfc>)
    2422:	429c      	cmp	r4, r3
    2424:	d0c0      	beq.n	23a8 <TEE_CipherDoFinal+0x78>
    2426:	e7f7      	b.n	2418 <TEE_CipherDoFinal+0xe8>
    2428:	10000013 	.word	0x10000013
    242c:	ffff0010 	.word	0xffff0010
    2430:	ffff0006 	.word	0xffff0006
    2434:	00007174 	.word	0x00007174
    2438:	0000002c 	.word	0x0000002c

0000243c <TEE_MACInit>:
TEE_MACInit():
/home/hsk/Desktop/devel/tee-tpm-hyp/optee_os/lib/libutee/tee_api_operations.c:1131
    243c:	b570      	push	{r4, r5, r6, lr}
    243e:	460d      	mov	r5, r1
    2440:	4616      	mov	r6, r2
/home/hsk/Desktop/devel/tee-tpm-hyp/optee_os/lib/libutee/tee_api_operations.c:1132
    2442:	4604      	mov	r4, r0
    2444:	b908      	cbnz	r0, 244a <TEE_MACInit+0xe>
/home/hsk/Desktop/devel/tee-tpm-hyp/optee_os/lib/libutee/tee_api_operations.c:1133
    2446:	f005 fb35 	bl	7ab4 <TEE_Panic>
/home/hsk/Desktop/devel/tee-tpm-hyp/optee_os/lib/libutee/tee_api_operations.c:1135
    244a:	6863      	ldr	r3, [r4, #4]
    244c:	2b03      	cmp	r3, #3
    244e:	d002      	beq.n	2456 <TEE_MACInit+0x1a>
/home/hsk/Desktop/devel/tee-tpm-hyp/optee_os/lib/libutee/tee_api_operations.c:1136
    2450:	2000      	movs	r0, #0
    2452:	f005 fb2f 	bl	7ab4 <TEE_Panic>
/home/hsk/Desktop/devel/tee-tpm-hyp/optee_os/lib/libutee/tee_api_operations.c:1138
    2456:	69e3      	ldr	r3, [r4, #28]
    2458:	035b      	lsls	r3, r3, #13
    245a:	d501      	bpl.n	2460 <TEE_MACInit+0x24>
/home/hsk/Desktop/devel/tee-tpm-hyp/optee_os/lib/libutee/tee_api_operations.c:1138 (discriminator 1)
    245c:	6a23      	ldr	r3, [r4, #32]
    245e:	b913      	cbnz	r3, 2466 <TEE_MACInit+0x2a>
/home/hsk/Desktop/devel/tee-tpm-hyp/optee_os/lib/libutee/tee_api_operations.c:1140
    2460:	2000      	movs	r0, #0
    2462:	f005 fb27 	bl	7ab4 <TEE_Panic>
/home/hsk/Desktop/devel/tee-tpm-hyp/optee_os/lib/libutee/tee_api_operations.c:1142
    2466:	6aa3      	ldr	r3, [r4, #40]	; 0x28
    2468:	b113      	cbz	r3, 2470 <TEE_MACInit+0x34>
/home/hsk/Desktop/devel/tee-tpm-hyp/optee_os/lib/libutee/tee_api_operations.c:1143
    246a:	4620      	mov	r0, r4
    246c:	f7ff fd3e 	bl	1eec <TEE_ResetOperation>
/home/hsk/Desktop/devel/tee-tpm-hyp/optee_os/lib/libutee/tee_api_operations.c:1145
    2470:	2301      	movs	r3, #1
init_hash_operation():
/home/hsk/Desktop/devel/tee-tpm-hyp/optee_os/lib/libutee/tee_api_operations.c:759
    2472:	4632      	mov	r2, r6
TEE_MACInit():
/home/hsk/Desktop/devel/tee-tpm-hyp/optee_os/lib/libutee/tee_api_operations.c:1145
    2474:	62a3      	str	r3, [r4, #40]	; 0x28
init_hash_operation():
/home/hsk/Desktop/devel/tee-tpm-hyp/optee_os/lib/libutee/tee_api_operations.c:759
    2476:	4629      	mov	r1, r5
    2478:	6be0      	ldr	r0, [r4, #60]	; 0x3c
    247a:	f000 ee1a 	blx	30b0 <utee_hash_init>
/home/hsk/Desktop/devel/tee-tpm-hyp/optee_os/lib/libutee/tee_api_operations.c:760
    247e:	b108      	cbz	r0, 2484 <TEE_MACInit+0x48>
/home/hsk/Desktop/devel/tee-tpm-hyp/optee_os/lib/libutee/tee_api_operations.c:761
    2480:	f005 fb18 	bl	7ab4 <TEE_Panic>
/home/hsk/Desktop/devel/tee-tpm-hyp/optee_os/lib/libutee/tee_api_operations.c:762
    2484:	2300      	movs	r3, #0
    2486:	63a3      	str	r3, [r4, #56]	; 0x38
/home/hsk/Desktop/devel/tee-tpm-hyp/optee_os/lib/libutee/tee_api_operations.c:763
    2488:	69e3      	ldr	r3, [r4, #28]
    248a:	f443 3300 	orr.w	r3, r3, #131072	; 0x20000
    248e:	61e3      	str	r3, [r4, #28]
TEE_MACInit():
/home/hsk/Desktop/devel/tee-tpm-hyp/optee_os/lib/libutee/tee_api_operations.c:1148
    2490:	bd70      	pop	{r4, r5, r6, pc}

00002492 <TEE_MACUpdate>:
TEE_MACUpdate():
/home/hsk/Desktop/devel/tee-tpm-hyp/optee_os/lib/libutee/tee_api_operations.c:1152
    2492:	b570      	push	{r4, r5, r6, lr}
    2494:	460d      	mov	r5, r1
    2496:	4616      	mov	r6, r2
/home/hsk/Desktop/devel/tee-tpm-hyp/optee_os/lib/libutee/tee_api_operations.c:1155
    2498:	4604      	mov	r4, r0
    249a:	b108      	cbz	r0, 24a0 <TEE_MACUpdate+0xe>
/home/hsk/Desktop/devel/tee-tpm-hyp/optee_os/lib/libutee/tee_api_operations.c:1155 (discriminator 1)
    249c:	b919      	cbnz	r1, 24a6 <TEE_MACUpdate+0x14>
/home/hsk/Desktop/devel/tee-tpm-hyp/optee_os/lib/libutee/tee_api_operations.c:1155 (discriminator 2)
    249e:	b112      	cbz	r2, 24a6 <TEE_MACUpdate+0x14>
/home/hsk/Desktop/devel/tee-tpm-hyp/optee_os/lib/libutee/tee_api_operations.c:1156
    24a0:	2000      	movs	r0, #0
    24a2:	f005 fb07 	bl	7ab4 <TEE_Panic>
/home/hsk/Desktop/devel/tee-tpm-hyp/optee_os/lib/libutee/tee_api_operations.c:1158
    24a6:	6863      	ldr	r3, [r4, #4]
    24a8:	2b03      	cmp	r3, #3
    24aa:	d002      	beq.n	24b2 <TEE_MACUpdate+0x20>
/home/hsk/Desktop/devel/tee-tpm-hyp/optee_os/lib/libutee/tee_api_operations.c:1159
    24ac:	2000      	movs	r0, #0
    24ae:	f005 fb01 	bl	7ab4 <TEE_Panic>
/home/hsk/Desktop/devel/tee-tpm-hyp/optee_os/lib/libutee/tee_api_operations.c:1161
    24b2:	69e0      	ldr	r0, [r4, #28]
    24b4:	f410 3000 	ands.w	r0, r0, #131072	; 0x20000
    24b8:	d101      	bne.n	24be <TEE_MACUpdate+0x2c>
/home/hsk/Desktop/devel/tee-tpm-hyp/optee_os/lib/libutee/tee_api_operations.c:1162
    24ba:	f005 fafb 	bl	7ab4 <TEE_Panic>
/home/hsk/Desktop/devel/tee-tpm-hyp/optee_os/lib/libutee/tee_api_operations.c:1164
    24be:	6aa3      	ldr	r3, [r4, #40]	; 0x28
    24c0:	2b01      	cmp	r3, #1
    24c2:	d002      	beq.n	24ca <TEE_MACUpdate+0x38>
/home/hsk/Desktop/devel/tee-tpm-hyp/optee_os/lib/libutee/tee_api_operations.c:1165
    24c4:	2000      	movs	r0, #0
    24c6:	f005 faf5 	bl	7ab4 <TEE_Panic>
/home/hsk/Desktop/devel/tee-tpm-hyp/optee_os/lib/libutee/tee_api_operations.c:1167
    24ca:	4632      	mov	r2, r6
    24cc:	4629      	mov	r1, r5
    24ce:	6be0      	ldr	r0, [r4, #60]	; 0x3c
    24d0:	f000 edf8 	blx	30c4 <utee_hash_update>
/home/hsk/Desktop/devel/tee-tpm-hyp/optee_os/lib/libutee/tee_api_operations.c:1168
    24d4:	b118      	cbz	r0, 24de <TEE_MACUpdate+0x4c>
/home/hsk/Desktop/devel/tee-tpm-hyp/optee_os/lib/libutee/tee_api_operations.c:1170
    24d6:	e8bd 4070 	ldmia.w	sp!, {r4, r5, r6, lr}
/home/hsk/Desktop/devel/tee-tpm-hyp/optee_os/lib/libutee/tee_api_operations.c:1169
    24da:	f005 baeb 	b.w	7ab4 <TEE_Panic>
/home/hsk/Desktop/devel/tee-tpm-hyp/optee_os/lib/libutee/tee_api_operations.c:1170
    24de:	bd70      	pop	{r4, r5, r6, pc}

000024e0 <TEE_MACComputeFinal>:
TEE_MACComputeFinal():
/home/hsk/Desktop/devel/tee-tpm-hyp/optee_os/lib/libutee/tee_api_operations.c:1175
    24e0:	b530      	push	{r4, r5, lr}
/home/hsk/Desktop/devel/tee-tpm-hyp/optee_os/lib/libutee/tee_api_operations.c:1179
    24e2:	4605      	mov	r5, r0
/home/hsk/Desktop/devel/tee-tpm-hyp/optee_os/lib/libutee/tee_api_operations.c:1175
    24e4:	b085      	sub	sp, #20
    24e6:	9c08      	ldr	r4, [sp, #32]
/home/hsk/Desktop/devel/tee-tpm-hyp/optee_os/lib/libutee/tee_api_operations.c:1179
    24e8:	b308      	cbz	r0, 252e <TEE_MACComputeFinal+0x4e>
/home/hsk/Desktop/devel/tee-tpm-hyp/optee_os/lib/libutee/tee_api_operations.c:1179 (discriminator 1)
    24ea:	b901      	cbnz	r1, 24ee <TEE_MACComputeFinal+0xe>
/home/hsk/Desktop/devel/tee-tpm-hyp/optee_os/lib/libutee/tee_api_operations.c:1180
    24ec:	b9fa      	cbnz	r2, 252e <TEE_MACComputeFinal+0x4e>
/home/hsk/Desktop/devel/tee-tpm-hyp/optee_os/lib/libutee/tee_api_operations.c:1180 (discriminator 1)
    24ee:	b1f3      	cbz	r3, 252e <TEE_MACComputeFinal+0x4e>
/home/hsk/Desktop/devel/tee-tpm-hyp/optee_os/lib/libutee/tee_api_operations.c:1181
    24f0:	b1ec      	cbz	r4, 252e <TEE_MACComputeFinal+0x4e>
/home/hsk/Desktop/devel/tee-tpm-hyp/optee_os/lib/libutee/tee_api_operations.c:1187
    24f2:	6868      	ldr	r0, [r5, #4]
    24f4:	2803      	cmp	r0, #3
    24f6:	d11a      	bne.n	252e <TEE_MACComputeFinal+0x4e>
/home/hsk/Desktop/devel/tee-tpm-hyp/optee_os/lib/libutee/tee_api_operations.c:1192
    24f8:	69e8      	ldr	r0, [r5, #28]
    24fa:	0380      	lsls	r0, r0, #14
    24fc:	d517      	bpl.n	252e <TEE_MACComputeFinal+0x4e>
/home/hsk/Desktop/devel/tee-tpm-hyp/optee_os/lib/libutee/tee_api_operations.c:1197
    24fe:	6aa8      	ldr	r0, [r5, #40]	; 0x28
    2500:	2801      	cmp	r0, #1
    2502:	d114      	bne.n	252e <TEE_MACComputeFinal+0x4e>
/home/hsk/Desktop/devel/tee-tpm-hyp/optee_os/lib/libutee/tee_api_operations.c:1202
    2504:	6820      	ldr	r0, [r4, #0]
    2506:	9002      	str	r0, [sp, #8]
    2508:	2000      	movs	r0, #0
    250a:	9003      	str	r0, [sp, #12]
/home/hsk/Desktop/devel/tee-tpm-hyp/optee_os/lib/libutee/tee_api_operations.c:1203
    250c:	a802      	add	r0, sp, #8
    250e:	9000      	str	r0, [sp, #0]
    2510:	6be8      	ldr	r0, [r5, #60]	; 0x3c
    2512:	f000 ede2 	blx	30d8 <utee_hash_final>
/home/hsk/Desktop/devel/tee-tpm-hyp/optee_os/lib/libutee/tee_api_operations.c:1204
    2516:	9b02      	ldr	r3, [sp, #8]
    2518:	6023      	str	r3, [r4, #0]
/home/hsk/Desktop/devel/tee-tpm-hyp/optee_os/lib/libutee/tee_api_operations.c:1205
    251a:	4604      	mov	r4, r0
    251c:	b960      	cbnz	r0, 2538 <TEE_MACComputeFinal+0x58>
/home/hsk/Desktop/devel/tee-tpm-hyp/optee_os/lib/libutee/tee_api_operations.c:1208
    251e:	69eb      	ldr	r3, [r5, #28]
/home/hsk/Desktop/devel/tee-tpm-hyp/optee_os/lib/libutee/tee_api_operations.c:1210
    2520:	62a8      	str	r0, [r5, #40]	; 0x28
/home/hsk/Desktop/devel/tee-tpm-hyp/optee_os/lib/libutee/tee_api_operations.c:1208
    2522:	f423 3300 	bic.w	r3, r3, #131072	; 0x20000
    2526:	61eb      	str	r3, [r5, #28]
/home/hsk/Desktop/devel/tee-tpm-hyp/optee_os/lib/libutee/tee_api_operations.c:1218
    2528:	4620      	mov	r0, r4
    252a:	b005      	add	sp, #20
    252c:	bd30      	pop	{r4, r5, pc}
/home/hsk/Desktop/devel/tee-tpm-hyp/optee_os/lib/libutee/tee_api_operations.c:1183
    252e:	4c04      	ldr	r4, [pc, #16]	; (2540 <TEE_MACComputeFinal+0x60>)
/home/hsk/Desktop/devel/tee-tpm-hyp/optee_os/lib/libutee/tee_api_operations.c:1215
    2530:	4620      	mov	r0, r4
    2532:	f005 fabf 	bl	7ab4 <TEE_Panic>
/home/hsk/Desktop/devel/tee-tpm-hyp/optee_os/lib/libutee/tee_api_operations.c:1217
    2536:	e7f7      	b.n	2528 <TEE_MACComputeFinal+0x48>
/home/hsk/Desktop/devel/tee-tpm-hyp/optee_os/lib/libutee/tee_api_operations.c:1213
    2538:	4b02      	ldr	r3, [pc, #8]	; (2544 <TEE_MACComputeFinal+0x64>)
    253a:	4298      	cmp	r0, r3
    253c:	d0f4      	beq.n	2528 <TEE_MACComputeFinal+0x48>
    253e:	e7f7      	b.n	2530 <TEE_MACComputeFinal+0x50>
    2540:	ffff0006 	.word	0xffff0006
    2544:	ffff0010 	.word	0xffff0010

00002548 <TEE_MACCompareFinal>:
TEE_MACCompareFinal():
/home/hsk/Desktop/devel/tee-tpm-hyp/optee_os/lib/libutee/tee_api_operations.c:1223
    2548:	b5f0      	push	{r4, r5, r6, r7, lr}
    254a:	461f      	mov	r7, r3
/home/hsk/Desktop/devel/tee-tpm-hyp/optee_os/lib/libutee/tee_api_operations.c:1226
    254c:	2340      	movs	r3, #64	; 0x40
/home/hsk/Desktop/devel/tee-tpm-hyp/optee_os/lib/libutee/tee_api_operations.c:1223
    254e:	b095      	sub	sp, #84	; 0x54
    2550:	4605      	mov	r5, r0
/home/hsk/Desktop/devel/tee-tpm-hyp/optee_os/lib/libutee/tee_api_operations.c:1226
    2552:	9303      	str	r3, [sp, #12]
/home/hsk/Desktop/devel/tee-tpm-hyp/optee_os/lib/libutee/tee_api_operations.c:1228
    2554:	6843      	ldr	r3, [r0, #4]
    2556:	2b03      	cmp	r3, #3
    2558:	d11d      	bne.n	2596 <TEE_MACCompareFinal+0x4e>
/home/hsk/Desktop/devel/tee-tpm-hyp/optee_os/lib/libutee/tee_api_operations.c:1233
    255a:	69c3      	ldr	r3, [r0, #28]
    255c:	039b      	lsls	r3, r3, #14
    255e:	d51a      	bpl.n	2596 <TEE_MACCompareFinal+0x4e>
/home/hsk/Desktop/devel/tee-tpm-hyp/optee_os/lib/libutee/tee_api_operations.c:1238
    2560:	6a83      	ldr	r3, [r0, #40]	; 0x28
    2562:	2b01      	cmp	r3, #1
    2564:	d117      	bne.n	2596 <TEE_MACCompareFinal+0x4e>
/home/hsk/Desktop/devel/tee-tpm-hyp/optee_os/lib/libutee/tee_api_operations.c:1243
    2566:	ae04      	add	r6, sp, #16
    2568:	ab03      	add	r3, sp, #12
    256a:	9300      	str	r3, [sp, #0]
    256c:	4633      	mov	r3, r6
    256e:	f7ff ffb7 	bl	24e0 <TEE_MACComputeFinal>
/home/hsk/Desktop/devel/tee-tpm-hyp/optee_os/lib/libutee/tee_api_operations.c:1245
    2572:	4604      	mov	r4, r0
    2574:	b9a0      	cbnz	r0, 25a0 <TEE_MACCompareFinal+0x58>
/home/hsk/Desktop/devel/tee-tpm-hyp/optee_os/lib/libutee/tee_api_operations.c:1248
    2576:	9a03      	ldr	r2, [sp, #12]
    2578:	9b1a      	ldr	r3, [sp, #104]	; 0x68
    257a:	429a      	cmp	r2, r3
    257c:	d003      	beq.n	2586 <TEE_MACCompareFinal+0x3e>
/home/hsk/Desktop/devel/tee-tpm-hyp/optee_os/lib/libutee/tee_api_operations.c:1249
    257e:	4c0a      	ldr	r4, [pc, #40]	; (25a8 <TEE_MACCompareFinal+0x60>)
/home/hsk/Desktop/devel/tee-tpm-hyp/optee_os/lib/libutee/tee_api_operations.c:1266
    2580:	4620      	mov	r0, r4
    2582:	b015      	add	sp, #84	; 0x54
    2584:	bdf0      	pop	{r4, r5, r6, r7, pc}
/home/hsk/Desktop/devel/tee-tpm-hyp/optee_os/lib/libutee/tee_api_operations.c:1253
    2586:	4631      	mov	r1, r6
    2588:	4638      	mov	r0, r7
    258a:	f005 fae6 	bl	7b5a <buf_compare_ct>
    258e:	2800      	cmp	r0, #0
    2590:	d1f5      	bne.n	257e <TEE_MACCompareFinal+0x36>
/home/hsk/Desktop/devel/tee-tpm-hyp/optee_os/lib/libutee/tee_api_operations.c:1258
    2592:	62ac      	str	r4, [r5, #40]	; 0x28
    2594:	e7f4      	b.n	2580 <TEE_MACCompareFinal+0x38>
/home/hsk/Desktop/devel/tee-tpm-hyp/optee_os/lib/libutee/tee_api_operations.c:1229
    2596:	4c05      	ldr	r4, [pc, #20]	; (25ac <TEE_MACCompareFinal+0x64>)
/home/hsk/Desktop/devel/tee-tpm-hyp/optee_os/lib/libutee/tee_api_operations.c:1263
    2598:	4620      	mov	r0, r4
    259a:	f005 fa8b 	bl	7ab4 <TEE_Panic>
/home/hsk/Desktop/devel/tee-tpm-hyp/optee_os/lib/libutee/tee_api_operations.c:1265
    259e:	e7ef      	b.n	2580 <TEE_MACCompareFinal+0x38>
/home/hsk/Desktop/devel/tee-tpm-hyp/optee_os/lib/libutee/tee_api_operations.c:1261
    25a0:	4b01      	ldr	r3, [pc, #4]	; (25a8 <TEE_MACCompareFinal+0x60>)
    25a2:	4298      	cmp	r0, r3
    25a4:	d0eb      	beq.n	257e <TEE_MACCompareFinal+0x36>
    25a6:	e7f7      	b.n	2598 <TEE_MACCompareFinal+0x50>
    25a8:	ffff3071 	.word	0xffff3071
    25ac:	ffff0006 	.word	0xffff0006

000025b0 <TEE_AEInit>:
TEE_AEInit():
/home/hsk/Desktop/devel/tee-tpm-hyp/optee_os/lib/libutee/tee_api_operations.c:1273
    25b0:	b573      	push	{r0, r1, r4, r5, r6, lr}
/home/hsk/Desktop/devel/tee-tpm-hyp/optee_os/lib/libutee/tee_api_operations.c:1276
    25b2:	4605      	mov	r5, r0
    25b4:	b320      	cbz	r0, 2600 <TEE_AEInit+0x50>
/home/hsk/Desktop/devel/tee-tpm-hyp/optee_os/lib/libutee/tee_api_operations.c:1276 (discriminator 1)
    25b6:	b319      	cbz	r1, 2600 <TEE_AEInit+0x50>
/home/hsk/Desktop/devel/tee-tpm-hyp/optee_os/lib/libutee/tee_api_operations.c:1281
    25b8:	6840      	ldr	r0, [r0, #4]
    25ba:	2804      	cmp	r0, #4
    25bc:	d120      	bne.n	2600 <TEE_AEInit+0x50>
/home/hsk/Desktop/devel/tee-tpm-hyp/optee_os/lib/libutee/tee_api_operations.c:1286
    25be:	6aa8      	ldr	r0, [r5, #40]	; 0x28
    25c0:	b9f0      	cbnz	r0, 2600 <TEE_AEInit+0x50>
/home/hsk/Desktop/devel/tee-tpm-hyp/optee_os/lib/libutee/tee_api_operations.c:1297
    25c2:	682c      	ldr	r4, [r5, #0]
    25c4:	4813      	ldr	r0, [pc, #76]	; (2614 <TEE_AEInit+0x64>)
    25c6:	4284      	cmp	r4, r0
    25c8:	d109      	bne.n	25de <TEE_AEInit+0x2e>
/home/hsk/Desktop/devel/tee-tpm-hyp/optee_os/lib/libutee/tee_api_operations.c:1301
    25ca:	f1a3 0060 	sub.w	r0, r3, #96	; 0x60
    25ce:	2820      	cmp	r0, #32
    25d0:	d903      	bls.n	25da <TEE_AEInit+0x2a>
/home/hsk/Desktop/devel/tee-tpm-hyp/optee_os/lib/libutee/tee_api_operations.c:1302
    25d2:	4c11      	ldr	r4, [pc, #68]	; (2618 <TEE_AEInit+0x68>)
/home/hsk/Desktop/devel/tee-tpm-hyp/optee_os/lib/libutee/tee_api_operations.c:1321
    25d4:	4620      	mov	r0, r4
    25d6:	b002      	add	sp, #8
    25d8:	bd70      	pop	{r4, r5, r6, pc}
/home/hsk/Desktop/devel/tee-tpm-hyp/optee_os/lib/libutee/tee_api_operations.c:1301 (discriminator 1)
    25da:	0758      	lsls	r0, r3, #29
    25dc:	d1f9      	bne.n	25d2 <TEE_AEInit+0x22>
/home/hsk/Desktop/devel/tee-tpm-hyp/optee_os/lib/libutee/tee_api_operations.c:1307
    25de:	08de      	lsrs	r6, r3, #3
    25e0:	9b07      	ldr	r3, [sp, #28]
    25e2:	9301      	str	r3, [sp, #4]
    25e4:	9b06      	ldr	r3, [sp, #24]
    25e6:	9300      	str	r3, [sp, #0]
    25e8:	4633      	mov	r3, r6
    25ea:	6be8      	ldr	r0, [r5, #60]	; 0x3c
    25ec:	f000 ee06 	blx	31fc <utee_authenc_init>
/home/hsk/Desktop/devel/tee-tpm-hyp/optee_os/lib/libutee/tee_api_operations.c:1309
    25f0:	4604      	mov	r4, r0
    25f2:	b950      	cbnz	r0, 260a <TEE_AEInit+0x5a>
/home/hsk/Desktop/devel/tee-tpm-hyp/optee_os/lib/libutee/tee_api_operations.c:1313
    25f4:	69eb      	ldr	r3, [r5, #28]
/home/hsk/Desktop/devel/tee-tpm-hyp/optee_os/lib/libutee/tee_api_operations.c:1312
    25f6:	642e      	str	r6, [r5, #64]	; 0x40
/home/hsk/Desktop/devel/tee-tpm-hyp/optee_os/lib/libutee/tee_api_operations.c:1313
    25f8:	f443 3300 	orr.w	r3, r3, #131072	; 0x20000
    25fc:	61eb      	str	r3, [r5, #28]
    25fe:	e7e9      	b.n	25d4 <TEE_AEInit+0x24>
/home/hsk/Desktop/devel/tee-tpm-hyp/optee_os/lib/libutee/tee_api_operations.c:1277
    2600:	4c06      	ldr	r4, [pc, #24]	; (261c <TEE_AEInit+0x6c>)
/home/hsk/Desktop/devel/tee-tpm-hyp/optee_os/lib/libutee/tee_api_operations.c:1318
    2602:	4620      	mov	r0, r4
    2604:	f005 fa56 	bl	7ab4 <TEE_Panic>
/home/hsk/Desktop/devel/tee-tpm-hyp/optee_os/lib/libutee/tee_api_operations.c:1320
    2608:	e7e4      	b.n	25d4 <TEE_AEInit+0x24>
/home/hsk/Desktop/devel/tee-tpm-hyp/optee_os/lib/libutee/tee_api_operations.c:1316
    260a:	4b03      	ldr	r3, [pc, #12]	; (2618 <TEE_AEInit+0x68>)
    260c:	4298      	cmp	r0, r3
    260e:	d0e0      	beq.n	25d2 <TEE_AEInit+0x22>
    2610:	e7f7      	b.n	2602 <TEE_AEInit+0x52>
    2612:	bf00      	nop
    2614:	40000810 	.word	0x40000810
    2618:	ffff000a 	.word	0xffff000a
    261c:	ffff0006 	.word	0xffff0006

00002620 <TEE_AEUpdateAAD>:
TEE_AEUpdateAAD():
/home/hsk/Desktop/devel/tee-tpm-hyp/optee_os/lib/libutee/tee_api_operations.c:1325
    2620:	b570      	push	{r4, r5, r6, lr}
    2622:	460d      	mov	r5, r1
    2624:	4616      	mov	r6, r2
/home/hsk/Desktop/devel/tee-tpm-hyp/optee_os/lib/libutee/tee_api_operations.c:1328
    2626:	4604      	mov	r4, r0
    2628:	b108      	cbz	r0, 262e <TEE_AEUpdateAAD+0xe>
/home/hsk/Desktop/devel/tee-tpm-hyp/optee_os/lib/libutee/tee_api_operations.c:1328 (discriminator 1)
    262a:	b919      	cbnz	r1, 2634 <TEE_AEUpdateAAD+0x14>
/home/hsk/Desktop/devel/tee-tpm-hyp/optee_os/lib/libutee/tee_api_operations.c:1329
    262c:	b112      	cbz	r2, 2634 <TEE_AEUpdateAAD+0x14>
/home/hsk/Desktop/devel/tee-tpm-hyp/optee_os/lib/libutee/tee_api_operations.c:1330
    262e:	2000      	movs	r0, #0
    2630:	f005 fa40 	bl	7ab4 <TEE_Panic>
/home/hsk/Desktop/devel/tee-tpm-hyp/optee_os/lib/libutee/tee_api_operations.c:1332
    2634:	6863      	ldr	r3, [r4, #4]
    2636:	2b04      	cmp	r3, #4
    2638:	d002      	beq.n	2640 <TEE_AEUpdateAAD+0x20>
/home/hsk/Desktop/devel/tee-tpm-hyp/optee_os/lib/libutee/tee_api_operations.c:1333
    263a:	2000      	movs	r0, #0
    263c:	f005 fa3a 	bl	7ab4 <TEE_Panic>
/home/hsk/Desktop/devel/tee-tpm-hyp/optee_os/lib/libutee/tee_api_operations.c:1335
    2640:	69e0      	ldr	r0, [r4, #28]
    2642:	f410 3000 	ands.w	r0, r0, #131072	; 0x20000
    2646:	d101      	bne.n	264c <TEE_AEUpdateAAD+0x2c>
/home/hsk/Desktop/devel/tee-tpm-hyp/optee_os/lib/libutee/tee_api_operations.c:1336
    2648:	f005 fa34 	bl	7ab4 <TEE_Panic>
/home/hsk/Desktop/devel/tee-tpm-hyp/optee_os/lib/libutee/tee_api_operations.c:1338
    264c:	4632      	mov	r2, r6
    264e:	4629      	mov	r1, r5
    2650:	6be0      	ldr	r0, [r4, #60]	; 0x3c
    2652:	f000 ede0 	blx	3214 <utee_authenc_update_aad>
/home/hsk/Desktop/devel/tee-tpm-hyp/optee_os/lib/libutee/tee_api_operations.c:1340
    2656:	2301      	movs	r3, #1
    2658:	62a3      	str	r3, [r4, #40]	; 0x28
/home/hsk/Desktop/devel/tee-tpm-hyp/optee_os/lib/libutee/tee_api_operations.c:1342
    265a:	b118      	cbz	r0, 2664 <TEE_AEUpdateAAD+0x44>
/home/hsk/Desktop/devel/tee-tpm-hyp/optee_os/lib/libutee/tee_api_operations.c:1344
    265c:	e8bd 4070 	ldmia.w	sp!, {r4, r5, r6, lr}
/home/hsk/Desktop/devel/tee-tpm-hyp/optee_os/lib/libutee/tee_api_operations.c:1343
    2660:	f005 ba28 	b.w	7ab4 <TEE_Panic>
/home/hsk/Desktop/devel/tee-tpm-hyp/optee_os/lib/libutee/tee_api_operations.c:1344
    2664:	bd70      	pop	{r4, r5, r6, pc}

00002666 <TEE_AEUpdate>:
TEE_AEUpdate():
/home/hsk/Desktop/devel/tee-tpm-hyp/optee_os/lib/libutee/tee_api_operations.c:1348
    2666:	b5f0      	push	{r4, r5, r6, r7, lr}
/home/hsk/Desktop/devel/tee-tpm-hyp/optee_os/lib/libutee/tee_api_operations.c:1353
    2668:	4605      	mov	r5, r0
/home/hsk/Desktop/devel/tee-tpm-hyp/optee_os/lib/libutee/tee_api_operations.c:1348
    266a:	4f30      	ldr	r7, [pc, #192]	; (272c <TEE_AEUpdate+0xc6>)
    266c:	b087      	sub	sp, #28
    266e:	447f      	add	r7, pc
    2670:	9e0c      	ldr	r6, [sp, #48]	; 0x30
/home/hsk/Desktop/devel/tee-tpm-hyp/optee_os/lib/libutee/tee_api_operations.c:1353
    2672:	2800      	cmp	r0, #0
    2674:	d04c      	beq.n	2710 <TEE_AEUpdate+0xaa>
/home/hsk/Desktop/devel/tee-tpm-hyp/optee_os/lib/libutee/tee_api_operations.c:1353 (discriminator 1)
    2676:	b909      	cbnz	r1, 267c <TEE_AEUpdate+0x16>
/home/hsk/Desktop/devel/tee-tpm-hyp/optee_os/lib/libutee/tee_api_operations.c:1354
    2678:	2a00      	cmp	r2, #0
    267a:	d149      	bne.n	2710 <TEE_AEUpdate+0xaa>
/home/hsk/Desktop/devel/tee-tpm-hyp/optee_os/lib/libutee/tee_api_operations.c:1354 (discriminator 1)
    267c:	2e00      	cmp	r6, #0
    267e:	d047      	beq.n	2710 <TEE_AEUpdate+0xaa>
/home/hsk/Desktop/devel/tee-tpm-hyp/optee_os/lib/libutee/tee_api_operations.c:1355
    2680:	b913      	cbnz	r3, 2688 <TEE_AEUpdate+0x22>
/home/hsk/Desktop/devel/tee-tpm-hyp/optee_os/lib/libutee/tee_api_operations.c:1356
    2682:	6830      	ldr	r0, [r6, #0]
    2684:	2800      	cmp	r0, #0
    2686:	d143      	bne.n	2710 <TEE_AEUpdate+0xaa>
/home/hsk/Desktop/devel/tee-tpm-hyp/optee_os/lib/libutee/tee_api_operations.c:1361
    2688:	6868      	ldr	r0, [r5, #4]
    268a:	2804      	cmp	r0, #4
    268c:	d140      	bne.n	2710 <TEE_AEUpdate+0xaa>
/home/hsk/Desktop/devel/tee-tpm-hyp/optee_os/lib/libutee/tee_api_operations.c:1366
    268e:	69e8      	ldr	r0, [r5, #28]
    2690:	0380      	lsls	r0, r0, #14
    2692:	d53d      	bpl.n	2710 <TEE_AEUpdate+0xaa>
/home/hsk/Desktop/devel/tee-tpm-hyp/optee_os/lib/libutee/tee_api_operations.c:1371
    2694:	b919      	cbnz	r1, 269e <TEE_AEUpdate+0x38>
/home/hsk/Desktop/devel/tee-tpm-hyp/optee_os/lib/libutee/tee_api_operations.c:1371 (discriminator 1)
    2696:	b912      	cbnz	r2, 269e <TEE_AEUpdate+0x38>
/home/hsk/Desktop/devel/tee-tpm-hyp/optee_os/lib/libutee/tee_api_operations.c:1372
    2698:	6032      	str	r2, [r6, #0]
/home/hsk/Desktop/devel/tee-tpm-hyp/optee_os/lib/libutee/tee_api_operations.c:1414
    269a:	2400      	movs	r4, #0
    269c:	e00e      	b.n	26bc <TEE_AEUpdate+0x56>
/home/hsk/Desktop/devel/tee-tpm-hyp/optee_os/lib/libutee/tee_api_operations.c:1382
    269e:	6b6c      	ldr	r4, [r5, #52]	; 0x34
    26a0:	2c01      	cmp	r4, #1
    26a2:	d90e      	bls.n	26c2 <TEE_AEUpdate+0x5c>
/home/hsk/Desktop/devel/tee-tpm-hyp/optee_os/lib/libutee/tee_api_operations.c:1383
    26a4:	6ba8      	ldr	r0, [r5, #56]	; 0x38
    26a6:	f1c4 0c00 	rsb	ip, r4, #0
    26aa:	4410      	add	r0, r2
    26ac:	ea00 000c 	and.w	r0, r0, ip
/home/hsk/Desktop/devel/tee-tpm-hyp/optee_os/lib/libutee/tee_api_operations.c:1389
    26b0:	f8d6 c000 	ldr.w	ip, [r6]
    26b4:	4584      	cmp	ip, r0
    26b6:	d206      	bcs.n	26c6 <TEE_AEUpdate+0x60>
/home/hsk/Desktop/devel/tee-tpm-hyp/optee_os/lib/libutee/tee_api_operations.c:1391
    26b8:	4c1a      	ldr	r4, [pc, #104]	; (2724 <TEE_AEUpdate+0xbe>)
/home/hsk/Desktop/devel/tee-tpm-hyp/optee_os/lib/libutee/tee_api_operations.c:1390
    26ba:	6030      	str	r0, [r6, #0]
/home/hsk/Desktop/devel/tee-tpm-hyp/optee_os/lib/libutee/tee_api_operations.c:1422
    26bc:	4620      	mov	r0, r4
    26be:	b007      	add	sp, #28
    26c0:	bdf0      	pop	{r4, r5, r6, r7, pc}
    26c2:	4610      	mov	r0, r2
    26c4:	e7f4      	b.n	26b0 <TEE_AEUpdate+0x4a>
/home/hsk/Desktop/devel/tee-tpm-hyp/optee_os/lib/libutee/tee_api_operations.c:1395
    26c6:	2000      	movs	r0, #0
    26c8:	f8cd c010 	str.w	ip, [sp, #16]
    26cc:	9005      	str	r0, [sp, #20]
/home/hsk/Desktop/devel/tee-tpm-hyp/optee_os/lib/libutee/tee_api_operations.c:1396
    26ce:	2c01      	cmp	r4, #1
    26d0:	d912      	bls.n	26f8 <TEE_AEUpdate+0x92>
/home/hsk/Desktop/devel/tee-tpm-hyp/optee_os/lib/libutee/tee_api_operations.c:1397
    26d2:	4817      	ldr	r0, [pc, #92]	; (2730 <TEE_AEUpdate+0xca>)
    26d4:	5838      	ldr	r0, [r7, r0]
    26d6:	9003      	str	r0, [sp, #12]
    26d8:	a804      	add	r0, sp, #16
    26da:	9300      	str	r3, [sp, #0]
    26dc:	4613      	mov	r3, r2
    26de:	9001      	str	r0, [sp, #4]
    26e0:	460a      	mov	r2, r1
    26e2:	4628      	mov	r0, r5
    26e4:	9903      	ldr	r1, [sp, #12]
    26e6:	f7ff f83d 	bl	1764 <tee_buffer_update>
/home/hsk/Desktop/devel/tee-tpm-hyp/optee_os/lib/libutee/tee_api_operations.c:1401
    26ea:	4604      	mov	r4, r0
/home/hsk/Desktop/devel/tee-tpm-hyp/optee_os/lib/libutee/tee_api_operations.c:1409
    26ec:	b9a8      	cbnz	r0, 271a <TEE_AEUpdate+0xb4>
/home/hsk/Desktop/devel/tee-tpm-hyp/optee_os/lib/libutee/tee_api_operations.c:1412
    26ee:	9b04      	ldr	r3, [sp, #16]
    26f0:	6033      	str	r3, [r6, #0]
/home/hsk/Desktop/devel/tee-tpm-hyp/optee_os/lib/libutee/tee_api_operations.c:1414
    26f2:	2301      	movs	r3, #1
    26f4:	62ab      	str	r3, [r5, #40]	; 0x28
    26f6:	e7d0      	b.n	269a <TEE_AEUpdate+0x34>
/home/hsk/Desktop/devel/tee-tpm-hyp/optee_os/lib/libutee/tee_api_operations.c:1400
    26f8:	b12a      	cbz	r2, 2706 <TEE_AEUpdate+0xa0>
/home/hsk/Desktop/devel/tee-tpm-hyp/optee_os/lib/libutee/tee_api_operations.c:1401
    26fa:	a804      	add	r0, sp, #16
    26fc:	9000      	str	r0, [sp, #0]
    26fe:	6be8      	ldr	r0, [r5, #60]	; 0x3c
    2700:	f000 ed92 	blx	3228 <utee_authenc_update_payload>
    2704:	e7f1      	b.n	26ea <TEE_AEUpdate+0x84>
/home/hsk/Desktop/devel/tee-tpm-hyp/optee_os/lib/libutee/tee_api_operations.c:1405
    2706:	2200      	movs	r2, #0
    2708:	2300      	movs	r3, #0
    270a:	e9cd 2304 	strd	r2, r3, [sp, #16]
    270e:	e7ee      	b.n	26ee <TEE_AEUpdate+0x88>
/home/hsk/Desktop/devel/tee-tpm-hyp/optee_os/lib/libutee/tee_api_operations.c:1357
    2710:	4c05      	ldr	r4, [pc, #20]	; (2728 <TEE_AEUpdate+0xc2>)
/home/hsk/Desktop/devel/tee-tpm-hyp/optee_os/lib/libutee/tee_api_operations.c:1419
    2712:	4620      	mov	r0, r4
    2714:	f005 f9ce 	bl	7ab4 <TEE_Panic>
/home/hsk/Desktop/devel/tee-tpm-hyp/optee_os/lib/libutee/tee_api_operations.c:1421
    2718:	e7d0      	b.n	26bc <TEE_AEUpdate+0x56>
/home/hsk/Desktop/devel/tee-tpm-hyp/optee_os/lib/libutee/tee_api_operations.c:1417
    271a:	4b02      	ldr	r3, [pc, #8]	; (2724 <TEE_AEUpdate+0xbe>)
    271c:	4298      	cmp	r0, r3
    271e:	d0cd      	beq.n	26bc <TEE_AEUpdate+0x56>
    2720:	e7f7      	b.n	2712 <TEE_AEUpdate+0xac>
    2722:	bf00      	nop
    2724:	ffff0010 	.word	0xffff0010
    2728:	ffff0006 	.word	0xffff0006
    272c:	00006e42 	.word	0x00006e42
    2730:	00000014 	.word	0x00000014

00002734 <TEE_AEEncryptFinal>:
TEE_AEEncryptFinal():
/home/hsk/Desktop/devel/tee-tpm-hyp/optee_os/lib/libutee/tee_api_operations.c:1428
    2734:	e92d 4ff0 	stmdb	sp!, {r4, r5, r6, r7, r8, r9, sl, fp, lr}
    2738:	4698      	mov	r8, r3
    273a:	f8df c108 	ldr.w	ip, [pc, #264]	; 2844 <TEE_AEEncryptFinal+0x110>
    273e:	b08b      	sub	sp, #44	; 0x2c
/home/hsk/Desktop/devel/tee-tpm-hyp/optee_os/lib/libutee/tee_api_operations.c:1436
    2740:	4604      	mov	r4, r0
/home/hsk/Desktop/devel/tee-tpm-hyp/optee_os/lib/libutee/tee_api_operations.c:1428
    2742:	44fc      	add	ip, pc
    2744:	9e14      	ldr	r6, [sp, #80]	; 0x50
    2746:	f8dd b054 	ldr.w	fp, [sp, #84]	; 0x54
    274a:	9f16      	ldr	r7, [sp, #88]	; 0x58
/home/hsk/Desktop/devel/tee-tpm-hyp/optee_os/lib/libutee/tee_api_operations.c:1436
    274c:	2800      	cmp	r0, #0
    274e:	d068      	beq.n	2822 <TEE_AEEncryptFinal+0xee>
/home/hsk/Desktop/devel/tee-tpm-hyp/optee_os/lib/libutee/tee_api_operations.c:1436 (discriminator 1)
    2750:	b909      	cbnz	r1, 2756 <TEE_AEEncryptFinal+0x22>
/home/hsk/Desktop/devel/tee-tpm-hyp/optee_os/lib/libutee/tee_api_operations.c:1437
    2752:	2a00      	cmp	r2, #0
    2754:	d165      	bne.n	2822 <TEE_AEEncryptFinal+0xee>
/home/hsk/Desktop/devel/tee-tpm-hyp/optee_os/lib/libutee/tee_api_operations.c:1437 (discriminator 1)
    2756:	2e00      	cmp	r6, #0
    2758:	d063      	beq.n	2822 <TEE_AEEncryptFinal+0xee>
/home/hsk/Desktop/devel/tee-tpm-hyp/optee_os/lib/libutee/tee_api_operations.c:1438
    275a:	f1b8 0f00 	cmp.w	r8, #0
    275e:	d102      	bne.n	2766 <TEE_AEEncryptFinal+0x32>
/home/hsk/Desktop/devel/tee-tpm-hyp/optee_os/lib/libutee/tee_api_operations.c:1439
    2760:	6833      	ldr	r3, [r6, #0]
    2762:	2b00      	cmp	r3, #0
    2764:	d15d      	bne.n	2822 <TEE_AEEncryptFinal+0xee>
/home/hsk/Desktop/devel/tee-tpm-hyp/optee_os/lib/libutee/tee_api_operations.c:1439 (discriminator 1)
    2766:	f1bb 0f00 	cmp.w	fp, #0
    276a:	d05a      	beq.n	2822 <TEE_AEEncryptFinal+0xee>
/home/hsk/Desktop/devel/tee-tpm-hyp/optee_os/lib/libutee/tee_api_operations.c:1440
    276c:	2f00      	cmp	r7, #0
    276e:	d058      	beq.n	2822 <TEE_AEEncryptFinal+0xee>
/home/hsk/Desktop/devel/tee-tpm-hyp/optee_os/lib/libutee/tee_api_operations.c:1445
    2770:	6863      	ldr	r3, [r4, #4]
    2772:	2b04      	cmp	r3, #4
    2774:	d155      	bne.n	2822 <TEE_AEEncryptFinal+0xee>
/home/hsk/Desktop/devel/tee-tpm-hyp/optee_os/lib/libutee/tee_api_operations.c:1450
    2776:	69e3      	ldr	r3, [r4, #28]
    2778:	039b      	lsls	r3, r3, #14
    277a:	d552      	bpl.n	2822 <TEE_AEEncryptFinal+0xee>
/home/hsk/Desktop/devel/tee-tpm-hyp/optee_os/lib/libutee/tee_api_operations.c:1465
    277c:	6ba3      	ldr	r3, [r4, #56]	; 0x38
/home/hsk/Desktop/devel/tee-tpm-hyp/optee_os/lib/libutee/tee_api_operations.c:1466
    277e:	6830      	ldr	r0, [r6, #0]
/home/hsk/Desktop/devel/tee-tpm-hyp/optee_os/lib/libutee/tee_api_operations.c:1465
    2780:	4413      	add	r3, r2
    2782:	f8df 90b4 	ldr.w	r9, [pc, #180]	; 2838 <TEE_AEEncryptFinal+0x104>
/home/hsk/Desktop/devel/tee-tpm-hyp/optee_os/lib/libutee/tee_api_operations.c:1466
    2786:	4298      	cmp	r0, r3
    2788:	d20b      	bcs.n	27a2 <TEE_AEEncryptFinal+0x6e>
/home/hsk/Desktop/devel/tee-tpm-hyp/optee_os/lib/libutee/tee_api_operations.c:1468
    278a:	4648      	mov	r0, r9
/home/hsk/Desktop/devel/tee-tpm-hyp/optee_os/lib/libutee/tee_api_operations.c:1467
    278c:	6033      	str	r3, [r6, #0]
/home/hsk/Desktop/devel/tee-tpm-hyp/optee_os/lib/libutee/tee_api_operations.c:1471
    278e:	683b      	ldr	r3, [r7, #0]
    2790:	6c25      	ldr	r5, [r4, #64]	; 0x40
    2792:	42ab      	cmp	r3, r5
    2794:	d207      	bcs.n	27a6 <TEE_AEEncryptFinal+0x72>
/home/hsk/Desktop/devel/tee-tpm-hyp/optee_os/lib/libutee/tee_api_operations.c:1472
    2796:	603d      	str	r5, [r7, #0]
    2798:	4b27      	ldr	r3, [pc, #156]	; (2838 <TEE_AEEncryptFinal+0x104>)
/home/hsk/Desktop/devel/tee-tpm-hyp/optee_os/lib/libutee/tee_api_operations.c:1517
    279a:	4618      	mov	r0, r3
    279c:	b00b      	add	sp, #44	; 0x2c
    279e:	e8bd 8ff0 	ldmia.w	sp!, {r4, r5, r6, r7, r8, r9, sl, fp, pc}
/home/hsk/Desktop/devel/tee-tpm-hyp/optee_os/lib/libutee/tee_api_operations.c:1463
    27a2:	4826      	ldr	r0, [pc, #152]	; (283c <TEE_AEEncryptFinal+0x108>)
    27a4:	e7f3      	b.n	278e <TEE_AEEncryptFinal+0x5a>
/home/hsk/Desktop/devel/tee-tpm-hyp/optee_os/lib/libutee/tee_api_operations.c:1476
    27a6:	4548      	cmp	r0, r9
    27a8:	d0f6      	beq.n	2798 <TEE_AEEncryptFinal+0x64>
/home/hsk/Desktop/devel/tee-tpm-hyp/optee_os/lib/libutee/tee_api_operations.c:1479
    27aa:	2500      	movs	r5, #0
    27ac:	e9cd 3508 	strd	r3, r5, [sp, #32]
/home/hsk/Desktop/devel/tee-tpm-hyp/optee_os/lib/libutee/tee_api_operations.c:1480
    27b0:	6833      	ldr	r3, [r6, #0]
    27b2:	f10d 0a18 	add.w	sl, sp, #24
    27b6:	e9cd 3506 	strd	r3, r5, [sp, #24]
/home/hsk/Desktop/devel/tee-tpm-hyp/optee_os/lib/libutee/tee_api_operations.c:1481
    27ba:	6b63      	ldr	r3, [r4, #52]	; 0x34
    27bc:	2b01      	cmp	r3, #1
    27be:	d92a      	bls.n	2816 <TEE_AEEncryptFinal+0xe2>
/home/hsk/Desktop/devel/tee-tpm-hyp/optee_os/lib/libutee/tee_api_operations.c:1482
    27c0:	4b21      	ldr	r3, [pc, #132]	; (2848 <TEE_AEEncryptFinal+0x114>)
    27c2:	4620      	mov	r0, r4
    27c4:	f85c 3003 	ldr.w	r3, [ip, r3]
    27c8:	9305      	str	r3, [sp, #20]
    27ca:	4613      	mov	r3, r2
    27cc:	e9cd 8a00 	strd	r8, sl, [sp]
    27d0:	460a      	mov	r2, r1
    27d2:	9905      	ldr	r1, [sp, #20]
    27d4:	f7fe ffc6 	bl	1764 <tee_buffer_update>
/home/hsk/Desktop/devel/tee-tpm-hyp/optee_os/lib/libutee/tee_api_operations.c:1484
    27d8:	4603      	mov	r3, r0
    27da:	bb48      	cbnz	r0, 2830 <TEE_AEEncryptFinal+0xfc>
/home/hsk/Desktop/devel/tee-tpm-hyp/optee_os/lib/libutee/tee_api_operations.c:1487
    27dc:	9d06      	ldr	r5, [sp, #24]
/home/hsk/Desktop/devel/tee-tpm-hyp/optee_os/lib/libutee/tee_api_operations.c:1491
    27de:	ab08      	add	r3, sp, #32
/home/hsk/Desktop/devel/tee-tpm-hyp/optee_os/lib/libutee/tee_api_operations.c:1490
    27e0:	6832      	ldr	r2, [r6, #0]
/home/hsk/Desktop/devel/tee-tpm-hyp/optee_os/lib/libutee/tee_api_operations.c:1491
    27e2:	9302      	str	r3, [sp, #8]
    27e4:	eb08 0305 	add.w	r3, r8, r5
    27e8:	e9cd ab00 	strd	sl, fp, [sp]
/home/hsk/Desktop/devel/tee-tpm-hyp/optee_os/lib/libutee/tee_api_operations.c:1490
    27ec:	1b52      	subs	r2, r2, r5
    27ee:	e9cd 2006 	strd	r2, r0, [sp, #24]
/home/hsk/Desktop/devel/tee-tpm-hyp/optee_os/lib/libutee/tee_api_operations.c:1491
    27f2:	6ae1      	ldr	r1, [r4, #44]	; 0x2c
    27f4:	6ba2      	ldr	r2, [r4, #56]	; 0x38
/home/hsk/Desktop/devel/tee-tpm-hyp/optee_os/lib/libutee/tee_api_operations.c:1496
    27f6:	6be0      	ldr	r0, [r4, #60]	; 0x3c
    27f8:	f000 ed22 	blx	3240 <utee_authenc_enc_final>
/home/hsk/Desktop/devel/tee-tpm-hyp/optee_os/lib/libutee/tee_api_operations.c:1500
    27fc:	9a08      	ldr	r2, [sp, #32]
/home/hsk/Desktop/devel/tee-tpm-hyp/optee_os/lib/libutee/tee_api_operations.c:1496
    27fe:	4603      	mov	r3, r0
/home/hsk/Desktop/devel/tee-tpm-hyp/optee_os/lib/libutee/tee_api_operations.c:1500
    2800:	603a      	str	r2, [r7, #0]
/home/hsk/Desktop/devel/tee-tpm-hyp/optee_os/lib/libutee/tee_api_operations.c:1501
    2802:	b9a8      	cbnz	r0, 2830 <TEE_AEEncryptFinal+0xfc>
/home/hsk/Desktop/devel/tee-tpm-hyp/optee_os/lib/libutee/tee_api_operations.c:1504
    2804:	9a06      	ldr	r2, [sp, #24]
    2806:	4415      	add	r5, r2
/home/hsk/Desktop/devel/tee-tpm-hyp/optee_os/lib/libutee/tee_api_operations.c:1505
    2808:	6035      	str	r5, [r6, #0]
/home/hsk/Desktop/devel/tee-tpm-hyp/optee_os/lib/libutee/tee_api_operations.c:1509
    280a:	62a0      	str	r0, [r4, #40]	; 0x28
/home/hsk/Desktop/devel/tee-tpm-hyp/optee_os/lib/libutee/tee_api_operations.c:1507
    280c:	69e2      	ldr	r2, [r4, #28]
    280e:	f422 3200 	bic.w	r2, r2, #131072	; 0x20000
    2812:	61e2      	str	r2, [r4, #28]
    2814:	e7c1      	b.n	279a <TEE_AEEncryptFinal+0x66>
/home/hsk/Desktop/devel/tee-tpm-hyp/optee_os/lib/libutee/tee_api_operations.c:1496
    2816:	ab08      	add	r3, sp, #32
    2818:	e9cd ab00 	strd	sl, fp, [sp]
    281c:	9302      	str	r3, [sp, #8]
    281e:	4643      	mov	r3, r8
    2820:	e7e9      	b.n	27f6 <TEE_AEEncryptFinal+0xc2>
/home/hsk/Desktop/devel/tee-tpm-hyp/optee_os/lib/libutee/tee_api_operations.c:1441
    2822:	4b07      	ldr	r3, [pc, #28]	; (2840 <TEE_AEEncryptFinal+0x10c>)
/home/hsk/Desktop/devel/tee-tpm-hyp/optee_os/lib/libutee/tee_api_operations.c:1514
    2824:	4618      	mov	r0, r3
    2826:	9305      	str	r3, [sp, #20]
    2828:	f005 f944 	bl	7ab4 <TEE_Panic>
/home/hsk/Desktop/devel/tee-tpm-hyp/optee_os/lib/libutee/tee_api_operations.c:1516
    282c:	9b05      	ldr	r3, [sp, #20]
    282e:	e7b4      	b.n	279a <TEE_AEEncryptFinal+0x66>
/home/hsk/Desktop/devel/tee-tpm-hyp/optee_os/lib/libutee/tee_api_operations.c:1512
    2830:	454b      	cmp	r3, r9
    2832:	d0b1      	beq.n	2798 <TEE_AEEncryptFinal+0x64>
    2834:	e7f6      	b.n	2824 <TEE_AEEncryptFinal+0xf0>
    2836:	bf00      	nop
    2838:	ffff0010 	.word	0xffff0010
    283c:	ffff0000 	.word	0xffff0000
    2840:	ffff0006 	.word	0xffff0006
    2844:	00006d6e 	.word	0x00006d6e
    2848:	00000014 	.word	0x00000014

0000284c <TEE_AEDecryptFinal>:
TEE_AEDecryptFinal():
/home/hsk/Desktop/devel/tee-tpm-hyp/optee_os/lib/libutee/tee_api_operations.c:1523
    284c:	e92d 4ff0 	stmdb	sp!, {r4, r5, r6, r7, r8, r9, sl, fp, lr}
    2850:	4699      	mov	r9, r3
    2852:	4c3e      	ldr	r4, [pc, #248]	; (294c <TEE_AEDecryptFinal+0x100>)
    2854:	b089      	sub	sp, #36	; 0x24
/home/hsk/Desktop/devel/tee-tpm-hyp/optee_os/lib/libutee/tee_api_operations.c:1530
    2856:	4605      	mov	r5, r0
/home/hsk/Desktop/devel/tee-tpm-hyp/optee_os/lib/libutee/tee_api_operations.c:1523
    2858:	447c      	add	r4, pc
    285a:	9f12      	ldr	r7, [sp, #72]	; 0x48
    285c:	f8dd b04c 	ldr.w	fp, [sp, #76]	; 0x4c
    2860:	f8dd 8050 	ldr.w	r8, [sp, #80]	; 0x50
/home/hsk/Desktop/devel/tee-tpm-hyp/optee_os/lib/libutee/tee_api_operations.c:1530
    2864:	2800      	cmp	r0, #0
    2866:	d068      	beq.n	293a <TEE_AEDecryptFinal+0xee>
/home/hsk/Desktop/devel/tee-tpm-hyp/optee_os/lib/libutee/tee_api_operations.c:1530 (discriminator 1)
    2868:	b909      	cbnz	r1, 286e <TEE_AEDecryptFinal+0x22>
/home/hsk/Desktop/devel/tee-tpm-hyp/optee_os/lib/libutee/tee_api_operations.c:1531
    286a:	2a00      	cmp	r2, #0
    286c:	d165      	bne.n	293a <TEE_AEDecryptFinal+0xee>
/home/hsk/Desktop/devel/tee-tpm-hyp/optee_os/lib/libutee/tee_api_operations.c:1531 (discriminator 1)
    286e:	2f00      	cmp	r7, #0
    2870:	d063      	beq.n	293a <TEE_AEDecryptFinal+0xee>
/home/hsk/Desktop/devel/tee-tpm-hyp/optee_os/lib/libutee/tee_api_operations.c:1532
    2872:	f1b9 0f00 	cmp.w	r9, #0
    2876:	d102      	bne.n	287e <TEE_AEDecryptFinal+0x32>
/home/hsk/Desktop/devel/tee-tpm-hyp/optee_os/lib/libutee/tee_api_operations.c:1533
    2878:	683b      	ldr	r3, [r7, #0]
    287a:	2b00      	cmp	r3, #0
    287c:	d15d      	bne.n	293a <TEE_AEDecryptFinal+0xee>
/home/hsk/Desktop/devel/tee-tpm-hyp/optee_os/lib/libutee/tee_api_operations.c:1533 (discriminator 1)
    287e:	f1bb 0f00 	cmp.w	fp, #0
    2882:	d102      	bne.n	288a <TEE_AEDecryptFinal+0x3e>
/home/hsk/Desktop/devel/tee-tpm-hyp/optee_os/lib/libutee/tee_api_operations.c:1534
    2884:	f1b8 0f00 	cmp.w	r8, #0
    2888:	d157      	bne.n	293a <TEE_AEDecryptFinal+0xee>
/home/hsk/Desktop/devel/tee-tpm-hyp/optee_os/lib/libutee/tee_api_operations.c:1539
    288a:	686b      	ldr	r3, [r5, #4]
    288c:	2b04      	cmp	r3, #4
    288e:	d154      	bne.n	293a <TEE_AEDecryptFinal+0xee>
/home/hsk/Desktop/devel/tee-tpm-hyp/optee_os/lib/libutee/tee_api_operations.c:1544
    2890:	69eb      	ldr	r3, [r5, #28]
    2892:	039b      	lsls	r3, r3, #14
    2894:	d551      	bpl.n	293a <TEE_AEDecryptFinal+0xee>
/home/hsk/Desktop/devel/tee-tpm-hyp/optee_os/lib/libutee/tee_api_operations.c:1554
    2896:	6bab      	ldr	r3, [r5, #56]	; 0x38
/home/hsk/Desktop/devel/tee-tpm-hyp/optee_os/lib/libutee/tee_api_operations.c:1555
    2898:	6838      	ldr	r0, [r7, #0]
/home/hsk/Desktop/devel/tee-tpm-hyp/optee_os/lib/libutee/tee_api_operations.c:1554
    289a:	4413      	add	r3, r2
/home/hsk/Desktop/devel/tee-tpm-hyp/optee_os/lib/libutee/tee_api_operations.c:1555
    289c:	4298      	cmp	r0, r3
    289e:	d205      	bcs.n	28ac <TEE_AEDecryptFinal+0x60>
/home/hsk/Desktop/devel/tee-tpm-hyp/optee_os/lib/libutee/tee_api_operations.c:1557
    28a0:	4c27      	ldr	r4, [pc, #156]	; (2940 <TEE_AEDecryptFinal+0xf4>)
/home/hsk/Desktop/devel/tee-tpm-hyp/optee_os/lib/libutee/tee_api_operations.c:1556
    28a2:	603b      	str	r3, [r7, #0]
/home/hsk/Desktop/devel/tee-tpm-hyp/optee_os/lib/libutee/tee_api_operations.c:1602
    28a4:	4620      	mov	r0, r4
    28a6:	b009      	add	sp, #36	; 0x24
    28a8:	e8bd 8ff0 	ldmia.w	sp!, {r4, r5, r6, r7, r8, r9, sl, fp, pc}
/home/hsk/Desktop/devel/tee-tpm-hyp/optee_os/lib/libutee/tee_api_operations.c:1562
    28ac:	6b6b      	ldr	r3, [r5, #52]	; 0x34
/home/hsk/Desktop/devel/tee-tpm-hyp/optee_os/lib/libutee/tee_api_operations.c:1561
    28ae:	2600      	movs	r6, #0
    28b0:	f10d 0a18 	add.w	sl, sp, #24
    28b4:	e9cd 0606 	strd	r0, r6, [sp, #24]
/home/hsk/Desktop/devel/tee-tpm-hyp/optee_os/lib/libutee/tee_api_operations.c:1562
    28b8:	2b01      	cmp	r3, #1
    28ba:	d938      	bls.n	292e <TEE_AEDecryptFinal+0xe2>
/home/hsk/Desktop/devel/tee-tpm-hyp/optee_os/lib/libutee/tee_api_operations.c:1563
    28bc:	4b24      	ldr	r3, [pc, #144]	; (2950 <TEE_AEDecryptFinal+0x104>)
    28be:	4628      	mov	r0, r5
    28c0:	58e3      	ldr	r3, [r4, r3]
    28c2:	9305      	str	r3, [sp, #20]
    28c4:	4613      	mov	r3, r2
    28c6:	e9cd 9a00 	strd	r9, sl, [sp]
    28ca:	460a      	mov	r2, r1
    28cc:	9905      	ldr	r1, [sp, #20]
    28ce:	f7fe ff49 	bl	1764 <tee_buffer_update>
/home/hsk/Desktop/devel/tee-tpm-hyp/optee_os/lib/libutee/tee_api_operations.c:1565
    28d2:	4604      	mov	r4, r0
    28d4:	bb08      	cbnz	r0, 291a <TEE_AEDecryptFinal+0xce>
/home/hsk/Desktop/devel/tee-tpm-hyp/optee_os/lib/libutee/tee_api_operations.c:1571
    28d6:	683b      	ldr	r3, [r7, #0]
/home/hsk/Desktop/devel/tee-tpm-hyp/optee_os/lib/libutee/tee_api_operations.c:1572
    28d8:	f8cd 8008 	str.w	r8, [sp, #8]
    28dc:	e9cd ab00 	strd	sl, fp, [sp]
/home/hsk/Desktop/devel/tee-tpm-hyp/optee_os/lib/libutee/tee_api_operations.c:1568
    28e0:	9e06      	ldr	r6, [sp, #24]
/home/hsk/Desktop/devel/tee-tpm-hyp/optee_os/lib/libutee/tee_api_operations.c:1572
    28e2:	6baa      	ldr	r2, [r5, #56]	; 0x38
    28e4:	6ae9      	ldr	r1, [r5, #44]	; 0x2c
/home/hsk/Desktop/devel/tee-tpm-hyp/optee_os/lib/libutee/tee_api_operations.c:1571
    28e6:	1b9b      	subs	r3, r3, r6
    28e8:	e9cd 3006 	strd	r3, r0, [sp, #24]
/home/hsk/Desktop/devel/tee-tpm-hyp/optee_os/lib/libutee/tee_api_operations.c:1572
    28ec:	eb09 0306 	add.w	r3, r9, r6
/home/hsk/Desktop/devel/tee-tpm-hyp/optee_os/lib/libutee/tee_api_operations.c:1577
    28f0:	6be8      	ldr	r0, [r5, #60]	; 0x3c
    28f2:	f000 ecb2 	blx	3258 <utee_authenc_dec_final>
    28f6:	4604      	mov	r4, r0
/home/hsk/Desktop/devel/tee-tpm-hyp/optee_os/lib/libutee/tee_api_operations.c:1581
    28f8:	b978      	cbnz	r0, 291a <TEE_AEDecryptFinal+0xce>
/home/hsk/Desktop/devel/tee-tpm-hyp/optee_os/lib/libutee/tee_api_operations.c:1585
    28fa:	6c2a      	ldr	r2, [r5, #64]	; 0x40
/home/hsk/Desktop/devel/tee-tpm-hyp/optee_os/lib/libutee/tee_api_operations.c:1586
    28fc:	4b11      	ldr	r3, [pc, #68]	; (2944 <TEE_AEDecryptFinal+0xf8>)
    28fe:	4542      	cmp	r2, r8
    2900:	bf18      	it	ne
    2902:	461c      	movne	r4, r3
/home/hsk/Desktop/devel/tee-tpm-hyp/optee_os/lib/libutee/tee_api_operations.c:1588
    2904:	9b06      	ldr	r3, [sp, #24]
    2906:	441e      	add	r6, r3
/home/hsk/Desktop/devel/tee-tpm-hyp/optee_os/lib/libutee/tee_api_operations.c:1589
    2908:	603e      	str	r6, [r7, #0]
/home/hsk/Desktop/devel/tee-tpm-hyp/optee_os/lib/libutee/tee_api_operations.c:1591
    290a:	69eb      	ldr	r3, [r5, #28]
    290c:	f423 3300 	bic.w	r3, r3, #131072	; 0x20000
    2910:	61eb      	str	r3, [r5, #28]
/home/hsk/Desktop/devel/tee-tpm-hyp/optee_os/lib/libutee/tee_api_operations.c:1593
    2912:	2300      	movs	r3, #0
    2914:	62ab      	str	r3, [r5, #40]	; 0x28
/home/hsk/Desktop/devel/tee-tpm-hyp/optee_os/lib/libutee/tee_api_operations.c:1596
    2916:	2c00      	cmp	r4, #0
    2918:	d0c4      	beq.n	28a4 <TEE_AEDecryptFinal+0x58>
/home/hsk/Desktop/devel/tee-tpm-hyp/optee_os/lib/libutee/tee_api_operations.c:1596 (discriminator 1)
    291a:	4b09      	ldr	r3, [pc, #36]	; (2940 <TEE_AEDecryptFinal+0xf4>)
    291c:	429c      	cmp	r4, r3
    291e:	d0c1      	beq.n	28a4 <TEE_AEDecryptFinal+0x58>
/home/hsk/Desktop/devel/tee-tpm-hyp/optee_os/lib/libutee/tee_api_operations.c:1597
    2920:	4b08      	ldr	r3, [pc, #32]	; (2944 <TEE_AEDecryptFinal+0xf8>)
    2922:	429c      	cmp	r4, r3
    2924:	d0be      	beq.n	28a4 <TEE_AEDecryptFinal+0x58>
/home/hsk/Desktop/devel/tee-tpm-hyp/optee_os/lib/libutee/tee_api_operations.c:1599
    2926:	4620      	mov	r0, r4
    2928:	f005 f8c4 	bl	7ab4 <TEE_Panic>
/home/hsk/Desktop/devel/tee-tpm-hyp/optee_os/lib/libutee/tee_api_operations.c:1601
    292c:	e7ba      	b.n	28a4 <TEE_AEDecryptFinal+0x58>
/home/hsk/Desktop/devel/tee-tpm-hyp/optee_os/lib/libutee/tee_api_operations.c:1577
    292e:	f8cd 8008 	str.w	r8, [sp, #8]
    2932:	464b      	mov	r3, r9
    2934:	e9cd ab00 	strd	sl, fp, [sp]
    2938:	e7da      	b.n	28f0 <TEE_AEDecryptFinal+0xa4>
    293a:	4c03      	ldr	r4, [pc, #12]	; (2948 <TEE_AEDecryptFinal+0xfc>)
    293c:	e7f3      	b.n	2926 <TEE_AEDecryptFinal+0xda>
    293e:	bf00      	nop
    2940:	ffff0010 	.word	0xffff0010
    2944:	ffff3071 	.word	0xffff3071
    2948:	ffff0006 	.word	0xffff0006
    294c:	00006c58 	.word	0x00006c58
    2950:	00000014 	.word	0x00000014

00002954 <TEE_AsymmetricEncrypt>:
TEE_AsymmetricEncrypt():
/home/hsk/Desktop/devel/tee-tpm-hyp/optee_os/lib/libutee/tee_api_operations.c:1611
    2954:	e92d 4ff0 	stmdb	sp!, {r4, r5, r6, r7, r8, r9, sl, fp, lr}
    2958:	469a      	mov	sl, r3
/home/hsk/Desktop/devel/tee-tpm-hyp/optee_os/lib/libutee/tee_api_operations.c:1613
    295a:	2318      	movs	r3, #24
/home/hsk/Desktop/devel/tee-tpm-hyp/optee_os/lib/libutee/tee_api_operations.c:1611
    295c:	b087      	sub	sp, #28
    295e:	af04      	add	r7, sp, #16
    2960:	4688      	mov	r8, r1
/home/hsk/Desktop/devel/tee-tpm-hyp/optee_os/lib/libutee/tee_api_operations.c:1613
    2962:	4353      	muls	r3, r2
/home/hsk/Desktop/devel/tee-tpm-hyp/optee_os/lib/libutee/tee_api_operations.c:1611
    2964:	4616      	mov	r6, r2
/home/hsk/Desktop/devel/tee-tpm-hyp/optee_os/lib/libutee/tee_api_operations.c:1616
    2966:	4604      	mov	r4, r0
/home/hsk/Desktop/devel/tee-tpm-hyp/optee_os/lib/libutee/tee_api_operations.c:1613
    2968:	3308      	adds	r3, #8
/home/hsk/Desktop/devel/tee-tpm-hyp/optee_os/lib/libutee/tee_api_operations.c:1611
    296a:	f8d7 b034 	ldr.w	fp, [r7, #52]	; 0x34
/home/hsk/Desktop/devel/tee-tpm-hyp/optee_os/lib/libutee/tee_api_operations.c:1613
    296e:	ebad 0d03 	sub.w	sp, sp, r3
/home/hsk/Desktop/devel/tee-tpm-hyp/optee_os/lib/libutee/tee_api_operations.c:1611
    2972:	6bbd      	ldr	r5, [r7, #56]	; 0x38
/home/hsk/Desktop/devel/tee-tpm-hyp/optee_os/lib/libutee/tee_api_operations.c:1613
    2974:	f10d 0910 	add.w	r9, sp, #16
/home/hsk/Desktop/devel/tee-tpm-hyp/optee_os/lib/libutee/tee_api_operations.c:1616
    2978:	b150      	cbz	r0, 2990 <TEE_AsymmetricEncrypt+0x3c>
/home/hsk/Desktop/devel/tee-tpm-hyp/optee_os/lib/libutee/tee_api_operations.c:1616 (discriminator 1)
    297a:	f1ba 0f00 	cmp.w	sl, #0
    297e:	d101      	bne.n	2984 <TEE_AsymmetricEncrypt+0x30>
/home/hsk/Desktop/devel/tee-tpm-hyp/optee_os/lib/libutee/tee_api_operations.c:1616 (discriminator 2)
    2980:	6b3b      	ldr	r3, [r7, #48]	; 0x30
    2982:	b92b      	cbnz	r3, 2990 <TEE_AsymmetricEncrypt+0x3c>
/home/hsk/Desktop/devel/tee-tpm-hyp/optee_os/lib/libutee/tee_api_operations.c:1616 (discriminator 4)
    2984:	b125      	cbz	r5, 2990 <TEE_AsymmetricEncrypt+0x3c>
/home/hsk/Desktop/devel/tee-tpm-hyp/optee_os/lib/libutee/tee_api_operations.c:1617
    2986:	f1bb 0f00 	cmp.w	fp, #0
    298a:	d104      	bne.n	2996 <TEE_AsymmetricEncrypt+0x42>
/home/hsk/Desktop/devel/tee-tpm-hyp/optee_os/lib/libutee/tee_api_operations.c:1617 (discriminator 1)
    298c:	682b      	ldr	r3, [r5, #0]
    298e:	b113      	cbz	r3, 2996 <TEE_AsymmetricEncrypt+0x42>
/home/hsk/Desktop/devel/tee-tpm-hyp/optee_os/lib/libutee/tee_api_operations.c:1618
    2990:	2000      	movs	r0, #0
    2992:	f005 f88f 	bl	7ab4 <TEE_Panic>
/home/hsk/Desktop/devel/tee-tpm-hyp/optee_os/lib/libutee/tee_api_operations.c:1619
    2996:	f1b8 0f00 	cmp.w	r8, #0
    299a:	d103      	bne.n	29a4 <TEE_AsymmetricEncrypt+0x50>
/home/hsk/Desktop/devel/tee-tpm-hyp/optee_os/lib/libutee/tee_api_operations.c:1619 (discriminator 1)
    299c:	b116      	cbz	r6, 29a4 <TEE_AsymmetricEncrypt+0x50>
/home/hsk/Desktop/devel/tee-tpm-hyp/optee_os/lib/libutee/tee_api_operations.c:1620
    299e:	4640      	mov	r0, r8
    29a0:	f005 f888 	bl	7ab4 <TEE_Panic>
/home/hsk/Desktop/devel/tee-tpm-hyp/optee_os/lib/libutee/tee_api_operations.c:1621
    29a4:	6a20      	ldr	r0, [r4, #32]
    29a6:	b908      	cbnz	r0, 29ac <TEE_AsymmetricEncrypt+0x58>
/home/hsk/Desktop/devel/tee-tpm-hyp/optee_os/lib/libutee/tee_api_operations.c:1622
    29a8:	f005 f884 	bl	7ab4 <TEE_Panic>
/home/hsk/Desktop/devel/tee-tpm-hyp/optee_os/lib/libutee/tee_api_operations.c:1623
    29ac:	6863      	ldr	r3, [r4, #4]
    29ae:	2b06      	cmp	r3, #6
    29b0:	d002      	beq.n	29b8 <TEE_AsymmetricEncrypt+0x64>
/home/hsk/Desktop/devel/tee-tpm-hyp/optee_os/lib/libutee/tee_api_operations.c:1624
    29b2:	2000      	movs	r0, #0
    29b4:	f005 f87e 	bl	7ab4 <TEE_Panic>
/home/hsk/Desktop/devel/tee-tpm-hyp/optee_os/lib/libutee/tee_api_operations.c:1625
    29b8:	68a3      	ldr	r3, [r4, #8]
    29ba:	b113      	cbz	r3, 29c2 <TEE_AsymmetricEncrypt+0x6e>
/home/hsk/Desktop/devel/tee-tpm-hyp/optee_os/lib/libutee/tee_api_operations.c:1626
    29bc:	2000      	movs	r0, #0
    29be:	f005 f879 	bl	7ab4 <TEE_Panic>
/home/hsk/Desktop/devel/tee-tpm-hyp/optee_os/lib/libutee/tee_api_operations.c:1628
    29c2:	4632      	mov	r2, r6
    29c4:	4641      	mov	r1, r8
    29c6:	4648      	mov	r0, r9
    29c8:	f7fe faf4 	bl	fb4 <__utee_from_attr>
/home/hsk/Desktop/devel/tee-tpm-hyp/optee_os/lib/libutee/tee_api_operations.c:1629
    29cc:	682b      	ldr	r3, [r5, #0]
    29ce:	603b      	str	r3, [r7, #0]
    29d0:	2300      	movs	r3, #0
    29d2:	607b      	str	r3, [r7, #4]
/home/hsk/Desktop/devel/tee-tpm-hyp/optee_os/lib/libutee/tee_api_operations.c:1630
    29d4:	4632      	mov	r2, r6
    29d6:	6b3b      	ldr	r3, [r7, #48]	; 0x30
    29d8:	4649      	mov	r1, r9
    29da:	9300      	str	r3, [sp, #0]
    29dc:	4653      	mov	r3, sl
    29de:	9702      	str	r7, [sp, #8]
    29e0:	f8cd b004 	str.w	fp, [sp, #4]
    29e4:	6be0      	ldr	r0, [r4, #60]	; 0x3c
    29e6:	f000 ec44 	blx	3270 <utee_asymm_operate>
/home/hsk/Desktop/devel/tee-tpm-hyp/optee_os/lib/libutee/tee_api_operations.c:1632
    29ea:	683b      	ldr	r3, [r7, #0]
    29ec:	602b      	str	r3, [r5, #0]
/home/hsk/Desktop/devel/tee-tpm-hyp/optee_os/lib/libutee/tee_api_operations.c:1634
    29ee:	4604      	mov	r4, r0
    29f0:	b138      	cbz	r0, 2a02 <TEE_AsymmetricEncrypt+0xae>
/home/hsk/Desktop/devel/tee-tpm-hyp/optee_os/lib/libutee/tee_api_operations.c:1634 (discriminator 1)
    29f2:	4b06      	ldr	r3, [pc, #24]	; (2a0c <TEE_AsymmetricEncrypt+0xb8>)
    29f4:	4298      	cmp	r0, r3
    29f6:	d004      	beq.n	2a02 <TEE_AsymmetricEncrypt+0xae>
/home/hsk/Desktop/devel/tee-tpm-hyp/optee_os/lib/libutee/tee_api_operations.c:1635
    29f8:	3b0a      	subs	r3, #10
    29fa:	4298      	cmp	r0, r3
    29fc:	d001      	beq.n	2a02 <TEE_AsymmetricEncrypt+0xae>
/home/hsk/Desktop/devel/tee-tpm-hyp/optee_os/lib/libutee/tee_api_operations.c:1637
    29fe:	f005 f859 	bl	7ab4 <TEE_Panic>
/home/hsk/Desktop/devel/tee-tpm-hyp/optee_os/lib/libutee/tee_api_operations.c:1640
    2a02:	4620      	mov	r0, r4
    2a04:	370c      	adds	r7, #12
    2a06:	46bd      	mov	sp, r7
    2a08:	e8bd 8ff0 	ldmia.w	sp!, {r4, r5, r6, r7, r8, r9, sl, fp, pc}
    2a0c:	ffff0010 	.word	0xffff0010

00002a10 <TEE_AsymmetricDecrypt>:
TEE_AsymmetricDecrypt():
/home/hsk/Desktop/devel/tee-tpm-hyp/optee_os/lib/libutee/tee_api_operations.c:1647
    2a10:	e92d 4ff0 	stmdb	sp!, {r4, r5, r6, r7, r8, r9, sl, fp, lr}
    2a14:	469a      	mov	sl, r3
/home/hsk/Desktop/devel/tee-tpm-hyp/optee_os/lib/libutee/tee_api_operations.c:1649
    2a16:	2318      	movs	r3, #24
/home/hsk/Desktop/devel/tee-tpm-hyp/optee_os/lib/libutee/tee_api_operations.c:1647
    2a18:	b087      	sub	sp, #28
    2a1a:	af04      	add	r7, sp, #16
    2a1c:	4688      	mov	r8, r1
/home/hsk/Desktop/devel/tee-tpm-hyp/optee_os/lib/libutee/tee_api_operations.c:1649
    2a1e:	4353      	muls	r3, r2
/home/hsk/Desktop/devel/tee-tpm-hyp/optee_os/lib/libutee/tee_api_operations.c:1647
    2a20:	4616      	mov	r6, r2
/home/hsk/Desktop/devel/tee-tpm-hyp/optee_os/lib/libutee/tee_api_operations.c:1652
    2a22:	4604      	mov	r4, r0
/home/hsk/Desktop/devel/tee-tpm-hyp/optee_os/lib/libutee/tee_api_operations.c:1649
    2a24:	3308      	adds	r3, #8
/home/hsk/Desktop/devel/tee-tpm-hyp/optee_os/lib/libutee/tee_api_operations.c:1647
    2a26:	f8d7 b034 	ldr.w	fp, [r7, #52]	; 0x34
/home/hsk/Desktop/devel/tee-tpm-hyp/optee_os/lib/libutee/tee_api_operations.c:1649
    2a2a:	ebad 0d03 	sub.w	sp, sp, r3
/home/hsk/Desktop/devel/tee-tpm-hyp/optee_os/lib/libutee/tee_api_operations.c:1647
    2a2e:	6bbd      	ldr	r5, [r7, #56]	; 0x38
/home/hsk/Desktop/devel/tee-tpm-hyp/optee_os/lib/libutee/tee_api_operations.c:1649
    2a30:	f10d 0910 	add.w	r9, sp, #16
/home/hsk/Desktop/devel/tee-tpm-hyp/optee_os/lib/libutee/tee_api_operations.c:1652
    2a34:	b150      	cbz	r0, 2a4c <TEE_AsymmetricDecrypt+0x3c>
/home/hsk/Desktop/devel/tee-tpm-hyp/optee_os/lib/libutee/tee_api_operations.c:1652 (discriminator 1)
    2a36:	f1ba 0f00 	cmp.w	sl, #0
    2a3a:	d101      	bne.n	2a40 <TEE_AsymmetricDecrypt+0x30>
/home/hsk/Desktop/devel/tee-tpm-hyp/optee_os/lib/libutee/tee_api_operations.c:1652 (discriminator 2)
    2a3c:	6b3b      	ldr	r3, [r7, #48]	; 0x30
    2a3e:	b92b      	cbnz	r3, 2a4c <TEE_AsymmetricDecrypt+0x3c>
/home/hsk/Desktop/devel/tee-tpm-hyp/optee_os/lib/libutee/tee_api_operations.c:1652 (discriminator 4)
    2a40:	b125      	cbz	r5, 2a4c <TEE_AsymmetricDecrypt+0x3c>
/home/hsk/Desktop/devel/tee-tpm-hyp/optee_os/lib/libutee/tee_api_operations.c:1653
    2a42:	f1bb 0f00 	cmp.w	fp, #0
    2a46:	d104      	bne.n	2a52 <TEE_AsymmetricDecrypt+0x42>
/home/hsk/Desktop/devel/tee-tpm-hyp/optee_os/lib/libutee/tee_api_operations.c:1653 (discriminator 1)
    2a48:	682b      	ldr	r3, [r5, #0]
    2a4a:	b113      	cbz	r3, 2a52 <TEE_AsymmetricDecrypt+0x42>
/home/hsk/Desktop/devel/tee-tpm-hyp/optee_os/lib/libutee/tee_api_operations.c:1654
    2a4c:	2000      	movs	r0, #0
    2a4e:	f005 f831 	bl	7ab4 <TEE_Panic>
/home/hsk/Desktop/devel/tee-tpm-hyp/optee_os/lib/libutee/tee_api_operations.c:1655
    2a52:	f1b8 0f00 	cmp.w	r8, #0
    2a56:	d103      	bne.n	2a60 <TEE_AsymmetricDecrypt+0x50>
/home/hsk/Desktop/devel/tee-tpm-hyp/optee_os/lib/libutee/tee_api_operations.c:1655 (discriminator 1)
    2a58:	b116      	cbz	r6, 2a60 <TEE_AsymmetricDecrypt+0x50>
/home/hsk/Desktop/devel/tee-tpm-hyp/optee_os/lib/libutee/tee_api_operations.c:1656
    2a5a:	4640      	mov	r0, r8
    2a5c:	f005 f82a 	bl	7ab4 <TEE_Panic>
/home/hsk/Desktop/devel/tee-tpm-hyp/optee_os/lib/libutee/tee_api_operations.c:1657
    2a60:	6a20      	ldr	r0, [r4, #32]
    2a62:	b908      	cbnz	r0, 2a68 <TEE_AsymmetricDecrypt+0x58>
/home/hsk/Desktop/devel/tee-tpm-hyp/optee_os/lib/libutee/tee_api_operations.c:1658
    2a64:	f005 f826 	bl	7ab4 <TEE_Panic>
/home/hsk/Desktop/devel/tee-tpm-hyp/optee_os/lib/libutee/tee_api_operations.c:1659
    2a68:	6863      	ldr	r3, [r4, #4]
    2a6a:	2b06      	cmp	r3, #6
    2a6c:	d002      	beq.n	2a74 <TEE_AsymmetricDecrypt+0x64>
/home/hsk/Desktop/devel/tee-tpm-hyp/optee_os/lib/libutee/tee_api_operations.c:1660
    2a6e:	2000      	movs	r0, #0
    2a70:	f005 f820 	bl	7ab4 <TEE_Panic>
/home/hsk/Desktop/devel/tee-tpm-hyp/optee_os/lib/libutee/tee_api_operations.c:1661
    2a74:	68a3      	ldr	r3, [r4, #8]
    2a76:	2b01      	cmp	r3, #1
    2a78:	d002      	beq.n	2a80 <TEE_AsymmetricDecrypt+0x70>
/home/hsk/Desktop/devel/tee-tpm-hyp/optee_os/lib/libutee/tee_api_operations.c:1662
    2a7a:	2000      	movs	r0, #0
    2a7c:	f005 f81a 	bl	7ab4 <TEE_Panic>
/home/hsk/Desktop/devel/tee-tpm-hyp/optee_os/lib/libutee/tee_api_operations.c:1664
    2a80:	4632      	mov	r2, r6
    2a82:	4641      	mov	r1, r8
    2a84:	4648      	mov	r0, r9
    2a86:	f7fe fa95 	bl	fb4 <__utee_from_attr>
/home/hsk/Desktop/devel/tee-tpm-hyp/optee_os/lib/libutee/tee_api_operations.c:1665
    2a8a:	682b      	ldr	r3, [r5, #0]
    2a8c:	603b      	str	r3, [r7, #0]
    2a8e:	2300      	movs	r3, #0
    2a90:	607b      	str	r3, [r7, #4]
/home/hsk/Desktop/devel/tee-tpm-hyp/optee_os/lib/libutee/tee_api_operations.c:1666
    2a92:	4632      	mov	r2, r6
    2a94:	6b3b      	ldr	r3, [r7, #48]	; 0x30
    2a96:	4649      	mov	r1, r9
    2a98:	9300      	str	r3, [sp, #0]
    2a9a:	4653      	mov	r3, sl
    2a9c:	9702      	str	r7, [sp, #8]
    2a9e:	f8cd b004 	str.w	fp, [sp, #4]
    2aa2:	6be0      	ldr	r0, [r4, #60]	; 0x3c
    2aa4:	f000 ebe4 	blx	3270 <utee_asymm_operate>
/home/hsk/Desktop/devel/tee-tpm-hyp/optee_os/lib/libutee/tee_api_operations.c:1668
    2aa8:	683b      	ldr	r3, [r7, #0]
    2aaa:	602b      	str	r3, [r5, #0]
/home/hsk/Desktop/devel/tee-tpm-hyp/optee_os/lib/libutee/tee_api_operations.c:1670
    2aac:	4604      	mov	r4, r0
    2aae:	b138      	cbz	r0, 2ac0 <TEE_AsymmetricDecrypt+0xb0>
/home/hsk/Desktop/devel/tee-tpm-hyp/optee_os/lib/libutee/tee_api_operations.c:1670 (discriminator 1)
    2ab0:	4b06      	ldr	r3, [pc, #24]	; (2acc <TEE_AsymmetricDecrypt+0xbc>)
    2ab2:	4298      	cmp	r0, r3
    2ab4:	d004      	beq.n	2ac0 <TEE_AsymmetricDecrypt+0xb0>
/home/hsk/Desktop/devel/tee-tpm-hyp/optee_os/lib/libutee/tee_api_operations.c:1671
    2ab6:	3b0a      	subs	r3, #10
    2ab8:	4298      	cmp	r0, r3
    2aba:	d001      	beq.n	2ac0 <TEE_AsymmetricDecrypt+0xb0>
/home/hsk/Desktop/devel/tee-tpm-hyp/optee_os/lib/libutee/tee_api_operations.c:1673
    2abc:	f004 fffa 	bl	7ab4 <TEE_Panic>
/home/hsk/Desktop/devel/tee-tpm-hyp/optee_os/lib/libutee/tee_api_operations.c:1676
    2ac0:	4620      	mov	r0, r4
    2ac2:	370c      	adds	r7, #12
    2ac4:	46bd      	mov	sp, r7
    2ac6:	e8bd 8ff0 	ldmia.w	sp!, {r4, r5, r6, r7, r8, r9, sl, fp, pc}
    2aca:	bf00      	nop
    2acc:	ffff0010 	.word	0xffff0010

00002ad0 <TEE_AsymmetricSignDigest>:
TEE_AsymmetricSignDigest():
/home/hsk/Desktop/devel/tee-tpm-hyp/optee_os/lib/libutee/tee_api_operations.c:1683
    2ad0:	e92d 4ff0 	stmdb	sp!, {r4, r5, r6, r7, r8, r9, sl, fp, lr}
    2ad4:	469a      	mov	sl, r3
/home/hsk/Desktop/devel/tee-tpm-hyp/optee_os/lib/libutee/tee_api_operations.c:1685
    2ad6:	2318      	movs	r3, #24
/home/hsk/Desktop/devel/tee-tpm-hyp/optee_os/lib/libutee/tee_api_operations.c:1683
    2ad8:	b087      	sub	sp, #28
    2ada:	af04      	add	r7, sp, #16
    2adc:	4688      	mov	r8, r1
/home/hsk/Desktop/devel/tee-tpm-hyp/optee_os/lib/libutee/tee_api_operations.c:1685
    2ade:	4353      	muls	r3, r2
/home/hsk/Desktop/devel/tee-tpm-hyp/optee_os/lib/libutee/tee_api_operations.c:1683
    2ae0:	4615      	mov	r5, r2
/home/hsk/Desktop/devel/tee-tpm-hyp/optee_os/lib/libutee/tee_api_operations.c:1688
    2ae2:	4604      	mov	r4, r0
/home/hsk/Desktop/devel/tee-tpm-hyp/optee_os/lib/libutee/tee_api_operations.c:1685
    2ae4:	3308      	adds	r3, #8
/home/hsk/Desktop/devel/tee-tpm-hyp/optee_os/lib/libutee/tee_api_operations.c:1683
    2ae6:	f8d7 b034 	ldr.w	fp, [r7, #52]	; 0x34
/home/hsk/Desktop/devel/tee-tpm-hyp/optee_os/lib/libutee/tee_api_operations.c:1685
    2aea:	ebad 0d03 	sub.w	sp, sp, r3
/home/hsk/Desktop/devel/tee-tpm-hyp/optee_os/lib/libutee/tee_api_operations.c:1683
    2aee:	6bbe      	ldr	r6, [r7, #56]	; 0x38
/home/hsk/Desktop/devel/tee-tpm-hyp/optee_os/lib/libutee/tee_api_operations.c:1685
    2af0:	f10d 0910 	add.w	r9, sp, #16
/home/hsk/Desktop/devel/tee-tpm-hyp/optee_os/lib/libutee/tee_api_operations.c:1688
    2af4:	b140      	cbz	r0, 2b08 <TEE_AsymmetricSignDigest+0x38>
/home/hsk/Desktop/devel/tee-tpm-hyp/optee_os/lib/libutee/tee_api_operations.c:1688 (discriminator 1)
    2af6:	f1ba 0f00 	cmp.w	sl, #0
    2afa:	d101      	bne.n	2b00 <TEE_AsymmetricSignDigest+0x30>
/home/hsk/Desktop/devel/tee-tpm-hyp/optee_os/lib/libutee/tee_api_operations.c:1689
    2afc:	6b3b      	ldr	r3, [r7, #48]	; 0x30
    2afe:	b91b      	cbnz	r3, 2b08 <TEE_AsymmetricSignDigest+0x38>
/home/hsk/Desktop/devel/tee-tpm-hyp/optee_os/lib/libutee/tee_api_operations.c:1689 (discriminator 1)
    2b00:	f1bb 0f00 	cmp.w	fp, #0
    2b04:	d000      	beq.n	2b08 <TEE_AsymmetricSignDigest+0x38>
/home/hsk/Desktop/devel/tee-tpm-hyp/optee_os/lib/libutee/tee_api_operations.c:1690
    2b06:	b916      	cbnz	r6, 2b0e <TEE_AsymmetricSignDigest+0x3e>
/home/hsk/Desktop/devel/tee-tpm-hyp/optee_os/lib/libutee/tee_api_operations.c:1691
    2b08:	2000      	movs	r0, #0
    2b0a:	f004 ffd3 	bl	7ab4 <TEE_Panic>
/home/hsk/Desktop/devel/tee-tpm-hyp/optee_os/lib/libutee/tee_api_operations.c:1692
    2b0e:	f1b8 0f00 	cmp.w	r8, #0
    2b12:	d103      	bne.n	2b1c <TEE_AsymmetricSignDigest+0x4c>
/home/hsk/Desktop/devel/tee-tpm-hyp/optee_os/lib/libutee/tee_api_operations.c:1692 (discriminator 1)
    2b14:	b115      	cbz	r5, 2b1c <TEE_AsymmetricSignDigest+0x4c>
/home/hsk/Desktop/devel/tee-tpm-hyp/optee_os/lib/libutee/tee_api_operations.c:1693
    2b16:	4640      	mov	r0, r8
    2b18:	f004 ffcc 	bl	7ab4 <TEE_Panic>
/home/hsk/Desktop/devel/tee-tpm-hyp/optee_os/lib/libutee/tee_api_operations.c:1694
    2b1c:	6a20      	ldr	r0, [r4, #32]
    2b1e:	b908      	cbnz	r0, 2b24 <TEE_AsymmetricSignDigest+0x54>
/home/hsk/Desktop/devel/tee-tpm-hyp/optee_os/lib/libutee/tee_api_operations.c:1695
    2b20:	f004 ffc8 	bl	7ab4 <TEE_Panic>
/home/hsk/Desktop/devel/tee-tpm-hyp/optee_os/lib/libutee/tee_api_operations.c:1696
    2b24:	6863      	ldr	r3, [r4, #4]
    2b26:	2b07      	cmp	r3, #7
    2b28:	d002      	beq.n	2b30 <TEE_AsymmetricSignDigest+0x60>
/home/hsk/Desktop/devel/tee-tpm-hyp/optee_os/lib/libutee/tee_api_operations.c:1698
    2b2a:	2000      	movs	r0, #0
    2b2c:	f004 ffc2 	bl	7ab4 <TEE_Panic>
/home/hsk/Desktop/devel/tee-tpm-hyp/optee_os/lib/libutee/tee_api_operations.c:1699
    2b30:	68a3      	ldr	r3, [r4, #8]
    2b32:	2b02      	cmp	r3, #2
    2b34:	d002      	beq.n	2b3c <TEE_AsymmetricSignDigest+0x6c>
/home/hsk/Desktop/devel/tee-tpm-hyp/optee_os/lib/libutee/tee_api_operations.c:1700
    2b36:	2000      	movs	r0, #0
    2b38:	f004 ffbc 	bl	7ab4 <TEE_Panic>
/home/hsk/Desktop/devel/tee-tpm-hyp/optee_os/lib/libutee/tee_api_operations.c:1702
    2b3c:	462a      	mov	r2, r5
    2b3e:	4641      	mov	r1, r8
    2b40:	4648      	mov	r0, r9
    2b42:	f7fe fa37 	bl	fb4 <__utee_from_attr>
/home/hsk/Desktop/devel/tee-tpm-hyp/optee_os/lib/libutee/tee_api_operations.c:1703
    2b46:	6833      	ldr	r3, [r6, #0]
    2b48:	603b      	str	r3, [r7, #0]
    2b4a:	2300      	movs	r3, #0
    2b4c:	607b      	str	r3, [r7, #4]
/home/hsk/Desktop/devel/tee-tpm-hyp/optee_os/lib/libutee/tee_api_operations.c:1704
    2b4e:	462a      	mov	r2, r5
    2b50:	6b3b      	ldr	r3, [r7, #48]	; 0x30
    2b52:	4649      	mov	r1, r9
    2b54:	9300      	str	r3, [sp, #0]
    2b56:	4653      	mov	r3, sl
    2b58:	9702      	str	r7, [sp, #8]
    2b5a:	f8cd b004 	str.w	fp, [sp, #4]
    2b5e:	6be0      	ldr	r0, [r4, #60]	; 0x3c
    2b60:	f000 eb86 	blx	3270 <utee_asymm_operate>
/home/hsk/Desktop/devel/tee-tpm-hyp/optee_os/lib/libutee/tee_api_operations.c:1706
    2b64:	683b      	ldr	r3, [r7, #0]
    2b66:	6033      	str	r3, [r6, #0]
/home/hsk/Desktop/devel/tee-tpm-hyp/optee_os/lib/libutee/tee_api_operations.c:1708
    2b68:	4604      	mov	r4, r0
    2b6a:	b120      	cbz	r0, 2b76 <TEE_AsymmetricSignDigest+0xa6>
/home/hsk/Desktop/devel/tee-tpm-hyp/optee_os/lib/libutee/tee_api_operations.c:1708 (discriminator 1)
    2b6c:	4b04      	ldr	r3, [pc, #16]	; (2b80 <TEE_AsymmetricSignDigest+0xb0>)
    2b6e:	4298      	cmp	r0, r3
    2b70:	d001      	beq.n	2b76 <TEE_AsymmetricSignDigest+0xa6>
/home/hsk/Desktop/devel/tee-tpm-hyp/optee_os/lib/libutee/tee_api_operations.c:1709
    2b72:	f004 ff9f 	bl	7ab4 <TEE_Panic>
/home/hsk/Desktop/devel/tee-tpm-hyp/optee_os/lib/libutee/tee_api_operations.c:1712
    2b76:	4620      	mov	r0, r4
    2b78:	370c      	adds	r7, #12
    2b7a:	46bd      	mov	sp, r7
    2b7c:	e8bd 8ff0 	ldmia.w	sp!, {r4, r5, r6, r7, r8, r9, sl, fp, pc}
    2b80:	ffff0010 	.word	0xffff0010

00002b84 <TEE_AsymmetricVerifyDigest>:
TEE_AsymmetricVerifyDigest():
/home/hsk/Desktop/devel/tee-tpm-hyp/optee_os/lib/libutee/tee_api_operations.c:1720
    2b84:	e92d 4ff0 	stmdb	sp!, {r4, r5, r6, r7, r8, r9, sl, fp, lr}
    2b88:	4699      	mov	r9, r3
/home/hsk/Desktop/devel/tee-tpm-hyp/optee_os/lib/libutee/tee_api_operations.c:1722
    2b8a:	2318      	movs	r3, #24
/home/hsk/Desktop/devel/tee-tpm-hyp/optee_os/lib/libutee/tee_api_operations.c:1720
    2b8c:	b085      	sub	sp, #20
    2b8e:	af04      	add	r7, sp, #16
    2b90:	460e      	mov	r6, r1
/home/hsk/Desktop/devel/tee-tpm-hyp/optee_os/lib/libutee/tee_api_operations.c:1722
    2b92:	4353      	muls	r3, r2
/home/hsk/Desktop/devel/tee-tpm-hyp/optee_os/lib/libutee/tee_api_operations.c:1720
    2b94:	4615      	mov	r5, r2
/home/hsk/Desktop/devel/tee-tpm-hyp/optee_os/lib/libutee/tee_api_operations.c:1724
    2b96:	4604      	mov	r4, r0
/home/hsk/Desktop/devel/tee-tpm-hyp/optee_os/lib/libutee/tee_api_operations.c:1722
    2b98:	3308      	adds	r3, #8
/home/hsk/Desktop/devel/tee-tpm-hyp/optee_os/lib/libutee/tee_api_operations.c:1720
    2b9a:	f8d7 a02c 	ldr.w	sl, [r7, #44]	; 0x2c
/home/hsk/Desktop/devel/tee-tpm-hyp/optee_os/lib/libutee/tee_api_operations.c:1722
    2b9e:	ebad 0d03 	sub.w	sp, sp, r3
/home/hsk/Desktop/devel/tee-tpm-hyp/optee_os/lib/libutee/tee_api_operations.c:1720
    2ba2:	f8d7 b030 	ldr.w	fp, [r7, #48]	; 0x30
/home/hsk/Desktop/devel/tee-tpm-hyp/optee_os/lib/libutee/tee_api_operations.c:1722
    2ba6:	f10d 0810 	add.w	r8, sp, #16
/home/hsk/Desktop/devel/tee-tpm-hyp/optee_os/lib/libutee/tee_api_operations.c:1724
    2baa:	b150      	cbz	r0, 2bc2 <TEE_AsymmetricVerifyDigest+0x3e>
/home/hsk/Desktop/devel/tee-tpm-hyp/optee_os/lib/libutee/tee_api_operations.c:1724 (discriminator 1)
    2bac:	f1b9 0f00 	cmp.w	r9, #0
    2bb0:	d101      	bne.n	2bb6 <TEE_AsymmetricVerifyDigest+0x32>
/home/hsk/Desktop/devel/tee-tpm-hyp/optee_os/lib/libutee/tee_api_operations.c:1725
    2bb2:	6abb      	ldr	r3, [r7, #40]	; 0x28
    2bb4:	b92b      	cbnz	r3, 2bc2 <TEE_AsymmetricVerifyDigest+0x3e>
/home/hsk/Desktop/devel/tee-tpm-hyp/optee_os/lib/libutee/tee_api_operations.c:1725 (discriminator 1)
    2bb6:	f1ba 0f00 	cmp.w	sl, #0
    2bba:	d105      	bne.n	2bc8 <TEE_AsymmetricVerifyDigest+0x44>
/home/hsk/Desktop/devel/tee-tpm-hyp/optee_os/lib/libutee/tee_api_operations.c:1726
    2bbc:	f1bb 0f00 	cmp.w	fp, #0
    2bc0:	d002      	beq.n	2bc8 <TEE_AsymmetricVerifyDigest+0x44>
/home/hsk/Desktop/devel/tee-tpm-hyp/optee_os/lib/libutee/tee_api_operations.c:1727
    2bc2:	2000      	movs	r0, #0
    2bc4:	f004 ff76 	bl	7ab4 <TEE_Panic>
/home/hsk/Desktop/devel/tee-tpm-hyp/optee_os/lib/libutee/tee_api_operations.c:1728
    2bc8:	b91e      	cbnz	r6, 2bd2 <TEE_AsymmetricVerifyDigest+0x4e>
/home/hsk/Desktop/devel/tee-tpm-hyp/optee_os/lib/libutee/tee_api_operations.c:1728 (discriminator 1)
    2bca:	b115      	cbz	r5, 2bd2 <TEE_AsymmetricVerifyDigest+0x4e>
/home/hsk/Desktop/devel/tee-tpm-hyp/optee_os/lib/libutee/tee_api_operations.c:1729
    2bcc:	4630      	mov	r0, r6
    2bce:	f004 ff71 	bl	7ab4 <TEE_Panic>
/home/hsk/Desktop/devel/tee-tpm-hyp/optee_os/lib/libutee/tee_api_operations.c:1730
    2bd2:	6a20      	ldr	r0, [r4, #32]
    2bd4:	b908      	cbnz	r0, 2bda <TEE_AsymmetricVerifyDigest+0x56>
/home/hsk/Desktop/devel/tee-tpm-hyp/optee_os/lib/libutee/tee_api_operations.c:1731
    2bd6:	f004 ff6d 	bl	7ab4 <TEE_Panic>
/home/hsk/Desktop/devel/tee-tpm-hyp/optee_os/lib/libutee/tee_api_operations.c:1732
    2bda:	6863      	ldr	r3, [r4, #4]
    2bdc:	2b07      	cmp	r3, #7
    2bde:	d002      	beq.n	2be6 <TEE_AsymmetricVerifyDigest+0x62>
/home/hsk/Desktop/devel/tee-tpm-hyp/optee_os/lib/libutee/tee_api_operations.c:1734
    2be0:	2000      	movs	r0, #0
    2be2:	f004 ff67 	bl	7ab4 <TEE_Panic>
/home/hsk/Desktop/devel/tee-tpm-hyp/optee_os/lib/libutee/tee_api_operations.c:1735
    2be6:	68a3      	ldr	r3, [r4, #8]
    2be8:	2b03      	cmp	r3, #3
    2bea:	d002      	beq.n	2bf2 <TEE_AsymmetricVerifyDigest+0x6e>
/home/hsk/Desktop/devel/tee-tpm-hyp/optee_os/lib/libutee/tee_api_operations.c:1736
    2bec:	2000      	movs	r0, #0
    2bee:	f004 ff61 	bl	7ab4 <TEE_Panic>
/home/hsk/Desktop/devel/tee-tpm-hyp/optee_os/lib/libutee/tee_api_operations.c:1738
    2bf2:	462a      	mov	r2, r5
    2bf4:	4631      	mov	r1, r6
    2bf6:	4640      	mov	r0, r8
    2bf8:	f7fe f9dc 	bl	fb4 <__utee_from_attr>
/home/hsk/Desktop/devel/tee-tpm-hyp/optee_os/lib/libutee/tee_api_operations.c:1739
    2bfc:	6abb      	ldr	r3, [r7, #40]	; 0x28
    2bfe:	9300      	str	r3, [sp, #0]
    2c00:	462a      	mov	r2, r5
    2c02:	f8cd b008 	str.w	fp, [sp, #8]
    2c06:	464b      	mov	r3, r9
    2c08:	f8cd a004 	str.w	sl, [sp, #4]
    2c0c:	4641      	mov	r1, r8
    2c0e:	6be0      	ldr	r0, [r4, #60]	; 0x3c
    2c10:	f000 eb3a 	blx	3288 <utee_asymm_verify>
/home/hsk/Desktop/devel/tee-tpm-hyp/optee_os/lib/libutee/tee_api_operations.c:1742
    2c14:	4604      	mov	r4, r0
    2c16:	b120      	cbz	r0, 2c22 <TEE_AsymmetricVerifyDigest+0x9e>
/home/hsk/Desktop/devel/tee-tpm-hyp/optee_os/lib/libutee/tee_api_operations.c:1742 (discriminator 1)
    2c18:	4b04      	ldr	r3, [pc, #16]	; (2c2c <TEE_AsymmetricVerifyDigest+0xa8>)
    2c1a:	4298      	cmp	r0, r3
    2c1c:	d001      	beq.n	2c22 <TEE_AsymmetricVerifyDigest+0x9e>
/home/hsk/Desktop/devel/tee-tpm-hyp/optee_os/lib/libutee/tee_api_operations.c:1743
    2c1e:	f004 ff49 	bl	7ab4 <TEE_Panic>
/home/hsk/Desktop/devel/tee-tpm-hyp/optee_os/lib/libutee/tee_api_operations.c:1746
    2c22:	4620      	mov	r0, r4
    2c24:	3704      	adds	r7, #4
    2c26:	46bd      	mov	sp, r7
    2c28:	e8bd 8ff0 	ldmia.w	sp!, {r4, r5, r6, r7, r8, r9, sl, fp, pc}
    2c2c:	ffff3072 	.word	0xffff3072

00002c30 <TEE_DeriveKey>:
TEE_DeriveKey():
/home/hsk/Desktop/devel/tee-tpm-hyp/optee_os/lib/libutee/tee_api_operations.c:1753
    2c30:	e92d 43f0 	stmdb	sp!, {r4, r5, r6, r7, r8, r9, lr}
    2c34:	461e      	mov	r6, r3
/home/hsk/Desktop/devel/tee-tpm-hyp/optee_os/lib/libutee/tee_api_operations.c:1756
    2c36:	2318      	movs	r3, #24
/home/hsk/Desktop/devel/tee-tpm-hyp/optee_os/lib/libutee/tee_api_operations.c:1753
    2c38:	b089      	sub	sp, #36	; 0x24
    2c3a:	af00      	add	r7, sp, #0
    2c3c:	4688      	mov	r8, r1
/home/hsk/Desktop/devel/tee-tpm-hyp/optee_os/lib/libutee/tee_api_operations.c:1756
    2c3e:	4353      	muls	r3, r2
/home/hsk/Desktop/devel/tee-tpm-hyp/optee_os/lib/libutee/tee_api_operations.c:1753
    2c40:	4615      	mov	r5, r2
/home/hsk/Desktop/devel/tee-tpm-hyp/optee_os/lib/libutee/tee_api_operations.c:1758
    2c42:	4604      	mov	r4, r0
/home/hsk/Desktop/devel/tee-tpm-hyp/optee_os/lib/libutee/tee_api_operations.c:1756
    2c44:	3308      	adds	r3, #8
    2c46:	ebad 0d03 	sub.w	sp, sp, r3
    2c4a:	46e9      	mov	r9, sp
/home/hsk/Desktop/devel/tee-tpm-hyp/optee_os/lib/libutee/tee_api_operations.c:1758
    2c4c:	b100      	cbz	r0, 2c50 <TEE_DeriveKey+0x20>
/home/hsk/Desktop/devel/tee-tpm-hyp/optee_os/lib/libutee/tee_api_operations.c:1758 (discriminator 1)
    2c4e:	b916      	cbnz	r6, 2c56 <TEE_DeriveKey+0x26>
/home/hsk/Desktop/devel/tee-tpm-hyp/optee_os/lib/libutee/tee_api_operations.c:1759
    2c50:	2000      	movs	r0, #0
    2c52:	f004 ff2f 	bl	7ab4 <TEE_Panic>
/home/hsk/Desktop/devel/tee-tpm-hyp/optee_os/lib/libutee/tee_api_operations.c:1760
    2c56:	f1b8 0f00 	cmp.w	r8, #0
    2c5a:	d103      	bne.n	2c64 <TEE_DeriveKey+0x34>
/home/hsk/Desktop/devel/tee-tpm-hyp/optee_os/lib/libutee/tee_api_operations.c:1760 (discriminator 1)
    2c5c:	b115      	cbz	r5, 2c64 <TEE_DeriveKey+0x34>
/home/hsk/Desktop/devel/tee-tpm-hyp/optee_os/lib/libutee/tee_api_operations.c:1761
    2c5e:	4640      	mov	r0, r8
    2c60:	f004 ff28 	bl	7ab4 <TEE_Panic>
/home/hsk/Desktop/devel/tee-tpm-hyp/optee_os/lib/libutee/tee_api_operations.c:1762
    2c64:	6823      	ldr	r3, [r4, #0]
    2c66:	0f1b      	lsrs	r3, r3, #28
    2c68:	2b08      	cmp	r3, #8
    2c6a:	d002      	beq.n	2c72 <TEE_DeriveKey+0x42>
/home/hsk/Desktop/devel/tee-tpm-hyp/optee_os/lib/libutee/tee_api_operations.c:1764
    2c6c:	2000      	movs	r0, #0
    2c6e:	f004 ff21 	bl	7ab4 <TEE_Panic>
/home/hsk/Desktop/devel/tee-tpm-hyp/optee_os/lib/libutee/tee_api_operations.c:1766
    2c72:	6863      	ldr	r3, [r4, #4]
    2c74:	2b08      	cmp	r3, #8
    2c76:	d002      	beq.n	2c7e <TEE_DeriveKey+0x4e>
/home/hsk/Desktop/devel/tee-tpm-hyp/optee_os/lib/libutee/tee_api_operations.c:1767
    2c78:	2000      	movs	r0, #0
    2c7a:	f004 ff1b 	bl	7ab4 <TEE_Panic>
/home/hsk/Desktop/devel/tee-tpm-hyp/optee_os/lib/libutee/tee_api_operations.c:1768
    2c7e:	6a20      	ldr	r0, [r4, #32]
    2c80:	b908      	cbnz	r0, 2c86 <TEE_DeriveKey+0x56>
/home/hsk/Desktop/devel/tee-tpm-hyp/optee_os/lib/libutee/tee_api_operations.c:1769
    2c82:	f004 ff17 	bl	7ab4 <TEE_Panic>
/home/hsk/Desktop/devel/tee-tpm-hyp/optee_os/lib/libutee/tee_api_operations.c:1770
    2c86:	68a3      	ldr	r3, [r4, #8]
    2c88:	2b06      	cmp	r3, #6
    2c8a:	d002      	beq.n	2c92 <TEE_DeriveKey+0x62>
/home/hsk/Desktop/devel/tee-tpm-hyp/optee_os/lib/libutee/tee_api_operations.c:1771
    2c8c:	2000      	movs	r0, #0
    2c8e:	f004 ff11 	bl	7ab4 <TEE_Panic>
/home/hsk/Desktop/devel/tee-tpm-hyp/optee_os/lib/libutee/tee_api_operations.c:1772
    2c92:	69e0      	ldr	r0, [r4, #28]
    2c94:	f410 2080 	ands.w	r0, r0, #262144	; 0x40000
    2c98:	d101      	bne.n	2c9e <TEE_DeriveKey+0x6e>
/home/hsk/Desktop/devel/tee-tpm-hyp/optee_os/lib/libutee/tee_api_operations.c:1773
    2c9a:	f004 ff0b 	bl	7ab4 <TEE_Panic>
/home/hsk/Desktop/devel/tee-tpm-hyp/optee_os/lib/libutee/tee_api_operations.c:1775
    2c9e:	1d39      	adds	r1, r7, #4
    2ca0:	4630      	mov	r0, r6
    2ca2:	f000 ea48 	blx	3134 <utee_cryp_obj_get_info>
/home/hsk/Desktop/devel/tee-tpm-hyp/optee_os/lib/libutee/tee_api_operations.c:1776
    2ca6:	b108      	cbz	r0, 2cac <TEE_DeriveKey+0x7c>
/home/hsk/Desktop/devel/tee-tpm-hyp/optee_os/lib/libutee/tee_api_operations.c:1777
    2ca8:	f004 ff04 	bl	7ab4 <TEE_Panic>
/home/hsk/Desktop/devel/tee-tpm-hyp/optee_os/lib/libutee/tee_api_operations.c:1779
    2cac:	687b      	ldr	r3, [r7, #4]
    2cae:	f1b3 4f20 	cmp.w	r3, #2684354560	; 0xa0000000
    2cb2:	d002      	beq.n	2cba <TEE_DeriveKey+0x8a>
/home/hsk/Desktop/devel/tee-tpm-hyp/optee_os/lib/libutee/tee_api_operations.c:1780
    2cb4:	2000      	movs	r0, #0
    2cb6:	f004 fefd 	bl	7ab4 <TEE_Panic>
/home/hsk/Desktop/devel/tee-tpm-hyp/optee_os/lib/libutee/tee_api_operations.c:1781
    2cba:	69fb      	ldr	r3, [r7, #28]
    2cbc:	039b      	lsls	r3, r3, #14
    2cbe:	d502      	bpl.n	2cc6 <TEE_DeriveKey+0x96>
/home/hsk/Desktop/devel/tee-tpm-hyp/optee_os/lib/libutee/tee_api_operations.c:1782
    2cc0:	2000      	movs	r0, #0
    2cc2:	f004 fef7 	bl	7ab4 <TEE_Panic>
/home/hsk/Desktop/devel/tee-tpm-hyp/optee_os/lib/libutee/tee_api_operations.c:1784
    2cc6:	462a      	mov	r2, r5
    2cc8:	4641      	mov	r1, r8
    2cca:	4648      	mov	r0, r9
    2ccc:	f7fe f972 	bl	fb4 <__utee_from_attr>
/home/hsk/Desktop/devel/tee-tpm-hyp/optee_os/lib/libutee/tee_api_operations.c:1785
    2cd0:	4633      	mov	r3, r6
    2cd2:	462a      	mov	r2, r5
    2cd4:	4649      	mov	r1, r9
    2cd6:	6be0      	ldr	r0, [r4, #60]	; 0x3c
    2cd8:	f000 ea7c 	blx	31d4 <utee_cryp_derive_key>
/home/hsk/Desktop/devel/tee-tpm-hyp/optee_os/lib/libutee/tee_api_operations.c:1787
    2cdc:	b108      	cbz	r0, 2ce2 <TEE_DeriveKey+0xb2>
/home/hsk/Desktop/devel/tee-tpm-hyp/optee_os/lib/libutee/tee_api_operations.c:1788
    2cde:	f004 fee9 	bl	7ab4 <TEE_Panic>
/home/hsk/Desktop/devel/tee-tpm-hyp/optee_os/lib/libutee/tee_api_operations.c:1789
    2ce2:	3724      	adds	r7, #36	; 0x24
    2ce4:	46bd      	mov	sp, r7
    2ce6:	e8bd 83f0 	ldmia.w	sp!, {r4, r5, r6, r7, r8, r9, pc}

00002cea <TEE_GenerateRandom>:
TEE_GenerateRandom():
/home/hsk/Desktop/devel/tee-tpm-hyp/optee_os/lib/libutee/tee_api_operations.c:1794
    2cea:	b508      	push	{r3, lr}
/home/hsk/Desktop/devel/tee-tpm-hyp/optee_os/lib/libutee/tee_api_operations.c:1797
    2cec:	f000 ea7c 	blx	31e8 <utee_cryp_random_number_generate>
/home/hsk/Desktop/devel/tee-tpm-hyp/optee_os/lib/libutee/tee_api_operations.c:1798
    2cf0:	b118      	cbz	r0, 2cfa <TEE_GenerateRandom+0x10>
/home/hsk/Desktop/devel/tee-tpm-hyp/optee_os/lib/libutee/tee_api_operations.c:1800
    2cf2:	e8bd 4008 	ldmia.w	sp!, {r3, lr}
/home/hsk/Desktop/devel/tee-tpm-hyp/optee_os/lib/libutee/tee_api_operations.c:1799
    2cf6:	f004 bedd 	b.w	7ab4 <TEE_Panic>
/home/hsk/Desktop/devel/tee-tpm-hyp/optee_os/lib/libutee/tee_api_operations.c:1800
    2cfa:	bd08      	pop	{r3, pc}

00002cfc <rand>:
rand():
/home/hsk/Desktop/devel/tee-tpm-hyp/optee_os/lib/libutee/tee_api_operations.c:1803
    2cfc:	b507      	push	{r0, r1, r2, lr}
/home/hsk/Desktop/devel/tee-tpm-hyp/optee_os/lib/libutee/tee_api_operations.c:1806
    2cfe:	2104      	movs	r1, #4
    2d00:	eb0d 0001 	add.w	r0, sp, r1
    2d04:	f7ff fff1 	bl	2cea <TEE_GenerateRandom>
/home/hsk/Desktop/devel/tee-tpm-hyp/optee_os/lib/libutee/tee_api_operations.c:1813
    2d08:	9801      	ldr	r0, [sp, #4]
    2d0a:	f020 4000 	bic.w	r0, r0, #2147483648	; 0x80000000
    2d0e:	b003      	add	sp, #12
    2d10:	f85d fb04 	ldr.w	pc, [sp], #4

00002d14 <ta_header_get_session>:
ta_header_get_session():
/home/hsk/Desktop/devel/tee-tpm-hyp/optee_os/lib/libutee/arch/arm/user_ta_entry.c:81
    2d14:	4b05      	ldr	r3, [pc, #20]	; (2d2c <ta_header_get_session+0x18>)
    2d16:	447b      	add	r3, pc
    2d18:	681b      	ldr	r3, [r3, #0]
/home/hsk/Desktop/devel/tee-tpm-hyp/optee_os/lib/libutee/arch/arm/user_ta_entry.c:81 (discriminator 1)
    2d1a:	b90b      	cbnz	r3, 2d20 <ta_header_get_session+0xc>
/home/hsk/Desktop/devel/tee-tpm-hyp/optee_os/lib/libutee/arch/arm/user_ta_entry.c:86
    2d1c:	4618      	mov	r0, r3
    2d1e:	4770      	bx	lr
/home/hsk/Desktop/devel/tee-tpm-hyp/optee_os/lib/libutee/arch/arm/user_ta_entry.c:82
    2d20:	681a      	ldr	r2, [r3, #0]
    2d22:	4282      	cmp	r2, r0
    2d24:	d0fa      	beq.n	2d1c <ta_header_get_session+0x8>
/home/hsk/Desktop/devel/tee-tpm-hyp/optee_os/lib/libutee/arch/arm/user_ta_entry.c:81 (discriminator 2)
    2d26:	689b      	ldr	r3, [r3, #8]
    2d28:	e7f7      	b.n	2d1a <ta_header_get_session+0x6>
    2d2a:	bf00      	nop
    2d2c:	0000735a 	.word	0x0000735a

00002d30 <ta_header_remove_session>:
ta_header_remove_session():
/home/hsk/Desktop/devel/tee-tpm-hyp/optee_os/lib/libutee/arch/arm/user_ta_entry.c:119
    2d30:	4b14      	ldr	r3, [pc, #80]	; (2d84 <ta_header_remove_session+0x54>)
/home/hsk/Desktop/devel/tee-tpm-hyp/optee_os/lib/libutee/arch/arm/user_ta_entry.c:115
    2d32:	b510      	push	{r4, lr}
/home/hsk/Desktop/devel/tee-tpm-hyp/optee_os/lib/libutee/arch/arm/user_ta_entry.c:119
    2d34:	447b      	add	r3, pc
/home/hsk/Desktop/devel/tee-tpm-hyp/optee_os/lib/libutee/arch/arm/user_ta_entry.c:115
    2d36:	4c14      	ldr	r4, [pc, #80]	; (2d88 <ta_header_remove_session+0x58>)
/home/hsk/Desktop/devel/tee-tpm-hyp/optee_os/lib/libutee/arch/arm/user_ta_entry.c:119
    2d38:	681b      	ldr	r3, [r3, #0]
/home/hsk/Desktop/devel/tee-tpm-hyp/optee_os/lib/libutee/arch/arm/user_ta_entry.c:115
    2d3a:	447c      	add	r4, pc
/home/hsk/Desktop/devel/tee-tpm-hyp/optee_os/lib/libutee/arch/arm/user_ta_entry.c:119 (discriminator 1)
    2d3c:	b903      	cbnz	r3, 2d40 <ta_header_remove_session+0x10>
/home/hsk/Desktop/devel/tee-tpm-hyp/optee_os/lib/libutee/arch/arm/user_ta_entry.c:133
    2d3e:	bd10      	pop	{r4, pc}
/home/hsk/Desktop/devel/tee-tpm-hyp/optee_os/lib/libutee/arch/arm/user_ta_entry.c:120
    2d40:	6819      	ldr	r1, [r3, #0]
    2d42:	689a      	ldr	r2, [r3, #8]
    2d44:	4281      	cmp	r1, r0
    2d46:	d11b      	bne.n	2d80 <ta_header_remove_session+0x50>
    2d48:	68d9      	ldr	r1, [r3, #12]
/home/hsk/Desktop/devel/tee-tpm-hyp/optee_os/lib/libutee/arch/arm/user_ta_entry.c:121
    2d4a:	b1aa      	cbz	r2, 2d78 <ta_header_remove_session+0x48>
/home/hsk/Desktop/devel/tee-tpm-hyp/optee_os/lib/libutee/arch/arm/user_ta_entry.c:121 (discriminator 1)
    2d4c:	60d1      	str	r1, [r2, #12]
/home/hsk/Desktop/devel/tee-tpm-hyp/optee_os/lib/libutee/arch/arm/user_ta_entry.c:121 (discriminator 4)
    2d4e:	68d9      	ldr	r1, [r3, #12]
/home/hsk/Desktop/devel/tee-tpm-hyp/optee_os/lib/libutee/arch/arm/user_ta_entry.c:122 (discriminator 4)
    2d50:	4618      	mov	r0, r3
/home/hsk/Desktop/devel/tee-tpm-hyp/optee_os/lib/libutee/arch/arm/user_ta_entry.c:121 (discriminator 4)
    2d52:	600a      	str	r2, [r1, #0]
/home/hsk/Desktop/devel/tee-tpm-hyp/optee_os/lib/libutee/arch/arm/user_ta_entry.c:122 (discriminator 4)
    2d54:	f7fe f922 	bl	f9c <TEE_Free>
/home/hsk/Desktop/devel/tee-tpm-hyp/optee_os/lib/libutee/arch/arm/user_ta_entry.c:127 (discriminator 4)
    2d58:	4b0c      	ldr	r3, [pc, #48]	; (2d8c <ta_header_remove_session+0x5c>)
    2d5a:	447b      	add	r3, pc
    2d5c:	681b      	ldr	r3, [r3, #0]
    2d5e:	2b00      	cmp	r3, #0
    2d60:	d1ed      	bne.n	2d3e <ta_header_remove_session+0xe>
/home/hsk/Desktop/devel/tee-tpm-hyp/optee_os/lib/libutee/arch/arm/user_ta_entry.c:125 (discriminator 1)
    2d62:	4b0b      	ldr	r3, [pc, #44]	; (2d90 <ta_header_remove_session+0x60>)
    2d64:	58e3      	ldr	r3, [r4, r3]
    2d66:	695b      	ldr	r3, [r3, #20]
    2d68:	f003 0314 	and.w	r3, r3, #20
/home/hsk/Desktop/devel/tee-tpm-hyp/optee_os/lib/libutee/arch/arm/user_ta_entry.c:127 (discriminator 1)
    2d6c:	2b14      	cmp	r3, #20
    2d6e:	d0e6      	beq.n	2d3e <ta_header_remove_session+0xe>
/home/hsk/Desktop/devel/tee-tpm-hyp/optee_os/lib/libutee/arch/arm/user_ta_entry.c:133
    2d70:	e8bd 4010 	ldmia.w	sp!, {r4, lr}
uninit_instance():
/home/hsk/Desktop/devel/tee-tpm-hyp/optee_os/lib/libutee/arch/arm/user_ta_entry.c:63
    2d74:	f7fd b956 	b.w	24 <TA_DestroyEntryPoint>
ta_header_remove_session():
/home/hsk/Desktop/devel/tee-tpm-hyp/optee_os/lib/libutee/arch/arm/user_ta_entry.c:121 (discriminator 2)
    2d78:	4806      	ldr	r0, [pc, #24]	; (2d94 <ta_header_remove_session+0x64>)
    2d7a:	4478      	add	r0, pc
    2d7c:	6041      	str	r1, [r0, #4]
    2d7e:	e7e6      	b.n	2d4e <ta_header_remove_session+0x1e>
    2d80:	4613      	mov	r3, r2
    2d82:	e7db      	b.n	2d3c <ta_header_remove_session+0xc>
    2d84:	0000733c 	.word	0x0000733c
    2d88:	00006776 	.word	0x00006776
    2d8c:	00007316 	.word	0x00007316
    2d90:	00000034 	.word	0x00000034
    2d94:	000072f6 	.word	0x000072f6

00002d98 <__utee_entry>:
__utee_entry():
/home/hsk/Desktop/devel/tee-tpm-hyp/optee_os/lib/libutee/arch/arm/user_ta_entry.c:200
    2d98:	b580      	push	{r7, lr}
    2d9a:	4616      	mov	r6, r2
    2d9c:	4c59      	ldr	r4, [pc, #356]	; (2f04 <__utee_entry+0x16c>)
    2d9e:	b08c      	sub	sp, #48	; 0x30
    2da0:	460f      	mov	r7, r1
    2da2:	447c      	add	r4, pc
    2da4:	4698      	mov	r8, r3
/home/hsk/Desktop/devel/tee-tpm-hyp/optee_os/lib/libutee/arch/arm/user_ta_entry.c:211
    2da6:	2801      	cmp	r0, #1
    2da8:	d073      	beq.n	2e92 <__utee_entry+0xfa>
    2daa:	d307      	bcc.n	2dbc <__utee_entry+0x24>
    2dac:	2802      	cmp	r0, #2
    2dae:	d07c      	beq.n	2eaa <__utee_entry+0x112>
/home/hsk/Desktop/devel/tee-tpm-hyp/optee_os/lib/libutee/arch/arm/user_ta_entry.c:223
    2db0:	2000      	movs	r0, #0
/home/hsk/Desktop/devel/tee-tpm-hyp/optee_os/lib/libutee/arch/arm/user_ta_entry.c:222
    2db2:	f04f 34ff 	mov.w	r4, #4294967295	; 0xffffffff
/home/hsk/Desktop/devel/tee-tpm-hyp/optee_os/lib/libutee/arch/arm/user_ta_entry.c:223
    2db6:	f004 fe7d 	bl	7ab4 <TEE_Panic>
/home/hsk/Desktop/devel/tee-tpm-hyp/optee_os/lib/libutee/arch/arm/user_ta_entry.c:224
    2dba:	e026      	b.n	2e0a <__utee_entry+0x72>
ta_header_add_session():
/home/hsk/Desktop/devel/tee-tpm-hyp/optee_os/lib/libutee/arch/arm/user_ta_entry.c:90
    2dbc:	4608      	mov	r0, r1
    2dbe:	f7ff ffa9 	bl	2d14 <ta_header_get_session>
/home/hsk/Desktop/devel/tee-tpm-hyp/optee_os/lib/libutee/arch/arm/user_ta_entry.c:93
    2dc2:	2800      	cmp	r0, #0
    2dc4:	d138      	bne.n	2e38 <__utee_entry+0xa0>
/home/hsk/Desktop/devel/tee-tpm-hyp/optee_os/lib/libutee/arch/arm/user_ta_entry.c:96
    2dc6:	4b50      	ldr	r3, [pc, #320]	; (2f08 <__utee_entry+0x170>)
    2dc8:	447b      	add	r3, pc
    2dca:	781a      	ldrb	r2, [r3, #0]
    2dcc:	b13a      	cbz	r2, 2dde <__utee_entry+0x46>
/home/hsk/Desktop/devel/tee-tpm-hyp/optee_os/lib/libutee/arch/arm/user_ta_entry.c:103
    2dce:	f04f 4100 	mov.w	r1, #2147483648	; 0x80000000
    2dd2:	2010      	movs	r0, #16
    2dd4:	f7fe f8bb 	bl	f4e <TEE_Malloc>
/home/hsk/Desktop/devel/tee-tpm-hyp/optee_os/lib/libutee/arch/arm/user_ta_entry.c:105
    2dd8:	bb18      	cbnz	r0, 2e22 <__utee_entry+0x8a>
/home/hsk/Desktop/devel/tee-tpm-hyp/optee_os/lib/libutee/arch/arm/user_ta_entry.c:106
    2dda:	4c48      	ldr	r4, [pc, #288]	; (2efc <__utee_entry+0x164>)
    2ddc:	e015      	b.n	2e0a <__utee_entry+0x72>
/home/hsk/Desktop/devel/tee-tpm-hyp/optee_os/lib/libutee/arch/arm/user_ta_entry.c:97
    2dde:	2201      	movs	r2, #1
    2de0:	701a      	strb	r2, [r3, #0]
init_instance():
/home/hsk/Desktop/devel/tee-tpm-hyp/optee_os/lib/libutee/arch/arm/user_ta_entry.c:53
    2de2:	f004 fd9d 	bl	7920 <tahead_get_trace_level>
    2de6:	f7fd fa4a 	bl	27e <trace_set_level>
/home/hsk/Desktop/devel/tee-tpm-hyp/optee_os/lib/libutee/arch/arm/user_ta_entry.c:55
    2dea:	4b48      	ldr	r3, [pc, #288]	; (2f0c <__utee_entry+0x174>)
    2dec:	4a48      	ldr	r2, [pc, #288]	; (2f10 <__utee_entry+0x178>)
    2dee:	58e3      	ldr	r3, [r4, r3]
    2df0:	58a2      	ldr	r2, [r4, r2]
    2df2:	9201      	str	r2, [sp, #4]
    2df4:	6819      	ldr	r1, [r3, #0]
    2df6:	4610      	mov	r0, r2
    2df8:	f004 fbe4 	bl	75c4 <malloc_add_pool>
/home/hsk/Desktop/devel/tee-tpm-hyp/optee_os/lib/libutee/arch/arm/user_ta_entry.c:56
    2dfc:	f000 fdc6 	bl	398c <_TEE_MathAPI_Init>
/home/hsk/Desktop/devel/tee-tpm-hyp/optee_os/lib/libutee/arch/arm/user_ta_entry.c:57
    2e00:	f7fd f90e 	bl	20 <TA_CreateEntryPoint>
ta_header_add_session():
/home/hsk/Desktop/devel/tee-tpm-hyp/optee_os/lib/libutee/arch/arm/user_ta_entry.c:99
    2e04:	4604      	mov	r4, r0
    2e06:	2800      	cmp	r0, #0
    2e08:	d0e1      	beq.n	2dce <__utee_entry+0x36>
ta_header_save_params():
/home/hsk/Desktop/devel/tee-tpm-hyp/optee_os/lib/libutee/arch/arm/user_ta_entry.c:69
    2e0a:	4842      	ldr	r0, [pc, #264]	; (2f14 <__utee_entry+0x17c>)
    2e0c:	2100      	movs	r1, #0
/home/hsk/Desktop/devel/tee-tpm-hyp/optee_os/lib/libutee/arch/arm/user_ta_entry.c:74
    2e0e:	2220      	movs	r2, #32
/home/hsk/Desktop/devel/tee-tpm-hyp/optee_os/lib/libutee/arch/arm/user_ta_entry.c:69
    2e10:	4478      	add	r0, pc
/home/hsk/Desktop/devel/tee-tpm-hyp/optee_os/lib/libutee/arch/arm/user_ta_entry.c:74
    2e12:	3008      	adds	r0, #8
/home/hsk/Desktop/devel/tee-tpm-hyp/optee_os/lib/libutee/arch/arm/user_ta_entry.c:69
    2e14:	f840 1c04 	str.w	r1, [r0, #-4]
/home/hsk/Desktop/devel/tee-tpm-hyp/optee_os/lib/libutee/arch/arm/user_ta_entry.c:74
    2e18:	f004 fe97 	bl	7b4a <memset>
__utee_entry():
/home/hsk/Desktop/devel/tee-tpm-hyp/optee_os/lib/libutee/arch/arm/user_ta_entry.c:227
    2e1c:	4620      	mov	r0, r4
    2e1e:	f000 e88c 	blx	2f38 <utee_return>
ta_header_add_session():
/home/hsk/Desktop/devel/tee-tpm-hyp/optee_os/lib/libutee/arch/arm/user_ta_entry.c:108
    2e22:	2300      	movs	r3, #0
    2e24:	6043      	str	r3, [r0, #4]
/home/hsk/Desktop/devel/tee-tpm-hyp/optee_os/lib/libutee/arch/arm/user_ta_entry.c:109
    2e26:	6083      	str	r3, [r0, #8]
    2e28:	4b3b      	ldr	r3, [pc, #236]	; (2f18 <__utee_entry+0x180>)
/home/hsk/Desktop/devel/tee-tpm-hyp/optee_os/lib/libutee/arch/arm/user_ta_entry.c:107
    2e2a:	6007      	str	r7, [r0, #0]
/home/hsk/Desktop/devel/tee-tpm-hyp/optee_os/lib/libutee/arch/arm/user_ta_entry.c:109
    2e2c:	447b      	add	r3, pc
    2e2e:	685a      	ldr	r2, [r3, #4]
    2e30:	60c2      	str	r2, [r0, #12]
    2e32:	6010      	str	r0, [r2, #0]
    2e34:	3008      	adds	r0, #8
    2e36:	6058      	str	r0, [r3, #4]
entry_open_session():
/home/hsk/Desktop/devel/tee-tpm-hyp/optee_os/lib/libutee/arch/arm/user_ta_entry.c:147
    2e38:	4638      	mov	r0, r7
    2e3a:	f7ff ff6b 	bl	2d14 <ta_header_get_session>
/home/hsk/Desktop/devel/tee-tpm-hyp/optee_os/lib/libutee/arch/arm/user_ta_entry.c:148
    2e3e:	4681      	mov	r9, r0
    2e40:	2800      	cmp	r0, #0
    2e42:	d059      	beq.n	2ef8 <__utee_entry+0x160>
/home/hsk/Desktop/devel/tee-tpm-hyp/optee_os/lib/libutee/arch/arm/user_ta_entry.c:151
    2e44:	f10d 0810 	add.w	r8, sp, #16
ta_header_save_params():
/home/hsk/Desktop/devel/tee-tpm-hyp/optee_os/lib/libutee/arch/arm/user_ta_entry.c:69
    2e48:	4c34      	ldr	r4, [pc, #208]	; (2f1c <__utee_entry+0x184>)
/home/hsk/Desktop/devel/tee-tpm-hyp/optee_os/lib/libutee/arch/arm/user_ta_entry.c:72
    2e4a:	4645      	mov	r5, r8
entry_open_session():
/home/hsk/Desktop/devel/tee-tpm-hyp/optee_os/lib/libutee/arch/arm/user_ta_entry.c:151
    2e4c:	4632      	mov	r2, r6
    2e4e:	a903      	add	r1, sp, #12
    2e50:	4640      	mov	r0, r8
ta_header_save_params():
/home/hsk/Desktop/devel/tee-tpm-hyp/optee_os/lib/libutee/arch/arm/user_ta_entry.c:69
    2e52:	447c      	add	r4, pc
entry_open_session():
/home/hsk/Desktop/devel/tee-tpm-hyp/optee_os/lib/libutee/arch/arm/user_ta_entry.c:151
    2e54:	f7fd ff65 	bl	d22 <__utee_to_param>
ta_header_save_params():
/home/hsk/Desktop/devel/tee-tpm-hyp/optee_os/lib/libutee/arch/arm/user_ta_entry.c:72
    2e58:	cd0f      	ldmia	r5!, {r0, r1, r2, r3}
    2e5a:	3408      	adds	r4, #8
entry_open_session():
/home/hsk/Desktop/devel/tee-tpm-hyp/optee_os/lib/libutee/arch/arm/user_ta_entry.c:152
    2e5c:	f8dd c00c 	ldr.w	ip, [sp, #12]
ta_header_save_params():
/home/hsk/Desktop/devel/tee-tpm-hyp/optee_os/lib/libutee/arch/arm/user_ta_entry.c:69
    2e60:	f844 cc04 	str.w	ip, [r4, #-4]
/home/hsk/Desktop/devel/tee-tpm-hyp/optee_os/lib/libutee/arch/arm/user_ta_entry.c:72
    2e64:	c40f      	stmia	r4!, {r0, r1, r2, r3}
    2e66:	e895 000f 	ldmia.w	r5, {r0, r1, r2, r3}
    2e6a:	e884 000f 	stmia.w	r4, {r0, r1, r2, r3}
entry_open_session():
/home/hsk/Desktop/devel/tee-tpm-hyp/optee_os/lib/libutee/arch/arm/user_ta_entry.c:154
    2e6e:	f109 0204 	add.w	r2, r9, #4
    2e72:	4641      	mov	r1, r8
    2e74:	4660      	mov	r0, ip
    2e76:	f7fd f8d6 	bl	26 <TA_OpenSessionEntryPoint>
/home/hsk/Desktop/devel/tee-tpm-hyp/optee_os/lib/libutee/arch/arm/user_ta_entry.c:157
    2e7a:	4642      	mov	r2, r8
/home/hsk/Desktop/devel/tee-tpm-hyp/optee_os/lib/libutee/arch/arm/user_ta_entry.c:154
    2e7c:	4604      	mov	r4, r0
/home/hsk/Desktop/devel/tee-tpm-hyp/optee_os/lib/libutee/arch/arm/user_ta_entry.c:157
    2e7e:	9903      	ldr	r1, [sp, #12]
    2e80:	4630      	mov	r0, r6
    2e82:	f7fd ff27 	bl	cd4 <__utee_from_param>
/home/hsk/Desktop/devel/tee-tpm-hyp/optee_os/lib/libutee/arch/arm/user_ta_entry.c:159
    2e86:	2c00      	cmp	r4, #0
    2e88:	d0bf      	beq.n	2e0a <__utee_entry+0x72>
/home/hsk/Desktop/devel/tee-tpm-hyp/optee_os/lib/libutee/arch/arm/user_ta_entry.c:160
    2e8a:	4638      	mov	r0, r7
    2e8c:	f7ff ff50 	bl	2d30 <ta_header_remove_session>
    2e90:	e7bb      	b.n	2e0a <__utee_entry+0x72>
entry_close_session():
/home/hsk/Desktop/devel/tee-tpm-hyp/optee_os/lib/libutee/arch/arm/user_ta_entry.c:166
    2e92:	4608      	mov	r0, r1
    2e94:	f7ff ff3e 	bl	2d14 <ta_header_get_session>
/home/hsk/Desktop/devel/tee-tpm-hyp/optee_os/lib/libutee/arch/arm/user_ta_entry.c:168
    2e98:	b370      	cbz	r0, 2ef8 <__utee_entry+0x160>
/home/hsk/Desktop/devel/tee-tpm-hyp/optee_os/lib/libutee/arch/arm/user_ta_entry.c:171
    2e9a:	6840      	ldr	r0, [r0, #4]
/home/hsk/Desktop/devel/tee-tpm-hyp/optee_os/lib/libutee/arch/arm/user_ta_entry.c:174
    2e9c:	2400      	movs	r4, #0
/home/hsk/Desktop/devel/tee-tpm-hyp/optee_os/lib/libutee/arch/arm/user_ta_entry.c:171
    2e9e:	f7fd f8d3 	bl	48 <TA_CloseSessionEntryPoint>
/home/hsk/Desktop/devel/tee-tpm-hyp/optee_os/lib/libutee/arch/arm/user_ta_entry.c:173
    2ea2:	4638      	mov	r0, r7
    2ea4:	f7ff ff44 	bl	2d30 <ta_header_remove_session>
    2ea8:	e7af      	b.n	2e0a <__utee_entry+0x72>
entry_invoke_command():
/home/hsk/Desktop/devel/tee-tpm-hyp/optee_os/lib/libutee/arch/arm/user_ta_entry.c:183
    2eaa:	4608      	mov	r0, r1
    2eac:	f7ff ff32 	bl	2d14 <ta_header_get_session>
/home/hsk/Desktop/devel/tee-tpm-hyp/optee_os/lib/libutee/arch/arm/user_ta_entry.c:185
    2eb0:	4681      	mov	r9, r0
    2eb2:	b308      	cbz	r0, 2ef8 <__utee_entry+0x160>
/home/hsk/Desktop/devel/tee-tpm-hyp/optee_os/lib/libutee/arch/arm/user_ta_entry.c:188
    2eb4:	af04      	add	r7, sp, #16
ta_header_save_params():
/home/hsk/Desktop/devel/tee-tpm-hyp/optee_os/lib/libutee/arch/arm/user_ta_entry.c:69
    2eb6:	4c1a      	ldr	r4, [pc, #104]	; (2f20 <__utee_entry+0x188>)
/home/hsk/Desktop/devel/tee-tpm-hyp/optee_os/lib/libutee/arch/arm/user_ta_entry.c:72
    2eb8:	463d      	mov	r5, r7
entry_invoke_command():
/home/hsk/Desktop/devel/tee-tpm-hyp/optee_os/lib/libutee/arch/arm/user_ta_entry.c:188
    2eba:	4632      	mov	r2, r6
    2ebc:	a903      	add	r1, sp, #12
    2ebe:	4638      	mov	r0, r7
ta_header_save_params():
/home/hsk/Desktop/devel/tee-tpm-hyp/optee_os/lib/libutee/arch/arm/user_ta_entry.c:69
    2ec0:	447c      	add	r4, pc
entry_invoke_command():
/home/hsk/Desktop/devel/tee-tpm-hyp/optee_os/lib/libutee/arch/arm/user_ta_entry.c:188
    2ec2:	f7fd ff2e 	bl	d22 <__utee_to_param>
ta_header_save_params():
/home/hsk/Desktop/devel/tee-tpm-hyp/optee_os/lib/libutee/arch/arm/user_ta_entry.c:72
    2ec6:	cd0f      	ldmia	r5!, {r0, r1, r2, r3}
    2ec8:	3408      	adds	r4, #8
entry_invoke_command():
/home/hsk/Desktop/devel/tee-tpm-hyp/optee_os/lib/libutee/arch/arm/user_ta_entry.c:189
    2eca:	f8dd c00c 	ldr.w	ip, [sp, #12]
ta_header_save_params():
/home/hsk/Desktop/devel/tee-tpm-hyp/optee_os/lib/libutee/arch/arm/user_ta_entry.c:69
    2ece:	f844 cc04 	str.w	ip, [r4, #-4]
/home/hsk/Desktop/devel/tee-tpm-hyp/optee_os/lib/libutee/arch/arm/user_ta_entry.c:72
    2ed2:	c40f      	stmia	r4!, {r0, r1, r2, r3}
    2ed4:	e895 000f 	ldmia.w	r5, {r0, r1, r2, r3}
    2ed8:	e884 000f 	stmia.w	r4, {r0, r1, r2, r3}
entry_invoke_command():
/home/hsk/Desktop/devel/tee-tpm-hyp/optee_os/lib/libutee/arch/arm/user_ta_entry.c:191
    2edc:	4662      	mov	r2, ip
    2ede:	4641      	mov	r1, r8
    2ee0:	463b      	mov	r3, r7
    2ee2:	f8d9 0004 	ldr.w	r0, [r9, #4]
    2ee6:	f7fd f8b9 	bl	5c <TA_InvokeCommandEntryPoint>
/home/hsk/Desktop/devel/tee-tpm-hyp/optee_os/lib/libutee/arch/arm/user_ta_entry.c:194
    2eea:	463a      	mov	r2, r7
/home/hsk/Desktop/devel/tee-tpm-hyp/optee_os/lib/libutee/arch/arm/user_ta_entry.c:191
    2eec:	4604      	mov	r4, r0
/home/hsk/Desktop/devel/tee-tpm-hyp/optee_os/lib/libutee/arch/arm/user_ta_entry.c:194
    2eee:	9903      	ldr	r1, [sp, #12]
    2ef0:	4630      	mov	r0, r6
    2ef2:	f7fd feef 	bl	cd4 <__utee_from_param>
    2ef6:	e788      	b.n	2e0a <__utee_entry+0x72>
entry_close_session():
/home/hsk/Desktop/devel/tee-tpm-hyp/optee_os/lib/libutee/arch/arm/user_ta_entry.c:169
    2ef8:	4c01      	ldr	r4, [pc, #4]	; (2f00 <__utee_entry+0x168>)
    2efa:	e786      	b.n	2e0a <__utee_entry+0x72>
    2efc:	ffff000c 	.word	0xffff000c
    2f00:	ffff0007 	.word	0xffff0007
    2f04:	0000670e 	.word	0x0000670e
    2f08:	000072d0 	.word	0x000072d0
    2f0c:	0000000c 	.word	0x0000000c
    2f10:	00000024 	.word	0x00000024
    2f14:	00007288 	.word	0x00007288
    2f18:	00007244 	.word	0x00007244
    2f1c:	00007246 	.word	0x00007246
    2f20:	000071d8 	.word	0x000071d8

00002f24 <utee_panic>:
utee_panic():
/home/hsk/Desktop/devel/tee-tpm-hyp/optee_os/lib/libutee/arch/arm/utee_syscalls_a32.S:47
    2f24:	e92d4fff 	push	{r0, r1, r2, r3, r4, r5, r6, r7, r8, r9, sl, fp, lr}
/home/hsk/Desktop/devel/tee-tpm-hyp/optee_os/lib/libutee/arch/arm/utee_syscalls_a32.S:49
    2f28:	e1a0e00f 	mov	lr, pc
/home/hsk/Desktop/devel/tee-tpm-hyp/optee_os/lib/libutee/arch/arm/utee_syscalls_a32.S:50
    2f2c:	e52de004 	push	{lr}		; (str lr, [sp, #-4]!)
/home/hsk/Desktop/devel/tee-tpm-hyp/optee_os/lib/libutee/arch/arm/utee_syscalls_a32.S:52
    2f30:	e1a0100d 	mov	r1, sp
/home/hsk/Desktop/devel/tee-tpm-hyp/optee_os/lib/libutee/arch/arm/utee_syscalls_a32.S:53
    2f34:	eb000009 	bl	2f60 <__utee_panic>

00002f38 <utee_return>:
utee_return():
/home/hsk/Desktop/devel/tee-tpm-hyp/optee_os/lib/libutee/arch/arm/utee_syscalls_asm.S:8
    2f38:	e92d40e0 	push	{r5, r6, r7, lr}
    2f3c:	e3a07000 	mov	r7, #0
    2f40:	e3a06000 	mov	r6, #0
    2f44:	ef000000 	svc	0x00000000
    2f48:	e8bd80e0 	pop	{r5, r6, r7, pc}

00002f4c <utee_log>:
utee_log():
/home/hsk/Desktop/devel/tee-tpm-hyp/optee_os/lib/libutee/arch/arm/utee_syscalls_asm.S:10
    2f4c:	e92d40e0 	push	{r5, r6, r7, lr}
    2f50:	e3a07001 	mov	r7, #1
    2f54:	e3a06000 	mov	r6, #0
    2f58:	ef000000 	svc	0x00000000
    2f5c:	e8bd80e0 	pop	{r5, r6, r7, pc}

00002f60 <__utee_panic>:
__utee_panic():
/home/hsk/Desktop/devel/tee-tpm-hyp/optee_os/lib/libutee/arch/arm/utee_syscalls_asm.S:12
    2f60:	e92d40e0 	push	{r5, r6, r7, lr}
    2f64:	e3a07002 	mov	r7, #2
    2f68:	e3a06000 	mov	r6, #0
    2f6c:	ef000000 	svc	0x00000000
    2f70:	e8bd80e0 	pop	{r5, r6, r7, pc}

00002f74 <utee_get_property>:
utee_get_property():
/home/hsk/Desktop/devel/tee-tpm-hyp/optee_os/lib/libutee/arch/arm/utee_syscalls_asm.S:14
    2f74:	e92d40e0 	push	{r5, r6, r7, lr}
    2f78:	e3a07003 	mov	r7, #3
    2f7c:	e3a06003 	mov	r6, #3
    2f80:	e28d5010 	add	r5, sp, #16
    2f84:	ef000000 	svc	0x00000000
    2f88:	e8bd80e0 	pop	{r5, r6, r7, pc}

00002f8c <utee_get_property_name_to_index>:
utee_get_property_name_to_index():
/home/hsk/Desktop/devel/tee-tpm-hyp/optee_os/lib/libutee/arch/arm/utee_syscalls_asm.S:16
    2f8c:	e92d40e0 	push	{r5, r6, r7, lr}
    2f90:	e3a07004 	mov	r7, #4
    2f94:	e3a06000 	mov	r6, #0
    2f98:	ef000000 	svc	0x00000000
    2f9c:	e8bd80e0 	pop	{r5, r6, r7, pc}

00002fa0 <utee_open_ta_session>:
utee_open_ta_session():
/home/hsk/Desktop/devel/tee-tpm-hyp/optee_os/lib/libutee/arch/arm/utee_syscalls_asm.S:19
    2fa0:	e92d40e0 	push	{r5, r6, r7, lr}
    2fa4:	e3a07005 	mov	r7, #5
    2fa8:	e3a06001 	mov	r6, #1
    2fac:	e28d5010 	add	r5, sp, #16
    2fb0:	ef000000 	svc	0x00000000
    2fb4:	e8bd80e0 	pop	{r5, r6, r7, pc}

00002fb8 <utee_close_ta_session>:
utee_close_ta_session():
/home/hsk/Desktop/devel/tee-tpm-hyp/optee_os/lib/libutee/arch/arm/utee_syscalls_asm.S:21
    2fb8:	e92d40e0 	push	{r5, r6, r7, lr}
    2fbc:	e3a07006 	mov	r7, #6
    2fc0:	e3a06000 	mov	r6, #0
    2fc4:	ef000000 	svc	0x00000000
    2fc8:	e8bd80e0 	pop	{r5, r6, r7, pc}

00002fcc <utee_invoke_ta_command>:
utee_invoke_ta_command():
/home/hsk/Desktop/devel/tee-tpm-hyp/optee_os/lib/libutee/arch/arm/utee_syscalls_asm.S:23
    2fcc:	e92d40e0 	push	{r5, r6, r7, lr}
    2fd0:	e3a07007 	mov	r7, #7
    2fd4:	e3a06001 	mov	r6, #1
    2fd8:	e28d5010 	add	r5, sp, #16
    2fdc:	ef000000 	svc	0x00000000
    2fe0:	e8bd80e0 	pop	{r5, r6, r7, pc}

00002fe4 <utee_get_cancellation_flag>:
utee_get_cancellation_flag():
/home/hsk/Desktop/devel/tee-tpm-hyp/optee_os/lib/libutee/arch/arm/utee_syscalls_asm.S:25
    2fe4:	e92d40e0 	push	{r5, r6, r7, lr}
    2fe8:	e3a07009 	mov	r7, #9
    2fec:	e3a06000 	mov	r6, #0
    2ff0:	ef000000 	svc	0x00000000
    2ff4:	e8bd80e0 	pop	{r5, r6, r7, pc}

00002ff8 <utee_check_access_rights>:
utee_check_access_rights():
/home/hsk/Desktop/devel/tee-tpm-hyp/optee_os/lib/libutee/arch/arm/utee_syscalls_asm.S:28
    2ff8:	e92d40e0 	push	{r5, r6, r7, lr}
    2ffc:	e3a07008 	mov	r7, #8
    3000:	e3a06000 	mov	r6, #0
    3004:	ef000000 	svc	0x00000000
    3008:	e8bd80e0 	pop	{r5, r6, r7, pc}

0000300c <utee_unmask_cancellation>:
utee_unmask_cancellation():
/home/hsk/Desktop/devel/tee-tpm-hyp/optee_os/lib/libutee/arch/arm/utee_syscalls_asm.S:30
    300c:	e92d40e0 	push	{r5, r6, r7, lr}
    3010:	e3a0700a 	mov	r7, #10
    3014:	e3a06000 	mov	r6, #0
    3018:	ef000000 	svc	0x00000000
    301c:	e8bd80e0 	pop	{r5, r6, r7, pc}

00003020 <utee_mask_cancellation>:
utee_mask_cancellation():
/home/hsk/Desktop/devel/tee-tpm-hyp/optee_os/lib/libutee/arch/arm/utee_syscalls_asm.S:32
    3020:	e92d40e0 	push	{r5, r6, r7, lr}
    3024:	e3a0700b 	mov	r7, #11
    3028:	e3a06000 	mov	r6, #0
    302c:	ef000000 	svc	0x00000000
    3030:	e8bd80e0 	pop	{r5, r6, r7, pc}

00003034 <utee_wait>:
utee_wait():
/home/hsk/Desktop/devel/tee-tpm-hyp/optee_os/lib/libutee/arch/arm/utee_syscalls_asm.S:34
    3034:	e92d40e0 	push	{r5, r6, r7, lr}
    3038:	e3a0700c 	mov	r7, #12
    303c:	e3a06000 	mov	r6, #0
    3040:	ef000000 	svc	0x00000000
    3044:	e8bd80e0 	pop	{r5, r6, r7, pc}

00003048 <utee_get_time>:
utee_get_time():
/home/hsk/Desktop/devel/tee-tpm-hyp/optee_os/lib/libutee/arch/arm/utee_syscalls_asm.S:36
    3048:	e92d40e0 	push	{r5, r6, r7, lr}
    304c:	e3a0700d 	mov	r7, #13
    3050:	e3a06000 	mov	r6, #0
    3054:	ef000000 	svc	0x00000000
    3058:	e8bd80e0 	pop	{r5, r6, r7, pc}

0000305c <utee_set_ta_time>:
utee_set_ta_time():
/home/hsk/Desktop/devel/tee-tpm-hyp/optee_os/lib/libutee/arch/arm/utee_syscalls_asm.S:38
    305c:	e92d40e0 	push	{r5, r6, r7, lr}
    3060:	e3a0700e 	mov	r7, #14
    3064:	e3a06000 	mov	r6, #0
    3068:	ef000000 	svc	0x00000000
    306c:	e8bd80e0 	pop	{r5, r6, r7, pc}

00003070 <utee_cryp_state_alloc>:
utee_cryp_state_alloc():
/home/hsk/Desktop/devel/tee-tpm-hyp/optee_os/lib/libutee/arch/arm/utee_syscalls_asm.S:40
    3070:	e92d40e0 	push	{r5, r6, r7, lr}
    3074:	e3a0700f 	mov	r7, #15
    3078:	e3a06001 	mov	r6, #1
    307c:	e28d5010 	add	r5, sp, #16
    3080:	ef000000 	svc	0x00000000
    3084:	e8bd80e0 	pop	{r5, r6, r7, pc}

00003088 <utee_cryp_state_copy>:
utee_cryp_state_copy():
/home/hsk/Desktop/devel/tee-tpm-hyp/optee_os/lib/libutee/arch/arm/utee_syscalls_asm.S:42
    3088:	e92d40e0 	push	{r5, r6, r7, lr}
    308c:	e3a07010 	mov	r7, #16
    3090:	e3a06000 	mov	r6, #0
    3094:	ef000000 	svc	0x00000000
    3098:	e8bd80e0 	pop	{r5, r6, r7, pc}

0000309c <utee_cryp_state_free>:
utee_cryp_state_free():
/home/hsk/Desktop/devel/tee-tpm-hyp/optee_os/lib/libutee/arch/arm/utee_syscalls_asm.S:44
    309c:	e92d40e0 	push	{r5, r6, r7, lr}
    30a0:	e3a07011 	mov	r7, #17
    30a4:	e3a06000 	mov	r6, #0
    30a8:	ef000000 	svc	0x00000000
    30ac:	e8bd80e0 	pop	{r5, r6, r7, pc}

000030b0 <utee_hash_init>:
utee_hash_init():
/home/hsk/Desktop/devel/tee-tpm-hyp/optee_os/lib/libutee/arch/arm/utee_syscalls_asm.S:46
    30b0:	e92d40e0 	push	{r5, r6, r7, lr}
    30b4:	e3a07012 	mov	r7, #18
    30b8:	e3a06000 	mov	r6, #0
    30bc:	ef000000 	svc	0x00000000
    30c0:	e8bd80e0 	pop	{r5, r6, r7, pc}

000030c4 <utee_hash_update>:
utee_hash_update():
/home/hsk/Desktop/devel/tee-tpm-hyp/optee_os/lib/libutee/arch/arm/utee_syscalls_asm.S:48
    30c4:	e92d40e0 	push	{r5, r6, r7, lr}
    30c8:	e3a07013 	mov	r7, #19
    30cc:	e3a06000 	mov	r6, #0
    30d0:	ef000000 	svc	0x00000000
    30d4:	e8bd80e0 	pop	{r5, r6, r7, pc}

000030d8 <utee_hash_final>:
utee_hash_final():
/home/hsk/Desktop/devel/tee-tpm-hyp/optee_os/lib/libutee/arch/arm/utee_syscalls_asm.S:50
    30d8:	e92d40e0 	push	{r5, r6, r7, lr}
    30dc:	e3a07014 	mov	r7, #20
    30e0:	e3a06001 	mov	r6, #1
    30e4:	e28d5010 	add	r5, sp, #16
    30e8:	ef000000 	svc	0x00000000
    30ec:	e8bd80e0 	pop	{r5, r6, r7, pc}

000030f0 <utee_cipher_init>:
utee_cipher_init():
/home/hsk/Desktop/devel/tee-tpm-hyp/optee_os/lib/libutee/arch/arm/utee_syscalls_asm.S:52
    30f0:	e92d40e0 	push	{r5, r6, r7, lr}
    30f4:	e3a07015 	mov	r7, #21
    30f8:	e3a06000 	mov	r6, #0
    30fc:	ef000000 	svc	0x00000000
    3100:	e8bd80e0 	pop	{r5, r6, r7, pc}

00003104 <utee_cipher_update>:
utee_cipher_update():
/home/hsk/Desktop/devel/tee-tpm-hyp/optee_os/lib/libutee/arch/arm/utee_syscalls_asm.S:54
    3104:	e92d40e0 	push	{r5, r6, r7, lr}
    3108:	e3a07016 	mov	r7, #22
    310c:	e3a06001 	mov	r6, #1
    3110:	e28d5010 	add	r5, sp, #16
    3114:	ef000000 	svc	0x00000000
    3118:	e8bd80e0 	pop	{r5, r6, r7, pc}

0000311c <utee_cipher_final>:
utee_cipher_final():
/home/hsk/Desktop/devel/tee-tpm-hyp/optee_os/lib/libutee/arch/arm/utee_syscalls_asm.S:56
    311c:	e92d40e0 	push	{r5, r6, r7, lr}
    3120:	e3a07017 	mov	r7, #23
    3124:	e3a06001 	mov	r6, #1
    3128:	e28d5010 	add	r5, sp, #16
    312c:	ef000000 	svc	0x00000000
    3130:	e8bd80e0 	pop	{r5, r6, r7, pc}

00003134 <utee_cryp_obj_get_info>:
utee_cryp_obj_get_info():
/home/hsk/Desktop/devel/tee-tpm-hyp/optee_os/lib/libutee/arch/arm/utee_syscalls_asm.S:58
    3134:	e92d40e0 	push	{r5, r6, r7, lr}
    3138:	e3a07018 	mov	r7, #24
    313c:	e3a06000 	mov	r6, #0
    3140:	ef000000 	svc	0x00000000
    3144:	e8bd80e0 	pop	{r5, r6, r7, pc}

00003148 <utee_cryp_obj_restrict_usage>:
utee_cryp_obj_restrict_usage():
/home/hsk/Desktop/devel/tee-tpm-hyp/optee_os/lib/libutee/arch/arm/utee_syscalls_asm.S:60
    3148:	e92d40e0 	push	{r5, r6, r7, lr}
    314c:	e3a07019 	mov	r7, #25
    3150:	e3a06000 	mov	r6, #0
    3154:	ef000000 	svc	0x00000000
    3158:	e8bd80e0 	pop	{r5, r6, r7, pc}

0000315c <utee_cryp_obj_get_attr>:
utee_cryp_obj_get_attr():
/home/hsk/Desktop/devel/tee-tpm-hyp/optee_os/lib/libutee/arch/arm/utee_syscalls_asm.S:63
    315c:	e92d40e0 	push	{r5, r6, r7, lr}
    3160:	e3a0701a 	mov	r7, #26
    3164:	e3a06000 	mov	r6, #0
    3168:	ef000000 	svc	0x00000000
    316c:	e8bd80e0 	pop	{r5, r6, r7, pc}

00003170 <utee_cryp_obj_alloc>:
utee_cryp_obj_alloc():
/home/hsk/Desktop/devel/tee-tpm-hyp/optee_os/lib/libutee/arch/arm/utee_syscalls_asm.S:65
    3170:	e92d40e0 	push	{r5, r6, r7, lr}
    3174:	e3a0701b 	mov	r7, #27
    3178:	e3a06000 	mov	r6, #0
    317c:	ef000000 	svc	0x00000000
    3180:	e8bd80e0 	pop	{r5, r6, r7, pc}

00003184 <utee_cryp_obj_close>:
utee_cryp_obj_close():
/home/hsk/Desktop/devel/tee-tpm-hyp/optee_os/lib/libutee/arch/arm/utee_syscalls_asm.S:67
    3184:	e92d40e0 	push	{r5, r6, r7, lr}
    3188:	e3a0701c 	mov	r7, #28
    318c:	e3a06000 	mov	r6, #0
    3190:	ef000000 	svc	0x00000000
    3194:	e8bd80e0 	pop	{r5, r6, r7, pc}

00003198 <utee_cryp_obj_reset>:
utee_cryp_obj_reset():
/home/hsk/Desktop/devel/tee-tpm-hyp/optee_os/lib/libutee/arch/arm/utee_syscalls_asm.S:69
    3198:	e92d40e0 	push	{r5, r6, r7, lr}
    319c:	e3a0701d 	mov	r7, #29
    31a0:	e3a06000 	mov	r6, #0
    31a4:	ef000000 	svc	0x00000000
    31a8:	e8bd80e0 	pop	{r5, r6, r7, pc}

000031ac <utee_cryp_obj_populate>:
utee_cryp_obj_populate():
/home/hsk/Desktop/devel/tee-tpm-hyp/optee_os/lib/libutee/arch/arm/utee_syscalls_asm.S:71
    31ac:	e92d40e0 	push	{r5, r6, r7, lr}
    31b0:	e3a0701e 	mov	r7, #30
    31b4:	e3a06000 	mov	r6, #0
    31b8:	ef000000 	svc	0x00000000
    31bc:	e8bd80e0 	pop	{r5, r6, r7, pc}

000031c0 <utee_cryp_obj_copy>:
utee_cryp_obj_copy():
/home/hsk/Desktop/devel/tee-tpm-hyp/optee_os/lib/libutee/arch/arm/utee_syscalls_asm.S:73
    31c0:	e92d40e0 	push	{r5, r6, r7, lr}
    31c4:	e3a0701f 	mov	r7, #31
    31c8:	e3a06000 	mov	r6, #0
    31cc:	ef000000 	svc	0x00000000
    31d0:	e8bd80e0 	pop	{r5, r6, r7, pc}

000031d4 <utee_cryp_derive_key>:
utee_cryp_derive_key():
/home/hsk/Desktop/devel/tee-tpm-hyp/optee_os/lib/libutee/arch/arm/utee_syscalls_asm.S:75
    31d4:	e92d40e0 	push	{r5, r6, r7, lr}
    31d8:	e3a07020 	mov	r7, #32
    31dc:	e3a06000 	mov	r6, #0
    31e0:	ef000000 	svc	0x00000000
    31e4:	e8bd80e0 	pop	{r5, r6, r7, pc}

000031e8 <utee_cryp_random_number_generate>:
utee_cryp_random_number_generate():
/home/hsk/Desktop/devel/tee-tpm-hyp/optee_os/lib/libutee/arch/arm/utee_syscalls_asm.S:77
    31e8:	e92d40e0 	push	{r5, r6, r7, lr}
    31ec:	e3a07021 	mov	r7, #33	; 0x21
    31f0:	e3a06000 	mov	r6, #0
    31f4:	ef000000 	svc	0x00000000
    31f8:	e8bd80e0 	pop	{r5, r6, r7, pc}

000031fc <utee_authenc_init>:
utee_authenc_init():
/home/hsk/Desktop/devel/tee-tpm-hyp/optee_os/lib/libutee/arch/arm/utee_syscalls_asm.S:80
    31fc:	e92d40e0 	push	{r5, r6, r7, lr}
    3200:	e3a07022 	mov	r7, #34	; 0x22
    3204:	e3a06002 	mov	r6, #2
    3208:	e28d5010 	add	r5, sp, #16
    320c:	ef000000 	svc	0x00000000
    3210:	e8bd80e0 	pop	{r5, r6, r7, pc}

00003214 <utee_authenc_update_aad>:
utee_authenc_update_aad():
/home/hsk/Desktop/devel/tee-tpm-hyp/optee_os/lib/libutee/arch/arm/utee_syscalls_asm.S:82
    3214:	e92d40e0 	push	{r5, r6, r7, lr}
    3218:	e3a07023 	mov	r7, #35	; 0x23
    321c:	e3a06000 	mov	r6, #0
    3220:	ef000000 	svc	0x00000000
    3224:	e8bd80e0 	pop	{r5, r6, r7, pc}

00003228 <utee_authenc_update_payload>:
utee_authenc_update_payload():
/home/hsk/Desktop/devel/tee-tpm-hyp/optee_os/lib/libutee/arch/arm/utee_syscalls_asm.S:84
    3228:	e92d40e0 	push	{r5, r6, r7, lr}
    322c:	e3a07024 	mov	r7, #36	; 0x24
    3230:	e3a06001 	mov	r6, #1
    3234:	e28d5010 	add	r5, sp, #16
    3238:	ef000000 	svc	0x00000000
    323c:	e8bd80e0 	pop	{r5, r6, r7, pc}

00003240 <utee_authenc_enc_final>:
utee_authenc_enc_final():
/home/hsk/Desktop/devel/tee-tpm-hyp/optee_os/lib/libutee/arch/arm/utee_syscalls_asm.S:87
    3240:	e92d40e0 	push	{r5, r6, r7, lr}
    3244:	e3a07025 	mov	r7, #37	; 0x25
    3248:	e3a06003 	mov	r6, #3
    324c:	e28d5010 	add	r5, sp, #16
    3250:	ef000000 	svc	0x00000000
    3254:	e8bd80e0 	pop	{r5, r6, r7, pc}

00003258 <utee_authenc_dec_final>:
utee_authenc_dec_final():
/home/hsk/Desktop/devel/tee-tpm-hyp/optee_os/lib/libutee/arch/arm/utee_syscalls_asm.S:89
    3258:	e92d40e0 	push	{r5, r6, r7, lr}
    325c:	e3a07026 	mov	r7, #38	; 0x26
    3260:	e3a06003 	mov	r6, #3
    3264:	e28d5010 	add	r5, sp, #16
    3268:	ef000000 	svc	0x00000000
    326c:	e8bd80e0 	pop	{r5, r6, r7, pc}

00003270 <utee_asymm_operate>:
utee_asymm_operate():
/home/hsk/Desktop/devel/tee-tpm-hyp/optee_os/lib/libutee/arch/arm/utee_syscalls_asm.S:91
    3270:	e92d40e0 	push	{r5, r6, r7, lr}
    3274:	e3a07027 	mov	r7, #39	; 0x27
    3278:	e3a06003 	mov	r6, #3
    327c:	e28d5010 	add	r5, sp, #16
    3280:	ef000000 	svc	0x00000000
    3284:	e8bd80e0 	pop	{r5, r6, r7, pc}

00003288 <utee_asymm_verify>:
utee_asymm_verify():
/home/hsk/Desktop/devel/tee-tpm-hyp/optee_os/lib/libutee/arch/arm/utee_syscalls_asm.S:93
    3288:	e92d40e0 	push	{r5, r6, r7, lr}
    328c:	e3a07028 	mov	r7, #40	; 0x28
    3290:	e3a06003 	mov	r6, #3
    3294:	e28d5010 	add	r5, sp, #16
    3298:	ef000000 	svc	0x00000000
    329c:	e8bd80e0 	pop	{r5, r6, r7, pc}

000032a0 <utee_storage_obj_open>:
utee_storage_obj_open():
/home/hsk/Desktop/devel/tee-tpm-hyp/optee_os/lib/libutee/arch/arm/utee_syscalls_asm.S:95
    32a0:	e92d40e0 	push	{r5, r6, r7, lr}
    32a4:	e3a07029 	mov	r7, #41	; 0x29
    32a8:	e3a06001 	mov	r6, #1
    32ac:	e28d5010 	add	r5, sp, #16
    32b0:	ef000000 	svc	0x00000000
    32b4:	e8bd80e0 	pop	{r5, r6, r7, pc}

000032b8 <utee_storage_obj_create>:
utee_storage_obj_create():
/home/hsk/Desktop/devel/tee-tpm-hyp/optee_os/lib/libutee/arch/arm/utee_syscalls_asm.S:97
    32b8:	e92d40e0 	push	{r5, r6, r7, lr}
    32bc:	e3a0702a 	mov	r7, #42	; 0x2a
    32c0:	e3a06004 	mov	r6, #4
    32c4:	e28d5010 	add	r5, sp, #16
    32c8:	ef000000 	svc	0x00000000
    32cc:	e8bd80e0 	pop	{r5, r6, r7, pc}

000032d0 <utee_storage_obj_del>:
utee_storage_obj_del():
/home/hsk/Desktop/devel/tee-tpm-hyp/optee_os/lib/libutee/arch/arm/utee_syscalls_asm.S:99
    32d0:	e92d40e0 	push	{r5, r6, r7, lr}
    32d4:	e3a0702b 	mov	r7, #43	; 0x2b
    32d8:	e3a06000 	mov	r6, #0
    32dc:	ef000000 	svc	0x00000000
    32e0:	e8bd80e0 	pop	{r5, r6, r7, pc}

000032e4 <utee_storage_obj_rename>:
utee_storage_obj_rename():
/home/hsk/Desktop/devel/tee-tpm-hyp/optee_os/lib/libutee/arch/arm/utee_syscalls_asm.S:101
    32e4:	e92d40e0 	push	{r5, r6, r7, lr}
    32e8:	e3a0702c 	mov	r7, #44	; 0x2c
    32ec:	e3a06000 	mov	r6, #0
    32f0:	ef000000 	svc	0x00000000
    32f4:	e8bd80e0 	pop	{r5, r6, r7, pc}

000032f8 <utee_storage_alloc_enum>:
utee_storage_alloc_enum():
/home/hsk/Desktop/devel/tee-tpm-hyp/optee_os/lib/libutee/arch/arm/utee_syscalls_asm.S:103
    32f8:	e92d40e0 	push	{r5, r6, r7, lr}
    32fc:	e3a0702d 	mov	r7, #45	; 0x2d
    3300:	e3a06000 	mov	r6, #0
    3304:	ef000000 	svc	0x00000000
    3308:	e8bd80e0 	pop	{r5, r6, r7, pc}

0000330c <utee_storage_free_enum>:
utee_storage_free_enum():
/home/hsk/Desktop/devel/tee-tpm-hyp/optee_os/lib/libutee/arch/arm/utee_syscalls_asm.S:105
    330c:	e92d40e0 	push	{r5, r6, r7, lr}
    3310:	e3a0702e 	mov	r7, #46	; 0x2e
    3314:	e3a06000 	mov	r6, #0
    3318:	ef000000 	svc	0x00000000
    331c:	e8bd80e0 	pop	{r5, r6, r7, pc}

00003320 <utee_storage_reset_enum>:
utee_storage_reset_enum():
/home/hsk/Desktop/devel/tee-tpm-hyp/optee_os/lib/libutee/arch/arm/utee_syscalls_asm.S:107
    3320:	e92d40e0 	push	{r5, r6, r7, lr}
    3324:	e3a0702f 	mov	r7, #47	; 0x2f
    3328:	e3a06000 	mov	r6, #0
    332c:	ef000000 	svc	0x00000000
    3330:	e8bd80e0 	pop	{r5, r6, r7, pc}

00003334 <utee_storage_start_enum>:
utee_storage_start_enum():
/home/hsk/Desktop/devel/tee-tpm-hyp/optee_os/lib/libutee/arch/arm/utee_syscalls_asm.S:109
    3334:	e92d40e0 	push	{r5, r6, r7, lr}
    3338:	e3a07030 	mov	r7, #48	; 0x30
    333c:	e3a06000 	mov	r6, #0
    3340:	ef000000 	svc	0x00000000
    3344:	e8bd80e0 	pop	{r5, r6, r7, pc}

00003348 <utee_storage_next_enum>:
utee_storage_next_enum():
/home/hsk/Desktop/devel/tee-tpm-hyp/optee_os/lib/libutee/arch/arm/utee_syscalls_asm.S:111
    3348:	e92d40e0 	push	{r5, r6, r7, lr}
    334c:	e3a07031 	mov	r7, #49	; 0x31
    3350:	e3a06000 	mov	r6, #0
    3354:	ef000000 	svc	0x00000000
    3358:	e8bd80e0 	pop	{r5, r6, r7, pc}

0000335c <utee_storage_obj_read>:
utee_storage_obj_read():
/home/hsk/Desktop/devel/tee-tpm-hyp/optee_os/lib/libutee/arch/arm/utee_syscalls_asm.S:113
    335c:	e92d40e0 	push	{r5, r6, r7, lr}
    3360:	e3a07032 	mov	r7, #50	; 0x32
    3364:	e3a06000 	mov	r6, #0
    3368:	ef000000 	svc	0x00000000
    336c:	e8bd80e0 	pop	{r5, r6, r7, pc}

00003370 <utee_storage_obj_write>:
utee_storage_obj_write():
/home/hsk/Desktop/devel/tee-tpm-hyp/optee_os/lib/libutee/arch/arm/utee_syscalls_asm.S:115
    3370:	e92d40e0 	push	{r5, r6, r7, lr}
    3374:	e3a07033 	mov	r7, #51	; 0x33
    3378:	e3a06000 	mov	r6, #0
    337c:	ef000000 	svc	0x00000000
    3380:	e8bd80e0 	pop	{r5, r6, r7, pc}

00003384 <utee_storage_obj_trunc>:
utee_storage_obj_trunc():
/home/hsk/Desktop/devel/tee-tpm-hyp/optee_os/lib/libutee/arch/arm/utee_syscalls_asm.S:117
    3384:	e92d40e0 	push	{r5, r6, r7, lr}
    3388:	e3a07034 	mov	r7, #52	; 0x34
    338c:	e3a06000 	mov	r6, #0
    3390:	ef000000 	svc	0x00000000
    3394:	e8bd80e0 	pop	{r5, r6, r7, pc}

00003398 <utee_storage_obj_seek>:
utee_storage_obj_seek():
/home/hsk/Desktop/devel/tee-tpm-hyp/optee_os/lib/libutee/arch/arm/utee_syscalls_asm.S:119
    3398:	e92d40e0 	push	{r5, r6, r7, lr}
    339c:	e3a07035 	mov	r7, #53	; 0x35
    33a0:	e3a06000 	mov	r6, #0
    33a4:	ef000000 	svc	0x00000000
    33a8:	e8bd80e0 	pop	{r5, r6, r7, pc}

000033ac <utee_cryp_obj_generate_key>:
utee_cryp_obj_generate_key():
/home/hsk/Desktop/devel/tee-tpm-hyp/optee_os/lib/libutee/arch/arm/utee_syscalls_asm.S:121
    33ac:	e92d40e0 	push	{r5, r6, r7, lr}
    33b0:	e3a07036 	mov	r7, #54	; 0x36
    33b4:	e3a06000 	mov	r6, #0
    33b8:	ef000000 	svc	0x00000000
    33bc:	e8bd80e0 	pop	{r5, r6, r7, pc}

000033c0 <utee_cache_operation>:
utee_cache_operation():
/home/hsk/Desktop/devel/tee-tpm-hyp/optee_os/lib/libutee/arch/arm/utee_syscalls_asm.S:124
    33c0:	e92d40e0 	push	{r5, r6, r7, lr}
    33c4:	e3a07046 	mov	r7, #70	; 0x46
    33c8:	e3a06000 	mov	r6, #0
    33cc:	ef000000 	svc	0x00000000
    33d0:	e8bd80e0 	pop	{r5, r6, r7, pc}

000033d4 <__utee_mcount>:
__utee_mcount():
/home/hsk/Desktop/devel/tee-tpm-hyp/optee_os/lib/libutee/arch/arm/gprof/gprof_a32.S:49
    33d4:	e52de004 	push	{lr}		; (str lr, [sp, #-4]!)
/home/hsk/Desktop/devel/tee-tpm-hyp/optee_os/lib/libutee/arch/arm/gprof/gprof_a32.S:50
    33d8:	e8bd5000 	pop	{ip, lr}
/home/hsk/Desktop/devel/tee-tpm-hyp/optee_os/lib/libutee/arch/arm/gprof/gprof_a32.S:51
    33dc:	e12fff1c 	bx	ip

000033e0 <mpi_panic>:
mpi_panic():
/home/hsk/Desktop/devel/tee-tpm-hyp/optee_os/lib/libutee/tee_api_arith_mpi.c:29
    33e0:	b508      	push	{r3, lr}
/home/hsk/Desktop/devel/tee-tpm-hyp/optee_os/lib/libutee/tee_api_arith_mpi.c:30
    33e2:	4613      	mov	r3, r2
    33e4:	460a      	mov	r2, r1
    33e6:	4601      	mov	r1, r0
    33e8:	4804      	ldr	r0, [pc, #16]	; (33fc <mpi_panic+0x1c>)
    33ea:	4478      	add	r0, pc
    33ec:	f7fd fc31 	bl	c52 <printf>
/home/hsk/Desktop/devel/tee-tpm-hyp/optee_os/lib/libutee/tee_api_arith_mpi.c:31
    33f0:	4801      	ldr	r0, [pc, #4]	; (33f8 <mpi_panic+0x18>)
    33f2:	f004 fb5f 	bl	7ab4 <TEE_Panic>
    33f6:	e7fe      	b.n	33f6 <mpi_panic+0x16>
    33f8:	00b16127 	.word	0x00b16127
    33fc:	00004f0c 	.word	0x00004f0c

00003400 <get_mpi>:
get_mpi():
/home/hsk/Desktop/devel/tee-tpm-hyp/optee_os/lib/libutee/tee_api_arith_mpi.c:81
    3400:	b507      	push	{r0, r1, r2, lr}
/home/hsk/Desktop/devel/tee-tpm-hyp/optee_os/lib/libutee/tee_api_arith_mpi.c:96
    3402:	b151      	cbz	r1, 341a <get_mpi+0x1a>
init_static_mpi():
/home/hsk/Desktop/devel/tee-tpm-hyp/optee_os/lib/libutee/tee_api_arith_mpi.c:65
    3404:	88ca      	ldrh	r2, [r1, #6]
    3406:	888b      	ldrh	r3, [r1, #4]
    3408:	3108      	adds	r1, #8
    340a:	9200      	str	r2, [sp, #0]
    340c:	f851 2c08 	ldr.w	r2, [r1, #-8]
    3410:	f001 fad2 	bl	49b8 <mbedtls_mpi_init_static>
get_mpi():
/home/hsk/Desktop/devel/tee-tpm-hyp/optee_os/lib/libutee/tee_api_arith_mpi.c:100
    3414:	b003      	add	sp, #12
    3416:	f85d fb04 	ldr.w	pc, [sp], #4
    341a:	b003      	add	sp, #12
    341c:	f85d eb04 	ldr.w	lr, [sp], #4
/home/hsk/Desktop/devel/tee-tpm-hyp/optee_os/lib/libutee/tee_api_arith_mpi.c:99
    3420:	f001 bab8 	b.w	4994 <mbedtls_mpi_init_mempool>

00003424 <mpi_is_odd>:
mpi_is_odd():
/home/hsk/Desktop/devel/tee-tpm-hyp/optee_os/lib/libutee/tee_api_arith_mpi.c:599
    3424:	b508      	push	{r3, lr}
/home/hsk/Desktop/devel/tee-tpm-hyp/optee_os/lib/libutee/tee_api_arith_mpi.c:600
    3426:	2100      	movs	r1, #0
    3428:	f001 fc87 	bl	4d3a <mbedtls_mpi_get_bit>
/home/hsk/Desktop/devel/tee-tpm-hyp/optee_os/lib/libutee/tee_api_arith_mpi.c:601
    342c:	3000      	adds	r0, #0
    342e:	bf18      	it	ne
    3430:	2001      	movne	r0, #1
    3432:	bd08      	pop	{r3, pc}

00003434 <rng_read>:
rng_read():
/home/hsk/Desktop/devel/tee-tpm-hyp/optee_os/lib/libutee/tee_api_arith_mpi.c:763
    3434:	b508      	push	{r3, lr}
    3436:	4608      	mov	r0, r1
/home/hsk/Desktop/devel/tee-tpm-hyp/optee_os/lib/libutee/tee_api_arith_mpi.c:764
    3438:	4611      	mov	r1, r2
    343a:	f7ff eed6 	blx	31e8 <utee_cryp_random_number_generate>
    343e:	2800      	cmp	r0, #0
/home/hsk/Desktop/devel/tee-tpm-hyp/optee_os/lib/libutee/tee_api_arith_mpi.c:767
    3440:	f06f 0001 	mvn.w	r0, #1
    3444:	bf08      	it	eq
    3446:	2000      	moveq	r0, #0
    3448:	bd08      	pop	{r3, pc}

0000344a <put_mpi>:
put_mpi():
/home/hsk/Desktop/devel/tee-tpm-hyp/optee_os/lib/libutee/tee_api_arith_mpi.c:128
    344a:	7842      	ldrb	r2, [r0, #1]
    344c:	2a02      	cmp	r2, #2
    344e:	d108      	bne.n	3462 <put_mpi+0x18>
/home/hsk/Desktop/devel/tee-tpm-hyp/optee_os/lib/libutee/tee_api_arith_mpi.c:129
    3450:	6882      	ldr	r2, [r0, #8]
/home/hsk/Desktop/devel/tee-tpm-hyp/optee_os/lib/libutee/tee_api_arith_mpi.c:131
    3452:	f990 1000 	ldrsb.w	r1, [r0]
/home/hsk/Desktop/devel/tee-tpm-hyp/optee_os/lib/libutee/tee_api_arith_mpi.c:132
    3456:	8883      	ldrh	r3, [r0, #4]
/home/hsk/Desktop/devel/tee-tpm-hyp/optee_os/lib/libutee/tee_api_arith_mpi.c:131
    3458:	f842 1c08 	str.w	r1, [r2, #-8]
/home/hsk/Desktop/devel/tee-tpm-hyp/optee_os/lib/libutee/tee_api_arith_mpi.c:132
    345c:	f822 3c02 	strh.w	r3, [r2, #-2]
/home/hsk/Desktop/devel/tee-tpm-hyp/optee_os/lib/libutee/tee_api_arith_mpi.c:136
    3460:	4770      	bx	lr
/home/hsk/Desktop/devel/tee-tpm-hyp/optee_os/lib/libutee/tee_api_arith_mpi.c:134
    3462:	f001 bab2 	b.w	49ca <mbedtls_mpi_free>

00003466 <mpi_egcd>:
mpi_egcd():
/home/hsk/Desktop/devel/tee-tpm-hyp/optee_os/lib/libutee/tee_api_arith_mpi.c:614
    3466:	e92d 4ff0 	stmdb	sp!, {r4, r5, r6, r7, r8, r9, sl, fp, lr}
    346a:	4681      	mov	r9, r0
    346c:	b09b      	sub	sp, #108	; 0x6c
get_mpi():
/home/hsk/Desktop/devel/tee-tpm-hyp/optee_os/lib/libutee/tee_api_arith_mpi.c:99
    346e:	f10d 0814 	add.w	r8, sp, #20
    3472:	af08      	add	r7, sp, #32
    3474:	4640      	mov	r0, r8
    3476:	ad0b      	add	r5, sp, #44	; 0x2c
mpi_egcd():
/home/hsk/Desktop/devel/tee-tpm-hyp/optee_os/lib/libutee/tee_api_arith_mpi.c:614
    3478:	9102      	str	r1, [sp, #8]
get_mpi():
/home/hsk/Desktop/devel/tee-tpm-hyp/optee_os/lib/libutee/tee_api_arith_mpi.c:99
    347a:	ac0e      	add	r4, sp, #56	; 0x38
mpi_egcd():
/home/hsk/Desktop/devel/tee-tpm-hyp/optee_os/lib/libutee/tee_api_arith_mpi.c:614
    347c:	9203      	str	r2, [sp, #12]
get_mpi():
/home/hsk/Desktop/devel/tee-tpm-hyp/optee_os/lib/libutee/tee_api_arith_mpi.c:99
    347e:	f10d 0a44 	add.w	sl, sp, #68	; 0x44
mpi_egcd():
/home/hsk/Desktop/devel/tee-tpm-hyp/optee_os/lib/libutee/tee_api_arith_mpi.c:614
    3482:	9301      	str	r3, [sp, #4]
get_mpi():
/home/hsk/Desktop/devel/tee-tpm-hyp/optee_os/lib/libutee/tee_api_arith_mpi.c:99
    3484:	f001 fa86 	bl	4994 <mbedtls_mpi_init_mempool>
    3488:	4638      	mov	r0, r7
    348a:	f10d 0b50 	add.w	fp, sp, #80	; 0x50
    348e:	f001 fa81 	bl	4994 <mbedtls_mpi_init_mempool>
    3492:	4628      	mov	r0, r5
    3494:	f001 fa7e 	bl	4994 <mbedtls_mpi_init_mempool>
    3498:	4620      	mov	r0, r4
    349a:	f001 fa7b 	bl	4994 <mbedtls_mpi_init_mempool>
    349e:	4650      	mov	r0, sl
    34a0:	f001 fa78 	bl	4994 <mbedtls_mpi_init_mempool>
    34a4:	ae17      	add	r6, sp, #92	; 0x5c
    34a6:	4658      	mov	r0, fp
    34a8:	f001 fa74 	bl	4994 <mbedtls_mpi_init_mempool>
    34ac:	4630      	mov	r0, r6
    34ae:	f001 fa71 	bl	4994 <mbedtls_mpi_init_mempool>
mpi_egcd():
/home/hsk/Desktop/devel/tee-tpm-hyp/optee_os/lib/libutee/tee_api_arith_mpi.c:633
    34b2:	2100      	movs	r1, #0
    34b4:	9824      	ldr	r0, [sp, #144]	; 0x90
    34b6:	f001 fe12 	bl	50de <mbedtls_mpi_cmp_int>
    34ba:	bb18      	cbnz	r0, 3504 <mpi_egcd+0x9e>
/home/hsk/Desktop/devel/tee-tpm-hyp/optee_os/lib/libutee/tee_api_arith_mpi.c:634
    34bc:	2101      	movs	r1, #1
    34be:	9802      	ldr	r0, [sp, #8]
    34c0:	f001 fc1f 	bl	4d02 <mbedtls_mpi_lset>
    34c4:	4602      	mov	r2, r0
    34c6:	b128      	cbz	r0, 34d4 <mpi_egcd+0x6e>
/home/hsk/Desktop/devel/tee-tpm-hyp/optee_os/lib/libutee/tee_api_arith_mpi.c:634 (discriminator 1)
    34c8:	48dd      	ldr	r0, [pc, #884]	; (3840 <mpi_egcd+0x3da>)
    34ca:	f240 217a 	movw	r1, #634	; 0x27a
    34ce:	4478      	add	r0, pc
/home/hsk/Desktop/devel/tee-tpm-hyp/optee_os/lib/libutee/tee_api_arith_mpi.c:635 (discriminator 1)
    34d0:	f7ff ff86 	bl	33e0 <mpi_panic>
/home/hsk/Desktop/devel/tee-tpm-hyp/optee_os/lib/libutee/tee_api_arith_mpi.c:635
    34d4:	4601      	mov	r1, r0
    34d6:	9803      	ldr	r0, [sp, #12]
    34d8:	f001 fc13 	bl	4d02 <mbedtls_mpi_lset>
    34dc:	4602      	mov	r2, r0
    34de:	b120      	cbz	r0, 34ea <mpi_egcd+0x84>
/home/hsk/Desktop/devel/tee-tpm-hyp/optee_os/lib/libutee/tee_api_arith_mpi.c:635 (discriminator 1)
    34e0:	48d8      	ldr	r0, [pc, #864]	; (3844 <mpi_egcd+0x3de>)
    34e2:	f240 217b 	movw	r1, #635	; 0x27b
    34e6:	4478      	add	r0, pc
    34e8:	e7f2      	b.n	34d0 <mpi_egcd+0x6a>
/home/hsk/Desktop/devel/tee-tpm-hyp/optee_os/lib/libutee/tee_api_arith_mpi.c:636
    34ea:	9901      	ldr	r1, [sp, #4]
    34ec:	4648      	mov	r0, r9
    34ee:	f001 fb4d 	bl	4b8c <mbedtls_mpi_copy>
    34f2:	4602      	mov	r2, r0
    34f4:	2800      	cmp	r0, #0
    34f6:	f000 818a 	beq.w	380e <mpi_egcd+0x3a8>
/home/hsk/Desktop/devel/tee-tpm-hyp/optee_os/lib/libutee/tee_api_arith_mpi.c:636 (discriminator 1)
    34fa:	48d3      	ldr	r0, [pc, #844]	; (3848 <mpi_egcd+0x3e2>)
    34fc:	f44f 711f 	mov.w	r1, #636	; 0x27c
    3500:	4478      	add	r0, pc
    3502:	e7e5      	b.n	34d0 <mpi_egcd+0x6a>
/home/hsk/Desktop/devel/tee-tpm-hyp/optee_os/lib/libutee/tee_api_arith_mpi.c:640
    3504:	9901      	ldr	r1, [sp, #4]
    3506:	4650      	mov	r0, sl
    3508:	f001 fb40 	bl	4b8c <mbedtls_mpi_copy>
    350c:	4602      	mov	r2, r0
    350e:	b120      	cbz	r0, 351a <mpi_egcd+0xb4>
/home/hsk/Desktop/devel/tee-tpm-hyp/optee_os/lib/libutee/tee_api_arith_mpi.c:640 (discriminator 1)
    3510:	48ce      	ldr	r0, [pc, #824]	; (384c <mpi_egcd+0x3e6>)
    3512:	f44f 7120 	mov.w	r1, #640	; 0x280
    3516:	4478      	add	r0, pc
    3518:	e7da      	b.n	34d0 <mpi_egcd+0x6a>
/home/hsk/Desktop/devel/tee-tpm-hyp/optee_os/lib/libutee/tee_api_arith_mpi.c:641
    351a:	9924      	ldr	r1, [sp, #144]	; 0x90
    351c:	4658      	mov	r0, fp
    351e:	f001 fb35 	bl	4b8c <mbedtls_mpi_copy>
    3522:	4602      	mov	r2, r0
    3524:	b178      	cbz	r0, 3546 <mpi_egcd+0xe0>
/home/hsk/Desktop/devel/tee-tpm-hyp/optee_os/lib/libutee/tee_api_arith_mpi.c:641 (discriminator 1)
    3526:	48ca      	ldr	r0, [pc, #808]	; (3850 <mpi_egcd+0x3ea>)
    3528:	f240 2181 	movw	r1, #641	; 0x281
    352c:	4478      	add	r0, pc
    352e:	e7cf      	b.n	34d0 <mpi_egcd+0x6a>
/home/hsk/Desktop/devel/tee-tpm-hyp/optee_os/lib/libutee/tee_api_arith_mpi.c:647
    3530:	2101      	movs	r1, #1
    3532:	4658      	mov	r0, fp
    3534:	f001 fd18 	bl	4f68 <mbedtls_mpi_shift_r>
    3538:	4602      	mov	r2, r0
    353a:	b128      	cbz	r0, 3548 <mpi_egcd+0xe2>
/home/hsk/Desktop/devel/tee-tpm-hyp/optee_os/lib/libutee/tee_api_arith_mpi.c:647 (discriminator 1)
    353c:	48c5      	ldr	r0, [pc, #788]	; (3854 <mpi_egcd+0x3ee>)
    353e:	f240 2187 	movw	r1, #647	; 0x287
    3542:	4478      	add	r0, pc
    3544:	e7c4      	b.n	34d0 <mpi_egcd+0x6a>
/home/hsk/Desktop/devel/tee-tpm-hyp/optee_os/lib/libutee/tee_api_arith_mpi.c:643
    3546:	9001      	str	r0, [sp, #4]
mpi_is_even():
/home/hsk/Desktop/devel/tee-tpm-hyp/optee_os/lib/libutee/tee_api_arith_mpi.c:605
    3548:	4650      	mov	r0, sl
    354a:	f7ff ff6b 	bl	3424 <mpi_is_odd>
mpi_egcd():
/home/hsk/Desktop/devel/tee-tpm-hyp/optee_os/lib/libutee/tee_api_arith_mpi.c:644
    354e:	b150      	cbz	r0, 3566 <mpi_egcd+0x100>
/home/hsk/Desktop/devel/tee-tpm-hyp/optee_os/lib/libutee/tee_api_arith_mpi.c:650
    3550:	4651      	mov	r1, sl
    3552:	4630      	mov	r0, r6
    3554:	f001 fb1a 	bl	4b8c <mbedtls_mpi_copy>
    3558:	4602      	mov	r2, r0
    355a:	b1c0      	cbz	r0, 358e <mpi_egcd+0x128>
/home/hsk/Desktop/devel/tee-tpm-hyp/optee_os/lib/libutee/tee_api_arith_mpi.c:650 (discriminator 1)
    355c:	48be      	ldr	r0, [pc, #760]	; (3858 <mpi_egcd+0x3f2>)
    355e:	f240 218a 	movw	r1, #650	; 0x28a
    3562:	4478      	add	r0, pc
    3564:	e7b4      	b.n	34d0 <mpi_egcd+0x6a>
mpi_is_even():
/home/hsk/Desktop/devel/tee-tpm-hyp/optee_os/lib/libutee/tee_api_arith_mpi.c:605
    3566:	4658      	mov	r0, fp
    3568:	f7ff ff5c 	bl	3424 <mpi_is_odd>
mpi_egcd():
/home/hsk/Desktop/devel/tee-tpm-hyp/optee_os/lib/libutee/tee_api_arith_mpi.c:644
    356c:	2800      	cmp	r0, #0
    356e:	d1ef      	bne.n	3550 <mpi_egcd+0xea>
/home/hsk/Desktop/devel/tee-tpm-hyp/optee_os/lib/libutee/tee_api_arith_mpi.c:645
    3570:	9b01      	ldr	r3, [sp, #4]
/home/hsk/Desktop/devel/tee-tpm-hyp/optee_os/lib/libutee/tee_api_arith_mpi.c:646
    3572:	2101      	movs	r1, #1
    3574:	4650      	mov	r0, sl
/home/hsk/Desktop/devel/tee-tpm-hyp/optee_os/lib/libutee/tee_api_arith_mpi.c:645
    3576:	3301      	adds	r3, #1
    3578:	9301      	str	r3, [sp, #4]
/home/hsk/Desktop/devel/tee-tpm-hyp/optee_os/lib/libutee/tee_api_arith_mpi.c:646
    357a:	f001 fcf5 	bl	4f68 <mbedtls_mpi_shift_r>
    357e:	4602      	mov	r2, r0
    3580:	2800      	cmp	r0, #0
    3582:	d0d5      	beq.n	3530 <mpi_egcd+0xca>
/home/hsk/Desktop/devel/tee-tpm-hyp/optee_os/lib/libutee/tee_api_arith_mpi.c:646 (discriminator 1)
    3584:	48b5      	ldr	r0, [pc, #724]	; (385c <mpi_egcd+0x3f6>)
    3586:	f240 2186 	movw	r1, #646	; 0x286
    358a:	4478      	add	r0, pc
    358c:	e7a0      	b.n	34d0 <mpi_egcd+0x6a>
/home/hsk/Desktop/devel/tee-tpm-hyp/optee_os/lib/libutee/tee_api_arith_mpi.c:651
    358e:	4659      	mov	r1, fp
    3590:	4648      	mov	r0, r9
    3592:	f001 fafb 	bl	4b8c <mbedtls_mpi_copy>
    3596:	4602      	mov	r2, r0
    3598:	b120      	cbz	r0, 35a4 <mpi_egcd+0x13e>
/home/hsk/Desktop/devel/tee-tpm-hyp/optee_os/lib/libutee/tee_api_arith_mpi.c:651 (discriminator 1)
    359a:	48b1      	ldr	r0, [pc, #708]	; (3860 <mpi_egcd+0x3fa>)
    359c:	f240 218b 	movw	r1, #651	; 0x28b
    35a0:	4478      	add	r0, pc
    35a2:	e795      	b.n	34d0 <mpi_egcd+0x6a>
/home/hsk/Desktop/devel/tee-tpm-hyp/optee_os/lib/libutee/tee_api_arith_mpi.c:652
    35a4:	2101      	movs	r1, #1
    35a6:	4640      	mov	r0, r8
    35a8:	f001 fbab 	bl	4d02 <mbedtls_mpi_lset>
    35ac:	4602      	mov	r2, r0
    35ae:	b120      	cbz	r0, 35ba <mpi_egcd+0x154>
/home/hsk/Desktop/devel/tee-tpm-hyp/optee_os/lib/libutee/tee_api_arith_mpi.c:652 (discriminator 1)
    35b0:	48ac      	ldr	r0, [pc, #688]	; (3864 <mpi_egcd+0x3fe>)
    35b2:	f44f 7123 	mov.w	r1, #652	; 0x28c
    35b6:	4478      	add	r0, pc
    35b8:	e78a      	b.n	34d0 <mpi_egcd+0x6a>
/home/hsk/Desktop/devel/tee-tpm-hyp/optee_os/lib/libutee/tee_api_arith_mpi.c:653
    35ba:	4601      	mov	r1, r0
    35bc:	4638      	mov	r0, r7
    35be:	f001 fba0 	bl	4d02 <mbedtls_mpi_lset>
    35c2:	4602      	mov	r2, r0
    35c4:	b120      	cbz	r0, 35d0 <mpi_egcd+0x16a>
/home/hsk/Desktop/devel/tee-tpm-hyp/optee_os/lib/libutee/tee_api_arith_mpi.c:653 (discriminator 1)
    35c6:	48a8      	ldr	r0, [pc, #672]	; (3868 <mpi_egcd+0x402>)
    35c8:	f240 218d 	movw	r1, #653	; 0x28d
    35cc:	4478      	add	r0, pc
    35ce:	e77f      	b.n	34d0 <mpi_egcd+0x6a>
/home/hsk/Desktop/devel/tee-tpm-hyp/optee_os/lib/libutee/tee_api_arith_mpi.c:654
    35d0:	4601      	mov	r1, r0
    35d2:	4628      	mov	r0, r5
    35d4:	f001 fb95 	bl	4d02 <mbedtls_mpi_lset>
    35d8:	4602      	mov	r2, r0
    35da:	b120      	cbz	r0, 35e6 <mpi_egcd+0x180>
/home/hsk/Desktop/devel/tee-tpm-hyp/optee_os/lib/libutee/tee_api_arith_mpi.c:654 (discriminator 1)
    35dc:	48a3      	ldr	r0, [pc, #652]	; (386c <mpi_egcd+0x406>)
    35de:	f240 218e 	movw	r1, #654	; 0x28e
    35e2:	4478      	add	r0, pc
    35e4:	e774      	b.n	34d0 <mpi_egcd+0x6a>
/home/hsk/Desktop/devel/tee-tpm-hyp/optee_os/lib/libutee/tee_api_arith_mpi.c:655
    35e6:	2101      	movs	r1, #1
    35e8:	4620      	mov	r0, r4
    35ea:	f001 fb8a 	bl	4d02 <mbedtls_mpi_lset>
    35ee:	4602      	mov	r2, r0
    35f0:	2800      	cmp	r0, #0
    35f2:	f000 80e4 	beq.w	37be <mpi_egcd+0x358>
/home/hsk/Desktop/devel/tee-tpm-hyp/optee_os/lib/libutee/tee_api_arith_mpi.c:655 (discriminator 1)
    35f6:	489e      	ldr	r0, [pc, #632]	; (3870 <mpi_egcd+0x40a>)
    35f8:	f240 218f 	movw	r1, #655	; 0x28f
    35fc:	4478      	add	r0, pc
    35fe:	e767      	b.n	34d0 <mpi_egcd+0x6a>
/home/hsk/Desktop/devel/tee-tpm-hyp/optee_os/lib/libutee/tee_api_arith_mpi.c:659
    3600:	2101      	movs	r1, #1
    3602:	4630      	mov	r0, r6
    3604:	f001 fcb0 	bl	4f68 <mbedtls_mpi_shift_r>
    3608:	4602      	mov	r2, r0
    360a:	b120      	cbz	r0, 3616 <mpi_egcd+0x1b0>
/home/hsk/Desktop/devel/tee-tpm-hyp/optee_os/lib/libutee/tee_api_arith_mpi.c:659 (discriminator 1)
    360c:	4899      	ldr	r0, [pc, #612]	; (3874 <mpi_egcd+0x40e>)
    360e:	f240 2193 	movw	r1, #659	; 0x293
    3612:	4478      	add	r0, pc
    3614:	e75c      	b.n	34d0 <mpi_egcd+0x6a>
/home/hsk/Desktop/devel/tee-tpm-hyp/optee_os/lib/libutee/tee_api_arith_mpi.c:660
    3616:	4640      	mov	r0, r8
    3618:	f7ff ff04 	bl	3424 <mpi_is_odd>
    361c:	b158      	cbz	r0, 3636 <mpi_egcd+0x1d0>
/home/hsk/Desktop/devel/tee-tpm-hyp/optee_os/lib/libutee/tee_api_arith_mpi.c:661
    361e:	465a      	mov	r2, fp
    3620:	4641      	mov	r1, r8
    3622:	4640      	mov	r0, r8
    3624:	f001 fe0c 	bl	5240 <mbedtls_mpi_add_mpi>
    3628:	4602      	mov	r2, r0
    362a:	b1a0      	cbz	r0, 3656 <mpi_egcd+0x1f0>
/home/hsk/Desktop/devel/tee-tpm-hyp/optee_os/lib/libutee/tee_api_arith_mpi.c:661 (discriminator 1)
    362c:	4892      	ldr	r0, [pc, #584]	; (3878 <mpi_egcd+0x412>)
    362e:	f240 2195 	movw	r1, #661	; 0x295
    3632:	4478      	add	r0, pc
    3634:	e74c      	b.n	34d0 <mpi_egcd+0x6a>
/home/hsk/Desktop/devel/tee-tpm-hyp/optee_os/lib/libutee/tee_api_arith_mpi.c:660 (discriminator 1)
    3636:	4638      	mov	r0, r7
    3638:	f7ff fef4 	bl	3424 <mpi_is_odd>
    363c:	2800      	cmp	r0, #0
    363e:	d1ee      	bne.n	361e <mpi_egcd+0x1b8>
/home/hsk/Desktop/devel/tee-tpm-hyp/optee_os/lib/libutee/tee_api_arith_mpi.c:664
    3640:	2101      	movs	r1, #1
    3642:	4640      	mov	r0, r8
    3644:	f001 fc90 	bl	4f68 <mbedtls_mpi_shift_r>
    3648:	4602      	mov	r2, r0
    364a:	b188      	cbz	r0, 3670 <mpi_egcd+0x20a>
/home/hsk/Desktop/devel/tee-tpm-hyp/optee_os/lib/libutee/tee_api_arith_mpi.c:664 (discriminator 1)
    364c:	488b      	ldr	r0, [pc, #556]	; (387c <mpi_egcd+0x416>)
    364e:	f44f 7126 	mov.w	r1, #664	; 0x298
    3652:	4478      	add	r0, pc
    3654:	e73c      	b.n	34d0 <mpi_egcd+0x6a>
/home/hsk/Desktop/devel/tee-tpm-hyp/optee_os/lib/libutee/tee_api_arith_mpi.c:662
    3656:	4652      	mov	r2, sl
    3658:	4639      	mov	r1, r7
    365a:	4638      	mov	r0, r7
    365c:	f001 fe13 	bl	5286 <mbedtls_mpi_sub_mpi>
    3660:	4602      	mov	r2, r0
    3662:	2800      	cmp	r0, #0
    3664:	d0ec      	beq.n	3640 <mpi_egcd+0x1da>
/home/hsk/Desktop/devel/tee-tpm-hyp/optee_os/lib/libutee/tee_api_arith_mpi.c:662 (discriminator 1)
    3666:	4886      	ldr	r0, [pc, #536]	; (3880 <mpi_egcd+0x41a>)
    3668:	f240 2196 	movw	r1, #662	; 0x296
    366c:	4478      	add	r0, pc
    366e:	e72f      	b.n	34d0 <mpi_egcd+0x6a>
/home/hsk/Desktop/devel/tee-tpm-hyp/optee_os/lib/libutee/tee_api_arith_mpi.c:665
    3670:	2101      	movs	r1, #1
    3672:	4638      	mov	r0, r7
    3674:	f001 fc78 	bl	4f68 <mbedtls_mpi_shift_r>
    3678:	4602      	mov	r2, r0
    367a:	b120      	cbz	r0, 3686 <mpi_egcd+0x220>
/home/hsk/Desktop/devel/tee-tpm-hyp/optee_os/lib/libutee/tee_api_arith_mpi.c:665 (discriminator 1)
    367c:	4881      	ldr	r0, [pc, #516]	; (3884 <mpi_egcd+0x41e>)
    367e:	f240 2199 	movw	r1, #665	; 0x299
    3682:	4478      	add	r0, pc
    3684:	e724      	b.n	34d0 <mpi_egcd+0x6a>
mpi_is_even():
/home/hsk/Desktop/devel/tee-tpm-hyp/optee_os/lib/libutee/tee_api_arith_mpi.c:605
    3686:	4630      	mov	r0, r6
    3688:	f7ff fecc 	bl	3424 <mpi_is_odd>
mpi_egcd():
/home/hsk/Desktop/devel/tee-tpm-hyp/optee_os/lib/libutee/tee_api_arith_mpi.c:658
    368c:	2800      	cmp	r0, #0
    368e:	d0b7      	beq.n	3600 <mpi_egcd+0x19a>
mpi_is_even():
/home/hsk/Desktop/devel/tee-tpm-hyp/optee_os/lib/libutee/tee_api_arith_mpi.c:605
    3690:	4648      	mov	r0, r9
    3692:	f7ff fec7 	bl	3424 <mpi_is_odd>
mpi_egcd():
/home/hsk/Desktop/devel/tee-tpm-hyp/optee_os/lib/libutee/tee_api_arith_mpi.c:668
    3696:	b190      	cbz	r0, 36be <mpi_egcd+0x258>
/home/hsk/Desktop/devel/tee-tpm-hyp/optee_os/lib/libutee/tee_api_arith_mpi.c:679
    3698:	4649      	mov	r1, r9
    369a:	4630      	mov	r0, r6
    369c:	f001 fcd6 	bl	504c <mbedtls_mpi_cmp_mpi>
    36a0:	2800      	cmp	r0, #0
    36a2:	db68      	blt.n	3776 <mpi_egcd+0x310>
/home/hsk/Desktop/devel/tee-tpm-hyp/optee_os/lib/libutee/tee_api_arith_mpi.c:680
    36a4:	464a      	mov	r2, r9
    36a6:	4631      	mov	r1, r6
    36a8:	4630      	mov	r0, r6
    36aa:	f001 fdec 	bl	5286 <mbedtls_mpi_sub_mpi>
    36ae:	4602      	mov	r2, r0
    36b0:	2800      	cmp	r0, #0
    36b2:	d048      	beq.n	3746 <mpi_egcd+0x2e0>
/home/hsk/Desktop/devel/tee-tpm-hyp/optee_os/lib/libutee/tee_api_arith_mpi.c:680 (discriminator 1)
    36b4:	4874      	ldr	r0, [pc, #464]	; (3888 <mpi_egcd+0x422>)
    36b6:	f44f 712a 	mov.w	r1, #680	; 0x2a8
    36ba:	4478      	add	r0, pc
    36bc:	e708      	b.n	34d0 <mpi_egcd+0x6a>
/home/hsk/Desktop/devel/tee-tpm-hyp/optee_os/lib/libutee/tee_api_arith_mpi.c:669
    36be:	2101      	movs	r1, #1
    36c0:	4648      	mov	r0, r9
    36c2:	f001 fc51 	bl	4f68 <mbedtls_mpi_shift_r>
    36c6:	4602      	mov	r2, r0
    36c8:	b120      	cbz	r0, 36d4 <mpi_egcd+0x26e>
/home/hsk/Desktop/devel/tee-tpm-hyp/optee_os/lib/libutee/tee_api_arith_mpi.c:669 (discriminator 1)
    36ca:	4870      	ldr	r0, [pc, #448]	; (388c <mpi_egcd+0x426>)
    36cc:	f240 219d 	movw	r1, #669	; 0x29d
    36d0:	4478      	add	r0, pc
    36d2:	e6fd      	b.n	34d0 <mpi_egcd+0x6a>
/home/hsk/Desktop/devel/tee-tpm-hyp/optee_os/lib/libutee/tee_api_arith_mpi.c:670
    36d4:	4628      	mov	r0, r5
    36d6:	f7ff fea5 	bl	3424 <mpi_is_odd>
    36da:	b158      	cbz	r0, 36f4 <mpi_egcd+0x28e>
/home/hsk/Desktop/devel/tee-tpm-hyp/optee_os/lib/libutee/tee_api_arith_mpi.c:671
    36dc:	465a      	mov	r2, fp
    36de:	4629      	mov	r1, r5
    36e0:	4628      	mov	r0, r5
    36e2:	f001 fdad 	bl	5240 <mbedtls_mpi_add_mpi>
    36e6:	4602      	mov	r2, r0
    36e8:	b1a0      	cbz	r0, 3714 <mpi_egcd+0x2ae>
/home/hsk/Desktop/devel/tee-tpm-hyp/optee_os/lib/libutee/tee_api_arith_mpi.c:671 (discriminator 1)
    36ea:	4869      	ldr	r0, [pc, #420]	; (3890 <mpi_egcd+0x42a>)
    36ec:	f240 219f 	movw	r1, #671	; 0x29f
    36f0:	4478      	add	r0, pc
    36f2:	e6ed      	b.n	34d0 <mpi_egcd+0x6a>
/home/hsk/Desktop/devel/tee-tpm-hyp/optee_os/lib/libutee/tee_api_arith_mpi.c:670 (discriminator 1)
    36f4:	4620      	mov	r0, r4
    36f6:	f7ff fe95 	bl	3424 <mpi_is_odd>
    36fa:	2800      	cmp	r0, #0
    36fc:	d1ee      	bne.n	36dc <mpi_egcd+0x276>
/home/hsk/Desktop/devel/tee-tpm-hyp/optee_os/lib/libutee/tee_api_arith_mpi.c:674
    36fe:	2101      	movs	r1, #1
    3700:	4628      	mov	r0, r5
    3702:	f001 fc31 	bl	4f68 <mbedtls_mpi_shift_r>
    3706:	4602      	mov	r2, r0
    3708:	b188      	cbz	r0, 372e <mpi_egcd+0x2c8>
/home/hsk/Desktop/devel/tee-tpm-hyp/optee_os/lib/libutee/tee_api_arith_mpi.c:674 (discriminator 1)
    370a:	4862      	ldr	r0, [pc, #392]	; (3894 <mpi_egcd+0x42e>)
    370c:	f240 21a2 	movw	r1, #674	; 0x2a2
    3710:	4478      	add	r0, pc
    3712:	e6dd      	b.n	34d0 <mpi_egcd+0x6a>
/home/hsk/Desktop/devel/tee-tpm-hyp/optee_os/lib/libutee/tee_api_arith_mpi.c:672
    3714:	4652      	mov	r2, sl
    3716:	4621      	mov	r1, r4
    3718:	4620      	mov	r0, r4
    371a:	f001 fdb4 	bl	5286 <mbedtls_mpi_sub_mpi>
    371e:	4602      	mov	r2, r0
    3720:	2800      	cmp	r0, #0
    3722:	d0ec      	beq.n	36fe <mpi_egcd+0x298>
/home/hsk/Desktop/devel/tee-tpm-hyp/optee_os/lib/libutee/tee_api_arith_mpi.c:672 (discriminator 1)
    3724:	485c      	ldr	r0, [pc, #368]	; (3898 <mpi_egcd+0x432>)
    3726:	f44f 7128 	mov.w	r1, #672	; 0x2a0
    372a:	4478      	add	r0, pc
    372c:	e6d0      	b.n	34d0 <mpi_egcd+0x6a>
/home/hsk/Desktop/devel/tee-tpm-hyp/optee_os/lib/libutee/tee_api_arith_mpi.c:675
    372e:	2101      	movs	r1, #1
    3730:	4620      	mov	r0, r4
    3732:	f001 fc19 	bl	4f68 <mbedtls_mpi_shift_r>
    3736:	4602      	mov	r2, r0
    3738:	2800      	cmp	r0, #0
    373a:	d0a9      	beq.n	3690 <mpi_egcd+0x22a>
/home/hsk/Desktop/devel/tee-tpm-hyp/optee_os/lib/libutee/tee_api_arith_mpi.c:675 (discriminator 1)
    373c:	4857      	ldr	r0, [pc, #348]	; (389c <mpi_egcd+0x436>)
    373e:	f240 21a3 	movw	r1, #675	; 0x2a3
    3742:	4478      	add	r0, pc
    3744:	e6c4      	b.n	34d0 <mpi_egcd+0x6a>
/home/hsk/Desktop/devel/tee-tpm-hyp/optee_os/lib/libutee/tee_api_arith_mpi.c:681
    3746:	462a      	mov	r2, r5
    3748:	4641      	mov	r1, r8
    374a:	4640      	mov	r0, r8
    374c:	f001 fd9b 	bl	5286 <mbedtls_mpi_sub_mpi>
    3750:	4602      	mov	r2, r0
    3752:	b120      	cbz	r0, 375e <mpi_egcd+0x2f8>
/home/hsk/Desktop/devel/tee-tpm-hyp/optee_os/lib/libutee/tee_api_arith_mpi.c:681 (discriminator 1)
    3754:	4852      	ldr	r0, [pc, #328]	; (38a0 <mpi_egcd+0x43a>)
    3756:	f240 21a9 	movw	r1, #681	; 0x2a9
    375a:	4478      	add	r0, pc
    375c:	e6b8      	b.n	34d0 <mpi_egcd+0x6a>
/home/hsk/Desktop/devel/tee-tpm-hyp/optee_os/lib/libutee/tee_api_arith_mpi.c:682
    375e:	4622      	mov	r2, r4
    3760:	4639      	mov	r1, r7
    3762:	4638      	mov	r0, r7
    3764:	f001 fd8f 	bl	5286 <mbedtls_mpi_sub_mpi>
    3768:	4602      	mov	r2, r0
    376a:	b340      	cbz	r0, 37be <mpi_egcd+0x358>
/home/hsk/Desktop/devel/tee-tpm-hyp/optee_os/lib/libutee/tee_api_arith_mpi.c:682 (discriminator 1)
    376c:	484d      	ldr	r0, [pc, #308]	; (38a4 <mpi_egcd+0x43e>)
    376e:	f240 21aa 	movw	r1, #682	; 0x2aa
    3772:	4478      	add	r0, pc
    3774:	e6ac      	b.n	34d0 <mpi_egcd+0x6a>
/home/hsk/Desktop/devel/tee-tpm-hyp/optee_os/lib/libutee/tee_api_arith_mpi.c:684
    3776:	4632      	mov	r2, r6
    3778:	4649      	mov	r1, r9
    377a:	4648      	mov	r0, r9
    377c:	f001 fd83 	bl	5286 <mbedtls_mpi_sub_mpi>
    3780:	4602      	mov	r2, r0
    3782:	b120      	cbz	r0, 378e <mpi_egcd+0x328>
/home/hsk/Desktop/devel/tee-tpm-hyp/optee_os/lib/libutee/tee_api_arith_mpi.c:684 (discriminator 1)
    3784:	4848      	ldr	r0, [pc, #288]	; (38a8 <mpi_egcd+0x442>)
    3786:	f44f 712b 	mov.w	r1, #684	; 0x2ac
    378a:	4478      	add	r0, pc
    378c:	e6a0      	b.n	34d0 <mpi_egcd+0x6a>
/home/hsk/Desktop/devel/tee-tpm-hyp/optee_os/lib/libutee/tee_api_arith_mpi.c:685
    378e:	4642      	mov	r2, r8
    3790:	4629      	mov	r1, r5
    3792:	4628      	mov	r0, r5
    3794:	f001 fd77 	bl	5286 <mbedtls_mpi_sub_mpi>
    3798:	4602      	mov	r2, r0
    379a:	b120      	cbz	r0, 37a6 <mpi_egcd+0x340>
/home/hsk/Desktop/devel/tee-tpm-hyp/optee_os/lib/libutee/tee_api_arith_mpi.c:685 (discriminator 1)
    379c:	4843      	ldr	r0, [pc, #268]	; (38ac <mpi_egcd+0x446>)
    379e:	f240 21ad 	movw	r1, #685	; 0x2ad
    37a2:	4478      	add	r0, pc
    37a4:	e694      	b.n	34d0 <mpi_egcd+0x6a>
/home/hsk/Desktop/devel/tee-tpm-hyp/optee_os/lib/libutee/tee_api_arith_mpi.c:686
    37a6:	463a      	mov	r2, r7
    37a8:	4621      	mov	r1, r4
    37aa:	4620      	mov	r0, r4
    37ac:	f001 fd6b 	bl	5286 <mbedtls_mpi_sub_mpi>
    37b0:	4602      	mov	r2, r0
    37b2:	b120      	cbz	r0, 37be <mpi_egcd+0x358>
/home/hsk/Desktop/devel/tee-tpm-hyp/optee_os/lib/libutee/tee_api_arith_mpi.c:686 (discriminator 1)
    37b4:	483e      	ldr	r0, [pc, #248]	; (38b0 <mpi_egcd+0x44a>)
    37b6:	f240 21ae 	movw	r1, #686	; 0x2ae
    37ba:	4478      	add	r0, pc
    37bc:	e688      	b.n	34d0 <mpi_egcd+0x6a>
/home/hsk/Desktop/devel/tee-tpm-hyp/optee_os/lib/libutee/tee_api_arith_mpi.c:657
    37be:	2100      	movs	r1, #0
    37c0:	4630      	mov	r0, r6
    37c2:	f001 fc8c 	bl	50de <mbedtls_mpi_cmp_int>
    37c6:	2800      	cmp	r0, #0
    37c8:	f47f af5d 	bne.w	3686 <mpi_egcd+0x220>
/home/hsk/Desktop/devel/tee-tpm-hyp/optee_os/lib/libutee/tee_api_arith_mpi.c:690
    37cc:	4629      	mov	r1, r5
    37ce:	9802      	ldr	r0, [sp, #8]
    37d0:	f001 f9dc 	bl	4b8c <mbedtls_mpi_copy>
    37d4:	4602      	mov	r2, r0
    37d6:	b120      	cbz	r0, 37e2 <mpi_egcd+0x37c>
/home/hsk/Desktop/devel/tee-tpm-hyp/optee_os/lib/libutee/tee_api_arith_mpi.c:690 (discriminator 1)
    37d8:	4836      	ldr	r0, [pc, #216]	; (38b4 <mpi_egcd+0x44e>)
    37da:	f240 21b2 	movw	r1, #690	; 0x2b2
    37de:	4478      	add	r0, pc
    37e0:	e676      	b.n	34d0 <mpi_egcd+0x6a>
/home/hsk/Desktop/devel/tee-tpm-hyp/optee_os/lib/libutee/tee_api_arith_mpi.c:691
    37e2:	4621      	mov	r1, r4
    37e4:	9803      	ldr	r0, [sp, #12]
    37e6:	f001 f9d1 	bl	4b8c <mbedtls_mpi_copy>
    37ea:	4602      	mov	r2, r0
    37ec:	b120      	cbz	r0, 37f8 <mpi_egcd+0x392>
/home/hsk/Desktop/devel/tee-tpm-hyp/optee_os/lib/libutee/tee_api_arith_mpi.c:691 (discriminator 1)
    37ee:	4832      	ldr	r0, [pc, #200]	; (38b8 <mpi_egcd+0x452>)
    37f0:	f240 21b3 	movw	r1, #691	; 0x2b3
    37f4:	4478      	add	r0, pc
    37f6:	e66b      	b.n	34d0 <mpi_egcd+0x6a>
/home/hsk/Desktop/devel/tee-tpm-hyp/optee_os/lib/libutee/tee_api_arith_mpi.c:692
    37f8:	9901      	ldr	r1, [sp, #4]
    37fa:	4648      	mov	r0, r9
    37fc:	f001 fb6c 	bl	4ed8 <mbedtls_mpi_shift_l>
    3800:	4602      	mov	r2, r0
    3802:	b120      	cbz	r0, 380e <mpi_egcd+0x3a8>
/home/hsk/Desktop/devel/tee-tpm-hyp/optee_os/lib/libutee/tee_api_arith_mpi.c:692 (discriminator 1)
    3804:	482d      	ldr	r0, [pc, #180]	; (38bc <mpi_egcd+0x456>)
    3806:	f44f 712d 	mov.w	r1, #692	; 0x2b4
    380a:	4478      	add	r0, pc
    380c:	e660      	b.n	34d0 <mpi_egcd+0x6a>
/home/hsk/Desktop/devel/tee-tpm-hyp/optee_os/lib/libutee/tee_api_arith_mpi.c:695
    380e:	4640      	mov	r0, r8
    3810:	f7ff fe1b 	bl	344a <put_mpi>
/home/hsk/Desktop/devel/tee-tpm-hyp/optee_os/lib/libutee/tee_api_arith_mpi.c:696
    3814:	4638      	mov	r0, r7
    3816:	f7ff fe18 	bl	344a <put_mpi>
/home/hsk/Desktop/devel/tee-tpm-hyp/optee_os/lib/libutee/tee_api_arith_mpi.c:697
    381a:	4628      	mov	r0, r5
    381c:	f7ff fe15 	bl	344a <put_mpi>
/home/hsk/Desktop/devel/tee-tpm-hyp/optee_os/lib/libutee/tee_api_arith_mpi.c:698
    3820:	4620      	mov	r0, r4
    3822:	f7ff fe12 	bl	344a <put_mpi>
/home/hsk/Desktop/devel/tee-tpm-hyp/optee_os/lib/libutee/tee_api_arith_mpi.c:699
    3826:	4650      	mov	r0, sl
    3828:	f7ff fe0f 	bl	344a <put_mpi>
/home/hsk/Desktop/devel/tee-tpm-hyp/optee_os/lib/libutee/tee_api_arith_mpi.c:700
    382c:	4658      	mov	r0, fp
    382e:	f7ff fe0c 	bl	344a <put_mpi>
/home/hsk/Desktop/devel/tee-tpm-hyp/optee_os/lib/libutee/tee_api_arith_mpi.c:701
    3832:	4630      	mov	r0, r6
    3834:	f7ff fe09 	bl	344a <put_mpi>
/home/hsk/Desktop/devel/tee-tpm-hyp/optee_os/lib/libutee/tee_api_arith_mpi.c:702
    3838:	b01b      	add	sp, #108	; 0x6c
    383a:	e8bd 8ff0 	ldmia.w	sp!, {r4, r5, r6, r7, r8, r9, sl, fp, pc}
    383e:	bf00      	nop
    3840:	00004cc5 	.word	0x00004cc5
    3844:	00004cad 	.word	0x00004cad
    3848:	00004c93 	.word	0x00004c93
    384c:	00004c7d 	.word	0x00004c7d
    3850:	00004c67 	.word	0x00004c67
    3854:	00004c51 	.word	0x00004c51
    3858:	00004c31 	.word	0x00004c31
    385c:	00004c09 	.word	0x00004c09
    3860:	00004bf3 	.word	0x00004bf3
    3864:	00004bdd 	.word	0x00004bdd
    3868:	00004bc7 	.word	0x00004bc7
    386c:	00004bb1 	.word	0x00004bb1
    3870:	00004b97 	.word	0x00004b97
    3874:	00004b81 	.word	0x00004b81
    3878:	00004b61 	.word	0x00004b61
    387c:	00004b41 	.word	0x00004b41
    3880:	00004b27 	.word	0x00004b27
    3884:	00004b11 	.word	0x00004b11
    3888:	00004ad9 	.word	0x00004ad9
    388c:	00004ac3 	.word	0x00004ac3
    3890:	00004aa3 	.word	0x00004aa3
    3894:	00004a83 	.word	0x00004a83
    3898:	00004a69 	.word	0x00004a69
    389c:	00004a51 	.word	0x00004a51
    38a0:	00004a39 	.word	0x00004a39
    38a4:	00004a21 	.word	0x00004a21
    38a8:	00004a09 	.word	0x00004a09
    38ac:	000049f1 	.word	0x000049f1
    38b0:	000049d9 	.word	0x000049d9
    38b4:	000049b5 	.word	0x000049b5
    38b8:	0000499f 	.word	0x0000499f
    38bc:	00004989 	.word	0x00004989

000038c0 <get_const_mpi>:
get_const_mpi():
/home/hsk/Desktop/devel/tee-tpm-hyp/optee_os/lib/libutee/tee_api_arith_mpi.c:110
    38c0:	b530      	push	{r4, r5, lr}
init_static_mpi():
/home/hsk/Desktop/devel/tee-tpm-hyp/optee_os/lib/libutee/tee_api_arith_mpi.c:65
    38c2:	3108      	adds	r1, #8
    38c4:	f831 2c02 	ldrh.w	r2, [r1, #-2]
get_const_mpi():
/home/hsk/Desktop/devel/tee-tpm-hyp/optee_os/lib/libutee/tee_api_arith_mpi.c:110
    38c8:	b087      	sub	sp, #28
init_static_mpi():
/home/hsk/Desktop/devel/tee-tpm-hyp/optee_os/lib/libutee/tee_api_arith_mpi.c:65
    38ca:	f831 3c04 	ldrh.w	r3, [r1, #-4]
    38ce:	ac03      	add	r4, sp, #12
get_const_mpi():
/home/hsk/Desktop/devel/tee-tpm-hyp/optee_os/lib/libutee/tee_api_arith_mpi.c:110
    38d0:	4605      	mov	r5, r0
init_static_mpi():
/home/hsk/Desktop/devel/tee-tpm-hyp/optee_os/lib/libutee/tee_api_arith_mpi.c:65
    38d2:	4620      	mov	r0, r4
    38d4:	9200      	str	r2, [sp, #0]
    38d6:	f851 2c08 	ldr.w	r2, [r1, #-8]
    38da:	f001 f86d 	bl	49b8 <mbedtls_mpi_init_static>
get_mpi():
/home/hsk/Desktop/devel/tee-tpm-hyp/optee_os/lib/libutee/tee_api_arith_mpi.c:99
    38de:	4628      	mov	r0, r5
    38e0:	f001 f858 	bl	4994 <mbedtls_mpi_init_mempool>
get_const_mpi():
/home/hsk/Desktop/devel/tee-tpm-hyp/optee_os/lib/libutee/tee_api_arith_mpi.c:115
    38e4:	4621      	mov	r1, r4
    38e6:	4628      	mov	r0, r5
    38e8:	f001 f950 	bl	4b8c <mbedtls_mpi_copy>
    38ec:	4602      	mov	r2, r0
    38ee:	b128      	cbz	r0, 38fc <get_const_mpi+0x3c>
/home/hsk/Desktop/devel/tee-tpm-hyp/optee_os/lib/libutee/tee_api_arith_mpi.c:115 (discriminator 1)
    38f0:	4803      	ldr	r0, [pc, #12]	; (3900 <get_const_mpi+0x40>)
    38f2:	2173      	movs	r1, #115	; 0x73
    38f4:	4478      	add	r0, pc
    38f6:	3009      	adds	r0, #9
    38f8:	f7ff fd72 	bl	33e0 <mpi_panic>
/home/hsk/Desktop/devel/tee-tpm-hyp/optee_os/lib/libutee/tee_api_arith_mpi.c:116
    38fc:	b007      	add	sp, #28
    38fe:	bd30      	pop	{r4, r5, pc}
    3900:	0000489f 	.word	0x0000489f

00003904 <bigint_binary>:
bigint_binary():
/home/hsk/Desktop/devel/tee-tpm-hyp/optee_os/lib/libutee/tee_api_arith_mpi.c:336
    3904:	e92d 47f0 	stmdb	sp!, {r4, r5, r6, r7, r8, r9, sl, lr}
    3908:	4682      	mov	sl, r0
    390a:	4688      	mov	r8, r1
    390c:	b08a      	sub	sp, #40	; 0x28
/home/hsk/Desktop/devel/tee-tpm-hyp/optee_os/lib/libutee/tee_api_arith_mpi.c:343
    390e:	4601      	mov	r1, r0
    3910:	ae01      	add	r6, sp, #4
/home/hsk/Desktop/devel/tee-tpm-hyp/optee_os/lib/libutee/tee_api_arith_mpi.c:336
    3912:	4614      	mov	r4, r2
/home/hsk/Desktop/devel/tee-tpm-hyp/optee_os/lib/libutee/tee_api_arith_mpi.c:343
    3914:	4630      	mov	r0, r6
/home/hsk/Desktop/devel/tee-tpm-hyp/optee_os/lib/libutee/tee_api_arith_mpi.c:336
    3916:	4699      	mov	r9, r3
    3918:	af04      	add	r7, sp, #16
/home/hsk/Desktop/devel/tee-tpm-hyp/optee_os/lib/libutee/tee_api_arith_mpi.c:343
    391a:	f7ff fd71 	bl	3400 <get_mpi>
/home/hsk/Desktop/devel/tee-tpm-hyp/optee_os/lib/libutee/tee_api_arith_mpi.c:345
    391e:	45c2      	cmp	sl, r8
    3920:	d01a      	beq.n	3958 <bigint_binary+0x54>
/home/hsk/Desktop/devel/tee-tpm-hyp/optee_os/lib/libutee/tee_api_arith_mpi.c:340
    3922:	463d      	mov	r5, r7
/home/hsk/Desktop/devel/tee-tpm-hyp/optee_os/lib/libutee/tee_api_arith_mpi.c:348
    3924:	4641      	mov	r1, r8
    3926:	4638      	mov	r0, r7
    3928:	f7ff ffca 	bl	38c0 <get_const_mpi>
/home/hsk/Desktop/devel/tee-tpm-hyp/optee_os/lib/libutee/tee_api_arith_mpi.c:350
    392c:	45a2      	cmp	sl, r4
    392e:	d015      	beq.n	395c <bigint_binary+0x58>
/home/hsk/Desktop/devel/tee-tpm-hyp/optee_os/lib/libutee/tee_api_arith_mpi.c:352
    3930:	45a0      	cmp	r8, r4
    3932:	d015      	beq.n	3960 <bigint_binary+0x5c>
/home/hsk/Desktop/devel/tee-tpm-hyp/optee_os/lib/libutee/tee_api_arith_mpi.c:355
    3934:	4621      	mov	r1, r4
    3936:	ac07      	add	r4, sp, #28
    3938:	4620      	mov	r0, r4
    393a:	f7ff ffc1 	bl	38c0 <get_const_mpi>
/home/hsk/Desktop/devel/tee-tpm-hyp/optee_os/lib/libutee/tee_api_arith_mpi.c:357
    393e:	4622      	mov	r2, r4
    3940:	4629      	mov	r1, r5
    3942:	4630      	mov	r0, r6
    3944:	47c8      	blx	r9
    3946:	4602      	mov	r2, r0
    3948:	b160      	cbz	r0, 3964 <bigint_binary+0x60>
/home/hsk/Desktop/devel/tee-tpm-hyp/optee_os/lib/libutee/tee_api_arith_mpi.c:357 (discriminator 1)
    394a:	480f      	ldr	r0, [pc, #60]	; (3988 <bigint_binary+0x84>)
    394c:	f240 1165 	movw	r1, #357	; 0x165
    3950:	4478      	add	r0, pc
    3952:	3017      	adds	r0, #23
    3954:	f7ff fd44 	bl	33e0 <mpi_panic>
/home/hsk/Desktop/devel/tee-tpm-hyp/optee_os/lib/libutee/tee_api_arith_mpi.c:346
    3958:	4635      	mov	r5, r6
    395a:	e7e7      	b.n	392c <bigint_binary+0x28>
/home/hsk/Desktop/devel/tee-tpm-hyp/optee_os/lib/libutee/tee_api_arith_mpi.c:351
    395c:	4634      	mov	r4, r6
    395e:	e7ee      	b.n	393e <bigint_binary+0x3a>
/home/hsk/Desktop/devel/tee-tpm-hyp/optee_os/lib/libutee/tee_api_arith_mpi.c:353
    3960:	462c      	mov	r4, r5
    3962:	e7ec      	b.n	393e <bigint_binary+0x3a>
/home/hsk/Desktop/devel/tee-tpm-hyp/optee_os/lib/libutee/tee_api_arith_mpi.c:359
    3964:	4630      	mov	r0, r6
    3966:	f7ff fd70 	bl	344a <put_mpi>
/home/hsk/Desktop/devel/tee-tpm-hyp/optee_os/lib/libutee/tee_api_arith_mpi.c:360
    396a:	42bd      	cmp	r5, r7
    396c:	d102      	bne.n	3974 <bigint_binary+0x70>
/home/hsk/Desktop/devel/tee-tpm-hyp/optee_os/lib/libutee/tee_api_arith_mpi.c:361
    396e:	4628      	mov	r0, r5
    3970:	f7ff fd6b 	bl	344a <put_mpi>
/home/hsk/Desktop/devel/tee-tpm-hyp/optee_os/lib/libutee/tee_api_arith_mpi.c:362
    3974:	ab07      	add	r3, sp, #28
    3976:	429c      	cmp	r4, r3
    3978:	d102      	bne.n	3980 <bigint_binary+0x7c>
/home/hsk/Desktop/devel/tee-tpm-hyp/optee_os/lib/libutee/tee_api_arith_mpi.c:363
    397a:	4620      	mov	r0, r4
    397c:	f7ff fd65 	bl	344a <put_mpi>
/home/hsk/Desktop/devel/tee-tpm-hyp/optee_os/lib/libutee/tee_api_arith_mpi.c:364
    3980:	b00a      	add	sp, #40	; 0x28
    3982:	e8bd 87f0 	ldmia.w	sp!, {r4, r5, r6, r7, r8, r9, sl, pc}
    3986:	bf00      	nop
    3988:	00004843 	.word	0x00004843

0000398c <_TEE_MathAPI_Init>:
_TEE_MathAPI_Init():
/home/hsk/Desktop/devel/tee-tpm-hyp/optee_os/lib/libutee/tee_api_arith_mpi.c:48
    398c:	480b      	ldr	r0, [pc, #44]	; (39bc <_TEE_MathAPI_Init+0x30>)
    398e:	2200      	movs	r2, #0
/home/hsk/Desktop/devel/tee-tpm-hyp/optee_os/lib/libutee/tee_api_arith_mpi.c:44
    3990:	b510      	push	{r4, lr}
/home/hsk/Desktop/devel/tee-tpm-hyp/optee_os/lib/libutee/tee_api_arith_mpi.c:48
    3992:	f44f 5100 	mov.w	r1, #8192	; 0x2000
/home/hsk/Desktop/devel/tee-tpm-hyp/optee_os/lib/libutee/tee_api_arith_mpi.c:44
    3996:	4c0a      	ldr	r4, [pc, #40]	; (39c0 <_TEE_MathAPI_Init+0x34>)
/home/hsk/Desktop/devel/tee-tpm-hyp/optee_os/lib/libutee/tee_api_arith_mpi.c:48
    3998:	4478      	add	r0, pc
    399a:	f003 ff23 	bl	77e4 <mempool_alloc_pool>
    399e:	4b09      	ldr	r3, [pc, #36]	; (39c4 <_TEE_MathAPI_Init+0x38>)
/home/hsk/Desktop/devel/tee-tpm-hyp/optee_os/lib/libutee/tee_api_arith_mpi.c:44
    39a0:	447c      	add	r4, pc
/home/hsk/Desktop/devel/tee-tpm-hyp/optee_os/lib/libutee/tee_api_arith_mpi.c:48
    39a2:	58e3      	ldr	r3, [r4, r3]
    39a4:	6018      	str	r0, [r3, #0]
/home/hsk/Desktop/devel/tee-tpm-hyp/optee_os/lib/libutee/tee_api_arith_mpi.c:49
    39a6:	b938      	cbnz	r0, 39b8 <_TEE_MathAPI_Init+0x2c>
/home/hsk/Desktop/devel/tee-tpm-hyp/optee_os/lib/libutee/tee_api_arith_mpi.c:50
    39a8:	4807      	ldr	r0, [pc, #28]	; (39c8 <_TEE_MathAPI_Init+0x3c>)
    39aa:	2132      	movs	r1, #50	; 0x32
    39ac:	4a07      	ldr	r2, [pc, #28]	; (39cc <_TEE_MathAPI_Init+0x40>)
    39ae:	4478      	add	r0, pc
    39b0:	447a      	add	r2, pc
    39b2:	3025      	adds	r0, #37	; 0x25
    39b4:	f000 fd1c 	bl	43f0 <api_panic>
/home/hsk/Desktop/devel/tee-tpm-hyp/optee_os/lib/libutee/tee_api_arith_mpi.c:51
    39b8:	bd10      	pop	{r4, pc}
    39ba:	bf00      	nop
    39bc:	00006728 	.word	0x00006728
    39c0:	00005b10 	.word	0x00005b10
    39c4:	00000038 	.word	0x00000038
    39c8:	000047e5 	.word	0x000047e5
    39cc:	0000496b 	.word	0x0000496b

000039d0 <TEE_BigIntInit>:
TEE_BigIntInit():
/home/hsk/Desktop/devel/tee-tpm-hyp/optee_os/lib/libutee/tee_api_arith_mpi.c:140
    39d0:	f101 021f 	add.w	r2, r1, #31
/home/hsk/Desktop/devel/tee-tpm-hyp/optee_os/lib/libutee/tee_api_arith_mpi.c:139
    39d4:	b510      	push	{r4, lr}
    39d6:	460c      	mov	r4, r1
/home/hsk/Desktop/devel/tee-tpm-hyp/optee_os/lib/libutee/tee_api_arith_mpi.c:140
    39d8:	0952      	lsrs	r2, r2, #5
    39da:	2100      	movs	r1, #0
    39dc:	3202      	adds	r2, #2
/home/hsk/Desktop/devel/tee-tpm-hyp/optee_os/lib/libutee/tee_api_arith_mpi.c:146
    39de:	3c02      	subs	r4, #2
/home/hsk/Desktop/devel/tee-tpm-hyp/optee_os/lib/libutee/tee_api_arith_mpi.c:140
    39e0:	0092      	lsls	r2, r2, #2
    39e2:	f004 f8b2 	bl	7b4a <memset>
/home/hsk/Desktop/devel/tee-tpm-hyp/optee_os/lib/libutee/tee_api_arith_mpi.c:145
    39e6:	2201      	movs	r2, #1
    39e8:	6002      	str	r2, [r0, #0]
/home/hsk/Desktop/devel/tee-tpm-hyp/optee_os/lib/libutee/tee_api_arith_mpi.c:146
    39ea:	f242 7210 	movw	r2, #10000	; 0x2710
    39ee:	4294      	cmp	r4, r2
    39f0:	d907      	bls.n	3a02 <TEE_BigIntInit+0x32>
/home/hsk/Desktop/devel/tee-tpm-hyp/optee_os/lib/libutee/tee_api_arith_mpi.c:147
    39f2:	4805      	ldr	r0, [pc, #20]	; (3a08 <TEE_BigIntInit+0x38>)
    39f4:	2193      	movs	r1, #147	; 0x93
    39f6:	4a05      	ldr	r2, [pc, #20]	; (3a0c <TEE_BigIntInit+0x3c>)
    39f8:	4478      	add	r0, pc
    39fa:	447a      	add	r2, pc
    39fc:	3037      	adds	r0, #55	; 0x37
    39fe:	f000 fcf7 	bl	43f0 <api_panic>
/home/hsk/Desktop/devel/tee-tpm-hyp/optee_os/lib/libutee/tee_api_arith_mpi.c:148
    3a02:	8084      	strh	r4, [r0, #4]
/home/hsk/Desktop/devel/tee-tpm-hyp/optee_os/lib/libutee/tee_api_arith_mpi.c:149
    3a04:	bd10      	pop	{r4, pc}
    3a06:	bf00      	nop
    3a08:	0000479b 	.word	0x0000479b
    3a0c:	00004942 	.word	0x00004942

00003a10 <TEE_BigIntConvertFromOctetString>:
TEE_BigIntConvertFromOctetString():
/home/hsk/Desktop/devel/tee-tpm-hyp/optee_os/lib/libutee/tee_api_arith_mpi.c:154
    3a10:	b5f0      	push	{r4, r5, r6, r7, lr}
    3a12:	460c      	mov	r4, r1
    3a14:	4617      	mov	r7, r2
    3a16:	b085      	sub	sp, #20
/home/hsk/Desktop/devel/tee-tpm-hyp/optee_os/lib/libutee/tee_api_arith_mpi.c:158
    3a18:	4601      	mov	r1, r0
    3a1a:	ad01      	add	r5, sp, #4
/home/hsk/Desktop/devel/tee-tpm-hyp/optee_os/lib/libutee/tee_api_arith_mpi.c:154
    3a1c:	461e      	mov	r6, r3
/home/hsk/Desktop/devel/tee-tpm-hyp/optee_os/lib/libutee/tee_api_arith_mpi.c:158
    3a1e:	4628      	mov	r0, r5
    3a20:	f7ff fcee 	bl	3400 <get_mpi>
/home/hsk/Desktop/devel/tee-tpm-hyp/optee_os/lib/libutee/tee_api_arith_mpi.c:160
    3a24:	4621      	mov	r1, r4
    3a26:	463a      	mov	r2, r7
    3a28:	4628      	mov	r0, r5
    3a2a:	f001 f9ff 	bl	4e2c <mbedtls_mpi_read_binary>
/home/hsk/Desktop/devel/tee-tpm-hyp/optee_os/lib/libutee/tee_api_arith_mpi.c:163
    3a2e:	2800      	cmp	r0, #0
    3a30:	4c06      	ldr	r4, [pc, #24]	; (3a4c <TEE_BigIntConvertFromOctetString+0x3c>)
    3a32:	bf08      	it	eq
    3a34:	2400      	moveq	r4, #0
/home/hsk/Desktop/devel/tee-tpm-hyp/optee_os/lib/libutee/tee_api_arith_mpi.c:165
    3a36:	2e00      	cmp	r6, #0
    3a38:	da02      	bge.n	3a40 <TEE_BigIntConvertFromOctetString+0x30>
/home/hsk/Desktop/devel/tee-tpm-hyp/optee_os/lib/libutee/tee_api_arith_mpi.c:166
    3a3a:	23ff      	movs	r3, #255	; 0xff
    3a3c:	f88d 3004 	strb.w	r3, [sp, #4]
/home/hsk/Desktop/devel/tee-tpm-hyp/optee_os/lib/libutee/tee_api_arith_mpi.c:168
    3a40:	4628      	mov	r0, r5
    3a42:	f7ff fd02 	bl	344a <put_mpi>
/home/hsk/Desktop/devel/tee-tpm-hyp/optee_os/lib/libutee/tee_api_arith_mpi.c:171
    3a46:	4620      	mov	r0, r4
    3a48:	b005      	add	sp, #20
    3a4a:	bdf0      	pop	{r4, r5, r6, r7, pc}
    3a4c:	ffff300f 	.word	0xffff300f

00003a50 <TEE_BigIntConvertToOctetString>:
TEE_BigIntConvertToOctetString():
/home/hsk/Desktop/devel/tee-tpm-hyp/optee_os/lib/libutee/tee_api_arith_mpi.c:175
    3a50:	b5f0      	push	{r4, r5, r6, r7, lr}
    3a52:	460f      	mov	r7, r1
    3a54:	4604      	mov	r4, r0
    3a56:	b085      	sub	sp, #20
/home/hsk/Desktop/devel/tee-tpm-hyp/optee_os/lib/libutee/tee_api_arith_mpi.c:180
    3a58:	4611      	mov	r1, r2
    3a5a:	ad01      	add	r5, sp, #4
    3a5c:	4628      	mov	r0, r5
    3a5e:	f7ff ff2f 	bl	38c0 <get_const_mpi>
/home/hsk/Desktop/devel/tee-tpm-hyp/optee_os/lib/libutee/tee_api_arith_mpi.c:182
    3a62:	4628      	mov	r0, r5
    3a64:	f001 f9dc 	bl	4e20 <mbedtls_mpi_size>
/home/hsk/Desktop/devel/tee-tpm-hyp/optee_os/lib/libutee/tee_api_arith_mpi.c:183
    3a68:	683b      	ldr	r3, [r7, #0]
/home/hsk/Desktop/devel/tee-tpm-hyp/optee_os/lib/libutee/tee_api_arith_mpi.c:182
    3a6a:	4606      	mov	r6, r0
/home/hsk/Desktop/devel/tee-tpm-hyp/optee_os/lib/libutee/tee_api_arith_mpi.c:183
    3a6c:	4283      	cmp	r3, r0
    3a6e:	d30c      	bcc.n	3a8a <TEE_BigIntConvertToOctetString+0x3a>
/home/hsk/Desktop/devel/tee-tpm-hyp/optee_os/lib/libutee/tee_api_arith_mpi.c:184
    3a70:	4602      	mov	r2, r0
    3a72:	4621      	mov	r1, r4
    3a74:	4628      	mov	r0, r5
    3a76:	f001 fa0c 	bl	4e92 <mbedtls_mpi_write_binary>
    3a7a:	b170      	cbz	r0, 3a9a <TEE_BigIntConvertToOctetString+0x4a>
/home/hsk/Desktop/devel/tee-tpm-hyp/optee_os/lib/libutee/tee_api_arith_mpi.c:184 (discriminator 1)
    3a7c:	4602      	mov	r2, r0
    3a7e:	4809      	ldr	r0, [pc, #36]	; (3aa4 <TEE_BigIntConvertToOctetString+0x54>)
    3a80:	21b8      	movs	r1, #184	; 0xb8
    3a82:	4478      	add	r0, pc
    3a84:	3046      	adds	r0, #70	; 0x46
    3a86:	f7ff fcab 	bl	33e0 <mpi_panic>
/home/hsk/Desktop/devel/tee-tpm-hyp/optee_os/lib/libutee/tee_api_arith_mpi.c:186
    3a8a:	4c05      	ldr	r4, [pc, #20]	; (3aa0 <TEE_BigIntConvertToOctetString+0x50>)
/home/hsk/Desktop/devel/tee-tpm-hyp/optee_os/lib/libutee/tee_api_arith_mpi.c:190
    3a8c:	4628      	mov	r0, r5
/home/hsk/Desktop/devel/tee-tpm-hyp/optee_os/lib/libutee/tee_api_arith_mpi.c:188
    3a8e:	603e      	str	r6, [r7, #0]
/home/hsk/Desktop/devel/tee-tpm-hyp/optee_os/lib/libutee/tee_api_arith_mpi.c:190
    3a90:	f7ff fcdb 	bl	344a <put_mpi>
/home/hsk/Desktop/devel/tee-tpm-hyp/optee_os/lib/libutee/tee_api_arith_mpi.c:193
    3a94:	4620      	mov	r0, r4
    3a96:	b005      	add	sp, #20
    3a98:	bdf0      	pop	{r4, r5, r6, r7, pc}
/home/hsk/Desktop/devel/tee-tpm-hyp/optee_os/lib/libutee/tee_api_arith_mpi.c:176
    3a9a:	4604      	mov	r4, r0
    3a9c:	e7f6      	b.n	3a8c <TEE_BigIntConvertToOctetString+0x3c>
    3a9e:	bf00      	nop
    3aa0:	ffff0010 	.word	0xffff0010
    3aa4:	00004711 	.word	0x00004711

00003aa8 <TEE_BigIntConvertFromS32>:
TEE_BigIntConvertFromS32():
/home/hsk/Desktop/devel/tee-tpm-hyp/optee_os/lib/libutee/tee_api_arith_mpi.c:196
    3aa8:	b530      	push	{r4, r5, lr}
    3aaa:	460d      	mov	r5, r1
/home/hsk/Desktop/devel/tee-tpm-hyp/optee_os/lib/libutee/tee_api_arith_mpi.c:199
    3aac:	4601      	mov	r1, r0
/home/hsk/Desktop/devel/tee-tpm-hyp/optee_os/lib/libutee/tee_api_arith_mpi.c:196
    3aae:	b085      	sub	sp, #20
/home/hsk/Desktop/devel/tee-tpm-hyp/optee_os/lib/libutee/tee_api_arith_mpi.c:199
    3ab0:	ac01      	add	r4, sp, #4
    3ab2:	4620      	mov	r0, r4
    3ab4:	f7ff fca4 	bl	3400 <get_mpi>
/home/hsk/Desktop/devel/tee-tpm-hyp/optee_os/lib/libutee/tee_api_arith_mpi.c:201
    3ab8:	4629      	mov	r1, r5
    3aba:	4620      	mov	r0, r4
    3abc:	f001 f921 	bl	4d02 <mbedtls_mpi_lset>
    3ac0:	4602      	mov	r2, r0
    3ac2:	b128      	cbz	r0, 3ad0 <TEE_BigIntConvertFromS32+0x28>
/home/hsk/Desktop/devel/tee-tpm-hyp/optee_os/lib/libutee/tee_api_arith_mpi.c:201 (discriminator 1)
    3ac4:	4805      	ldr	r0, [pc, #20]	; (3adc <TEE_BigIntConvertFromS32+0x34>)
    3ac6:	21c9      	movs	r1, #201	; 0xc9
    3ac8:	4478      	add	r0, pc
    3aca:	3065      	adds	r0, #101	; 0x65
    3acc:	f7ff fc88 	bl	33e0 <mpi_panic>
/home/hsk/Desktop/devel/tee-tpm-hyp/optee_os/lib/libutee/tee_api_arith_mpi.c:203
    3ad0:	4620      	mov	r0, r4
    3ad2:	f7ff fcba 	bl	344a <put_mpi>
/home/hsk/Desktop/devel/tee-tpm-hyp/optee_os/lib/libutee/tee_api_arith_mpi.c:204
    3ad6:	b005      	add	sp, #20
    3ad8:	bd30      	pop	{r4, r5, pc}
    3ada:	bf00      	nop
    3adc:	000046cb 	.word	0x000046cb

00003ae0 <TEE_BigIntConvertToS32>:
TEE_BigIntConvertToS32():
/home/hsk/Desktop/devel/tee-tpm-hyp/optee_os/lib/libutee/tee_api_arith_mpi.c:207
    3ae0:	b530      	push	{r4, r5, lr}
    3ae2:	4605      	mov	r5, r0
    3ae4:	b085      	sub	sp, #20
/home/hsk/Desktop/devel/tee-tpm-hyp/optee_os/lib/libutee/tee_api_arith_mpi.c:212
    3ae6:	ac01      	add	r4, sp, #4
    3ae8:	4620      	mov	r0, r4
    3aea:	f7ff fee9 	bl	38c0 <get_const_mpi>
/home/hsk/Desktop/devel/tee-tpm-hyp/optee_os/lib/libutee/tee_api_arith_mpi.c:214
    3aee:	2204      	movs	r2, #4
    3af0:	4669      	mov	r1, sp
    3af2:	4620      	mov	r0, r4
    3af4:	f001 f9cd 	bl	4e92 <mbedtls_mpi_write_binary>
    3af8:	b9d0      	cbnz	r0, 3b30 <TEE_BigIntConvertToS32+0x50>
    3afa:	9b00      	ldr	r3, [sp, #0]
/home/hsk/Desktop/devel/tee-tpm-hyp/optee_os/lib/libutee/tee_api_arith_mpi.c:219
    3afc:	f99d 2004 	ldrsb.w	r2, [sp, #4]
    3b00:	ba1b      	rev	r3, r3
    3b02:	2a00      	cmp	r2, #0
    3b04:	dd09      	ble.n	3b1a <TEE_BigIntConvertToS32+0x3a>
/home/hsk/Desktop/devel/tee-tpm-hyp/optee_os/lib/libutee/tee_api_arith_mpi.c:220
    3b06:	602b      	str	r3, [r5, #0]
    3b08:	2b00      	cmp	r3, #0
    3b0a:	db11      	blt.n	3b30 <TEE_BigIntConvertToS32+0x50>
/home/hsk/Desktop/devel/tee-tpm-hyp/optee_os/lib/libutee/tee_api_arith_mpi.c:208
    3b0c:	2500      	movs	r5, #0
/home/hsk/Desktop/devel/tee-tpm-hyp/optee_os/lib/libutee/tee_api_arith_mpi.c:228
    3b0e:	4620      	mov	r0, r4
    3b10:	f7ff fc9b 	bl	344a <put_mpi>
/home/hsk/Desktop/devel/tee-tpm-hyp/optee_os/lib/libutee/tee_api_arith_mpi.c:231
    3b14:	4628      	mov	r0, r5
    3b16:	b005      	add	sp, #20
    3b18:	bd30      	pop	{r4, r5, pc}
/home/hsk/Desktop/devel/tee-tpm-hyp/optee_os/lib/libutee/tee_api_arith_mpi.c:223
    3b1a:	425a      	negs	r2, r3
    3b1c:	b11b      	cbz	r3, 3b26 <TEE_BigIntConvertToS32+0x46>
    3b1e:	2a00      	cmp	r2, #0
    3b20:	db03      	blt.n	3b2a <TEE_BigIntConvertToS32+0x4a>
    3b22:	2001      	movs	r0, #1
    3b24:	e001      	b.n	3b2a <TEE_BigIntConvertToS32+0x4a>
    3b26:	2a00      	cmp	r2, #0
    3b28:	dbfb      	blt.n	3b22 <TEE_BigIntConvertToS32+0x42>
    3b2a:	602a      	str	r2, [r5, #0]
    3b2c:	2800      	cmp	r0, #0
    3b2e:	d0ed      	beq.n	3b0c <TEE_BigIntConvertToS32+0x2c>
/home/hsk/Desktop/devel/tee-tpm-hyp/optee_os/lib/libutee/tee_api_arith_mpi.c:221
    3b30:	4d00      	ldr	r5, [pc, #0]	; (3b34 <TEE_BigIntConvertToS32+0x54>)
    3b32:	e7ec      	b.n	3b0e <TEE_BigIntConvertToS32+0x2e>
    3b34:	ffff300f 	.word	0xffff300f

00003b38 <TEE_BigIntCmp>:
TEE_BigIntCmp():
/home/hsk/Desktop/devel/tee-tpm-hyp/optee_os/lib/libutee/tee_api_arith_mpi.c:234
    3b38:	b570      	push	{r4, r5, r6, lr}
    3b3a:	460c      	mov	r4, r1
/home/hsk/Desktop/devel/tee-tpm-hyp/optee_os/lib/libutee/tee_api_arith_mpi.c:239
    3b3c:	4601      	mov	r1, r0
/home/hsk/Desktop/devel/tee-tpm-hyp/optee_os/lib/libutee/tee_api_arith_mpi.c:234
    3b3e:	b086      	sub	sp, #24
/home/hsk/Desktop/devel/tee-tpm-hyp/optee_os/lib/libutee/tee_api_arith_mpi.c:239
    3b40:	466d      	mov	r5, sp
    3b42:	4628      	mov	r0, r5
    3b44:	f7ff febc 	bl	38c0 <get_const_mpi>
/home/hsk/Desktop/devel/tee-tpm-hyp/optee_os/lib/libutee/tee_api_arith_mpi.c:240
    3b48:	4621      	mov	r1, r4
    3b4a:	ac03      	add	r4, sp, #12
    3b4c:	4620      	mov	r0, r4
    3b4e:	f7ff feb7 	bl	38c0 <get_const_mpi>
/home/hsk/Desktop/devel/tee-tpm-hyp/optee_os/lib/libutee/tee_api_arith_mpi.c:242
    3b52:	4621      	mov	r1, r4
    3b54:	4628      	mov	r0, r5
    3b56:	f001 fa79 	bl	504c <mbedtls_mpi_cmp_mpi>
    3b5a:	4606      	mov	r6, r0
/home/hsk/Desktop/devel/tee-tpm-hyp/optee_os/lib/libutee/tee_api_arith_mpi.c:244
    3b5c:	4628      	mov	r0, r5
    3b5e:	f7ff fc74 	bl	344a <put_mpi>
/home/hsk/Desktop/devel/tee-tpm-hyp/optee_os/lib/libutee/tee_api_arith_mpi.c:245
    3b62:	4620      	mov	r0, r4
    3b64:	f7ff fc71 	bl	344a <put_mpi>
/home/hsk/Desktop/devel/tee-tpm-hyp/optee_os/lib/libutee/tee_api_arith_mpi.c:248
    3b68:	4630      	mov	r0, r6
    3b6a:	b006      	add	sp, #24
    3b6c:	bd70      	pop	{r4, r5, r6, pc}

00003b6e <TEE_BigIntCmpS32>:
TEE_BigIntCmpS32():
/home/hsk/Desktop/devel/tee-tpm-hyp/optee_os/lib/libutee/tee_api_arith_mpi.c:251
    3b6e:	b530      	push	{r4, r5, lr}
    3b70:	460d      	mov	r5, r1
/home/hsk/Desktop/devel/tee-tpm-hyp/optee_os/lib/libutee/tee_api_arith_mpi.c:255
    3b72:	4601      	mov	r1, r0
/home/hsk/Desktop/devel/tee-tpm-hyp/optee_os/lib/libutee/tee_api_arith_mpi.c:251
    3b74:	b085      	sub	sp, #20
/home/hsk/Desktop/devel/tee-tpm-hyp/optee_os/lib/libutee/tee_api_arith_mpi.c:255
    3b76:	ac01      	add	r4, sp, #4
    3b78:	4620      	mov	r0, r4
    3b7a:	f7ff fea1 	bl	38c0 <get_const_mpi>
/home/hsk/Desktop/devel/tee-tpm-hyp/optee_os/lib/libutee/tee_api_arith_mpi.c:257
    3b7e:	4629      	mov	r1, r5
    3b80:	4620      	mov	r0, r4
    3b82:	f001 faac 	bl	50de <mbedtls_mpi_cmp_int>
    3b86:	4605      	mov	r5, r0
/home/hsk/Desktop/devel/tee-tpm-hyp/optee_os/lib/libutee/tee_api_arith_mpi.c:259
    3b88:	4620      	mov	r0, r4
    3b8a:	f7ff fc5e 	bl	344a <put_mpi>
/home/hsk/Desktop/devel/tee-tpm-hyp/optee_os/lib/libutee/tee_api_arith_mpi.c:262
    3b8e:	4628      	mov	r0, r5
    3b90:	b005      	add	sp, #20
    3b92:	bd30      	pop	{r4, r5, pc}

00003b94 <bigint_binary_mod>:
bigint_binary_mod():
/home/hsk/Desktop/devel/tee-tpm-hyp/optee_os/lib/libutee/tee_api_arith_mpi.c:370
    3b94:	e92d 47f0 	stmdb	sp!, {r4, r5, r6, r7, r8, r9, sl, lr}
    3b98:	4680      	mov	r8, r0
    3b9a:	460f      	mov	r7, r1
    3b9c:	b090      	sub	sp, #64	; 0x40
/home/hsk/Desktop/devel/tee-tpm-hyp/optee_os/lib/libutee/tee_api_arith_mpi.c:371
    3b9e:	2102      	movs	r1, #2
    3ba0:	4618      	mov	r0, r3
/home/hsk/Desktop/devel/tee-tpm-hyp/optee_os/lib/libutee/tee_api_arith_mpi.c:370
    3ba2:	4614      	mov	r4, r2
    3ba4:	461d      	mov	r5, r3
/home/hsk/Desktop/devel/tee-tpm-hyp/optee_os/lib/libutee/tee_api_arith_mpi.c:371
    3ba6:	f7ff ffe2 	bl	3b6e <TEE_BigIntCmpS32>
    3baa:	2800      	cmp	r0, #0
    3bac:	da08      	bge.n	3bc0 <bigint_binary_mod+0x2c>
/home/hsk/Desktop/devel/tee-tpm-hyp/optee_os/lib/libutee/tee_api_arith_mpi.c:372
    3bae:	482f      	ldr	r0, [pc, #188]	; (3c6c <bigint_binary_mod+0xd8>)
    3bb0:	f44f 71ba 	mov.w	r1, #372	; 0x174
    3bb4:	4a2e      	ldr	r2, [pc, #184]	; (3c70 <bigint_binary_mod+0xdc>)
    3bb6:	4478      	add	r0, pc
    3bb8:	447a      	add	r2, pc
    3bba:	307e      	adds	r0, #126	; 0x7e
    3bbc:	f000 fc18 	bl	43f0 <api_panic>
/home/hsk/Desktop/devel/tee-tpm-hyp/optee_os/lib/libutee/tee_api_arith_mpi.c:382
    3bc0:	ae01      	add	r6, sp, #4
    3bc2:	4641      	mov	r1, r8
    3bc4:	4630      	mov	r0, r6
/home/hsk/Desktop/devel/tee-tpm-hyp/optee_os/lib/libutee/tee_api_arith_mpi.c:383
    3bc6:	f10d 0a28 	add.w	sl, sp, #40	; 0x28
/home/hsk/Desktop/devel/tee-tpm-hyp/optee_os/lib/libutee/tee_api_arith_mpi.c:382
    3bca:	f7ff fc19 	bl	3400 <get_mpi>
/home/hsk/Desktop/devel/tee-tpm-hyp/optee_os/lib/libutee/tee_api_arith_mpi.c:383
    3bce:	4629      	mov	r1, r5
    3bd0:	4650      	mov	r0, sl
    3bd2:	f10d 0910 	add.w	r9, sp, #16
    3bd6:	f7ff fe73 	bl	38c0 <get_const_mpi>
/home/hsk/Desktop/devel/tee-tpm-hyp/optee_os/lib/libutee/tee_api_arith_mpi.c:385
    3bda:	45b8      	cmp	r8, r7
    3bdc:	d021      	beq.n	3c22 <bigint_binary_mod+0x8e>
/home/hsk/Desktop/devel/tee-tpm-hyp/optee_os/lib/libutee/tee_api_arith_mpi.c:378
    3bde:	464d      	mov	r5, r9
/home/hsk/Desktop/devel/tee-tpm-hyp/optee_os/lib/libutee/tee_api_arith_mpi.c:388
    3be0:	4639      	mov	r1, r7
    3be2:	4648      	mov	r0, r9
    3be4:	f7ff fe6c 	bl	38c0 <get_const_mpi>
/home/hsk/Desktop/devel/tee-tpm-hyp/optee_os/lib/libutee/tee_api_arith_mpi.c:390
    3be8:	45a0      	cmp	r8, r4
    3bea:	f10d 081c 	add.w	r8, sp, #28
    3bee:	d01a      	beq.n	3c26 <bigint_binary_mod+0x92>
/home/hsk/Desktop/devel/tee-tpm-hyp/optee_os/lib/libutee/tee_api_arith_mpi.c:392
    3bf0:	42a7      	cmp	r7, r4
    3bf2:	d01a      	beq.n	3c2a <bigint_binary_mod+0x96>
/home/hsk/Desktop/devel/tee-tpm-hyp/optee_os/lib/libutee/tee_api_arith_mpi.c:395
    3bf4:	4621      	mov	r1, r4
/home/hsk/Desktop/devel/tee-tpm-hyp/optee_os/lib/libutee/tee_api_arith_mpi.c:379
    3bf6:	4644      	mov	r4, r8
/home/hsk/Desktop/devel/tee-tpm-hyp/optee_os/lib/libutee/tee_api_arith_mpi.c:395
    3bf8:	4640      	mov	r0, r8
    3bfa:	f7ff fe61 	bl	38c0 <get_const_mpi>
get_mpi():
/home/hsk/Desktop/devel/tee-tpm-hyp/optee_os/lib/libutee/tee_api_arith_mpi.c:99
    3bfe:	af0d      	add	r7, sp, #52	; 0x34
    3c00:	4638      	mov	r0, r7
    3c02:	f000 fec7 	bl	4994 <mbedtls_mpi_init_mempool>
bigint_binary_mod():
/home/hsk/Desktop/devel/tee-tpm-hyp/optee_os/lib/libutee/tee_api_arith_mpi.c:399
    3c06:	4622      	mov	r2, r4
    3c08:	4629      	mov	r1, r5
    3c0a:	4638      	mov	r0, r7
    3c0c:	9b18      	ldr	r3, [sp, #96]	; 0x60
    3c0e:	4798      	blx	r3
    3c10:	4602      	mov	r2, r0
    3c12:	b160      	cbz	r0, 3c2e <bigint_binary_mod+0x9a>
/home/hsk/Desktop/devel/tee-tpm-hyp/optee_os/lib/libutee/tee_api_arith_mpi.c:399 (discriminator 1)
    3c14:	4817      	ldr	r0, [pc, #92]	; (3c74 <bigint_binary_mod+0xe0>)
    3c16:	f240 118f 	movw	r1, #399	; 0x18f
    3c1a:	4478      	add	r0, pc
/home/hsk/Desktop/devel/tee-tpm-hyp/optee_os/lib/libutee/tee_api_arith_mpi.c:400 (discriminator 1)
    3c1c:	307e      	adds	r0, #126	; 0x7e
    3c1e:	f7ff fbdf 	bl	33e0 <mpi_panic>
/home/hsk/Desktop/devel/tee-tpm-hyp/optee_os/lib/libutee/tee_api_arith_mpi.c:386
    3c22:	4635      	mov	r5, r6
    3c24:	e7e0      	b.n	3be8 <bigint_binary_mod+0x54>
/home/hsk/Desktop/devel/tee-tpm-hyp/optee_os/lib/libutee/tee_api_arith_mpi.c:391
    3c26:	4634      	mov	r4, r6
    3c28:	e7e9      	b.n	3bfe <bigint_binary_mod+0x6a>
/home/hsk/Desktop/devel/tee-tpm-hyp/optee_os/lib/libutee/tee_api_arith_mpi.c:393
    3c2a:	462c      	mov	r4, r5
    3c2c:	e7e7      	b.n	3bfe <bigint_binary_mod+0x6a>
/home/hsk/Desktop/devel/tee-tpm-hyp/optee_os/lib/libutee/tee_api_arith_mpi.c:400
    3c2e:	4652      	mov	r2, sl
    3c30:	4639      	mov	r1, r7
    3c32:	4630      	mov	r0, r6
    3c34:	f001 fe6f 	bl	5916 <mbedtls_mpi_mod_mpi>
    3c38:	4602      	mov	r2, r0
    3c3a:	b120      	cbz	r0, 3c46 <bigint_binary_mod+0xb2>
/home/hsk/Desktop/devel/tee-tpm-hyp/optee_os/lib/libutee/tee_api_arith_mpi.c:400 (discriminator 1)
    3c3c:	480e      	ldr	r0, [pc, #56]	; (3c78 <bigint_binary_mod+0xe4>)
    3c3e:	f44f 71c8 	mov.w	r1, #400	; 0x190
    3c42:	4478      	add	r0, pc
    3c44:	e7ea      	b.n	3c1c <bigint_binary_mod+0x88>
/home/hsk/Desktop/devel/tee-tpm-hyp/optee_os/lib/libutee/tee_api_arith_mpi.c:402
    3c46:	4630      	mov	r0, r6
    3c48:	f7ff fbff 	bl	344a <put_mpi>
/home/hsk/Desktop/devel/tee-tpm-hyp/optee_os/lib/libutee/tee_api_arith_mpi.c:403
    3c4c:	454d      	cmp	r5, r9
    3c4e:	d102      	bne.n	3c56 <bigint_binary_mod+0xc2>
/home/hsk/Desktop/devel/tee-tpm-hyp/optee_os/lib/libutee/tee_api_arith_mpi.c:404
    3c50:	4628      	mov	r0, r5
    3c52:	f7ff fbfa 	bl	344a <put_mpi>
/home/hsk/Desktop/devel/tee-tpm-hyp/optee_os/lib/libutee/tee_api_arith_mpi.c:405
    3c56:	4544      	cmp	r4, r8
    3c58:	d102      	bne.n	3c60 <bigint_binary_mod+0xcc>
/home/hsk/Desktop/devel/tee-tpm-hyp/optee_os/lib/libutee/tee_api_arith_mpi.c:406
    3c5a:	4620      	mov	r0, r4
    3c5c:	f7ff fbf5 	bl	344a <put_mpi>
/home/hsk/Desktop/devel/tee-tpm-hyp/optee_os/lib/libutee/tee_api_arith_mpi.c:407
    3c60:	4638      	mov	r0, r7
    3c62:	f7ff fbf2 	bl	344a <put_mpi>
/home/hsk/Desktop/devel/tee-tpm-hyp/optee_os/lib/libutee/tee_api_arith_mpi.c:408
    3c66:	b010      	add	sp, #64	; 0x40
    3c68:	e8bd 87f0 	ldmia.w	sp!, {r4, r5, r6, r7, r8, r9, sl, pc}
    3c6c:	000045dd 	.word	0x000045dd
    3c70:	00004795 	.word	0x00004795
    3c74:	00004579 	.word	0x00004579
    3c78:	00004551 	.word	0x00004551

00003c7c <TEE_BigIntShiftRight>:
TEE_BigIntShiftRight():
/home/hsk/Desktop/devel/tee-tpm-hyp/optee_os/lib/libutee/tee_api_arith_mpi.c:265
    3c7c:	b5f0      	push	{r4, r5, r6, r7, lr}
    3c7e:	4605      	mov	r5, r0
    3c80:	460e      	mov	r6, r1
    3c82:	b08b      	sub	sp, #44	; 0x2c
/home/hsk/Desktop/devel/tee-tpm-hyp/optee_os/lib/libutee/tee_api_arith_mpi.c:269
    3c84:	4601      	mov	r1, r0
    3c86:	ac01      	add	r4, sp, #4
/home/hsk/Desktop/devel/tee-tpm-hyp/optee_os/lib/libutee/tee_api_arith_mpi.c:265
    3c88:	4617      	mov	r7, r2
/home/hsk/Desktop/devel/tee-tpm-hyp/optee_os/lib/libutee/tee_api_arith_mpi.c:269
    3c8a:	4620      	mov	r0, r4
    3c8c:	f7ff fbb8 	bl	3400 <get_mpi>
/home/hsk/Desktop/devel/tee-tpm-hyp/optee_os/lib/libutee/tee_api_arith_mpi.c:271
    3c90:	42b5      	cmp	r5, r6
    3c92:	d10d      	bne.n	3cb0 <TEE_BigIntShiftRight+0x34>
/home/hsk/Desktop/devel/tee-tpm-hyp/optee_os/lib/libutee/tee_api_arith_mpi.c:272
    3c94:	4639      	mov	r1, r7
    3c96:	4620      	mov	r0, r4
    3c98:	f001 f966 	bl	4f68 <mbedtls_mpi_shift_r>
    3c9c:	4602      	mov	r2, r0
    3c9e:	2800      	cmp	r0, #0
    3ca0:	d055      	beq.n	3d4e <TEE_BigIntShiftRight+0xd2>
/home/hsk/Desktop/devel/tee-tpm-hyp/optee_os/lib/libutee/tee_api_arith_mpi.c:272 (discriminator 1)
    3ca2:	482d      	ldr	r0, [pc, #180]	; (3d58 <TEE_BigIntShiftRight+0xdc>)
    3ca4:	f44f 7188 	mov.w	r1, #272	; 0x110
    3ca8:	4478      	add	r0, pc
/home/hsk/Desktop/devel/tee-tpm-hyp/optee_os/lib/libutee/tee_api_arith_mpi.c:279 (discriminator 1)
    3caa:	3090      	adds	r0, #144	; 0x90
    3cac:	f7ff fb98 	bl	33e0 <mpi_panic>
/home/hsk/Desktop/devel/tee-tpm-hyp/optee_os/lib/libutee/tee_api_arith_mpi.c:276
    3cb0:	ad04      	add	r5, sp, #16
    3cb2:	4631      	mov	r1, r6
    3cb4:	4628      	mov	r0, r5
    3cb6:	f7ff fe03 	bl	38c0 <get_const_mpi>
/home/hsk/Desktop/devel/tee-tpm-hyp/optee_os/lib/libutee/tee_api_arith_mpi.c:278
    3cba:	4620      	mov	r0, r4
    3cbc:	f001 f8b0 	bl	4e20 <mbedtls_mpi_size>
    3cc0:	4606      	mov	r6, r0
    3cc2:	4628      	mov	r0, r5
    3cc4:	f001 f8ac 	bl	4e20 <mbedtls_mpi_size>
    3cc8:	4286      	cmp	r6, r0
    3cca:	d315      	bcc.n	3cf8 <TEE_BigIntShiftRight+0x7c>
/home/hsk/Desktop/devel/tee-tpm-hyp/optee_os/lib/libutee/tee_api_arith_mpi.c:279
    3ccc:	4629      	mov	r1, r5
    3cce:	4620      	mov	r0, r4
    3cd0:	f000 ff5c 	bl	4b8c <mbedtls_mpi_copy>
    3cd4:	4602      	mov	r2, r0
    3cd6:	b120      	cbz	r0, 3ce2 <TEE_BigIntShiftRight+0x66>
/home/hsk/Desktop/devel/tee-tpm-hyp/optee_os/lib/libutee/tee_api_arith_mpi.c:279 (discriminator 1)
    3cd8:	4820      	ldr	r0, [pc, #128]	; (3d5c <TEE_BigIntShiftRight+0xe0>)
    3cda:	f240 1117 	movw	r1, #279	; 0x117
    3cde:	4478      	add	r0, pc
    3ce0:	e7e3      	b.n	3caa <TEE_BigIntShiftRight+0x2e>
/home/hsk/Desktop/devel/tee-tpm-hyp/optee_os/lib/libutee/tee_api_arith_mpi.c:280
    3ce2:	4639      	mov	r1, r7
    3ce4:	4620      	mov	r0, r4
    3ce6:	f001 f93f 	bl	4f68 <mbedtls_mpi_shift_r>
    3cea:	4602      	mov	r2, r0
    3cec:	b360      	cbz	r0, 3d48 <TEE_BigIntShiftRight+0xcc>
/home/hsk/Desktop/devel/tee-tpm-hyp/optee_os/lib/libutee/tee_api_arith_mpi.c:280 (discriminator 1)
    3cee:	481c      	ldr	r0, [pc, #112]	; (3d60 <TEE_BigIntShiftRight+0xe4>)
    3cf0:	f44f 718c 	mov.w	r1, #280	; 0x118
    3cf4:	4478      	add	r0, pc
    3cf6:	e7d8      	b.n	3caa <TEE_BigIntShiftRight+0x2e>
get_mpi():
/home/hsk/Desktop/devel/tee-tpm-hyp/optee_os/lib/libutee/tee_api_arith_mpi.c:99
    3cf8:	ae07      	add	r6, sp, #28
    3cfa:	4630      	mov	r0, r6
    3cfc:	f000 fe4a 	bl	4994 <mbedtls_mpi_init_mempool>
TEE_BigIntShiftRight():
/home/hsk/Desktop/devel/tee-tpm-hyp/optee_os/lib/libutee/tee_api_arith_mpi.c:291
    3d00:	4629      	mov	r1, r5
    3d02:	4630      	mov	r0, r6
    3d04:	f000 ff42 	bl	4b8c <mbedtls_mpi_copy>
    3d08:	4602      	mov	r2, r0
    3d0a:	b120      	cbz	r0, 3d16 <TEE_BigIntShiftRight+0x9a>
/home/hsk/Desktop/devel/tee-tpm-hyp/optee_os/lib/libutee/tee_api_arith_mpi.c:291 (discriminator 1)
    3d0c:	4815      	ldr	r0, [pc, #84]	; (3d64 <TEE_BigIntShiftRight+0xe8>)
    3d0e:	f240 1123 	movw	r1, #291	; 0x123
    3d12:	4478      	add	r0, pc
    3d14:	e7c9      	b.n	3caa <TEE_BigIntShiftRight+0x2e>
/home/hsk/Desktop/devel/tee-tpm-hyp/optee_os/lib/libutee/tee_api_arith_mpi.c:292
    3d16:	4639      	mov	r1, r7
    3d18:	4630      	mov	r0, r6
    3d1a:	f001 f925 	bl	4f68 <mbedtls_mpi_shift_r>
    3d1e:	4602      	mov	r2, r0
    3d20:	b120      	cbz	r0, 3d2c <TEE_BigIntShiftRight+0xb0>
/home/hsk/Desktop/devel/tee-tpm-hyp/optee_os/lib/libutee/tee_api_arith_mpi.c:292 (discriminator 1)
    3d22:	4811      	ldr	r0, [pc, #68]	; (3d68 <TEE_BigIntShiftRight+0xec>)
    3d24:	f44f 7192 	mov.w	r1, #292	; 0x124
    3d28:	4478      	add	r0, pc
    3d2a:	e7be      	b.n	3caa <TEE_BigIntShiftRight+0x2e>
/home/hsk/Desktop/devel/tee-tpm-hyp/optee_os/lib/libutee/tee_api_arith_mpi.c:293
    3d2c:	4631      	mov	r1, r6
    3d2e:	4620      	mov	r0, r4
    3d30:	f000 ff2c 	bl	4b8c <mbedtls_mpi_copy>
    3d34:	4602      	mov	r2, r0
    3d36:	b120      	cbz	r0, 3d42 <TEE_BigIntShiftRight+0xc6>
/home/hsk/Desktop/devel/tee-tpm-hyp/optee_os/lib/libutee/tee_api_arith_mpi.c:293 (discriminator 1)
    3d38:	480c      	ldr	r0, [pc, #48]	; (3d6c <TEE_BigIntShiftRight+0xf0>)
    3d3a:	f240 1125 	movw	r1, #293	; 0x125
    3d3e:	4478      	add	r0, pc
    3d40:	e7b3      	b.n	3caa <TEE_BigIntShiftRight+0x2e>
/home/hsk/Desktop/devel/tee-tpm-hyp/optee_os/lib/libutee/tee_api_arith_mpi.c:295
    3d42:	4630      	mov	r0, r6
    3d44:	f7ff fb81 	bl	344a <put_mpi>
/home/hsk/Desktop/devel/tee-tpm-hyp/optee_os/lib/libutee/tee_api_arith_mpi.c:298
    3d48:	4628      	mov	r0, r5
    3d4a:	f7ff fb7e 	bl	344a <put_mpi>
/home/hsk/Desktop/devel/tee-tpm-hyp/optee_os/lib/libutee/tee_api_arith_mpi.c:301
    3d4e:	4620      	mov	r0, r4
    3d50:	f7ff fb7b 	bl	344a <put_mpi>
/home/hsk/Desktop/devel/tee-tpm-hyp/optee_os/lib/libutee/tee_api_arith_mpi.c:302
    3d54:	b00b      	add	sp, #44	; 0x2c
    3d56:	bdf0      	pop	{r4, r5, r6, r7, pc}
    3d58:	000044eb 	.word	0x000044eb
    3d5c:	000044b5 	.word	0x000044b5
    3d60:	0000449f 	.word	0x0000449f
    3d64:	00004481 	.word	0x00004481
    3d68:	0000446b 	.word	0x0000446b
    3d6c:	00004455 	.word	0x00004455

00003d70 <TEE_BigIntGetBit>:
TEE_BigIntGetBit():
/home/hsk/Desktop/devel/tee-tpm-hyp/optee_os/lib/libutee/tee_api_arith_mpi.c:305
    3d70:	b530      	push	{r4, r5, lr}
    3d72:	460d      	mov	r5, r1
/home/hsk/Desktop/devel/tee-tpm-hyp/optee_os/lib/libutee/tee_api_arith_mpi.c:309
    3d74:	4601      	mov	r1, r0
/home/hsk/Desktop/devel/tee-tpm-hyp/optee_os/lib/libutee/tee_api_arith_mpi.c:305
    3d76:	b085      	sub	sp, #20
/home/hsk/Desktop/devel/tee-tpm-hyp/optee_os/lib/libutee/tee_api_arith_mpi.c:309
    3d78:	ac01      	add	r4, sp, #4
    3d7a:	4620      	mov	r0, r4
    3d7c:	f7ff fda0 	bl	38c0 <get_const_mpi>
/home/hsk/Desktop/devel/tee-tpm-hyp/optee_os/lib/libutee/tee_api_arith_mpi.c:311
    3d80:	4629      	mov	r1, r5
    3d82:	4620      	mov	r0, r4
    3d84:	f000 ffd9 	bl	4d3a <mbedtls_mpi_get_bit>
    3d88:	4605      	mov	r5, r0
/home/hsk/Desktop/devel/tee-tpm-hyp/optee_os/lib/libutee/tee_api_arith_mpi.c:313
    3d8a:	4620      	mov	r0, r4
    3d8c:	f7ff fb5d 	bl	344a <put_mpi>
/home/hsk/Desktop/devel/tee-tpm-hyp/optee_os/lib/libutee/tee_api_arith_mpi.c:316
    3d90:	1c28      	adds	r0, r5, #0
    3d92:	bf18      	it	ne
    3d94:	2001      	movne	r0, #1
    3d96:	b005      	add	sp, #20
    3d98:	bd30      	pop	{r4, r5, pc}

00003d9a <TEE_BigIntGetBitCount>:
TEE_BigIntGetBitCount():
/home/hsk/Desktop/devel/tee-tpm-hyp/optee_os/lib/libutee/tee_api_arith_mpi.c:319
    3d9a:	b530      	push	{r4, r5, lr}
/home/hsk/Desktop/devel/tee-tpm-hyp/optee_os/lib/libutee/tee_api_arith_mpi.c:323
    3d9c:	4601      	mov	r1, r0
/home/hsk/Desktop/devel/tee-tpm-hyp/optee_os/lib/libutee/tee_api_arith_mpi.c:319
    3d9e:	b085      	sub	sp, #20
/home/hsk/Desktop/devel/tee-tpm-hyp/optee_os/lib/libutee/tee_api_arith_mpi.c:323
    3da0:	ac01      	add	r4, sp, #4
    3da2:	4620      	mov	r0, r4
    3da4:	f7ff fd8c 	bl	38c0 <get_const_mpi>
/home/hsk/Desktop/devel/tee-tpm-hyp/optee_os/lib/libutee/tee_api_arith_mpi.c:325
    3da8:	4620      	mov	r0, r4
    3daa:	f001 f818 	bl	4dde <mbedtls_mpi_bitlen>
    3dae:	4605      	mov	r5, r0
/home/hsk/Desktop/devel/tee-tpm-hyp/optee_os/lib/libutee/tee_api_arith_mpi.c:327
    3db0:	4620      	mov	r0, r4
    3db2:	f7ff fb4a 	bl	344a <put_mpi>
/home/hsk/Desktop/devel/tee-tpm-hyp/optee_os/lib/libutee/tee_api_arith_mpi.c:330
    3db6:	4628      	mov	r0, r5
    3db8:	b005      	add	sp, #20
    3dba:	bd30      	pop	{r4, r5, pc}

00003dbc <TEE_BigIntAdd>:
TEE_BigIntAdd():
/home/hsk/Desktop/devel/tee-tpm-hyp/optee_os/lib/libutee/tee_api_arith_mpi.c:412
    3dbc:	4b04      	ldr	r3, [pc, #16]	; (3dd0 <TEE_BigIntAdd+0x14>)
    3dbe:	b417      	push	{r0, r1, r2, r4}
/home/hsk/Desktop/devel/tee-tpm-hyp/optee_os/lib/libutee/tee_api_arith_mpi.c:413
    3dc0:	4c04      	ldr	r4, [pc, #16]	; (3dd4 <TEE_BigIntAdd+0x18>)
/home/hsk/Desktop/devel/tee-tpm-hyp/optee_os/lib/libutee/tee_api_arith_mpi.c:412
    3dc2:	447b      	add	r3, pc
/home/hsk/Desktop/devel/tee-tpm-hyp/optee_os/lib/libutee/tee_api_arith_mpi.c:413
    3dc4:	591b      	ldr	r3, [r3, r4]
    3dc6:	9301      	str	r3, [sp, #4]
/home/hsk/Desktop/devel/tee-tpm-hyp/optee_os/lib/libutee/tee_api_arith_mpi.c:414
    3dc8:	b003      	add	sp, #12
    3dca:	f85d 4b04 	ldr.w	r4, [sp], #4
/home/hsk/Desktop/devel/tee-tpm-hyp/optee_os/lib/libutee/tee_api_arith_mpi.c:413
    3dce:	e599      	b.n	3904 <bigint_binary>
    3dd0:	000056ee 	.word	0x000056ee
    3dd4:	00000020 	.word	0x00000020

00003dd8 <TEE_BigIntSub>:
TEE_BigIntSub():
/home/hsk/Desktop/devel/tee-tpm-hyp/optee_os/lib/libutee/tee_api_arith_mpi.c:418
    3dd8:	4b04      	ldr	r3, [pc, #16]	; (3dec <TEE_BigIntSub+0x14>)
    3dda:	b417      	push	{r0, r1, r2, r4}
/home/hsk/Desktop/devel/tee-tpm-hyp/optee_os/lib/libutee/tee_api_arith_mpi.c:419
    3ddc:	4c04      	ldr	r4, [pc, #16]	; (3df0 <TEE_BigIntSub+0x18>)
/home/hsk/Desktop/devel/tee-tpm-hyp/optee_os/lib/libutee/tee_api_arith_mpi.c:418
    3dde:	447b      	add	r3, pc
/home/hsk/Desktop/devel/tee-tpm-hyp/optee_os/lib/libutee/tee_api_arith_mpi.c:419
    3de0:	591b      	ldr	r3, [r3, r4]
    3de2:	9301      	str	r3, [sp, #4]
/home/hsk/Desktop/devel/tee-tpm-hyp/optee_os/lib/libutee/tee_api_arith_mpi.c:420
    3de4:	b003      	add	sp, #12
    3de6:	f85d 4b04 	ldr.w	r4, [sp], #4
/home/hsk/Desktop/devel/tee-tpm-hyp/optee_os/lib/libutee/tee_api_arith_mpi.c:419
    3dea:	e58b      	b.n	3904 <bigint_binary>
    3dec:	000056d2 	.word	0x000056d2
    3df0:	00000028 	.word	0x00000028

00003df4 <TEE_BigIntNeg>:
TEE_BigIntNeg():
/home/hsk/Desktop/devel/tee-tpm-hyp/optee_os/lib/libutee/tee_api_arith_mpi.c:423
    3df4:	b570      	push	{r4, r5, r6, lr}
    3df6:	4605      	mov	r5, r0
    3df8:	460e      	mov	r6, r1
    3dfa:	b086      	sub	sp, #24
/home/hsk/Desktop/devel/tee-tpm-hyp/optee_os/lib/libutee/tee_api_arith_mpi.c:426
    3dfc:	4601      	mov	r1, r0
    3dfe:	466c      	mov	r4, sp
    3e00:	4620      	mov	r0, r4
    3e02:	f7ff fafd 	bl	3400 <get_mpi>
/home/hsk/Desktop/devel/tee-tpm-hyp/optee_os/lib/libutee/tee_api_arith_mpi.c:428
    3e06:	42b5      	cmp	r5, r6
    3e08:	d014      	beq.n	3e34 <TEE_BigIntNeg+0x40>
/home/hsk/Desktop/devel/tee-tpm-hyp/optee_os/lib/libutee/tee_api_arith_mpi.c:431
    3e0a:	ad03      	add	r5, sp, #12
    3e0c:	4631      	mov	r1, r6
    3e0e:	4628      	mov	r0, r5
    3e10:	f7ff fd56 	bl	38c0 <get_const_mpi>
/home/hsk/Desktop/devel/tee-tpm-hyp/optee_os/lib/libutee/tee_api_arith_mpi.c:433
    3e14:	4629      	mov	r1, r5
    3e16:	4620      	mov	r0, r4
    3e18:	f000 feb8 	bl	4b8c <mbedtls_mpi_copy>
    3e1c:	4602      	mov	r2, r0
    3e1e:	b130      	cbz	r0, 3e2e <TEE_BigIntNeg+0x3a>
/home/hsk/Desktop/devel/tee-tpm-hyp/optee_os/lib/libutee/tee_api_arith_mpi.c:433 (discriminator 1)
    3e20:	4809      	ldr	r0, [pc, #36]	; (3e48 <TEE_BigIntNeg+0x54>)
    3e22:	f240 11b1 	movw	r1, #433	; 0x1b1
    3e26:	4478      	add	r0, pc
    3e28:	30a5      	adds	r0, #165	; 0xa5
    3e2a:	f7ff fad9 	bl	33e0 <mpi_panic>
/home/hsk/Desktop/devel/tee-tpm-hyp/optee_os/lib/libutee/tee_api_arith_mpi.c:435
    3e2e:	4628      	mov	r0, r5
    3e30:	f7ff fb0b 	bl	344a <put_mpi>
/home/hsk/Desktop/devel/tee-tpm-hyp/optee_os/lib/libutee/tee_api_arith_mpi.c:438
    3e34:	f89d 3000 	ldrb.w	r3, [sp]
/home/hsk/Desktop/devel/tee-tpm-hyp/optee_os/lib/libutee/tee_api_arith_mpi.c:440
    3e38:	4620      	mov	r0, r4
/home/hsk/Desktop/devel/tee-tpm-hyp/optee_os/lib/libutee/tee_api_arith_mpi.c:438
    3e3a:	425b      	negs	r3, r3
    3e3c:	f88d 3000 	strb.w	r3, [sp]
/home/hsk/Desktop/devel/tee-tpm-hyp/optee_os/lib/libutee/tee_api_arith_mpi.c:440
    3e40:	f7ff fb03 	bl	344a <put_mpi>
/home/hsk/Desktop/devel/tee-tpm-hyp/optee_os/lib/libutee/tee_api_arith_mpi.c:441
    3e44:	b006      	add	sp, #24
    3e46:	bd70      	pop	{r4, r5, r6, pc}
    3e48:	0000436d 	.word	0x0000436d

00003e4c <TEE_BigIntMul>:
TEE_BigIntMul():
/home/hsk/Desktop/devel/tee-tpm-hyp/optee_os/lib/libutee/tee_api_arith_mpi.c:445
    3e4c:	e92d 4ff0 	stmdb	sp!, {r4, r5, r6, r7, r8, r9, sl, fp, lr}
    3e50:	4690      	mov	r8, r2
    3e52:	4681      	mov	r9, r0
    3e54:	b087      	sub	sp, #28
/home/hsk/Desktop/devel/tee-tpm-hyp/optee_os/lib/libutee/tee_api_arith_mpi.c:446
    3e56:	4608      	mov	r0, r1
/home/hsk/Desktop/devel/tee-tpm-hyp/optee_os/lib/libutee/tee_api_arith_mpi.c:445
    3e58:	460f      	mov	r7, r1
/home/hsk/Desktop/devel/tee-tpm-hyp/optee_os/lib/libutee/tee_api_arith_mpi.c:446
    3e5a:	f7ff ff9e 	bl	3d9a <TEE_BigIntGetBitCount>
    3e5e:	4604      	mov	r4, r0
/home/hsk/Desktop/devel/tee-tpm-hyp/optee_os/lib/libutee/tee_api_arith_mpi.c:447
    3e60:	4640      	mov	r0, r8
    3e62:	f7ff ff9a 	bl	3d9a <TEE_BigIntGetBitCount>
/home/hsk/Desktop/devel/tee-tpm-hyp/optee_os/lib/libutee/tee_api_arith_mpi.c:449
    3e66:	f10d 0a0c 	add.w	sl, sp, #12
/home/hsk/Desktop/devel/tee-tpm-hyp/optee_os/lib/libutee/tee_api_arith_mpi.c:448
    3e6a:	f104 031f 	add.w	r3, r4, #31
    3e6e:	f100 041f 	add.w	r4, r0, #31
/home/hsk/Desktop/devel/tee-tpm-hyp/optee_os/lib/libutee/tee_api_arith_mpi.c:445
    3e72:	4e1c      	ldr	r6, [pc, #112]	; (3ee4 <TEE_BigIntMul+0x98>)
/home/hsk/Desktop/devel/tee-tpm-hyp/optee_os/lib/libutee/tee_api_arith_mpi.c:448
    3e74:	0964      	lsrs	r4, r4, #5
    3e76:	eb04 1453 	add.w	r4, r4, r3, lsr #5
/home/hsk/Desktop/devel/tee-tpm-hyp/optee_os/lib/libutee/tee_api_arith_mpi.c:449
    3e7a:	2300      	movs	r3, #0
    3e7c:	9303      	str	r3, [sp, #12]
/home/hsk/Desktop/devel/tee-tpm-hyp/optee_os/lib/libutee/tee_api_arith_mpi.c:445
    3e7e:	447e      	add	r6, pc
/home/hsk/Desktop/devel/tee-tpm-hyp/optee_os/lib/libutee/tee_api_arith_mpi.c:449
    3e80:	f8ca 3004 	str.w	r3, [sl, #4]
/home/hsk/Desktop/devel/tee-tpm-hyp/optee_os/lib/libutee/tee_api_arith_mpi.c:448
    3e84:	3404      	adds	r4, #4
/home/hsk/Desktop/devel/tee-tpm-hyp/optee_os/lib/libutee/tee_api_arith_mpi.c:449
    3e86:	f8ca 3008 	str.w	r3, [sl, #8]
/home/hsk/Desktop/devel/tee-tpm-hyp/optee_os/lib/libutee/tee_api_arith_mpi.c:452
    3e8a:	4b17      	ldr	r3, [pc, #92]	; (3ee8 <TEE_BigIntMul+0x9c>)
    3e8c:	00a1      	lsls	r1, r4, #2
    3e8e:	f856 b003 	ldr.w	fp, [r6, r3]
    3e92:	f8db 0000 	ldr.w	r0, [fp]
    3e96:	f003 fcc7 	bl	7828 <mempool_alloc>
/home/hsk/Desktop/devel/tee-tpm-hyp/optee_os/lib/libutee/tee_api_arith_mpi.c:453
    3e9a:	4605      	mov	r5, r0
    3e9c:	b910      	cbnz	r0, 3ea4 <TEE_BigIntMul+0x58>
/home/hsk/Desktop/devel/tee-tpm-hyp/optee_os/lib/libutee/tee_api_arith_mpi.c:454
    3e9e:	4810      	ldr	r0, [pc, #64]	; (3ee0 <TEE_BigIntMul+0x94>)
    3ea0:	f003 fe08 	bl	7ab4 <TEE_Panic>
/home/hsk/Desktop/devel/tee-tpm-hyp/optee_os/lib/libutee/tee_api_arith_mpi.c:456
    3ea4:	4621      	mov	r1, r4
    3ea6:	4628      	mov	r0, r5
    3ea8:	f7ff fd92 	bl	39d0 <TEE_BigIntInit>
/home/hsk/Desktop/devel/tee-tpm-hyp/optee_os/lib/libutee/tee_api_arith_mpi.c:457
    3eac:	4650      	mov	r0, sl
    3eae:	2103      	movs	r1, #3
    3eb0:	f7ff fd8e 	bl	39d0 <TEE_BigIntInit>
/home/hsk/Desktop/devel/tee-tpm-hyp/optee_os/lib/libutee/tee_api_arith_mpi.c:459
    3eb4:	4b0d      	ldr	r3, [pc, #52]	; (3eec <TEE_BigIntMul+0xa0>)
    3eb6:	4642      	mov	r2, r8
    3eb8:	4639      	mov	r1, r7
    3eba:	4628      	mov	r0, r5
    3ebc:	58f3      	ldr	r3, [r6, r3]
    3ebe:	9301      	str	r3, [sp, #4]
    3ec0:	f7ff fd20 	bl	3904 <bigint_binary>
/home/hsk/Desktop/devel/tee-tpm-hyp/optee_os/lib/libutee/tee_api_arith_mpi.c:461
    3ec4:	4652      	mov	r2, sl
    3ec6:	4629      	mov	r1, r5
    3ec8:	4648      	mov	r0, r9
    3eca:	f7ff ff77 	bl	3dbc <TEE_BigIntAdd>
/home/hsk/Desktop/devel/tee-tpm-hyp/optee_os/lib/libutee/tee_api_arith_mpi.c:463
    3ece:	4629      	mov	r1, r5
    3ed0:	f8db 0000 	ldr.w	r0, [fp]
    3ed4:	f003 fcf0 	bl	78b8 <mempool_free>
/home/hsk/Desktop/devel/tee-tpm-hyp/optee_os/lib/libutee/tee_api_arith_mpi.c:464
    3ed8:	b007      	add	sp, #28
    3eda:	e8bd 8ff0 	ldmia.w	sp!, {r4, r5, r6, r7, r8, r9, sl, fp, pc}
    3ede:	bf00      	nop
    3ee0:	ffff000c 	.word	0xffff000c
    3ee4:	00005632 	.word	0x00005632
    3ee8:	00000038 	.word	0x00000038
    3eec:	0000001c 	.word	0x0000001c

00003ef0 <TEE_BigIntSquare>:
TEE_BigIntSquare():
/home/hsk/Desktop/devel/tee-tpm-hyp/optee_os/lib/libutee/tee_api_arith_mpi.c:468
    3ef0:	460a      	mov	r2, r1
    3ef2:	f7ff bfab 	b.w	3e4c <TEE_BigIntMul>

00003ef6 <TEE_BigIntDiv>:
TEE_BigIntDiv():
/home/hsk/Desktop/devel/tee-tpm-hyp/optee_os/lib/libutee/tee_api_arith_mpi.c:473
    3ef6:	e92d 4ff0 	stmdb	sp!, {r4, r5, r6, r7, r8, r9, sl, fp, lr}
    3efa:	4681      	mov	r9, r0
    3efc:	468b      	mov	fp, r1
    3efe:	b08d      	sub	sp, #52	; 0x34
/home/hsk/Desktop/devel/tee-tpm-hyp/optee_os/lib/libutee/tee_api_arith_mpi.c:481
    3f00:	4601      	mov	r1, r0
    3f02:	466f      	mov	r7, sp
/home/hsk/Desktop/devel/tee-tpm-hyp/optee_os/lib/libutee/tee_api_arith_mpi.c:482
    3f04:	ae03      	add	r6, sp, #12
/home/hsk/Desktop/devel/tee-tpm-hyp/optee_os/lib/libutee/tee_api_arith_mpi.c:481
    3f06:	4638      	mov	r0, r7
/home/hsk/Desktop/devel/tee-tpm-hyp/optee_os/lib/libutee/tee_api_arith_mpi.c:473
    3f08:	4690      	mov	r8, r2
    3f0a:	461c      	mov	r4, r3
/home/hsk/Desktop/devel/tee-tpm-hyp/optee_os/lib/libutee/tee_api_arith_mpi.c:481
    3f0c:	f7ff fa78 	bl	3400 <get_mpi>
/home/hsk/Desktop/devel/tee-tpm-hyp/optee_os/lib/libutee/tee_api_arith_mpi.c:482
    3f10:	4659      	mov	r1, fp
    3f12:	4630      	mov	r0, r6
    3f14:	f7ff fa74 	bl	3400 <get_mpi>
    3f18:	f10d 0a18 	add.w	sl, sp, #24
/home/hsk/Desktop/devel/tee-tpm-hyp/optee_os/lib/libutee/tee_api_arith_mpi.c:484
    3f1c:	45c1      	cmp	r9, r8
    3f1e:	d022      	beq.n	3f66 <TEE_BigIntDiv+0x70>
/home/hsk/Desktop/devel/tee-tpm-hyp/optee_os/lib/libutee/tee_api_arith_mpi.c:486
    3f20:	45c3      	cmp	fp, r8
    3f22:	d022      	beq.n	3f6a <TEE_BigIntDiv+0x74>
/home/hsk/Desktop/devel/tee-tpm-hyp/optee_os/lib/libutee/tee_api_arith_mpi.c:478
    3f24:	4655      	mov	r5, sl
/home/hsk/Desktop/devel/tee-tpm-hyp/optee_os/lib/libutee/tee_api_arith_mpi.c:489
    3f26:	4641      	mov	r1, r8
    3f28:	4650      	mov	r0, sl
    3f2a:	f7ff fcc9 	bl	38c0 <get_const_mpi>
/home/hsk/Desktop/devel/tee-tpm-hyp/optee_os/lib/libutee/tee_api_arith_mpi.c:491
    3f2e:	45a1      	cmp	r9, r4
    3f30:	f10d 0924 	add.w	r9, sp, #36	; 0x24
    3f34:	d01b      	beq.n	3f6e <TEE_BigIntDiv+0x78>
/home/hsk/Desktop/devel/tee-tpm-hyp/optee_os/lib/libutee/tee_api_arith_mpi.c:493
    3f36:	45a3      	cmp	fp, r4
    3f38:	d01b      	beq.n	3f72 <TEE_BigIntDiv+0x7c>
/home/hsk/Desktop/devel/tee-tpm-hyp/optee_os/lib/libutee/tee_api_arith_mpi.c:495
    3f3a:	45a0      	cmp	r8, r4
    3f3c:	d01b      	beq.n	3f76 <TEE_BigIntDiv+0x80>
/home/hsk/Desktop/devel/tee-tpm-hyp/optee_os/lib/libutee/tee_api_arith_mpi.c:498
    3f3e:	4621      	mov	r1, r4
/home/hsk/Desktop/devel/tee-tpm-hyp/optee_os/lib/libutee/tee_api_arith_mpi.c:479
    3f40:	464c      	mov	r4, r9
/home/hsk/Desktop/devel/tee-tpm-hyp/optee_os/lib/libutee/tee_api_arith_mpi.c:498
    3f42:	4648      	mov	r0, r9
    3f44:	f7ff fcbc 	bl	38c0 <get_const_mpi>
/home/hsk/Desktop/devel/tee-tpm-hyp/optee_os/lib/libutee/tee_api_arith_mpi.c:500
    3f48:	462a      	mov	r2, r5
    3f4a:	4623      	mov	r3, r4
    3f4c:	4631      	mov	r1, r6
    3f4e:	4638      	mov	r0, r7
    3f50:	f001 faff 	bl	5552 <mbedtls_mpi_div_mpi>
    3f54:	4602      	mov	r2, r0
    3f56:	b180      	cbz	r0, 3f7a <TEE_BigIntDiv+0x84>
/home/hsk/Desktop/devel/tee-tpm-hyp/optee_os/lib/libutee/tee_api_arith_mpi.c:500 (discriminator 1)
    3f58:	4811      	ldr	r0, [pc, #68]	; (3fa0 <TEE_BigIntDiv+0xaa>)
    3f5a:	f44f 71fa 	mov.w	r1, #500	; 0x1f4
    3f5e:	4478      	add	r0, pc
    3f60:	30b3      	adds	r0, #179	; 0xb3
    3f62:	f7ff fa3d 	bl	33e0 <mpi_panic>
/home/hsk/Desktop/devel/tee-tpm-hyp/optee_os/lib/libutee/tee_api_arith_mpi.c:485
    3f66:	463d      	mov	r5, r7
    3f68:	e7e1      	b.n	3f2e <TEE_BigIntDiv+0x38>
/home/hsk/Desktop/devel/tee-tpm-hyp/optee_os/lib/libutee/tee_api_arith_mpi.c:487
    3f6a:	4635      	mov	r5, r6
    3f6c:	e7df      	b.n	3f2e <TEE_BigIntDiv+0x38>
/home/hsk/Desktop/devel/tee-tpm-hyp/optee_os/lib/libutee/tee_api_arith_mpi.c:492
    3f6e:	463c      	mov	r4, r7
    3f70:	e7ea      	b.n	3f48 <TEE_BigIntDiv+0x52>
/home/hsk/Desktop/devel/tee-tpm-hyp/optee_os/lib/libutee/tee_api_arith_mpi.c:494
    3f72:	4634      	mov	r4, r6
    3f74:	e7e8      	b.n	3f48 <TEE_BigIntDiv+0x52>
/home/hsk/Desktop/devel/tee-tpm-hyp/optee_os/lib/libutee/tee_api_arith_mpi.c:496
    3f76:	462c      	mov	r4, r5
    3f78:	e7e6      	b.n	3f48 <TEE_BigIntDiv+0x52>
/home/hsk/Desktop/devel/tee-tpm-hyp/optee_os/lib/libutee/tee_api_arith_mpi.c:502
    3f7a:	4638      	mov	r0, r7
    3f7c:	f7ff fa65 	bl	344a <put_mpi>
/home/hsk/Desktop/devel/tee-tpm-hyp/optee_os/lib/libutee/tee_api_arith_mpi.c:503
    3f80:	4630      	mov	r0, r6
    3f82:	f7ff fa62 	bl	344a <put_mpi>
/home/hsk/Desktop/devel/tee-tpm-hyp/optee_os/lib/libutee/tee_api_arith_mpi.c:504
    3f86:	4555      	cmp	r5, sl
    3f88:	d102      	bne.n	3f90 <TEE_BigIntDiv+0x9a>
/home/hsk/Desktop/devel/tee-tpm-hyp/optee_os/lib/libutee/tee_api_arith_mpi.c:505
    3f8a:	4628      	mov	r0, r5
    3f8c:	f7ff fa5d 	bl	344a <put_mpi>
/home/hsk/Desktop/devel/tee-tpm-hyp/optee_os/lib/libutee/tee_api_arith_mpi.c:506
    3f90:	454c      	cmp	r4, r9
    3f92:	d102      	bne.n	3f9a <TEE_BigIntDiv+0xa4>
/home/hsk/Desktop/devel/tee-tpm-hyp/optee_os/lib/libutee/tee_api_arith_mpi.c:507
    3f94:	4620      	mov	r0, r4
    3f96:	f7ff fa58 	bl	344a <put_mpi>
/home/hsk/Desktop/devel/tee-tpm-hyp/optee_os/lib/libutee/tee_api_arith_mpi.c:508
    3f9a:	b00d      	add	sp, #52	; 0x34
    3f9c:	e8bd 8ff0 	ldmia.w	sp!, {r4, r5, r6, r7, r8, r9, sl, fp, pc}
    3fa0:	00004235 	.word	0x00004235

00003fa4 <TEE_BigIntMod>:
TEE_BigIntMod():
/home/hsk/Desktop/devel/tee-tpm-hyp/optee_os/lib/libutee/tee_api_arith_mpi.c:511
    3fa4:	b5f7      	push	{r0, r1, r2, r4, r5, r6, r7, lr}
    3fa6:	4606      	mov	r6, r0
    3fa8:	4d0e      	ldr	r5, [pc, #56]	; (3fe4 <TEE_BigIntMod+0x40>)
    3faa:	460f      	mov	r7, r1
/home/hsk/Desktop/devel/tee-tpm-hyp/optee_os/lib/libutee/tee_api_arith_mpi.c:512
    3fac:	4610      	mov	r0, r2
    3fae:	2102      	movs	r1, #2
/home/hsk/Desktop/devel/tee-tpm-hyp/optee_os/lib/libutee/tee_api_arith_mpi.c:511
    3fb0:	4614      	mov	r4, r2
    3fb2:	447d      	add	r5, pc
/home/hsk/Desktop/devel/tee-tpm-hyp/optee_os/lib/libutee/tee_api_arith_mpi.c:512
    3fb4:	f7ff fddb 	bl	3b6e <TEE_BigIntCmpS32>
    3fb8:	2800      	cmp	r0, #0
    3fba:	da08      	bge.n	3fce <TEE_BigIntMod+0x2a>
/home/hsk/Desktop/devel/tee-tpm-hyp/optee_os/lib/libutee/tee_api_arith_mpi.c:513
    3fbc:	480a      	ldr	r0, [pc, #40]	; (3fe8 <TEE_BigIntMod+0x44>)
    3fbe:	f240 2101 	movw	r1, #513	; 0x201
    3fc2:	4a0a      	ldr	r2, [pc, #40]	; (3fec <TEE_BigIntMod+0x48>)
    3fc4:	4478      	add	r0, pc
    3fc6:	447a      	add	r2, pc
    3fc8:	30c1      	adds	r0, #193	; 0xc1
    3fca:	f000 fa11 	bl	43f0 <api_panic>
/home/hsk/Desktop/devel/tee-tpm-hyp/optee_os/lib/libutee/tee_api_arith_mpi.c:515
    3fce:	4b08      	ldr	r3, [pc, #32]	; (3ff0 <TEE_BigIntMod+0x4c>)
    3fd0:	4622      	mov	r2, r4
    3fd2:	4639      	mov	r1, r7
    3fd4:	4630      	mov	r0, r6
    3fd6:	58eb      	ldr	r3, [r5, r3]
    3fd8:	9301      	str	r3, [sp, #4]
/home/hsk/Desktop/devel/tee-tpm-hyp/optee_os/lib/libutee/tee_api_arith_mpi.c:516
    3fda:	b003      	add	sp, #12
    3fdc:	e8bd 40f0 	ldmia.w	sp!, {r4, r5, r6, r7, lr}
/home/hsk/Desktop/devel/tee-tpm-hyp/optee_os/lib/libutee/tee_api_arith_mpi.c:515
    3fe0:	e490      	b.n	3904 <bigint_binary>
    3fe2:	bf00      	nop
    3fe4:	000054fe 	.word	0x000054fe
    3fe8:	000041cf 	.word	0x000041cf
    3fec:	00004387 	.word	0x00004387
    3ff0:	00000030 	.word	0x00000030

00003ff4 <TEE_BigIntAddMod>:
TEE_BigIntAddMod():
/home/hsk/Desktop/devel/tee-tpm-hyp/optee_os/lib/libutee/tee_api_arith_mpi.c:520
    3ff4:	b537      	push	{r0, r1, r2, r4, r5, lr}
    3ff6:	4c04      	ldr	r4, [pc, #16]	; (4008 <TEE_BigIntAddMod+0x14>)
/home/hsk/Desktop/devel/tee-tpm-hyp/optee_os/lib/libutee/tee_api_arith_mpi.c:521
    3ff8:	4d04      	ldr	r5, [pc, #16]	; (400c <TEE_BigIntAddMod+0x18>)
/home/hsk/Desktop/devel/tee-tpm-hyp/optee_os/lib/libutee/tee_api_arith_mpi.c:520
    3ffa:	447c      	add	r4, pc
/home/hsk/Desktop/devel/tee-tpm-hyp/optee_os/lib/libutee/tee_api_arith_mpi.c:521
    3ffc:	5964      	ldr	r4, [r4, r5]
    3ffe:	9400      	str	r4, [sp, #0]
    4000:	f7ff fdc8 	bl	3b94 <bigint_binary_mod>
/home/hsk/Desktop/devel/tee-tpm-hyp/optee_os/lib/libutee/tee_api_arith_mpi.c:522
    4004:	b003      	add	sp, #12
    4006:	bd30      	pop	{r4, r5, pc}
    4008:	000054b6 	.word	0x000054b6
    400c:	00000020 	.word	0x00000020

00004010 <TEE_BigIntSubMod>:
TEE_BigIntSubMod():
/home/hsk/Desktop/devel/tee-tpm-hyp/optee_os/lib/libutee/tee_api_arith_mpi.c:526
    4010:	b537      	push	{r0, r1, r2, r4, r5, lr}
    4012:	4c04      	ldr	r4, [pc, #16]	; (4024 <TEE_BigIntSubMod+0x14>)
/home/hsk/Desktop/devel/tee-tpm-hyp/optee_os/lib/libutee/tee_api_arith_mpi.c:527
    4014:	4d04      	ldr	r5, [pc, #16]	; (4028 <TEE_BigIntSubMod+0x18>)
/home/hsk/Desktop/devel/tee-tpm-hyp/optee_os/lib/libutee/tee_api_arith_mpi.c:526
    4016:	447c      	add	r4, pc
/home/hsk/Desktop/devel/tee-tpm-hyp/optee_os/lib/libutee/tee_api_arith_mpi.c:527
    4018:	5964      	ldr	r4, [r4, r5]
    401a:	9400      	str	r4, [sp, #0]
    401c:	f7ff fdba 	bl	3b94 <bigint_binary_mod>
/home/hsk/Desktop/devel/tee-tpm-hyp/optee_os/lib/libutee/tee_api_arith_mpi.c:528
    4020:	b003      	add	sp, #12
    4022:	bd30      	pop	{r4, r5, pc}
    4024:	0000549a 	.word	0x0000549a
    4028:	00000028 	.word	0x00000028

0000402c <TEE_BigIntMulMod>:
TEE_BigIntMulMod():
/home/hsk/Desktop/devel/tee-tpm-hyp/optee_os/lib/libutee/tee_api_arith_mpi.c:532
    402c:	b537      	push	{r0, r1, r2, r4, r5, lr}
    402e:	4c04      	ldr	r4, [pc, #16]	; (4040 <TEE_BigIntMulMod+0x14>)
/home/hsk/Desktop/devel/tee-tpm-hyp/optee_os/lib/libutee/tee_api_arith_mpi.c:533
    4030:	4d04      	ldr	r5, [pc, #16]	; (4044 <TEE_BigIntMulMod+0x18>)
/home/hsk/Desktop/devel/tee-tpm-hyp/optee_os/lib/libutee/tee_api_arith_mpi.c:532
    4032:	447c      	add	r4, pc
/home/hsk/Desktop/devel/tee-tpm-hyp/optee_os/lib/libutee/tee_api_arith_mpi.c:533
    4034:	5964      	ldr	r4, [r4, r5]
    4036:	9400      	str	r4, [sp, #0]
    4038:	f7ff fdac 	bl	3b94 <bigint_binary_mod>
/home/hsk/Desktop/devel/tee-tpm-hyp/optee_os/lib/libutee/tee_api_arith_mpi.c:534
    403c:	b003      	add	sp, #12
    403e:	bd30      	pop	{r4, r5, pc}
    4040:	0000547e 	.word	0x0000547e
    4044:	0000001c 	.word	0x0000001c

00004048 <TEE_BigIntSquareMod>:
TEE_BigIntSquareMod():
/home/hsk/Desktop/devel/tee-tpm-hyp/optee_os/lib/libutee/tee_api_arith_mpi.c:539
    4048:	4613      	mov	r3, r2
    404a:	460a      	mov	r2, r1
    404c:	f7ff bfee 	b.w	402c <TEE_BigIntMulMod>

00004050 <TEE_BigIntInvMod>:
TEE_BigIntInvMod():
/home/hsk/Desktop/devel/tee-tpm-hyp/optee_os/lib/libutee/tee_api_arith_mpi.c:544
    4050:	e92d 41f0 	stmdb	sp!, {r4, r5, r6, r7, r8, lr}
    4054:	4606      	mov	r6, r0
    4056:	460c      	mov	r4, r1
    4058:	b08a      	sub	sp, #40	; 0x28
/home/hsk/Desktop/devel/tee-tpm-hyp/optee_os/lib/libutee/tee_api_arith_mpi.c:545
    405a:	2102      	movs	r1, #2
    405c:	4610      	mov	r0, r2
/home/hsk/Desktop/devel/tee-tpm-hyp/optee_os/lib/libutee/tee_api_arith_mpi.c:544
    405e:	4690      	mov	r8, r2
/home/hsk/Desktop/devel/tee-tpm-hyp/optee_os/lib/libutee/tee_api_arith_mpi.c:545
    4060:	f7ff fd85 	bl	3b6e <TEE_BigIntCmpS32>
    4064:	2800      	cmp	r0, #0
    4066:	da08      	bge.n	407a <TEE_BigIntInvMod+0x2a>
/home/hsk/Desktop/devel/tee-tpm-hyp/optee_os/lib/libutee/tee_api_arith_mpi.c:546
    4068:	481f      	ldr	r0, [pc, #124]	; (40e8 <TEE_BigIntInvMod+0x98>)
    406a:	f240 2122 	movw	r1, #546	; 0x222
    406e:	4a1f      	ldr	r2, [pc, #124]	; (40ec <TEE_BigIntInvMod+0x9c>)
    4070:	4478      	add	r0, pc
    4072:	447a      	add	r2, pc
    4074:	30cf      	adds	r0, #207	; 0xcf
    4076:	f000 f9bb 	bl	43f0 <api_panic>
/home/hsk/Desktop/devel/tee-tpm-hyp/optee_os/lib/libutee/tee_api_arith_mpi.c:545 (discriminator 1)
    407a:	2100      	movs	r1, #0
    407c:	4620      	mov	r0, r4
    407e:	f7ff fd76 	bl	3b6e <TEE_BigIntCmpS32>
    4082:	2800      	cmp	r0, #0
    4084:	d0f0      	beq.n	4068 <TEE_BigIntInvMod+0x18>
/home/hsk/Desktop/devel/tee-tpm-hyp/optee_os/lib/libutee/tee_api_arith_mpi.c:553
    4086:	ad01      	add	r5, sp, #4
    4088:	4631      	mov	r1, r6
    408a:	4628      	mov	r0, r5
/home/hsk/Desktop/devel/tee-tpm-hyp/optee_os/lib/libutee/tee_api_arith_mpi.c:554
    408c:	af07      	add	r7, sp, #28
/home/hsk/Desktop/devel/tee-tpm-hyp/optee_os/lib/libutee/tee_api_arith_mpi.c:553
    408e:	f7ff f9b7 	bl	3400 <get_mpi>
/home/hsk/Desktop/devel/tee-tpm-hyp/optee_os/lib/libutee/tee_api_arith_mpi.c:554
    4092:	4641      	mov	r1, r8
    4094:	4638      	mov	r0, r7
    4096:	f7ff fc13 	bl	38c0 <get_const_mpi>
/home/hsk/Desktop/devel/tee-tpm-hyp/optee_os/lib/libutee/tee_api_arith_mpi.c:556
    409a:	42b4      	cmp	r4, r6
    409c:	ae04      	add	r6, sp, #16
    409e:	d012      	beq.n	40c6 <TEE_BigIntInvMod+0x76>
/home/hsk/Desktop/devel/tee-tpm-hyp/optee_os/lib/libutee/tee_api_arith_mpi.c:559
    40a0:	4621      	mov	r1, r4
/home/hsk/Desktop/devel/tee-tpm-hyp/optee_os/lib/libutee/tee_api_arith_mpi.c:551
    40a2:	4634      	mov	r4, r6
/home/hsk/Desktop/devel/tee-tpm-hyp/optee_os/lib/libutee/tee_api_arith_mpi.c:559
    40a4:	4630      	mov	r0, r6
    40a6:	f7ff fc0b 	bl	38c0 <get_const_mpi>
/home/hsk/Desktop/devel/tee-tpm-hyp/optee_os/lib/libutee/tee_api_arith_mpi.c:561
    40aa:	463a      	mov	r2, r7
    40ac:	4621      	mov	r1, r4
    40ae:	4628      	mov	r0, r5
    40b0:	f002 f9d6 	bl	6460 <mbedtls_mpi_inv_mod>
    40b4:	4602      	mov	r2, r0
    40b6:	b140      	cbz	r0, 40ca <TEE_BigIntInvMod+0x7a>
/home/hsk/Desktop/devel/tee-tpm-hyp/optee_os/lib/libutee/tee_api_arith_mpi.c:561 (discriminator 1)
    40b8:	480d      	ldr	r0, [pc, #52]	; (40f0 <TEE_BigIntInvMod+0xa0>)
    40ba:	f240 2131 	movw	r1, #561	; 0x231
    40be:	4478      	add	r0, pc
    40c0:	30cf      	adds	r0, #207	; 0xcf
    40c2:	f7ff f98d 	bl	33e0 <mpi_panic>
/home/hsk/Desktop/devel/tee-tpm-hyp/optee_os/lib/libutee/tee_api_arith_mpi.c:557
    40c6:	462c      	mov	r4, r5
    40c8:	e7ef      	b.n	40aa <TEE_BigIntInvMod+0x5a>
/home/hsk/Desktop/devel/tee-tpm-hyp/optee_os/lib/libutee/tee_api_arith_mpi.c:563
    40ca:	4628      	mov	r0, r5
    40cc:	f7ff f9bd 	bl	344a <put_mpi>
/home/hsk/Desktop/devel/tee-tpm-hyp/optee_os/lib/libutee/tee_api_arith_mpi.c:564
    40d0:	4638      	mov	r0, r7
    40d2:	f7ff f9ba 	bl	344a <put_mpi>
/home/hsk/Desktop/devel/tee-tpm-hyp/optee_os/lib/libutee/tee_api_arith_mpi.c:565
    40d6:	42b4      	cmp	r4, r6
    40d8:	d102      	bne.n	40e0 <TEE_BigIntInvMod+0x90>
/home/hsk/Desktop/devel/tee-tpm-hyp/optee_os/lib/libutee/tee_api_arith_mpi.c:566
    40da:	4620      	mov	r0, r4
    40dc:	f7ff f9b5 	bl	344a <put_mpi>
/home/hsk/Desktop/devel/tee-tpm-hyp/optee_os/lib/libutee/tee_api_arith_mpi.c:567
    40e0:	b00a      	add	sp, #40	; 0x28
    40e2:	e8bd 81f0 	ldmia.w	sp!, {r4, r5, r6, r7, r8, pc}
    40e6:	bf00      	nop
    40e8:	00004123 	.word	0x00004123
    40ec:	000042f0 	.word	0x000042f0
    40f0:	000040d5 	.word	0x000040d5

000040f4 <TEE_BigIntRelativePrime>:
TEE_BigIntRelativePrime():
/home/hsk/Desktop/devel/tee-tpm-hyp/optee_os/lib/libutee/tee_api_arith_mpi.c:570
    40f4:	e92d 41f0 	stmdb	sp!, {r4, r5, r6, r7, r8, lr}
    40f8:	4604      	mov	r4, r0
    40fa:	460e      	mov	r6, r1
    40fc:	b08a      	sub	sp, #40	; 0x28
/home/hsk/Desktop/devel/tee-tpm-hyp/optee_os/lib/libutee/tee_api_arith_mpi.c:577
    40fe:	4601      	mov	r1, r0
    4100:	ad01      	add	r5, sp, #4
    4102:	4628      	mov	r0, r5
    4104:	f7ff fbdc 	bl	38c0 <get_const_mpi>
/home/hsk/Desktop/devel/tee-tpm-hyp/optee_os/lib/libutee/tee_api_arith_mpi.c:579
    4108:	42b4      	cmp	r4, r6
    410a:	ac04      	add	r4, sp, #16
    410c:	d016      	beq.n	413c <TEE_BigIntRelativePrime+0x48>
/home/hsk/Desktop/devel/tee-tpm-hyp/optee_os/lib/libutee/tee_api_arith_mpi.c:574
    410e:	46a0      	mov	r8, r4
/home/hsk/Desktop/devel/tee-tpm-hyp/optee_os/lib/libutee/tee_api_arith_mpi.c:582
    4110:	4631      	mov	r1, r6
    4112:	4620      	mov	r0, r4
    4114:	f7ff fbd4 	bl	38c0 <get_const_mpi>
get_mpi():
/home/hsk/Desktop/devel/tee-tpm-hyp/optee_os/lib/libutee/tee_api_arith_mpi.c:99
    4118:	ae07      	add	r6, sp, #28
    411a:	4630      	mov	r0, r6
    411c:	f000 fc3a 	bl	4994 <mbedtls_mpi_init_mempool>
TEE_BigIntRelativePrime():
/home/hsk/Desktop/devel/tee-tpm-hyp/optee_os/lib/libutee/tee_api_arith_mpi.c:586
    4120:	4622      	mov	r2, r4
    4122:	4629      	mov	r1, r5
    4124:	4630      	mov	r0, r6
    4126:	f001 ffed 	bl	6104 <mbedtls_mpi_gcd>
    412a:	4602      	mov	r2, r0
    412c:	b140      	cbz	r0, 4140 <TEE_BigIntRelativePrime+0x4c>
/home/hsk/Desktop/devel/tee-tpm-hyp/optee_os/lib/libutee/tee_api_arith_mpi.c:586 (discriminator 1)
    412e:	480f      	ldr	r0, [pc, #60]	; (416c <TEE_BigIntRelativePrime+0x78>)
    4130:	f240 214a 	movw	r1, #586	; 0x24a
    4134:	4478      	add	r0, pc
    4136:	30e0      	adds	r0, #224	; 0xe0
    4138:	f7ff f952 	bl	33e0 <mpi_panic>
/home/hsk/Desktop/devel/tee-tpm-hyp/optee_os/lib/libutee/tee_api_arith_mpi.c:580
    413c:	46a8      	mov	r8, r5
    413e:	e7eb      	b.n	4118 <TEE_BigIntRelativePrime+0x24>
/home/hsk/Desktop/devel/tee-tpm-hyp/optee_os/lib/libutee/tee_api_arith_mpi.c:588
    4140:	2101      	movs	r1, #1
    4142:	4630      	mov	r0, r6
    4144:	f000 ffcb 	bl	50de <mbedtls_mpi_cmp_int>
    4148:	fab0 f780 	clz	r7, r0
/home/hsk/Desktop/devel/tee-tpm-hyp/optee_os/lib/libutee/tee_api_arith_mpi.c:590
    414c:	4630      	mov	r0, r6
    414e:	f7ff f97c 	bl	344a <put_mpi>
/home/hsk/Desktop/devel/tee-tpm-hyp/optee_os/lib/libutee/tee_api_arith_mpi.c:591
    4152:	4628      	mov	r0, r5
    4154:	f7ff f979 	bl	344a <put_mpi>
/home/hsk/Desktop/devel/tee-tpm-hyp/optee_os/lib/libutee/tee_api_arith_mpi.c:588
    4158:	097f      	lsrs	r7, r7, #5
/home/hsk/Desktop/devel/tee-tpm-hyp/optee_os/lib/libutee/tee_api_arith_mpi.c:592
    415a:	45a0      	cmp	r8, r4
    415c:	d102      	bne.n	4164 <TEE_BigIntRelativePrime+0x70>
/home/hsk/Desktop/devel/tee-tpm-hyp/optee_os/lib/libutee/tee_api_arith_mpi.c:593
    415e:	4640      	mov	r0, r8
    4160:	f7ff f973 	bl	344a <put_mpi>
/home/hsk/Desktop/devel/tee-tpm-hyp/optee_os/lib/libutee/tee_api_arith_mpi.c:596
    4164:	4638      	mov	r0, r7
    4166:	b00a      	add	sp, #40	; 0x28
    4168:	e8bd 81f0 	ldmia.w	sp!, {r4, r5, r6, r7, r8, pc}
    416c:	0000405f 	.word	0x0000405f

00004170 <TEE_BigIntComputeExtendedGcd>:
TEE_BigIntComputeExtendedGcd():
/home/hsk/Desktop/devel/tee-tpm-hyp/optee_os/lib/libutee/tee_api_arith_mpi.c:707
    4170:	e92d 4ff0 	stmdb	sp!, {r4, r5, r6, r7, r8, r9, sl, fp, lr}
    4174:	4699      	mov	r9, r3
    4176:	4680      	mov	r8, r0
    4178:	b095      	sub	sp, #84	; 0x54
    417a:	460f      	mov	r7, r1
/home/hsk/Desktop/devel/tee-tpm-hyp/optee_os/lib/libutee/tee_api_arith_mpi.c:713
    417c:	ae05      	add	r6, sp, #20
    417e:	4601      	mov	r1, r0
/home/hsk/Desktop/devel/tee-tpm-hyp/optee_os/lib/libutee/tee_api_arith_mpi.c:714
    4180:	ad08      	add	r5, sp, #32
/home/hsk/Desktop/devel/tee-tpm-hyp/optee_os/lib/libutee/tee_api_arith_mpi.c:713
    4182:	4630      	mov	r0, r6
/home/hsk/Desktop/devel/tee-tpm-hyp/optee_os/lib/libutee/tee_api_arith_mpi.c:707
    4184:	9c1e      	ldr	r4, [sp, #120]	; 0x78
    4186:	4692      	mov	sl, r2
/home/hsk/Desktop/devel/tee-tpm-hyp/optee_os/lib/libutee/tee_api_arith_mpi.c:713
    4188:	f7ff f93a 	bl	3400 <get_mpi>
/home/hsk/Desktop/devel/tee-tpm-hyp/optee_os/lib/libutee/tee_api_arith_mpi.c:714
    418c:	4649      	mov	r1, r9
    418e:	4628      	mov	r0, r5
    4190:	f7ff fb96 	bl	38c0 <get_const_mpi>
/home/hsk/Desktop/devel/tee-tpm-hyp/optee_os/lib/libutee/tee_api_arith_mpi.c:716
    4194:	45a1      	cmp	r9, r4
    4196:	f10d 092c 	add.w	r9, sp, #44	; 0x2c
    419a:	d01a      	beq.n	41d2 <TEE_BigIntComputeExtendedGcd+0x62>
/home/hsk/Desktop/devel/tee-tpm-hyp/optee_os/lib/libutee/tee_api_arith_mpi.c:719
    419c:	4621      	mov	r1, r4
/home/hsk/Desktop/devel/tee-tpm-hyp/optee_os/lib/libutee/tee_api_arith_mpi.c:711
    419e:	464c      	mov	r4, r9
/home/hsk/Desktop/devel/tee-tpm-hyp/optee_os/lib/libutee/tee_api_arith_mpi.c:719
    41a0:	4648      	mov	r0, r9
    41a2:	f7ff fb8d 	bl	38c0 <get_const_mpi>
/home/hsk/Desktop/devel/tee-tpm-hyp/optee_os/lib/libutee/tee_api_arith_mpi.c:721
    41a6:	b9b7      	cbnz	r7, 41d6 <TEE_BigIntComputeExtendedGcd+0x66>
/home/hsk/Desktop/devel/tee-tpm-hyp/optee_os/lib/libutee/tee_api_arith_mpi.c:721 (discriminator 1)
    41a8:	f1ba 0f00 	cmp.w	sl, #0
    41ac:	d113      	bne.n	41d6 <TEE_BigIntComputeExtendedGcd+0x66>
/home/hsk/Desktop/devel/tee-tpm-hyp/optee_os/lib/libutee/tee_api_arith_mpi.c:722
    41ae:	f1b8 0f00 	cmp.w	r8, #0
    41b2:	d06a      	beq.n	428a <TEE_BigIntComputeExtendedGcd+0x11a>
/home/hsk/Desktop/devel/tee-tpm-hyp/optee_os/lib/libutee/tee_api_arith_mpi.c:723
    41b4:	4622      	mov	r2, r4
    41b6:	4629      	mov	r1, r5
    41b8:	4630      	mov	r0, r6
    41ba:	f001 ffa3 	bl	6104 <mbedtls_mpi_gcd>
    41be:	4602      	mov	r2, r0
    41c0:	2800      	cmp	r0, #0
    41c2:	d062      	beq.n	428a <TEE_BigIntComputeExtendedGcd+0x11a>
/home/hsk/Desktop/devel/tee-tpm-hyp/optee_os/lib/libutee/tee_api_arith_mpi.c:723 (discriminator 1)
    41c4:	483a      	ldr	r0, [pc, #232]	; (42b0 <TEE_BigIntComputeExtendedGcd+0x140>)
    41c6:	f44f 7135 	mov.w	r1, #724	; 0x2d4
    41ca:	4478      	add	r0, pc
/home/hsk/Desktop/devel/tee-tpm-hyp/optee_os/lib/libutee/tee_api_arith_mpi.c:740 (discriminator 1)
    41cc:	30f8      	adds	r0, #248	; 0xf8
    41ce:	f7ff f907 	bl	33e0 <mpi_panic>
/home/hsk/Desktop/devel/tee-tpm-hyp/optee_os/lib/libutee/tee_api_arith_mpi.c:717
    41d2:	462c      	mov	r4, r5
    41d4:	e7e7      	b.n	41a6 <TEE_BigIntComputeExtendedGcd+0x36>
/home/hsk/Desktop/devel/tee-tpm-hyp/optee_os/lib/libutee/tee_api_arith_mpi.c:728
    41d6:	f99d 3020 	ldrsb.w	r3, [sp, #32]
/home/hsk/Desktop/devel/tee-tpm-hyp/optee_os/lib/libutee/tee_api_arith_mpi.c:735
    41da:	f10d 0838 	add.w	r8, sp, #56	; 0x38
    41de:	4639      	mov	r1, r7
/home/hsk/Desktop/devel/tee-tpm-hyp/optee_os/lib/libutee/tee_api_arith_mpi.c:728
    41e0:	9302      	str	r3, [sp, #8]
/home/hsk/Desktop/devel/tee-tpm-hyp/optee_os/lib/libutee/tee_api_arith_mpi.c:732
    41e2:	f04f 0b01 	mov.w	fp, #1
/home/hsk/Desktop/devel/tee-tpm-hyp/optee_os/lib/libutee/tee_api_arith_mpi.c:729
    41e6:	f994 3000 	ldrsb.w	r3, [r4]
/home/hsk/Desktop/devel/tee-tpm-hyp/optee_os/lib/libutee/tee_api_arith_mpi.c:735
    41ea:	4640      	mov	r0, r8
/home/hsk/Desktop/devel/tee-tpm-hyp/optee_os/lib/libutee/tee_api_arith_mpi.c:732
    41ec:	f88d b020 	strb.w	fp, [sp, #32]
/home/hsk/Desktop/devel/tee-tpm-hyp/optee_os/lib/libutee/tee_api_arith_mpi.c:736
    41f0:	af11      	add	r7, sp, #68	; 0x44
/home/hsk/Desktop/devel/tee-tpm-hyp/optee_os/lib/libutee/tee_api_arith_mpi.c:733
    41f2:	f884 b000 	strb.w	fp, [r4]
/home/hsk/Desktop/devel/tee-tpm-hyp/optee_os/lib/libutee/tee_api_arith_mpi.c:729
    41f6:	9303      	str	r3, [sp, #12]
/home/hsk/Desktop/devel/tee-tpm-hyp/optee_os/lib/libutee/tee_api_arith_mpi.c:735
    41f8:	f7ff f902 	bl	3400 <get_mpi>
/home/hsk/Desktop/devel/tee-tpm-hyp/optee_os/lib/libutee/tee_api_arith_mpi.c:736
    41fc:	4651      	mov	r1, sl
    41fe:	4638      	mov	r0, r7
    4200:	f7ff f8fe 	bl	3400 <get_mpi>
/home/hsk/Desktop/devel/tee-tpm-hyp/optee_os/lib/libutee/tee_api_arith_mpi.c:738
    4204:	4621      	mov	r1, r4
    4206:	4628      	mov	r0, r5
    4208:	f000 feec 	bl	4fe4 <mbedtls_mpi_cmp_abs>
/home/hsk/Desktop/devel/tee-tpm-hyp/optee_os/lib/libutee/tee_api_arith_mpi.c:739
    420c:	2800      	cmp	r0, #0
    420e:	d120      	bne.n	4252 <TEE_BigIntComputeExtendedGcd+0xe2>
/home/hsk/Desktop/devel/tee-tpm-hyp/optee_os/lib/libutee/tee_api_arith_mpi.c:740
    4210:	4629      	mov	r1, r5
    4212:	4630      	mov	r0, r6
    4214:	f000 fcba 	bl	4b8c <mbedtls_mpi_copy>
    4218:	4602      	mov	r2, r0
    421a:	b120      	cbz	r0, 4226 <TEE_BigIntComputeExtendedGcd+0xb6>
/home/hsk/Desktop/devel/tee-tpm-hyp/optee_os/lib/libutee/tee_api_arith_mpi.c:740 (discriminator 1)
    421c:	4825      	ldr	r0, [pc, #148]	; (42b4 <TEE_BigIntComputeExtendedGcd+0x144>)
    421e:	f44f 7139 	mov.w	r1, #740	; 0x2e4
    4222:	4478      	add	r0, pc
    4224:	e7d2      	b.n	41cc <TEE_BigIntComputeExtendedGcd+0x5c>
/home/hsk/Desktop/devel/tee-tpm-hyp/optee_os/lib/libutee/tee_api_arith_mpi.c:741
    4226:	4659      	mov	r1, fp
    4228:	4640      	mov	r0, r8
    422a:	f000 fd6a 	bl	4d02 <mbedtls_mpi_lset>
    422e:	4602      	mov	r2, r0
    4230:	b120      	cbz	r0, 423c <TEE_BigIntComputeExtendedGcd+0xcc>
/home/hsk/Desktop/devel/tee-tpm-hyp/optee_os/lib/libutee/tee_api_arith_mpi.c:741 (discriminator 1)
    4232:	4821      	ldr	r0, [pc, #132]	; (42b8 <TEE_BigIntComputeExtendedGcd+0x148>)
    4234:	f240 21e5 	movw	r1, #741	; 0x2e5
    4238:	4478      	add	r0, pc
    423a:	e7c7      	b.n	41cc <TEE_BigIntComputeExtendedGcd+0x5c>
/home/hsk/Desktop/devel/tee-tpm-hyp/optee_os/lib/libutee/tee_api_arith_mpi.c:742
    423c:	4601      	mov	r1, r0
    423e:	4638      	mov	r0, r7
    4240:	f000 fd5f 	bl	4d02 <mbedtls_mpi_lset>
    4244:	4602      	mov	r2, r0
    4246:	b160      	cbz	r0, 4262 <TEE_BigIntComputeExtendedGcd+0xf2>
/home/hsk/Desktop/devel/tee-tpm-hyp/optee_os/lib/libutee/tee_api_arith_mpi.c:742 (discriminator 1)
    4248:	481c      	ldr	r0, [pc, #112]	; (42bc <TEE_BigIntComputeExtendedGcd+0x14c>)
    424a:	f240 21e6 	movw	r1, #742	; 0x2e6
    424e:	4478      	add	r0, pc
    4250:	e7bc      	b.n	41cc <TEE_BigIntComputeExtendedGcd+0x5c>
/home/hsk/Desktop/devel/tee-tpm-hyp/optee_os/lib/libutee/tee_api_arith_mpi.c:743
    4252:	dd28      	ble.n	42a6 <TEE_BigIntComputeExtendedGcd+0x136>
/home/hsk/Desktop/devel/tee-tpm-hyp/optee_os/lib/libutee/tee_api_arith_mpi.c:744
    4254:	462b      	mov	r3, r5
    4256:	463a      	mov	r2, r7
    4258:	4641      	mov	r1, r8
    425a:	9400      	str	r4, [sp, #0]
/home/hsk/Desktop/devel/tee-tpm-hyp/optee_os/lib/libutee/tee_api_arith_mpi.c:746
    425c:	4630      	mov	r0, r6
    425e:	f7ff f902 	bl	3466 <mpi_egcd>
/home/hsk/Desktop/devel/tee-tpm-hyp/optee_os/lib/libutee/tee_api_arith_mpi.c:749 (discriminator 1)
    4262:	f89d 3038 	ldrb.w	r3, [sp, #56]	; 0x38
/home/hsk/Desktop/devel/tee-tpm-hyp/optee_os/lib/libutee/tee_api_arith_mpi.c:752 (discriminator 1)
    4266:	4640      	mov	r0, r8
/home/hsk/Desktop/devel/tee-tpm-hyp/optee_os/lib/libutee/tee_api_arith_mpi.c:749 (discriminator 1)
    4268:	9a02      	ldr	r2, [sp, #8]
    426a:	fb13 fb02 	smulbb	fp, r3, r2
/home/hsk/Desktop/devel/tee-tpm-hyp/optee_os/lib/libutee/tee_api_arith_mpi.c:750 (discriminator 1)
    426e:	f89d 3044 	ldrb.w	r3, [sp, #68]	; 0x44
    4272:	9a03      	ldr	r2, [sp, #12]
/home/hsk/Desktop/devel/tee-tpm-hyp/optee_os/lib/libutee/tee_api_arith_mpi.c:749 (discriminator 1)
    4274:	f88d b038 	strb.w	fp, [sp, #56]	; 0x38
/home/hsk/Desktop/devel/tee-tpm-hyp/optee_os/lib/libutee/tee_api_arith_mpi.c:750 (discriminator 1)
    4278:	fb13 f302 	smulbb	r3, r3, r2
    427c:	f88d 3044 	strb.w	r3, [sp, #68]	; 0x44
/home/hsk/Desktop/devel/tee-tpm-hyp/optee_os/lib/libutee/tee_api_arith_mpi.c:752 (discriminator 1)
    4280:	f7ff f8e3 	bl	344a <put_mpi>
/home/hsk/Desktop/devel/tee-tpm-hyp/optee_os/lib/libutee/tee_api_arith_mpi.c:753 (discriminator 1)
    4284:	4638      	mov	r0, r7
    4286:	f7ff f8e0 	bl	344a <put_mpi>
/home/hsk/Desktop/devel/tee-tpm-hyp/optee_os/lib/libutee/tee_api_arith_mpi.c:756
    428a:	4630      	mov	r0, r6
    428c:	f7ff f8dd 	bl	344a <put_mpi>
/home/hsk/Desktop/devel/tee-tpm-hyp/optee_os/lib/libutee/tee_api_arith_mpi.c:757
    4290:	4628      	mov	r0, r5
    4292:	f7ff f8da 	bl	344a <put_mpi>
/home/hsk/Desktop/devel/tee-tpm-hyp/optee_os/lib/libutee/tee_api_arith_mpi.c:758
    4296:	454c      	cmp	r4, r9
    4298:	d102      	bne.n	42a0 <TEE_BigIntComputeExtendedGcd+0x130>
/home/hsk/Desktop/devel/tee-tpm-hyp/optee_os/lib/libutee/tee_api_arith_mpi.c:759
    429a:	4620      	mov	r0, r4
    429c:	f7ff f8d5 	bl	344a <put_mpi>
/home/hsk/Desktop/devel/tee-tpm-hyp/optee_os/lib/libutee/tee_api_arith_mpi.c:760
    42a0:	b015      	add	sp, #84	; 0x54
    42a2:	e8bd 8ff0 	ldmia.w	sp!, {r4, r5, r6, r7, r8, r9, sl, fp, pc}
/home/hsk/Desktop/devel/tee-tpm-hyp/optee_os/lib/libutee/tee_api_arith_mpi.c:746
    42a6:	9500      	str	r5, [sp, #0]
    42a8:	4623      	mov	r3, r4
    42aa:	4642      	mov	r2, r8
    42ac:	4639      	mov	r1, r7
    42ae:	e7d5      	b.n	425c <TEE_BigIntComputeExtendedGcd+0xec>
    42b0:	00003fc9 	.word	0x00003fc9
    42b4:	00003f71 	.word	0x00003f71
    42b8:	00003f5b 	.word	0x00003f5b
    42bc:	00003f45 	.word	0x00003f45

000042c0 <TEE_BigIntIsProbablePrime>:
TEE_BigIntIsProbablePrime():
/home/hsk/Desktop/devel/tee-tpm-hyp/optee_os/lib/libutee/tee_api_arith_mpi.c:771
    42c0:	b530      	push	{r4, r5, lr}
/home/hsk/Desktop/devel/tee-tpm-hyp/optee_os/lib/libutee/tee_api_arith_mpi.c:775
    42c2:	4601      	mov	r1, r0
/home/hsk/Desktop/devel/tee-tpm-hyp/optee_os/lib/libutee/tee_api_arith_mpi.c:771
    42c4:	b085      	sub	sp, #20
/home/hsk/Desktop/devel/tee-tpm-hyp/optee_os/lib/libutee/tee_api_arith_mpi.c:775
    42c6:	ac01      	add	r4, sp, #4
    42c8:	4620      	mov	r0, r4
    42ca:	f7ff faf9 	bl	38c0 <get_const_mpi>
/home/hsk/Desktop/devel/tee-tpm-hyp/optee_os/lib/libutee/tee_api_arith_mpi.c:777
    42ce:	4907      	ldr	r1, [pc, #28]	; (42ec <TEE_BigIntIsProbablePrime+0x2c>)
    42d0:	2200      	movs	r2, #0
    42d2:	4620      	mov	r0, r4
    42d4:	4479      	add	r1, pc
    42d6:	f002 fa2a 	bl	672e <mbedtls_mpi_is_prime>
    42da:	4605      	mov	r5, r0
/home/hsk/Desktop/devel/tee-tpm-hyp/optee_os/lib/libutee/tee_api_arith_mpi.c:779
    42dc:	4620      	mov	r0, r4
    42de:	f7ff f8b4 	bl	344a <put_mpi>
/home/hsk/Desktop/devel/tee-tpm-hyp/optee_os/lib/libutee/tee_api_arith_mpi.c:785
    42e2:	fab5 f085 	clz	r0, r5
    42e6:	0940      	lsrs	r0, r0, #5
    42e8:	b005      	add	sp, #20
    42ea:	bd30      	pop	{r4, r5, pc}
    42ec:	fffff15d 	.word	0xfffff15d

000042f0 <TEE_BigIntInitFMM>:
TEE_BigIntInitFMM():
/home/hsk/Desktop/devel/tee-tpm-hyp/optee_os/lib/libutee/tee_api_arith_mpi.c:797
    42f0:	f7ff bb6e 	b.w	39d0 <TEE_BigIntInit>

000042f4 <TEE_BigIntInitFMMContext>:
TEE_BigIntInitFMMContext():
/home/hsk/Desktop/devel/tee-tpm-hyp/optee_os/lib/libutee/tee_api_arith_mpi.c:804
    42f4:	4770      	bx	lr

000042f6 <TEE_BigIntFMMSizeInU32>:
TEE_BigIntFMMSizeInU32():
/home/hsk/Desktop/devel/tee-tpm-hyp/optee_os/lib/libutee/tee_api_arith_mpi.c:808
    42f6:	301f      	adds	r0, #31
    42f8:	0940      	lsrs	r0, r0, #5
/home/hsk/Desktop/devel/tee-tpm-hyp/optee_os/lib/libutee/tee_api_arith_mpi.c:809
    42fa:	3002      	adds	r0, #2
    42fc:	4770      	bx	lr

000042fe <TEE_BigIntFMMContextSizeInU32>:
TEE_BigIntFMMContextSizeInU32():
/home/hsk/Desktop/devel/tee-tpm-hyp/optee_os/lib/libutee/tee_api_arith_mpi.c:815
    42fe:	2001      	movs	r0, #1
    4300:	4770      	bx	lr

00004302 <TEE_BigIntConvertToFMM>:
TEE_BigIntConvertToFMM():
/home/hsk/Desktop/devel/tee-tpm-hyp/optee_os/lib/libutee/tee_api_arith_mpi.c:821
    4302:	f7ff be4f 	b.w	3fa4 <TEE_BigIntMod>

00004306 <TEE_BigIntConvertFromFMM>:
TEE_BigIntConvertFromFMM():
/home/hsk/Desktop/devel/tee-tpm-hyp/optee_os/lib/libutee/tee_api_arith_mpi.c:827
    4306:	b570      	push	{r4, r5, r6, lr}
    4308:	460e      	mov	r6, r1
/home/hsk/Desktop/devel/tee-tpm-hyp/optee_os/lib/libutee/tee_api_arith_mpi.c:831
    430a:	4601      	mov	r1, r0
/home/hsk/Desktop/devel/tee-tpm-hyp/optee_os/lib/libutee/tee_api_arith_mpi.c:827
    430c:	b086      	sub	sp, #24
/home/hsk/Desktop/devel/tee-tpm-hyp/optee_os/lib/libutee/tee_api_arith_mpi.c:831
    430e:	466d      	mov	r5, sp
/home/hsk/Desktop/devel/tee-tpm-hyp/optee_os/lib/libutee/tee_api_arith_mpi.c:832
    4310:	ac03      	add	r4, sp, #12
/home/hsk/Desktop/devel/tee-tpm-hyp/optee_os/lib/libutee/tee_api_arith_mpi.c:831
    4312:	4628      	mov	r0, r5
    4314:	f7ff f874 	bl	3400 <get_mpi>
/home/hsk/Desktop/devel/tee-tpm-hyp/optee_os/lib/libutee/tee_api_arith_mpi.c:832
    4318:	4631      	mov	r1, r6
    431a:	4620      	mov	r0, r4
    431c:	f7ff fad0 	bl	38c0 <get_const_mpi>
/home/hsk/Desktop/devel/tee-tpm-hyp/optee_os/lib/libutee/tee_api_arith_mpi.c:834
    4320:	4621      	mov	r1, r4
    4322:	4628      	mov	r0, r5
    4324:	f000 fc32 	bl	4b8c <mbedtls_mpi_copy>
    4328:	4602      	mov	r2, r0
    432a:	b138      	cbz	r0, 433c <TEE_BigIntConvertFromFMM+0x36>
/home/hsk/Desktop/devel/tee-tpm-hyp/optee_os/lib/libutee/tee_api_arith_mpi.c:834 (discriminator 1)
    432c:	4807      	ldr	r0, [pc, #28]	; (434c <TEE_BigIntConvertFromFMM+0x46>)
    432e:	f240 3142 	movw	r1, #834	; 0x342
    4332:	4478      	add	r0, pc
    4334:	f200 1015 	addw	r0, r0, #277	; 0x115
    4338:	f7ff f852 	bl	33e0 <mpi_panic>
/home/hsk/Desktop/devel/tee-tpm-hyp/optee_os/lib/libutee/tee_api_arith_mpi.c:836
    433c:	4628      	mov	r0, r5
    433e:	f7ff f884 	bl	344a <put_mpi>
/home/hsk/Desktop/devel/tee-tpm-hyp/optee_os/lib/libutee/tee_api_arith_mpi.c:837
    4342:	4620      	mov	r0, r4
    4344:	f7ff f881 	bl	344a <put_mpi>
/home/hsk/Desktop/devel/tee-tpm-hyp/optee_os/lib/libutee/tee_api_arith_mpi.c:838
    4348:	b006      	add	sp, #24
    434a:	bd70      	pop	{r4, r5, r6, pc}
    434c:	00003e61 	.word	0x00003e61

00004350 <TEE_BigIntComputeFMM>:
TEE_BigIntComputeFMM():
/home/hsk/Desktop/devel/tee-tpm-hyp/optee_os/lib/libutee/tee_api_arith_mpi.c:843
    4350:	e92d 41f0 	stmdb	sp!, {r4, r5, r6, r7, r8, lr}
    4354:	460f      	mov	r7, r1
/home/hsk/Desktop/devel/tee-tpm-hyp/optee_os/lib/libutee/tee_api_arith_mpi.c:850
    4356:	4601      	mov	r1, r0
/home/hsk/Desktop/devel/tee-tpm-hyp/optee_os/lib/libutee/tee_api_arith_mpi.c:843
    4358:	b090      	sub	sp, #64	; 0x40
    435a:	4690      	mov	r8, r2
/home/hsk/Desktop/devel/tee-tpm-hyp/optee_os/lib/libutee/tee_api_arith_mpi.c:850
    435c:	ad01      	add	r5, sp, #4
/home/hsk/Desktop/devel/tee-tpm-hyp/optee_os/lib/libutee/tee_api_arith_mpi.c:851
    435e:	ae04      	add	r6, sp, #16
/home/hsk/Desktop/devel/tee-tpm-hyp/optee_os/lib/libutee/tee_api_arith_mpi.c:850
    4360:	4628      	mov	r0, r5
/home/hsk/Desktop/devel/tee-tpm-hyp/optee_os/lib/libutee/tee_api_arith_mpi.c:843
    4362:	461c      	mov	r4, r3
/home/hsk/Desktop/devel/tee-tpm-hyp/optee_os/lib/libutee/tee_api_arith_mpi.c:850
    4364:	f7ff f84c 	bl	3400 <get_mpi>
/home/hsk/Desktop/devel/tee-tpm-hyp/optee_os/lib/libutee/tee_api_arith_mpi.c:851
    4368:	4639      	mov	r1, r7
    436a:	4630      	mov	r0, r6
/home/hsk/Desktop/devel/tee-tpm-hyp/optee_os/lib/libutee/tee_api_arith_mpi.c:852
    436c:	af07      	add	r7, sp, #28
/home/hsk/Desktop/devel/tee-tpm-hyp/optee_os/lib/libutee/tee_api_arith_mpi.c:851
    436e:	f7ff faa7 	bl	38c0 <get_const_mpi>
/home/hsk/Desktop/devel/tee-tpm-hyp/optee_os/lib/libutee/tee_api_arith_mpi.c:852
    4372:	4641      	mov	r1, r8
    4374:	4638      	mov	r0, r7
/home/hsk/Desktop/devel/tee-tpm-hyp/optee_os/lib/libutee/tee_api_arith_mpi.c:853
    4376:	f10d 0828 	add.w	r8, sp, #40	; 0x28
/home/hsk/Desktop/devel/tee-tpm-hyp/optee_os/lib/libutee/tee_api_arith_mpi.c:852
    437a:	f7ff faa1 	bl	38c0 <get_const_mpi>
/home/hsk/Desktop/devel/tee-tpm-hyp/optee_os/lib/libutee/tee_api_arith_mpi.c:853
    437e:	4621      	mov	r1, r4
    4380:	4640      	mov	r0, r8
get_mpi():
/home/hsk/Desktop/devel/tee-tpm-hyp/optee_os/lib/libutee/tee_api_arith_mpi.c:99
    4382:	ac0d      	add	r4, sp, #52	; 0x34
TEE_BigIntComputeFMM():
/home/hsk/Desktop/devel/tee-tpm-hyp/optee_os/lib/libutee/tee_api_arith_mpi.c:853
    4384:	f7ff fa9c 	bl	38c0 <get_const_mpi>
get_mpi():
/home/hsk/Desktop/devel/tee-tpm-hyp/optee_os/lib/libutee/tee_api_arith_mpi.c:99
    4388:	4620      	mov	r0, r4
    438a:	f000 fb03 	bl	4994 <mbedtls_mpi_init_mempool>
TEE_BigIntComputeFMM():
/home/hsk/Desktop/devel/tee-tpm-hyp/optee_os/lib/libutee/tee_api_arith_mpi.c:856
    438e:	463a      	mov	r2, r7
    4390:	4631      	mov	r1, r6
    4392:	4620      	mov	r0, r4
    4394:	f000 ffcc 	bl	5330 <mbedtls_mpi_mul_mpi>
    4398:	4602      	mov	r2, r0
    439a:	b138      	cbz	r0, 43ac <TEE_BigIntComputeFMM+0x5c>
/home/hsk/Desktop/devel/tee-tpm-hyp/optee_os/lib/libutee/tee_api_arith_mpi.c:856 (discriminator 1)
    439c:	4812      	ldr	r0, [pc, #72]	; (43e8 <TEE_BigIntComputeFMM+0x98>)
    439e:	f44f 7156 	mov.w	r1, #856	; 0x358
    43a2:	4478      	add	r0, pc
/home/hsk/Desktop/devel/tee-tpm-hyp/optee_os/lib/libutee/tee_api_arith_mpi.c:857 (discriminator 1)
    43a4:	f500 7097 	add.w	r0, r0, #302	; 0x12e
    43a8:	f7ff f81a 	bl	33e0 <mpi_panic>
/home/hsk/Desktop/devel/tee-tpm-hyp/optee_os/lib/libutee/tee_api_arith_mpi.c:857
    43ac:	4642      	mov	r2, r8
    43ae:	4621      	mov	r1, r4
    43b0:	4628      	mov	r0, r5
    43b2:	f001 fab0 	bl	5916 <mbedtls_mpi_mod_mpi>
    43b6:	4602      	mov	r2, r0
    43b8:	b120      	cbz	r0, 43c4 <TEE_BigIntComputeFMM+0x74>
/home/hsk/Desktop/devel/tee-tpm-hyp/optee_os/lib/libutee/tee_api_arith_mpi.c:857 (discriminator 1)
    43ba:	480c      	ldr	r0, [pc, #48]	; (43ec <TEE_BigIntComputeFMM+0x9c>)
    43bc:	f240 3159 	movw	r1, #857	; 0x359
    43c0:	4478      	add	r0, pc
    43c2:	e7ef      	b.n	43a4 <TEE_BigIntComputeFMM+0x54>
/home/hsk/Desktop/devel/tee-tpm-hyp/optee_os/lib/libutee/tee_api_arith_mpi.c:859
    43c4:	4620      	mov	r0, r4
    43c6:	f7ff f840 	bl	344a <put_mpi>
/home/hsk/Desktop/devel/tee-tpm-hyp/optee_os/lib/libutee/tee_api_arith_mpi.c:860
    43ca:	4640      	mov	r0, r8
    43cc:	f7ff f83d 	bl	344a <put_mpi>
/home/hsk/Desktop/devel/tee-tpm-hyp/optee_os/lib/libutee/tee_api_arith_mpi.c:861
    43d0:	4638      	mov	r0, r7
    43d2:	f7ff f83a 	bl	344a <put_mpi>
/home/hsk/Desktop/devel/tee-tpm-hyp/optee_os/lib/libutee/tee_api_arith_mpi.c:862
    43d6:	4630      	mov	r0, r6
    43d8:	f7ff f837 	bl	344a <put_mpi>
/home/hsk/Desktop/devel/tee-tpm-hyp/optee_os/lib/libutee/tee_api_arith_mpi.c:863
    43dc:	4628      	mov	r0, r5
    43de:	f7ff f834 	bl	344a <put_mpi>
/home/hsk/Desktop/devel/tee-tpm-hyp/optee_os/lib/libutee/tee_api_arith_mpi.c:864
    43e2:	b010      	add	sp, #64	; 0x40
    43e4:	e8bd 81f0 	ldmia.w	sp!, {r4, r5, r6, r7, r8, pc}
    43e8:	00003df1 	.word	0x00003df1
    43ec:	00003dd3 	.word	0x00003dd3

000043f0 <api_panic>:
api_panic():
/home/hsk/Desktop/devel/tee-tpm-hyp/optee_os/lib/libutee/tee_api_arith_mpi.c:19
    43f0:	b508      	push	{r3, lr}
/home/hsk/Desktop/devel/tee-tpm-hyp/optee_os/lib/libutee/tee_api_arith_mpi.c:20
    43f2:	4613      	mov	r3, r2
    43f4:	460a      	mov	r2, r1
    43f6:	4601      	mov	r1, r0
    43f8:	4804      	ldr	r0, [pc, #16]	; (440c <api_panic+0x1c>)
    43fa:	4478      	add	r0, pc
    43fc:	f7fc fc29 	bl	c52 <printf>
/home/hsk/Desktop/devel/tee-tpm-hyp/optee_os/lib/libutee/tee_api_arith_mpi.c:21
    4400:	4801      	ldr	r0, [pc, #4]	; (4408 <api_panic+0x18>)
    4402:	f003 fb57 	bl	7ab4 <TEE_Panic>
    4406:	e7fe      	b.n	4406 <api_panic+0x16>
    4408:	00b16127 	.word	0x00b16127
    440c:	00003edc 	.word	0x00003edc

00004410 <mpi_get_digit>:
mpi_get_digit():
/home/hsk/Desktop/devel/tee-tpm-hyp/optee_os/lib/libmbedtls/mbedtls/library/bignum.c:488
    4410:	f1a2 0330 	sub.w	r3, r2, #48	; 0x30
/home/hsk/Desktop/devel/tee-tpm-hyp/optee_os/lib/libmbedtls/mbedtls/library/bignum.c:485
    4414:	b510      	push	{r4, lr}
/home/hsk/Desktop/devel/tee-tpm-hyp/optee_os/lib/libmbedtls/mbedtls/library/bignum.c:488
    4416:	b2dc      	uxtb	r4, r3
    4418:	2c09      	cmp	r4, #9
/home/hsk/Desktop/devel/tee-tpm-hyp/optee_os/lib/libmbedtls/mbedtls/library/bignum.c:486
    441a:	bf88      	it	hi
    441c:	23ff      	movhi	r3, #255	; 0xff
/home/hsk/Desktop/devel/tee-tpm-hyp/optee_os/lib/libmbedtls/mbedtls/library/bignum.c:488
    441e:	6003      	str	r3, [r0, #0]
/home/hsk/Desktop/devel/tee-tpm-hyp/optee_os/lib/libmbedtls/mbedtls/library/bignum.c:489
    4420:	f1a2 0341 	sub.w	r3, r2, #65	; 0x41
    4424:	2b05      	cmp	r3, #5
    4426:	d802      	bhi.n	442e <mpi_get_digit+0x1e>
/home/hsk/Desktop/devel/tee-tpm-hyp/optee_os/lib/libmbedtls/mbedtls/library/bignum.c:489 (discriminator 1)
    4428:	f1a2 0337 	sub.w	r3, r2, #55	; 0x37
    442c:	6003      	str	r3, [r0, #0]
/home/hsk/Desktop/devel/tee-tpm-hyp/optee_os/lib/libmbedtls/mbedtls/library/bignum.c:490
    442e:	f1a2 0361 	sub.w	r3, r2, #97	; 0x61
    4432:	2b05      	cmp	r3, #5
    4434:	d801      	bhi.n	443a <mpi_get_digit+0x2a>
/home/hsk/Desktop/devel/tee-tpm-hyp/optee_os/lib/libmbedtls/mbedtls/library/bignum.c:490 (discriminator 1)
    4436:	3a57      	subs	r2, #87	; 0x57
    4438:	6002      	str	r2, [r0, #0]
/home/hsk/Desktop/devel/tee-tpm-hyp/optee_os/lib/libmbedtls/mbedtls/library/bignum.c:492
    443a:	6803      	ldr	r3, [r0, #0]
/home/hsk/Desktop/devel/tee-tpm-hyp/optee_os/lib/libmbedtls/mbedtls/library/bignum.c:496
    443c:	f06f 0005 	mvn.w	r0, #5
/home/hsk/Desktop/devel/tee-tpm-hyp/optee_os/lib/libmbedtls/mbedtls/library/bignum.c:492
    4440:	428b      	cmp	r3, r1
/home/hsk/Desktop/devel/tee-tpm-hyp/optee_os/lib/libmbedtls/mbedtls/library/bignum.c:496
    4442:	bf38      	it	cc
    4444:	2000      	movcc	r0, #0
    4446:	bd10      	pop	{r4, pc}

00004448 <mpi_sub_hlp>:
mpi_sub_hlp():
/home/hsk/Desktop/devel/tee-tpm-hyp/optee_os/lib/libmbedtls/mbedtls/library/bignum.c:1025
    4448:	2300      	movs	r3, #0
/home/hsk/Desktop/devel/tee-tpm-hyp/optee_os/lib/libmbedtls/mbedtls/library/bignum.c:1021
    444a:	e92d 41f0 	stmdb	sp!, {r4, r5, r6, r7, r8, lr}
    444e:	4688      	mov	r8, r1
    4450:	1f16      	subs	r6, r2, #4
/home/hsk/Desktop/devel/tee-tpm-hyp/optee_os/lib/libmbedtls/mbedtls/library/bignum.c:1025
    4452:	461c      	mov	r4, r3
/home/hsk/Desktop/devel/tee-tpm-hyp/optee_os/lib/libmbedtls/mbedtls/library/bignum.c:1025 (discriminator 1)
    4454:	4284      	cmp	r4, r0
    4456:	d104      	bne.n	4462 <mpi_sub_hlp+0x1a>
    4458:	eb02 0284 	add.w	r2, r2, r4, lsl #2
/home/hsk/Desktop/devel/tee-tpm-hyp/optee_os/lib/libmbedtls/mbedtls/library/bignum.c:1031
    445c:	b9bb      	cbnz	r3, 448e <mpi_sub_hlp+0x46>
/home/hsk/Desktop/devel/tee-tpm-hyp/optee_os/lib/libmbedtls/mbedtls/library/bignum.c:1036
    445e:	e8bd 81f0 	ldmia.w	sp!, {r4, r5, r6, r7, r8, pc}
/home/hsk/Desktop/devel/tee-tpm-hyp/optee_os/lib/libmbedtls/mbedtls/library/bignum.c:1027 (discriminator 3)
    4462:	f856 cf04 	ldr.w	ip, [r6, #4]!
    4466:	ebac 0503 	sub.w	r5, ip, r3
    446a:	6035      	str	r5, [r6, #0]
/home/hsk/Desktop/devel/tee-tpm-hyp/optee_os/lib/libmbedtls/mbedtls/library/bignum.c:1028 (discriminator 3)
    446c:	f858 7024 	ldr.w	r7, [r8, r4, lsl #2]
/home/hsk/Desktop/devel/tee-tpm-hyp/optee_os/lib/libmbedtls/mbedtls/library/bignum.c:1025 (discriminator 3)
    4470:	3401      	adds	r4, #1
/home/hsk/Desktop/devel/tee-tpm-hyp/optee_os/lib/libmbedtls/mbedtls/library/bignum.c:1028 (discriminator 3)
    4472:	42bd      	cmp	r5, r7
    4474:	eba5 0507 	sub.w	r5, r5, r7
    4478:	bf38      	it	cc
    447a:	2101      	movcc	r1, #1
    447c:	bf28      	it	cs
    447e:	2100      	movcs	r1, #0
    4480:	459c      	cmp	ip, r3
    4482:	468e      	mov	lr, r1
    4484:	bf38      	it	cc
    4486:	3101      	addcc	r1, #1
    4488:	6035      	str	r5, [r6, #0]
    448a:	460b      	mov	r3, r1
    448c:	e7e2      	b.n	4454 <mpi_sub_hlp+0xc>
/home/hsk/Desktop/devel/tee-tpm-hyp/optee_os/lib/libmbedtls/mbedtls/library/bignum.c:1033
    448e:	6811      	ldr	r1, [r2, #0]
/home/hsk/Desktop/devel/tee-tpm-hyp/optee_os/lib/libmbedtls/mbedtls/library/bignum.c:1034
    4490:	4299      	cmp	r1, r3
/home/hsk/Desktop/devel/tee-tpm-hyp/optee_os/lib/libmbedtls/mbedtls/library/bignum.c:1033
    4492:	eba1 0003 	sub.w	r0, r1, r3
/home/hsk/Desktop/devel/tee-tpm-hyp/optee_os/lib/libmbedtls/mbedtls/library/bignum.c:1034
    4496:	bf28      	it	cs
    4498:	2300      	movcs	r3, #0
/home/hsk/Desktop/devel/tee-tpm-hyp/optee_os/lib/libmbedtls/mbedtls/library/bignum.c:1033
    449a:	f842 0b04 	str.w	r0, [r2], #4
/home/hsk/Desktop/devel/tee-tpm-hyp/optee_os/lib/libmbedtls/mbedtls/library/bignum.c:1034
    449e:	bf38      	it	cc
    44a0:	2301      	movcc	r3, #1
    44a2:	e7db      	b.n	445c <mpi_sub_hlp+0x14>

000044a4 <mpi_mul_hlp>:
mpi_mul_hlp():
/home/hsk/Desktop/devel/tee-tpm-hyp/optee_os/lib/libmbedtls/mbedtls/library/bignum.c:1187
    44a4:	e92d 4ff0 	stmdb	sp!, {r4, r5, r6, r7, r8, r9, sl, fp, lr}
/home/hsk/Desktop/devel/tee-tpm-hyp/optee_os/lib/libmbedtls/mbedtls/library/bignum.c:1205
    44a8:	4684      	mov	ip, r0
    44aa:	460d      	mov	r5, r1
    44ac:	f102 0440 	add.w	r4, r2, #64	; 0x40
/home/hsk/Desktop/devel/tee-tpm-hyp/optee_os/lib/libmbedtls/mbedtls/library/bignum.c:1188
    44b0:	f04f 0e00 	mov.w	lr, #0
    44b4:	f854 8c40 	ldr.w	r8, [r4, #-64]
    44b8:	3540      	adds	r5, #64	; 0x40
    44ba:	3440      	adds	r4, #64	; 0x40
/home/hsk/Desktop/devel/tee-tpm-hyp/optee_os/lib/libmbedtls/mbedtls/library/bignum.c:1205 (discriminator 1)
    44bc:	f1bc 0f0f 	cmp.w	ip, #15
    44c0:	f200 80b7 	bhi.w	4632 <mpi_mul_hlp+0x18e>
    44c4:	ea4f 1c10 	mov.w	ip, r0, lsr #4
    44c8:	f06f 040f 	mvn.w	r4, #15
    44cc:	fb04 000c 	mla	r0, r4, ip, r0
    44d0:	ea4f 1c8c 	mov.w	ip, ip, lsl #6
    44d4:	eb01 050c 	add.w	r5, r1, ip
    44d8:	eb02 040c 	add.w	r4, r2, ip
/home/hsk/Desktop/devel/tee-tpm-hyp/optee_os/lib/libmbedtls/mbedtls/library/bignum.c:1220
    44dc:	2807      	cmp	r0, #7
    44de:	f240 8090 	bls.w	4602 <mpi_mul_hlp+0x15e>
/home/hsk/Desktop/devel/tee-tpm-hyp/optee_os/lib/libmbedtls/mbedtls/library/bignum.c:1223
    44e2:	f851 600c 	ldr.w	r6, [r1, ip]
    44e6:	fba3 9a06 	umull	r9, sl, r3, r6
    44ea:	2601      	movs	r6, #1
    44ec:	eb1e 0e09 	adds.w	lr, lr, r9
    44f0:	bf38      	it	cc
    44f2:	2600      	movcc	r6, #0
    44f4:	eb18 010e 	adds.w	r1, r8, lr
    44f8:	f842 100c 	str.w	r1, [r2, ip]
    44fc:	eb06 090a 	add.w	r9, r6, sl
    4500:	f04f 0201 	mov.w	r2, #1
    4504:	bf38      	it	cc
    4506:	2200      	movcc	r2, #0
    4508:	686e      	ldr	r6, [r5, #4]
    450a:	444a      	add	r2, r9
    450c:	2101      	movs	r1, #1
    450e:	fba3 6706 	umull	r6, r7, r3, r6
    4512:	1992      	adds	r2, r2, r6
    4514:	6866      	ldr	r6, [r4, #4]
    4516:	bf38      	it	cc
    4518:	2100      	movcc	r1, #0
    451a:	1992      	adds	r2, r2, r6
    451c:	6062      	str	r2, [r4, #4]
    451e:	eb01 0c07 	add.w	ip, r1, r7
    4522:	f04f 0100 	mov.w	r1, #0
/home/hsk/Desktop/devel/tee-tpm-hyp/optee_os/lib/libmbedtls/mbedtls/library/bignum.c:1224
    4526:	68ae      	ldr	r6, [r5, #8]
    4528:	bf28      	it	cs
    452a:	2101      	movcs	r1, #1
/home/hsk/Desktop/devel/tee-tpm-hyp/optee_os/lib/libmbedtls/mbedtls/library/bignum.c:1223
    452c:	4461      	add	r1, ip
/home/hsk/Desktop/devel/tee-tpm-hyp/optee_os/lib/libmbedtls/mbedtls/library/bignum.c:1224
    452e:	2201      	movs	r2, #1
    4530:	fba3 6706 	umull	r6, r7, r3, r6
    4534:	1989      	adds	r1, r1, r6
    4536:	68a6      	ldr	r6, [r4, #8]
    4538:	bf38      	it	cc
    453a:	2200      	movcc	r2, #0
    453c:	1989      	adds	r1, r1, r6
    453e:	60a1      	str	r1, [r4, #8]
    4540:	eb02 0c07 	add.w	ip, r2, r7
    4544:	f04f 0200 	mov.w	r2, #0
    4548:	68ee      	ldr	r6, [r5, #12]
    454a:	bf28      	it	cs
    454c:	2201      	movcs	r2, #1
    454e:	4462      	add	r2, ip
    4550:	2101      	movs	r1, #1
    4552:	fba3 6706 	umull	r6, r7, r3, r6
    4556:	1992      	adds	r2, r2, r6
    4558:	68e6      	ldr	r6, [r4, #12]
    455a:	bf38      	it	cc
    455c:	2100      	movcc	r1, #0
    455e:	1992      	adds	r2, r2, r6
    4560:	60e2      	str	r2, [r4, #12]
    4562:	eb01 0c07 	add.w	ip, r1, r7
    4566:	f04f 0100 	mov.w	r1, #0
/home/hsk/Desktop/devel/tee-tpm-hyp/optee_os/lib/libmbedtls/mbedtls/library/bignum.c:1226
    456a:	692e      	ldr	r6, [r5, #16]
    456c:	bf28      	it	cs
    456e:	2101      	movcs	r1, #1
/home/hsk/Desktop/devel/tee-tpm-hyp/optee_os/lib/libmbedtls/mbedtls/library/bignum.c:1224
    4570:	4461      	add	r1, ip
/home/hsk/Desktop/devel/tee-tpm-hyp/optee_os/lib/libmbedtls/mbedtls/library/bignum.c:1226
    4572:	2201      	movs	r2, #1
    4574:	fba3 6706 	umull	r6, r7, r3, r6
    4578:	1989      	adds	r1, r1, r6
    457a:	6926      	ldr	r6, [r4, #16]
    457c:	bf38      	it	cc
    457e:	2200      	movcc	r2, #0
    4580:	1989      	adds	r1, r1, r6
    4582:	6121      	str	r1, [r4, #16]
    4584:	eb02 0c07 	add.w	ip, r2, r7
    4588:	f04f 0200 	mov.w	r2, #0
    458c:	696e      	ldr	r6, [r5, #20]
    458e:	bf28      	it	cs
    4590:	2201      	movcs	r2, #1
    4592:	4462      	add	r2, ip
    4594:	2101      	movs	r1, #1
    4596:	fba3 6706 	umull	r6, r7, r3, r6
    459a:	1992      	adds	r2, r2, r6
    459c:	6966      	ldr	r6, [r4, #20]
    459e:	bf38      	it	cc
    45a0:	2100      	movcc	r1, #0
    45a2:	1992      	adds	r2, r2, r6
    45a4:	6162      	str	r2, [r4, #20]
    45a6:	eb01 0c07 	add.w	ip, r1, r7
    45aa:	f04f 0100 	mov.w	r1, #0
/home/hsk/Desktop/devel/tee-tpm-hyp/optee_os/lib/libmbedtls/mbedtls/library/bignum.c:1227
    45ae:	69ae      	ldr	r6, [r5, #24]
    45b0:	bf28      	it	cs
    45b2:	2101      	movcs	r1, #1
/home/hsk/Desktop/devel/tee-tpm-hyp/optee_os/lib/libmbedtls/mbedtls/library/bignum.c:1226
    45b4:	4461      	add	r1, ip
/home/hsk/Desktop/devel/tee-tpm-hyp/optee_os/lib/libmbedtls/mbedtls/library/bignum.c:1227
    45b6:	2201      	movs	r2, #1
    45b8:	f105 0c20 	add.w	ip, r5, #32
    45bc:	fba3 6706 	umull	r6, r7, r3, r6
    45c0:	1989      	adds	r1, r1, r6
    45c2:	69a6      	ldr	r6, [r4, #24]
    45c4:	bf38      	it	cc
    45c6:	2200      	movcc	r2, #0
    45c8:	1989      	adds	r1, r1, r6
    45ca:	61a1      	str	r1, [r4, #24]
    45cc:	eb02 0e07 	add.w	lr, r2, r7
    45d0:	f04f 0200 	mov.w	r2, #0
    45d4:	69ee      	ldr	r6, [r5, #28]
    45d6:	bf28      	it	cs
    45d8:	2201      	movcs	r2, #1
    45da:	4472      	add	r2, lr
    45dc:	69e5      	ldr	r5, [r4, #28]
    45de:	2101      	movs	r1, #1
    45e0:	f04f 0e00 	mov.w	lr, #0
    45e4:	fba3 6706 	umull	r6, r7, r3, r6
    45e8:	1992      	adds	r2, r2, r6
    45ea:	bf38      	it	cc
    45ec:	2100      	movcc	r1, #0
    45ee:	1952      	adds	r2, r2, r5
    45f0:	4439      	add	r1, r7
    45f2:	d301      	bcc.n	45f8 <mpi_mul_hlp+0x154>
    45f4:	f04f 0e01 	mov.w	lr, #1
    45f8:	61e2      	str	r2, [r4, #28]
    45fa:	448e      	add	lr, r1
/home/hsk/Desktop/devel/tee-tpm-hyp/optee_os/lib/libmbedtls/mbedtls/library/bignum.c:1220
    45fc:	3808      	subs	r0, #8
/home/hsk/Desktop/devel/tee-tpm-hyp/optee_os/lib/libmbedtls/mbedtls/library/bignum.c:1227
    45fe:	3420      	adds	r4, #32
    4600:	4665      	mov	r5, ip
    4602:	0080      	lsls	r0, r0, #2
/home/hsk/Desktop/devel/tee-tpm-hyp/optee_os/lib/libmbedtls/mbedtls/library/bignum.c:1227 (discriminator 1)
    4604:	4621      	mov	r1, r4
    4606:	eb05 0c00 	add.w	ip, r5, r0
    460a:	f851 2b04 	ldr.w	r2, [r1], #4
/home/hsk/Desktop/devel/tee-tpm-hyp/optee_os/lib/libmbedtls/mbedtls/library/bignum.c:1231 (discriminator 1)
    460e:	4565      	cmp	r5, ip
    4610:	f040 8180 	bne.w	4914 <mpi_mul_hlp+0x470>
    4614:	4404      	add	r4, r0
    4616:	6823      	ldr	r3, [r4, #0]
    4618:	2200      	movs	r2, #0
    461a:	eb13 030e 	adds.w	r3, r3, lr
/home/hsk/Desktop/devel/tee-tpm-hyp/optee_os/lib/libmbedtls/mbedtls/library/bignum.c:1242 (discriminator 1)
    461e:	f04f 0e01 	mov.w	lr, #1
    4622:	bf28      	it	cs
    4624:	2201      	movcs	r2, #1
    4626:	f844 3b04 	str.w	r3, [r4], #4
/home/hsk/Desktop/devel/tee-tpm-hyp/optee_os/lib/libmbedtls/mbedtls/library/bignum.c:1244 (discriminator 1)
    462a:	2a00      	cmp	r2, #0
    462c:	d1f3      	bne.n	4616 <mpi_mul_hlp+0x172>
/home/hsk/Desktop/devel/tee-tpm-hyp/optee_os/lib/libmbedtls/mbedtls/library/bignum.c:1245
    462e:	e8bd 8ff0 	ldmia.w	sp!, {r4, r5, r6, r7, r8, r9, sl, fp, pc}
/home/hsk/Desktop/devel/tee-tpm-hyp/optee_os/lib/libmbedtls/mbedtls/library/bignum.c:1208 (discriminator 2)
    4632:	f855 6c40 	ldr.w	r6, [r5, #-64]
    4636:	fba3 9a06 	umull	r9, sl, r3, r6
    463a:	2601      	movs	r6, #1
    463c:	eb1e 0e09 	adds.w	lr, lr, r9
    4640:	bf38      	it	cc
    4642:	2600      	movcc	r6, #0
    4644:	eb06 090a 	add.w	r9, r6, sl
    4648:	eb1e 0608 	adds.w	r6, lr, r8
    464c:	f844 6c80 	str.w	r6, [r4, #-128]
    4650:	f04f 0e00 	mov.w	lr, #0
    4654:	f855 6c3c 	ldr.w	r6, [r5, #-60]
    4658:	fba3 ab06 	umull	sl, fp, r3, r6
    465c:	f04f 0601 	mov.w	r6, #1
    4660:	bf38      	it	cc
    4662:	2600      	movcc	r6, #0
    4664:	46b0      	mov	r8, r6
    4666:	2601      	movs	r6, #1
    4668:	44c8      	add	r8, r9
    466a:	eb18 080a 	adds.w	r8, r8, sl
    466e:	bf38      	it	cc
    4670:	2600      	movcc	r6, #0
    4672:	eb06 090b 	add.w	r9, r6, fp
    4676:	f854 6c7c 	ldr.w	r6, [r4, #-124]
    467a:	eb16 0608 	adds.w	r6, r6, r8
    467e:	d301      	bcc.n	4684 <mpi_mul_hlp+0x1e0>
    4680:	f04f 0e01 	mov.w	lr, #1
    4684:	f844 6c7c 	str.w	r6, [r4, #-124]
    4688:	44ce      	add	lr, r9
/home/hsk/Desktop/devel/tee-tpm-hyp/optee_os/lib/libmbedtls/mbedtls/library/bignum.c:1209 (discriminator 2)
    468a:	f855 6c38 	ldr.w	r6, [r5, #-56]
    468e:	fba3 7806 	umull	r7, r8, r3, r6
    4692:	2601      	movs	r6, #1
    4694:	eb1e 0e07 	adds.w	lr, lr, r7
    4698:	f854 7c78 	ldr.w	r7, [r4, #-120]
    469c:	bf38      	it	cc
    469e:	2600      	movcc	r6, #0
    46a0:	eb06 0908 	add.w	r9, r6, r8
    46a4:	eb17 070e 	adds.w	r7, r7, lr
    46a8:	f04f 0800 	mov.w	r8, #0
    46ac:	d301      	bcc.n	46b2 <mpi_mul_hlp+0x20e>
    46ae:	f04f 0801 	mov.w	r8, #1
    46b2:	f844 7c78 	str.w	r7, [r4, #-120]
    46b6:	44c8      	add	r8, r9
    46b8:	f04f 0e00 	mov.w	lr, #0
    46bc:	f855 6c34 	ldr.w	r6, [r5, #-52]
    46c0:	fba3 ab06 	umull	sl, fp, r3, r6
    46c4:	2601      	movs	r6, #1
    46c6:	eb18 080a 	adds.w	r8, r8, sl
    46ca:	bf38      	it	cc
    46cc:	2600      	movcc	r6, #0
    46ce:	eb06 090b 	add.w	r9, r6, fp
    46d2:	f854 6c74 	ldr.w	r6, [r4, #-116]
    46d6:	eb16 0608 	adds.w	r6, r6, r8
    46da:	d301      	bcc.n	46e0 <mpi_mul_hlp+0x23c>
    46dc:	f04f 0e01 	mov.w	lr, #1
    46e0:	f844 6c74 	str.w	r6, [r4, #-116]
    46e4:	44ce      	add	lr, r9
/home/hsk/Desktop/devel/tee-tpm-hyp/optee_os/lib/libmbedtls/mbedtls/library/bignum.c:1210 (discriminator 2)
    46e6:	f855 6c30 	ldr.w	r6, [r5, #-48]
    46ea:	fba3 7806 	umull	r7, r8, r3, r6
    46ee:	2601      	movs	r6, #1
    46f0:	eb1e 0e07 	adds.w	lr, lr, r7
    46f4:	f854 7c70 	ldr.w	r7, [r4, #-112]
    46f8:	bf38      	it	cc
    46fa:	2600      	movcc	r6, #0
    46fc:	eb06 0908 	add.w	r9, r6, r8
    4700:	eb17 070e 	adds.w	r7, r7, lr
    4704:	f04f 0800 	mov.w	r8, #0
    4708:	d301      	bcc.n	470e <mpi_mul_hlp+0x26a>
    470a:	f04f 0801 	mov.w	r8, #1
    470e:	f844 7c70 	str.w	r7, [r4, #-112]
    4712:	44c8      	add	r8, r9
    4714:	f04f 0e00 	mov.w	lr, #0
    4718:	f855 6c2c 	ldr.w	r6, [r5, #-44]
    471c:	fba3 ab06 	umull	sl, fp, r3, r6
    4720:	2601      	movs	r6, #1
    4722:	eb18 080a 	adds.w	r8, r8, sl
    4726:	bf38      	it	cc
    4728:	2600      	movcc	r6, #0
    472a:	eb06 090b 	add.w	r9, r6, fp
    472e:	f854 6c6c 	ldr.w	r6, [r4, #-108]
    4732:	eb16 0608 	adds.w	r6, r6, r8
    4736:	d301      	bcc.n	473c <mpi_mul_hlp+0x298>
    4738:	f04f 0e01 	mov.w	lr, #1
    473c:	f844 6c6c 	str.w	r6, [r4, #-108]
    4740:	44ce      	add	lr, r9
/home/hsk/Desktop/devel/tee-tpm-hyp/optee_os/lib/libmbedtls/mbedtls/library/bignum.c:1211 (discriminator 2)
    4742:	f855 6c28 	ldr.w	r6, [r5, #-40]
    4746:	fba3 7806 	umull	r7, r8, r3, r6
    474a:	2601      	movs	r6, #1
    474c:	eb1e 0e07 	adds.w	lr, lr, r7
    4750:	f854 7c68 	ldr.w	r7, [r4, #-104]
    4754:	bf38      	it	cc
    4756:	2600      	movcc	r6, #0
    4758:	eb06 0908 	add.w	r9, r6, r8
    475c:	eb17 070e 	adds.w	r7, r7, lr
    4760:	f04f 0800 	mov.w	r8, #0
    4764:	d301      	bcc.n	476a <mpi_mul_hlp+0x2c6>
    4766:	f04f 0801 	mov.w	r8, #1
    476a:	f844 7c68 	str.w	r7, [r4, #-104]
    476e:	44c8      	add	r8, r9
    4770:	f04f 0e00 	mov.w	lr, #0
    4774:	f855 6c24 	ldr.w	r6, [r5, #-36]
    4778:	fba3 ab06 	umull	sl, fp, r3, r6
    477c:	2601      	movs	r6, #1
    477e:	eb18 080a 	adds.w	r8, r8, sl
    4782:	bf38      	it	cc
    4784:	2600      	movcc	r6, #0
    4786:	eb06 090b 	add.w	r9, r6, fp
    478a:	f854 6c64 	ldr.w	r6, [r4, #-100]
    478e:	eb16 0608 	adds.w	r6, r6, r8
    4792:	d301      	bcc.n	4798 <mpi_mul_hlp+0x2f4>
    4794:	f04f 0e01 	mov.w	lr, #1
    4798:	f844 6c64 	str.w	r6, [r4, #-100]
    479c:	44ce      	add	lr, r9
/home/hsk/Desktop/devel/tee-tpm-hyp/optee_os/lib/libmbedtls/mbedtls/library/bignum.c:1213 (discriminator 2)
    479e:	f855 6c20 	ldr.w	r6, [r5, #-32]
    47a2:	fba3 7806 	umull	r7, r8, r3, r6
    47a6:	2601      	movs	r6, #1
    47a8:	eb1e 0e07 	adds.w	lr, lr, r7
    47ac:	f854 7c60 	ldr.w	r7, [r4, #-96]
    47b0:	bf38      	it	cc
    47b2:	2600      	movcc	r6, #0
    47b4:	eb06 0908 	add.w	r9, r6, r8
    47b8:	eb17 070e 	adds.w	r7, r7, lr
    47bc:	f04f 0800 	mov.w	r8, #0
    47c0:	d301      	bcc.n	47c6 <mpi_mul_hlp+0x322>
    47c2:	f04f 0801 	mov.w	r8, #1
    47c6:	f844 7c60 	str.w	r7, [r4, #-96]
    47ca:	44c8      	add	r8, r9
    47cc:	f04f 0e00 	mov.w	lr, #0
    47d0:	f855 6c1c 	ldr.w	r6, [r5, #-28]
    47d4:	fba3 ab06 	umull	sl, fp, r3, r6
    47d8:	2601      	movs	r6, #1
    47da:	eb18 080a 	adds.w	r8, r8, sl
    47de:	bf38      	it	cc
    47e0:	2600      	movcc	r6, #0
    47e2:	eb06 090b 	add.w	r9, r6, fp
    47e6:	f854 6c5c 	ldr.w	r6, [r4, #-92]
    47ea:	eb16 0608 	adds.w	r6, r6, r8
    47ee:	d301      	bcc.n	47f4 <mpi_mul_hlp+0x350>
    47f0:	f04f 0e01 	mov.w	lr, #1
    47f4:	f844 6c5c 	str.w	r6, [r4, #-92]
    47f8:	44ce      	add	lr, r9
/home/hsk/Desktop/devel/tee-tpm-hyp/optee_os/lib/libmbedtls/mbedtls/library/bignum.c:1214 (discriminator 2)
    47fa:	f855 6c18 	ldr.w	r6, [r5, #-24]
    47fe:	fba3 7806 	umull	r7, r8, r3, r6
    4802:	2601      	movs	r6, #1
    4804:	eb1e 0e07 	adds.w	lr, lr, r7
    4808:	f854 7c58 	ldr.w	r7, [r4, #-88]
    480c:	bf38      	it	cc
    480e:	2600      	movcc	r6, #0
    4810:	eb06 0908 	add.w	r9, r6, r8
    4814:	eb17 070e 	adds.w	r7, r7, lr
    4818:	f04f 0800 	mov.w	r8, #0
    481c:	d301      	bcc.n	4822 <mpi_mul_hlp+0x37e>
    481e:	f04f 0801 	mov.w	r8, #1
    4822:	f844 7c58 	str.w	r7, [r4, #-88]
    4826:	44c8      	add	r8, r9
    4828:	f04f 0e00 	mov.w	lr, #0
    482c:	f855 6c14 	ldr.w	r6, [r5, #-20]
    4830:	fba3 ab06 	umull	sl, fp, r3, r6
    4834:	2601      	movs	r6, #1
    4836:	eb18 080a 	adds.w	r8, r8, sl
    483a:	bf38      	it	cc
    483c:	2600      	movcc	r6, #0
    483e:	eb06 090b 	add.w	r9, r6, fp
    4842:	f854 6c54 	ldr.w	r6, [r4, #-84]
    4846:	eb16 0608 	adds.w	r6, r6, r8
    484a:	d301      	bcc.n	4850 <mpi_mul_hlp+0x3ac>
    484c:	f04f 0e01 	mov.w	lr, #1
    4850:	f844 6c54 	str.w	r6, [r4, #-84]
    4854:	44ce      	add	lr, r9
/home/hsk/Desktop/devel/tee-tpm-hyp/optee_os/lib/libmbedtls/mbedtls/library/bignum.c:1215 (discriminator 2)
    4856:	f855 6c10 	ldr.w	r6, [r5, #-16]
    485a:	fba3 7806 	umull	r7, r8, r3, r6
    485e:	2601      	movs	r6, #1
    4860:	eb1e 0e07 	adds.w	lr, lr, r7
    4864:	f854 7c50 	ldr.w	r7, [r4, #-80]
    4868:	bf38      	it	cc
    486a:	2600      	movcc	r6, #0
    486c:	eb06 0908 	add.w	r9, r6, r8
    4870:	eb17 070e 	adds.w	r7, r7, lr
    4874:	f04f 0800 	mov.w	r8, #0
    4878:	d301      	bcc.n	487e <mpi_mul_hlp+0x3da>
    487a:	f04f 0801 	mov.w	r8, #1
    487e:	f844 7c50 	str.w	r7, [r4, #-80]
    4882:	44c8      	add	r8, r9
    4884:	f04f 0e00 	mov.w	lr, #0
    4888:	f855 6c0c 	ldr.w	r6, [r5, #-12]
    488c:	fba3 ab06 	umull	sl, fp, r3, r6
    4890:	2601      	movs	r6, #1
    4892:	eb18 080a 	adds.w	r8, r8, sl
    4896:	bf38      	it	cc
    4898:	2600      	movcc	r6, #0
    489a:	eb06 090b 	add.w	r9, r6, fp
    489e:	f854 6c4c 	ldr.w	r6, [r4, #-76]
    48a2:	eb16 0608 	adds.w	r6, r6, r8
    48a6:	d301      	bcc.n	48ac <mpi_mul_hlp+0x408>
    48a8:	f04f 0e01 	mov.w	lr, #1
    48ac:	f844 6c4c 	str.w	r6, [r4, #-76]
    48b0:	44ce      	add	lr, r9
/home/hsk/Desktop/devel/tee-tpm-hyp/optee_os/lib/libmbedtls/mbedtls/library/bignum.c:1216 (discriminator 2)
    48b2:	f855 6c08 	ldr.w	r6, [r5, #-8]
    48b6:	fba3 7806 	umull	r7, r8, r3, r6
    48ba:	2601      	movs	r6, #1
    48bc:	eb1e 0e07 	adds.w	lr, lr, r7
    48c0:	f854 7c48 	ldr.w	r7, [r4, #-72]
    48c4:	bf38      	it	cc
    48c6:	2600      	movcc	r6, #0
    48c8:	eb06 0908 	add.w	r9, r6, r8
    48cc:	eb17 070e 	adds.w	r7, r7, lr
    48d0:	f04f 0800 	mov.w	r8, #0
    48d4:	d301      	bcc.n	48da <mpi_mul_hlp+0x436>
    48d6:	f04f 0801 	mov.w	r8, #1
    48da:	f844 7c48 	str.w	r7, [r4, #-72]
    48de:	44c8      	add	r8, r9
    48e0:	f04f 0e00 	mov.w	lr, #0
    48e4:	f855 6c04 	ldr.w	r6, [r5, #-4]
    48e8:	fba3 ab06 	umull	sl, fp, r3, r6
    48ec:	2601      	movs	r6, #1
    48ee:	eb18 080a 	adds.w	r8, r8, sl
    48f2:	bf38      	it	cc
    48f4:	2600      	movcc	r6, #0
    48f6:	eb0b 0706 	add.w	r7, fp, r6
    48fa:	f854 6c44 	ldr.w	r6, [r4, #-68]
    48fe:	eb16 0608 	adds.w	r6, r6, r8
    4902:	d301      	bcc.n	4908 <mpi_mul_hlp+0x464>
    4904:	f04f 0e01 	mov.w	lr, #1
    4908:	f844 6c44 	str.w	r6, [r4, #-68]
/home/hsk/Desktop/devel/tee-tpm-hyp/optee_os/lib/libmbedtls/mbedtls/library/bignum.c:1205 (discriminator 2)
    490c:	f1ac 0c10 	sub.w	ip, ip, #16
/home/hsk/Desktop/devel/tee-tpm-hyp/optee_os/lib/libmbedtls/mbedtls/library/bignum.c:1216 (discriminator 2)
    4910:	44be      	add	lr, r7
    4912:	e5cf      	b.n	44b4 <mpi_mul_hlp+0x10>
/home/hsk/Desktop/devel/tee-tpm-hyp/optee_os/lib/libmbedtls/mbedtls/library/bignum.c:1234 (discriminator 2)
    4914:	f855 6b04 	ldr.w	r6, [r5], #4
    4918:	fba3 7806 	umull	r7, r8, r3, r6
    491c:	2601      	movs	r6, #1
    491e:	eb1e 0e07 	adds.w	lr, lr, r7
    4922:	bf38      	it	cc
    4924:	2600      	movcc	r6, #0
    4926:	eb1e 0202 	adds.w	r2, lr, r2
    492a:	4446      	add	r6, r8
    492c:	f841 2c04 	str.w	r2, [r1, #-4]
    4930:	f04f 0201 	mov.w	r2, #1
    4934:	bf38      	it	cc
    4936:	2200      	movcc	r2, #0
    4938:	eb02 0e06 	add.w	lr, r2, r6
    493c:	e665      	b.n	460a <mpi_mul_hlp+0x166>

0000493e <mbedtls_mpi_mod_int.part.3>:
mbedtls_mpi_mod_int():
/home/hsk/Desktop/devel/tee-tpm-hyp/optee_os/lib/libmbedtls/mbedtls/library/bignum.c:1554
    493e:	b5f0      	push	{r4, r5, r6, r7, lr}
/home/hsk/Desktop/devel/tee-tpm-hyp/optee_os/lib/libmbedtls/mbedtls/library/bignum.c:1583
    4940:	2300      	movs	r3, #0
    4942:	888f      	ldrh	r7, [r1, #4]
    4944:	f107 4480 	add.w	r4, r7, #1073741824	; 0x40000000
    4948:	3c01      	subs	r4, #1
    494a:	00a4      	lsls	r4, r4, #2
    494c:	b947      	cbnz	r7, 4960 <mbedtls_mpi_mod_int.part.3+0x22>
/home/hsk/Desktop/devel/tee-tpm-hyp/optee_os/lib/libmbedtls/mbedtls/library/bignum.c:1600
    494e:	f991 1000 	ldrsb.w	r1, [r1]
    4952:	2900      	cmp	r1, #0
    4954:	da01      	bge.n	495a <mbedtls_mpi_mod_int.part.3+0x1c>
    4956:	b103      	cbz	r3, 495a <mbedtls_mpi_mod_int.part.3+0x1c>
/home/hsk/Desktop/devel/tee-tpm-hyp/optee_os/lib/libmbedtls/mbedtls/library/bignum.c:1601
    4958:	1ad3      	subs	r3, r2, r3
/home/hsk/Desktop/devel/tee-tpm-hyp/optee_os/lib/libmbedtls/mbedtls/library/bignum.c:1603
    495a:	6003      	str	r3, [r0, #0]
/home/hsk/Desktop/devel/tee-tpm-hyp/optee_os/lib/libmbedtls/mbedtls/library/bignum.c:1606
    495c:	2000      	movs	r0, #0
    495e:	bdf0      	pop	{r4, r5, r6, r7, pc}
/home/hsk/Desktop/devel/tee-tpm-hyp/optee_os/lib/libmbedtls/mbedtls/library/bignum.c:1585
    4960:	688d      	ldr	r5, [r1, #8]
/home/hsk/Desktop/devel/tee-tpm-hyp/optee_os/lib/libmbedtls/mbedtls/library/bignum.c:1583
    4962:	3f01      	subs	r7, #1
/home/hsk/Desktop/devel/tee-tpm-hyp/optee_os/lib/libmbedtls/mbedtls/library/bignum.c:1585
    4964:	592e      	ldr	r6, [r5, r4]
    4966:	3c04      	subs	r4, #4
/home/hsk/Desktop/devel/tee-tpm-hyp/optee_os/lib/libmbedtls/mbedtls/library/bignum.c:1586
    4968:	0c35      	lsrs	r5, r6, #16
    496a:	ea45 4303 	orr.w	r3, r5, r3, lsl #16
/home/hsk/Desktop/devel/tee-tpm-hyp/optee_os/lib/libmbedtls/mbedtls/library/bignum.c:1591
    496e:	fbb3 f5f2 	udiv	r5, r3, r2
    4972:	fb02 3315 	mls	r3, r2, r5, r3
    4976:	b2b5      	uxth	r5, r6
    4978:	ea45 4503 	orr.w	r5, r5, r3, lsl #16
    497c:	fbb5 f3f2 	udiv	r3, r5, r2
    4980:	fb02 5313 	mls	r3, r2, r3, r5
    4984:	e7e2      	b.n	494c <mbedtls_mpi_mod_int.part.3+0xe>

00004986 <mbedtls_mpi_init>:
mpi_init():
/home/hsk/Desktop/devel/tee-tpm-hyp/optee_os/lib/libmbedtls/mbedtls/library/bignum.c:90
    4986:	b120      	cbz	r0, 4992 <mbedtls_mpi_init+0xc>
/home/hsk/Desktop/devel/tee-tpm-hyp/optee_os/lib/libmbedtls/mbedtls/library/bignum.c:93
    4988:	2301      	movs	r3, #1
    498a:	6003      	str	r3, [r0, #0]
/home/hsk/Desktop/devel/tee-tpm-hyp/optee_os/lib/libmbedtls/mbedtls/library/bignum.c:95
    498c:	2300      	movs	r3, #0
    498e:	8083      	strh	r3, [r0, #4]
/home/hsk/Desktop/devel/tee-tpm-hyp/optee_os/lib/libmbedtls/mbedtls/library/bignum.c:97
    4990:	6083      	str	r3, [r0, #8]
mbedtls_mpi_init():
/home/hsk/Desktop/devel/tee-tpm-hyp/optee_os/lib/libmbedtls/mbedtls/library/bignum.c:103
    4992:	4770      	bx	lr

00004994 <mbedtls_mpi_init_mempool>:
mbedtls_mpi_init_mempool():
/home/hsk/Desktop/devel/tee-tpm-hyp/optee_os/lib/libmbedtls/mbedtls/library/bignum.c:107
    4994:	4a07      	ldr	r2, [pc, #28]	; (49b4 <mbedtls_mpi_init_mempool+0x20>)
    4996:	447a      	add	r2, pc
    4998:	6812      	ldr	r2, [r2, #0]
    499a:	b13a      	cbz	r2, 49ac <mbedtls_mpi_init_mempool+0x18>
mpi_init():
/home/hsk/Desktop/devel/tee-tpm-hyp/optee_os/lib/libmbedtls/mbedtls/library/bignum.c:90
    499c:	b140      	cbz	r0, 49b0 <mbedtls_mpi_init_mempool+0x1c>
/home/hsk/Desktop/devel/tee-tpm-hyp/optee_os/lib/libmbedtls/mbedtls/library/bignum.c:93
    499e:	f240 1201 	movw	r2, #257	; 0x101
    49a2:	6002      	str	r2, [r0, #0]
/home/hsk/Desktop/devel/tee-tpm-hyp/optee_os/lib/libmbedtls/mbedtls/library/bignum.c:95
    49a4:	2200      	movs	r2, #0
    49a6:	8082      	strh	r2, [r0, #4]
/home/hsk/Desktop/devel/tee-tpm-hyp/optee_os/lib/libmbedtls/mbedtls/library/bignum.c:97
    49a8:	6082      	str	r2, [r0, #8]
    49aa:	4770      	bx	lr
mbedtls_mpi_init_mempool():
/home/hsk/Desktop/devel/tee-tpm-hyp/optee_os/lib/libmbedtls/mbedtls/library/bignum.c:110
    49ac:	f7ff bfeb 	b.w	4986 <mbedtls_mpi_init>
/home/hsk/Desktop/devel/tee-tpm-hyp/optee_os/lib/libmbedtls/mbedtls/library/bignum.c:111
    49b0:	4770      	bx	lr
    49b2:	bf00      	nop
    49b4:	0000772a 	.word	0x0000772a

000049b8 <mbedtls_mpi_init_static>:
mpi_init():
/home/hsk/Desktop/devel/tee-tpm-hyp/optee_os/lib/libmbedtls/mbedtls/library/bignum.c:90
    49b8:	b130      	cbz	r0, 49c8 <mbedtls_mpi_init_static+0x10>
/home/hsk/Desktop/devel/tee-tpm-hyp/optee_os/lib/libmbedtls/mbedtls/library/bignum.c:95
    49ba:	8043      	strh	r3, [r0, #2]
/home/hsk/Desktop/devel/tee-tpm-hyp/optee_os/lib/libmbedtls/mbedtls/library/bignum.c:96
    49bc:	9b00      	ldr	r3, [sp, #0]
/home/hsk/Desktop/devel/tee-tpm-hyp/optee_os/lib/libmbedtls/mbedtls/library/bignum.c:93
    49be:	7002      	strb	r2, [r0, #0]
/home/hsk/Desktop/devel/tee-tpm-hyp/optee_os/lib/libmbedtls/mbedtls/library/bignum.c:94
    49c0:	2202      	movs	r2, #2
/home/hsk/Desktop/devel/tee-tpm-hyp/optee_os/lib/libmbedtls/mbedtls/library/bignum.c:96
    49c2:	8083      	strh	r3, [r0, #4]
/home/hsk/Desktop/devel/tee-tpm-hyp/optee_os/lib/libmbedtls/mbedtls/library/bignum.c:94
    49c4:	7042      	strb	r2, [r0, #1]
/home/hsk/Desktop/devel/tee-tpm-hyp/optee_os/lib/libmbedtls/mbedtls/library/bignum.c:97
    49c6:	6081      	str	r1, [r0, #8]
mbedtls_mpi_init_static():
/home/hsk/Desktop/devel/tee-tpm-hyp/optee_os/lib/libmbedtls/mbedtls/library/bignum.c:117
    49c8:	4770      	bx	lr

000049ca <mbedtls_mpi_free>:
mbedtls_mpi_free():
/home/hsk/Desktop/devel/tee-tpm-hyp/optee_os/lib/libmbedtls/mbedtls/library/bignum.c:123
    49ca:	b538      	push	{r3, r4, r5, lr}
/home/hsk/Desktop/devel/tee-tpm-hyp/optee_os/lib/libmbedtls/mbedtls/library/bignum.c:124
    49cc:	4604      	mov	r4, r0
    49ce:	b178      	cbz	r0, 49f0 <mbedtls_mpi_free+0x26>
/home/hsk/Desktop/devel/tee-tpm-hyp/optee_os/lib/libmbedtls/mbedtls/library/bignum.c:127
    49d0:	6881      	ldr	r1, [r0, #8]
    49d2:	b149      	cbz	r1, 49e8 <mbedtls_mpi_free+0x1e>
/home/hsk/Desktop/devel/tee-tpm-hyp/optee_os/lib/libmbedtls/mbedtls/library/bignum.c:129
    49d4:	8883      	ldrh	r3, [r0, #4]
    49d6:	460a      	mov	r2, r1
mbedtls_mpi_zeroize():
/home/hsk/Desktop/devel/tee-tpm-hyp/optee_os/lib/libmbedtls/mbedtls/library/bignum.c:65
    49d8:	2000      	movs	r0, #0
    49da:	f113 33ff 	adds.w	r3, r3, #4294967295	; 0xffffffff
    49de:	d208      	bcs.n	49f2 <mbedtls_mpi_free+0x28>
mbedtls_mpi_free():
/home/hsk/Desktop/devel/tee-tpm-hyp/optee_os/lib/libmbedtls/mbedtls/library/bignum.c:130
    49e0:	7865      	ldrb	r5, [r4, #1]
    49e2:	b14d      	cbz	r5, 49f8 <mbedtls_mpi_free+0x2e>
    49e4:	2d01      	cmp	r5, #1
    49e6:	d00c      	beq.n	4a02 <mbedtls_mpi_free+0x38>
/home/hsk/Desktop/devel/tee-tpm-hyp/optee_os/lib/libmbedtls/mbedtls/library/bignum.c:144
    49e8:	2301      	movs	r3, #1
    49ea:	7023      	strb	r3, [r4, #0]
/home/hsk/Desktop/devel/tee-tpm-hyp/optee_os/lib/libmbedtls/mbedtls/library/bignum.c:145
    49ec:	2300      	movs	r3, #0
    49ee:	80a3      	strh	r3, [r4, #4]
/home/hsk/Desktop/devel/tee-tpm-hyp/optee_os/lib/libmbedtls/mbedtls/library/bignum.c:146
    49f0:	bd38      	pop	{r3, r4, r5, pc}
mbedtls_mpi_zeroize():
/home/hsk/Desktop/devel/tee-tpm-hyp/optee_os/lib/libmbedtls/mbedtls/library/bignum.c:65
    49f2:	6010      	str	r0, [r2, #0]
    49f4:	3204      	adds	r2, #4
    49f6:	e7f0      	b.n	49da <mbedtls_mpi_free+0x10>
mbedtls_mpi_free():
/home/hsk/Desktop/devel/tee-tpm-hyp/optee_os/lib/libmbedtls/mbedtls/library/bignum.c:132
    49f8:	4608      	mov	r0, r1
    49fa:	f002 fc33 	bl	7264 <free>
/home/hsk/Desktop/devel/tee-tpm-hyp/optee_os/lib/libmbedtls/mbedtls/library/bignum.c:133
    49fe:	60a5      	str	r5, [r4, #8]
/home/hsk/Desktop/devel/tee-tpm-hyp/optee_os/lib/libmbedtls/mbedtls/library/bignum.c:134
    4a00:	e7f2      	b.n	49e8 <mbedtls_mpi_free+0x1e>
/home/hsk/Desktop/devel/tee-tpm-hyp/optee_os/lib/libmbedtls/mbedtls/library/bignum.c:136
    4a02:	4b04      	ldr	r3, [pc, #16]	; (4a14 <mbedtls_mpi_free+0x4a>)
    4a04:	447b      	add	r3, pc
    4a06:	6818      	ldr	r0, [r3, #0]
    4a08:	f002 ff56 	bl	78b8 <mempool_free>
/home/hsk/Desktop/devel/tee-tpm-hyp/optee_os/lib/libmbedtls/mbedtls/library/bignum.c:137
    4a0c:	2300      	movs	r3, #0
    4a0e:	60a3      	str	r3, [r4, #8]
/home/hsk/Desktop/devel/tee-tpm-hyp/optee_os/lib/libmbedtls/mbedtls/library/bignum.c:138
    4a10:	e7ea      	b.n	49e8 <mbedtls_mpi_free+0x1e>
    4a12:	bf00      	nop
    4a14:	000076bc 	.word	0x000076bc

00004a18 <mbedtls_mpi_grow>:
mbedtls_mpi_grow():
/home/hsk/Desktop/devel/tee-tpm-hyp/optee_os/lib/libmbedtls/mbedtls/library/bignum.c:152
    4a18:	b570      	push	{r4, r5, r6, lr}
/home/hsk/Desktop/devel/tee-tpm-hyp/optee_os/lib/libmbedtls/mbedtls/library/bignum.c:155
    4a1a:	f242 7310 	movw	r3, #10000	; 0x2710
/home/hsk/Desktop/devel/tee-tpm-hyp/optee_os/lib/libmbedtls/mbedtls/library/bignum.c:152
    4a1e:	4604      	mov	r4, r0
    4a20:	460d      	mov	r5, r1
/home/hsk/Desktop/devel/tee-tpm-hyp/optee_os/lib/libmbedtls/mbedtls/library/bignum.c:155
    4a22:	4299      	cmp	r1, r3
    4a24:	d902      	bls.n	4a2c <mbedtls_mpi_grow+0x14>
/home/hsk/Desktop/devel/tee-tpm-hyp/optee_os/lib/libmbedtls/mbedtls/library/bignum.c:156
    4a26:	f06f 000f 	mvn.w	r0, #15
/home/hsk/Desktop/devel/tee-tpm-hyp/optee_os/lib/libmbedtls/mbedtls/library/bignum.c:196
    4a2a:	bd70      	pop	{r4, r5, r6, pc}
/home/hsk/Desktop/devel/tee-tpm-hyp/optee_os/lib/libmbedtls/mbedtls/library/bignum.c:158
    4a2c:	8883      	ldrh	r3, [r0, #4]
    4a2e:	428b      	cmp	r3, r1
    4a30:	d22d      	bcs.n	4a8e <mbedtls_mpi_grow+0x76>
/home/hsk/Desktop/devel/tee-tpm-hyp/optee_os/lib/libmbedtls/mbedtls/library/bignum.c:161
    4a32:	7842      	ldrb	r2, [r0, #1]
    4a34:	2a01      	cmp	r2, #1
    4a36:	d017      	beq.n	4a68 <mbedtls_mpi_grow+0x50>
    4a38:	d304      	bcc.n	4a44 <mbedtls_mpi_grow+0x2c>
    4a3a:	2a02      	cmp	r2, #2
    4a3c:	d01b      	beq.n	4a76 <mbedtls_mpi_grow+0x5e>
/home/hsk/Desktop/devel/tee-tpm-hyp/optee_os/lib/libmbedtls/mbedtls/library/bignum.c:174
    4a3e:	f06f 0003 	mvn.w	r0, #3
    4a42:	e7f2      	b.n	4a2a <mbedtls_mpi_grow+0x12>
/home/hsk/Desktop/devel/tee-tpm-hyp/optee_os/lib/libmbedtls/mbedtls/library/bignum.c:163
    4a44:	2104      	movs	r1, #4
    4a46:	4628      	mov	r0, r5
    4a48:	f002 fc14 	bl	7274 <calloc>
/home/hsk/Desktop/devel/tee-tpm-hyp/optee_os/lib/libmbedtls/mbedtls/library/bignum.c:166
    4a4c:	4606      	mov	r6, r0
/home/hsk/Desktop/devel/tee-tpm-hyp/optee_os/lib/libmbedtls/mbedtls/library/bignum.c:177
    4a4e:	2800      	cmp	r0, #0
    4a50:	d0e9      	beq.n	4a26 <mbedtls_mpi_grow+0xe>
/home/hsk/Desktop/devel/tee-tpm-hyp/optee_os/lib/libmbedtls/mbedtls/library/bignum.c:180
    4a52:	68a1      	ldr	r1, [r4, #8]
    4a54:	b9e9      	cbnz	r1, 4a92 <mbedtls_mpi_grow+0x7a>
/home/hsk/Desktop/devel/tee-tpm-hyp/optee_os/lib/libmbedtls/mbedtls/library/bignum.c:186
    4a56:	7863      	ldrb	r3, [r4, #1]
    4a58:	68a1      	ldr	r1, [r4, #8]
    4a5a:	b33b      	cbz	r3, 4aac <mbedtls_mpi_grow+0x94>
/home/hsk/Desktop/devel/tee-tpm-hyp/optee_os/lib/libmbedtls/mbedtls/library/bignum.c:189
    4a5c:	4b16      	ldr	r3, [pc, #88]	; (4ab8 <mbedtls_mpi_grow+0xa0>)
    4a5e:	447b      	add	r3, pc
    4a60:	6818      	ldr	r0, [r3, #0]
    4a62:	f002 ff29 	bl	78b8 <mempool_free>
    4a66:	e024      	b.n	4ab2 <mbedtls_mpi_grow+0x9a>
/home/hsk/Desktop/devel/tee-tpm-hyp/optee_os/lib/libmbedtls/mbedtls/library/bignum.c:166
    4a68:	4b14      	ldr	r3, [pc, #80]	; (4abc <mbedtls_mpi_grow+0xa4>)
    4a6a:	2204      	movs	r2, #4
    4a6c:	447b      	add	r3, pc
    4a6e:	6818      	ldr	r0, [r3, #0]
    4a70:	f002 ff10 	bl	7894 <mempool_calloc>
    4a74:	e7ea      	b.n	4a4c <mbedtls_mpi_grow+0x34>
/home/hsk/Desktop/devel/tee-tpm-hyp/optee_os/lib/libmbedtls/mbedtls/library/bignum.c:169
    4a76:	8842      	ldrh	r2, [r0, #2]
    4a78:	428a      	cmp	r2, r1
    4a7a:	d3d4      	bcc.n	4a26 <mbedtls_mpi_grow+0xe>
/home/hsk/Desktop/devel/tee-tpm-hyp/optee_os/lib/libmbedtls/mbedtls/library/bignum.c:171
    4a7c:	6880      	ldr	r0, [r0, #8]
    4a7e:	1aca      	subs	r2, r1, r3
    4a80:	2100      	movs	r1, #0
    4a82:	0092      	lsls	r2, r2, #2
    4a84:	eb00 0083 	add.w	r0, r0, r3, lsl #2
    4a88:	f003 f85f 	bl	7b4a <memset>
/home/hsk/Desktop/devel/tee-tpm-hyp/optee_os/lib/libmbedtls/mbedtls/library/bignum.c:193
    4a8c:	80a5      	strh	r5, [r4, #4]
/home/hsk/Desktop/devel/tee-tpm-hyp/optee_os/lib/libmbedtls/mbedtls/library/bignum.c:159
    4a8e:	2000      	movs	r0, #0
    4a90:	e7cb      	b.n	4a2a <mbedtls_mpi_grow+0x12>
/home/hsk/Desktop/devel/tee-tpm-hyp/optee_os/lib/libmbedtls/mbedtls/library/bignum.c:181
    4a92:	88a2      	ldrh	r2, [r4, #4]
    4a94:	0092      	lsls	r2, r2, #2
    4a96:	f003 f834 	bl	7b02 <memcpy>
/home/hsk/Desktop/devel/tee-tpm-hyp/optee_os/lib/libmbedtls/mbedtls/library/bignum.c:182
    4a9a:	68a2      	ldr	r2, [r4, #8]
    4a9c:	88a3      	ldrh	r3, [r4, #4]
mbedtls_mpi_zeroize():
/home/hsk/Desktop/devel/tee-tpm-hyp/optee_os/lib/libmbedtls/mbedtls/library/bignum.c:65
    4a9e:	2100      	movs	r1, #0
    4aa0:	f113 33ff 	adds.w	r3, r3, #4294967295	; 0xffffffff
    4aa4:	d3d7      	bcc.n	4a56 <mbedtls_mpi_grow+0x3e>
    4aa6:	6011      	str	r1, [r2, #0]
    4aa8:	3204      	adds	r2, #4
    4aaa:	e7f9      	b.n	4aa0 <mbedtls_mpi_grow+0x88>
mbedtls_mpi_grow():
/home/hsk/Desktop/devel/tee-tpm-hyp/optee_os/lib/libmbedtls/mbedtls/library/bignum.c:187
    4aac:	4608      	mov	r0, r1
    4aae:	f002 fbd9 	bl	7264 <free>
/home/hsk/Desktop/devel/tee-tpm-hyp/optee_os/lib/libmbedtls/mbedtls/library/bignum.c:191
    4ab2:	60a6      	str	r6, [r4, #8]
    4ab4:	e7ea      	b.n	4a8c <mbedtls_mpi_grow+0x74>
    4ab6:	bf00      	nop
    4ab8:	00007662 	.word	0x00007662
    4abc:	00007654 	.word	0x00007654

00004ac0 <mbedtls_mpi_shrink>:
mbedtls_mpi_shrink():
/home/hsk/Desktop/devel/tee-tpm-hyp/optee_os/lib/libmbedtls/mbedtls/library/bignum.c:208
    4ac0:	8883      	ldrh	r3, [r0, #4]
/home/hsk/Desktop/devel/tee-tpm-hyp/optee_os/lib/libmbedtls/mbedtls/library/bignum.c:203
    4ac2:	b570      	push	{r4, r5, r6, lr}
    4ac4:	4604      	mov	r4, r0
    4ac6:	460e      	mov	r6, r1
/home/hsk/Desktop/devel/tee-tpm-hyp/optee_os/lib/libmbedtls/mbedtls/library/bignum.c:208
    4ac8:	428b      	cmp	r3, r1
    4aca:	d803      	bhi.n	4ad4 <mbedtls_mpi_shrink+0x14>
/home/hsk/Desktop/devel/tee-tpm-hyp/optee_os/lib/libmbedtls/mbedtls/library/bignum.c:252
    4acc:	e8bd 4070 	ldmia.w	sp!, {r4, r5, r6, lr}
/home/hsk/Desktop/devel/tee-tpm-hyp/optee_os/lib/libmbedtls/mbedtls/library/bignum.c:209
    4ad0:	f7ff bfa2 	b.w	4a18 <mbedtls_mpi_grow>
/home/hsk/Desktop/devel/tee-tpm-hyp/optee_os/lib/libmbedtls/mbedtls/library/bignum.c:211
    4ad4:	1e5a      	subs	r2, r3, #1
    4ad6:	4619      	mov	r1, r3
    4ad8:	0092      	lsls	r2, r2, #2
    4ada:	1e4d      	subs	r5, r1, #1
/home/hsk/Desktop/devel/tee-tpm-hyp/optee_os/lib/libmbedtls/mbedtls/library/bignum.c:211 (discriminator 1)
    4adc:	2901      	cmp	r1, #1
    4ade:	d101      	bne.n	4ae4 <mbedtls_mpi_shrink+0x24>
    4ae0:	2500      	movs	r5, #0
    4ae2:	e005      	b.n	4af0 <mbedtls_mpi_shrink+0x30>
/home/hsk/Desktop/devel/tee-tpm-hyp/optee_os/lib/libmbedtls/mbedtls/library/bignum.c:212
    4ae4:	68a1      	ldr	r1, [r4, #8]
    4ae6:	5888      	ldr	r0, [r1, r2]
    4ae8:	4629      	mov	r1, r5
    4aea:	3a04      	subs	r2, #4
    4aec:	2800      	cmp	r0, #0
    4aee:	d0f4      	beq.n	4ada <mbedtls_mpi_shrink+0x1a>
/home/hsk/Desktop/devel/tee-tpm-hyp/optee_os/lib/libmbedtls/mbedtls/library/bignum.c:214
    4af0:	3501      	adds	r5, #1
/home/hsk/Desktop/devel/tee-tpm-hyp/optee_os/lib/libmbedtls/mbedtls/library/bignum.c:219
    4af2:	7862      	ldrb	r2, [r4, #1]
    4af4:	42b5      	cmp	r5, r6
    4af6:	bf38      	it	cc
    4af8:	4635      	movcc	r5, r6
    4afa:	2a01      	cmp	r2, #1
    4afc:	d01d      	beq.n	4b3a <mbedtls_mpi_shrink+0x7a>
    4afe:	d304      	bcc.n	4b0a <mbedtls_mpi_shrink+0x4a>
    4b00:	2a02      	cmp	r2, #2
    4b02:	d022      	beq.n	4b4a <mbedtls_mpi_shrink+0x8a>
/home/hsk/Desktop/devel/tee-tpm-hyp/optee_os/lib/libmbedtls/mbedtls/library/bignum.c:233
    4b04:	f06f 0003 	mvn.w	r0, #3
    4b08:	e02c      	b.n	4b64 <mbedtls_mpi_shrink+0xa4>
/home/hsk/Desktop/devel/tee-tpm-hyp/optee_os/lib/libmbedtls/mbedtls/library/bignum.c:221
    4b0a:	2104      	movs	r1, #4
    4b0c:	4630      	mov	r0, r6
    4b0e:	f002 fbb1 	bl	7274 <calloc>
/home/hsk/Desktop/devel/tee-tpm-hyp/optee_os/lib/libmbedtls/mbedtls/library/bignum.c:237
    4b12:	68a1      	ldr	r1, [r4, #8]
/home/hsk/Desktop/devel/tee-tpm-hyp/optee_os/lib/libmbedtls/mbedtls/library/bignum.c:224
    4b14:	4606      	mov	r6, r0
/home/hsk/Desktop/devel/tee-tpm-hyp/optee_os/lib/libmbedtls/mbedtls/library/bignum.c:237
    4b16:	b171      	cbz	r1, 4b36 <mbedtls_mpi_shrink+0x76>
/home/hsk/Desktop/devel/tee-tpm-hyp/optee_os/lib/libmbedtls/mbedtls/library/bignum.c:239
    4b18:	00aa      	lsls	r2, r5, #2
    4b1a:	f002 fff2 	bl	7b02 <memcpy>
/home/hsk/Desktop/devel/tee-tpm-hyp/optee_os/lib/libmbedtls/mbedtls/library/bignum.c:240
    4b1e:	68a1      	ldr	r1, [r4, #8]
    4b20:	88a3      	ldrh	r3, [r4, #4]
mbedtls_mpi_zeroize():
/home/hsk/Desktop/devel/tee-tpm-hyp/optee_os/lib/libmbedtls/mbedtls/library/bignum.c:65
    4b22:	2000      	movs	r0, #0
    4b24:	460a      	mov	r2, r1
    4b26:	f113 33ff 	adds.w	r3, r3, #4294967295	; 0xffffffff
    4b2a:	d21f      	bcs.n	4b6c <mbedtls_mpi_shrink+0xac>
mbedtls_mpi_shrink():
/home/hsk/Desktop/devel/tee-tpm-hyp/optee_os/lib/libmbedtls/mbedtls/library/bignum.c:241
    4b2c:	7863      	ldrb	r3, [r4, #1]
    4b2e:	bb03      	cbnz	r3, 4b72 <mbedtls_mpi_shrink+0xb2>
/home/hsk/Desktop/devel/tee-tpm-hyp/optee_os/lib/libmbedtls/mbedtls/library/bignum.c:242
    4b30:	4608      	mov	r0, r1
    4b32:	f002 fb97 	bl	7264 <free>
/home/hsk/Desktop/devel/tee-tpm-hyp/optee_os/lib/libmbedtls/mbedtls/library/bignum.c:247
    4b36:	60a6      	str	r6, [r4, #8]
    4b38:	e012      	b.n	4b60 <mbedtls_mpi_shrink+0xa0>
/home/hsk/Desktop/devel/tee-tpm-hyp/optee_os/lib/libmbedtls/mbedtls/library/bignum.c:224
    4b3a:	4b12      	ldr	r3, [pc, #72]	; (4b84 <mbedtls_mpi_shrink+0xc4>)
    4b3c:	2204      	movs	r2, #4
    4b3e:	4631      	mov	r1, r6
    4b40:	447b      	add	r3, pc
    4b42:	6818      	ldr	r0, [r3, #0]
    4b44:	f002 fea6 	bl	7894 <mempool_calloc>
    4b48:	e7e3      	b.n	4b12 <mbedtls_mpi_shrink+0x52>
/home/hsk/Desktop/devel/tee-tpm-hyp/optee_os/lib/libmbedtls/mbedtls/library/bignum.c:227
    4b4a:	8862      	ldrh	r2, [r4, #2]
    4b4c:	42b2      	cmp	r2, r6
    4b4e:	d316      	bcc.n	4b7e <mbedtls_mpi_shrink+0xbe>
/home/hsk/Desktop/devel/tee-tpm-hyp/optee_os/lib/libmbedtls/mbedtls/library/bignum.c:229
    4b50:	68a2      	ldr	r2, [r4, #8]
    4b52:	1b5b      	subs	r3, r3, r5
mbedtls_mpi_zeroize():
/home/hsk/Desktop/devel/tee-tpm-hyp/optee_os/lib/libmbedtls/mbedtls/library/bignum.c:65
    4b54:	2100      	movs	r1, #0
mbedtls_mpi_shrink():
/home/hsk/Desktop/devel/tee-tpm-hyp/optee_os/lib/libmbedtls/mbedtls/library/bignum.c:229
    4b56:	eb02 0285 	add.w	r2, r2, r5, lsl #2
mbedtls_mpi_zeroize():
/home/hsk/Desktop/devel/tee-tpm-hyp/optee_os/lib/libmbedtls/mbedtls/library/bignum.c:65
    4b5a:	f113 33ff 	adds.w	r3, r3, #4294967295	; 0xffffffff
    4b5e:	d202      	bcs.n	4b66 <mbedtls_mpi_shrink+0xa6>
mbedtls_mpi_shrink():
/home/hsk/Desktop/devel/tee-tpm-hyp/optee_os/lib/libmbedtls/mbedtls/library/bignum.c:251
    4b60:	2000      	movs	r0, #0
/home/hsk/Desktop/devel/tee-tpm-hyp/optee_os/lib/libmbedtls/mbedtls/library/bignum.c:249
    4b62:	80a5      	strh	r5, [r4, #4]
/home/hsk/Desktop/devel/tee-tpm-hyp/optee_os/lib/libmbedtls/mbedtls/library/bignum.c:252
    4b64:	bd70      	pop	{r4, r5, r6, pc}
mbedtls_mpi_zeroize():
/home/hsk/Desktop/devel/tee-tpm-hyp/optee_os/lib/libmbedtls/mbedtls/library/bignum.c:65
    4b66:	6011      	str	r1, [r2, #0]
    4b68:	3204      	adds	r2, #4
    4b6a:	e7f6      	b.n	4b5a <mbedtls_mpi_shrink+0x9a>
    4b6c:	6010      	str	r0, [r2, #0]
    4b6e:	3204      	adds	r2, #4
    4b70:	e7d9      	b.n	4b26 <mbedtls_mpi_shrink+0x66>
mbedtls_mpi_shrink():
/home/hsk/Desktop/devel/tee-tpm-hyp/optee_os/lib/libmbedtls/mbedtls/library/bignum.c:244
    4b72:	4b05      	ldr	r3, [pc, #20]	; (4b88 <mbedtls_mpi_shrink+0xc8>)
    4b74:	447b      	add	r3, pc
    4b76:	6818      	ldr	r0, [r3, #0]
    4b78:	f002 fe9e 	bl	78b8 <mempool_free>
    4b7c:	e7db      	b.n	4b36 <mbedtls_mpi_shrink+0x76>
/home/hsk/Desktop/devel/tee-tpm-hyp/optee_os/lib/libmbedtls/mbedtls/library/bignum.c:228
    4b7e:	f06f 000f 	mvn.w	r0, #15
    4b82:	e7ef      	b.n	4b64 <mbedtls_mpi_shrink+0xa4>
    4b84:	00007580 	.word	0x00007580
    4b88:	0000754c 	.word	0x0000754c

00004b8c <mbedtls_mpi_copy>:
mbedtls_mpi_copy():
/home/hsk/Desktop/devel/tee-tpm-hyp/optee_os/lib/libmbedtls/mbedtls/library/bignum.c:258
    4b8c:	b5f8      	push	{r3, r4, r5, r6, r7, lr}
/home/hsk/Desktop/devel/tee-tpm-hyp/optee_os/lib/libmbedtls/mbedtls/library/bignum.c:262
    4b8e:	4288      	cmp	r0, r1
/home/hsk/Desktop/devel/tee-tpm-hyp/optee_os/lib/libmbedtls/mbedtls/library/bignum.c:258
    4b90:	4606      	mov	r6, r0
    4b92:	460f      	mov	r7, r1
/home/hsk/Desktop/devel/tee-tpm-hyp/optee_os/lib/libmbedtls/mbedtls/library/bignum.c:262
    4b94:	d023      	beq.n	4bde <mbedtls_mpi_copy+0x52>
/home/hsk/Desktop/devel/tee-tpm-hyp/optee_os/lib/libmbedtls/mbedtls/library/bignum.c:265
    4b96:	688d      	ldr	r5, [r1, #8]
    4b98:	b91d      	cbnz	r5, 4ba2 <mbedtls_mpi_copy+0x16>
/home/hsk/Desktop/devel/tee-tpm-hyp/optee_os/lib/libmbedtls/mbedtls/library/bignum.c:267
    4b9a:	f7ff ff16 	bl	49ca <mbedtls_mpi_free>
/home/hsk/Desktop/devel/tee-tpm-hyp/optee_os/lib/libmbedtls/mbedtls/library/bignum.c:286
    4b9e:	4628      	mov	r0, r5
    4ba0:	bdf8      	pop	{r3, r4, r5, r6, r7, pc}
/home/hsk/Desktop/devel/tee-tpm-hyp/optee_os/lib/libmbedtls/mbedtls/library/bignum.c:271
    4ba2:	888a      	ldrh	r2, [r1, #4]
/home/hsk/Desktop/devel/tee-tpm-hyp/optee_os/lib/libmbedtls/mbedtls/library/bignum.c:271 (discriminator 2)
    4ba4:	3a01      	subs	r2, #1
    4ba6:	b11a      	cbz	r2, 4bb0 <mbedtls_mpi_copy+0x24>
/home/hsk/Desktop/devel/tee-tpm-hyp/optee_os/lib/libmbedtls/mbedtls/library/bignum.c:272
    4ba8:	f855 3022 	ldr.w	r3, [r5, r2, lsl #2]
    4bac:	2b00      	cmp	r3, #0
    4bae:	d0f9      	beq.n	4ba4 <mbedtls_mpi_copy+0x18>
/home/hsk/Desktop/devel/tee-tpm-hyp/optee_os/lib/libmbedtls/mbedtls/library/bignum.c:274
    4bb0:	1c54      	adds	r4, r2, #1
/home/hsk/Desktop/devel/tee-tpm-hyp/optee_os/lib/libmbedtls/mbedtls/library/bignum.c:276
    4bb2:	f997 3000 	ldrsb.w	r3, [r7]
    4bb6:	7033      	strb	r3, [r6, #0]
/home/hsk/Desktop/devel/tee-tpm-hyp/optee_os/lib/libmbedtls/mbedtls/library/bignum.c:278
    4bb8:	4621      	mov	r1, r4
    4bba:	4630      	mov	r0, r6
    4bbc:	f7ff ff2c 	bl	4a18 <mbedtls_mpi_grow>
    4bc0:	4605      	mov	r5, r0
    4bc2:	2800      	cmp	r0, #0
    4bc4:	d1eb      	bne.n	4b9e <mbedtls_mpi_copy+0x12>
/home/hsk/Desktop/devel/tee-tpm-hyp/optee_os/lib/libmbedtls/mbedtls/library/bignum.c:280
    4bc6:	88b2      	ldrh	r2, [r6, #4]
    4bc8:	4601      	mov	r1, r0
    4bca:	68b0      	ldr	r0, [r6, #8]
    4bcc:	0092      	lsls	r2, r2, #2
    4bce:	f002 ffbc 	bl	7b4a <memset>
/home/hsk/Desktop/devel/tee-tpm-hyp/optee_os/lib/libmbedtls/mbedtls/library/bignum.c:281
    4bd2:	00a2      	lsls	r2, r4, #2
    4bd4:	68b9      	ldr	r1, [r7, #8]
    4bd6:	68b0      	ldr	r0, [r6, #8]
    4bd8:	f002 ff93 	bl	7b02 <memcpy>
    4bdc:	e7df      	b.n	4b9e <mbedtls_mpi_copy+0x12>
/home/hsk/Desktop/devel/tee-tpm-hyp/optee_os/lib/libmbedtls/mbedtls/library/bignum.c:263
    4bde:	2500      	movs	r5, #0
    4be0:	e7dd      	b.n	4b9e <mbedtls_mpi_copy+0x12>

00004be2 <mbedtls_mpi_swap>:
mbedtls_mpi_swap():
/home/hsk/Desktop/devel/tee-tpm-hyp/optee_os/lib/libmbedtls/mbedtls/library/bignum.c:292
    4be2:	b5f0      	push	{r4, r5, r6, r7, lr}
/home/hsk/Desktop/devel/tee-tpm-hyp/optee_os/lib/libmbedtls/mbedtls/library/bignum.c:295
    4be4:	250c      	movs	r5, #12
/home/hsk/Desktop/devel/tee-tpm-hyp/optee_os/lib/libmbedtls/mbedtls/library/bignum.c:292
    4be6:	460e      	mov	r6, r1
    4be8:	b085      	sub	sp, #20
    4bea:	4607      	mov	r7, r0
/home/hsk/Desktop/devel/tee-tpm-hyp/optee_os/lib/libmbedtls/mbedtls/library/bignum.c:295
    4bec:	ac01      	add	r4, sp, #4
    4bee:	462a      	mov	r2, r5
    4bf0:	4601      	mov	r1, r0
    4bf2:	4620      	mov	r0, r4
    4bf4:	f002 ff85 	bl	7b02 <memcpy>
/home/hsk/Desktop/devel/tee-tpm-hyp/optee_os/lib/libmbedtls/mbedtls/library/bignum.c:296
    4bf8:	462a      	mov	r2, r5
    4bfa:	4631      	mov	r1, r6
    4bfc:	4638      	mov	r0, r7
    4bfe:	f002 ff80 	bl	7b02 <memcpy>
/home/hsk/Desktop/devel/tee-tpm-hyp/optee_os/lib/libmbedtls/mbedtls/library/bignum.c:297
    4c02:	462a      	mov	r2, r5
    4c04:	4621      	mov	r1, r4
    4c06:	4630      	mov	r0, r6
    4c08:	f002 ff7b 	bl	7b02 <memcpy>
/home/hsk/Desktop/devel/tee-tpm-hyp/optee_os/lib/libmbedtls/mbedtls/library/bignum.c:298
    4c0c:	b005      	add	sp, #20
    4c0e:	bdf0      	pop	{r4, r5, r6, r7, pc}

00004c10 <mbedtls_mpi_safe_cond_assign>:
mbedtls_mpi_safe_cond_assign():
/home/hsk/Desktop/devel/tee-tpm-hyp/optee_os/lib/libmbedtls/mbedtls/library/bignum.c:306
    4c10:	e92d 41f0 	stmdb	sp!, {r4, r5, r6, r7, r8, lr}
    4c14:	460e      	mov	r6, r1
/home/hsk/Desktop/devel/tee-tpm-hyp/optee_os/lib/libmbedtls/mbedtls/library/bignum.c:313
    4c16:	8889      	ldrh	r1, [r1, #4]
/home/hsk/Desktop/devel/tee-tpm-hyp/optee_os/lib/libmbedtls/mbedtls/library/bignum.c:306
    4c18:	4605      	mov	r5, r0
    4c1a:	4614      	mov	r4, r2
/home/hsk/Desktop/devel/tee-tpm-hyp/optee_os/lib/libmbedtls/mbedtls/library/bignum.c:313
    4c1c:	f7ff fefc 	bl	4a18 <mbedtls_mpi_grow>
    4c20:	b998      	cbnz	r0, 4c4a <mbedtls_mpi_safe_cond_assign+0x3a>
/home/hsk/Desktop/devel/tee-tpm-hyp/optee_os/lib/libmbedtls/mbedtls/library/bignum.c:311
    4c22:	4262      	negs	r2, r4
/home/hsk/Desktop/devel/tee-tpm-hyp/optee_os/lib/libmbedtls/mbedtls/library/bignum.c:315
    4c24:	7831      	ldrb	r1, [r6, #0]
/home/hsk/Desktop/devel/tee-tpm-hyp/optee_os/lib/libmbedtls/mbedtls/library/bignum.c:311
    4c26:	4322      	orrs	r2, r4
/home/hsk/Desktop/devel/tee-tpm-hyp/optee_os/lib/libmbedtls/mbedtls/library/bignum.c:315
    4c28:	782b      	ldrb	r3, [r5, #0]
/home/hsk/Desktop/devel/tee-tpm-hyp/optee_os/lib/libmbedtls/mbedtls/library/bignum.c:311
    4c2a:	f3c2 12c0 	ubfx	r2, r2, #7, #1
/home/hsk/Desktop/devel/tee-tpm-hyp/optee_os/lib/libmbedtls/mbedtls/library/bignum.c:315
    4c2e:	f1c2 0401 	rsb	r4, r2, #1
    4c32:	fb11 f102 	smulbb	r1, r1, r2
    4c36:	fb03 1304 	mla	r3, r3, r4, r1
/home/hsk/Desktop/devel/tee-tpm-hyp/optee_os/lib/libmbedtls/mbedtls/library/bignum.c:317
    4c3a:	4601      	mov	r1, r0
/home/hsk/Desktop/devel/tee-tpm-hyp/optee_os/lib/libmbedtls/mbedtls/library/bignum.c:315
    4c3c:	702b      	strb	r3, [r5, #0]
/home/hsk/Desktop/devel/tee-tpm-hyp/optee_os/lib/libmbedtls/mbedtls/library/bignum.c:317
    4c3e:	88b3      	ldrh	r3, [r6, #4]
/home/hsk/Desktop/devel/tee-tpm-hyp/optee_os/lib/libmbedtls/mbedtls/library/bignum.c:317 (discriminator 1)
    4c40:	428b      	cmp	r3, r1
    4c42:	d804      	bhi.n	4c4e <mbedtls_mpi_safe_cond_assign+0x3e>
/home/hsk/Desktop/devel/tee-tpm-hyp/optee_os/lib/libmbedtls/mbedtls/library/bignum.c:320
    4c44:	88ae      	ldrh	r6, [r5, #4]
/home/hsk/Desktop/devel/tee-tpm-hyp/optee_os/lib/libmbedtls/mbedtls/library/bignum.c:320 (discriminator 1)
    4c46:	429e      	cmp	r6, r3
    4c48:	d810      	bhi.n	4c6c <mbedtls_mpi_safe_cond_assign+0x5c>
/home/hsk/Desktop/devel/tee-tpm-hyp/optee_os/lib/libmbedtls/mbedtls/library/bignum.c:325
    4c4a:	e8bd 81f0 	ldmia.w	sp!, {r4, r5, r6, r7, r8, pc}
/home/hsk/Desktop/devel/tee-tpm-hyp/optee_os/lib/libmbedtls/mbedtls/library/bignum.c:318 (discriminator 3)
    4c4e:	68b7      	ldr	r7, [r6, #8]
    4c50:	f8d5 e008 	ldr.w	lr, [r5, #8]
    4c54:	f857 8021 	ldr.w	r8, [r7, r1, lsl #2]
    4c58:	f85e 7021 	ldr.w	r7, [lr, r1, lsl #2]
    4c5c:	fb07 fc04 	mul.w	ip, r7, r4
    4c60:	fb08 c702 	mla	r7, r8, r2, ip
    4c64:	f84e 7021 	str.w	r7, [lr, r1, lsl #2]
/home/hsk/Desktop/devel/tee-tpm-hyp/optee_os/lib/libmbedtls/mbedtls/library/bignum.c:317 (discriminator 3)
    4c68:	3101      	adds	r1, #1
    4c6a:	e7e9      	b.n	4c40 <mbedtls_mpi_safe_cond_assign+0x30>
/home/hsk/Desktop/devel/tee-tpm-hyp/optee_os/lib/libmbedtls/mbedtls/library/bignum.c:321 (discriminator 2)
    4c6c:	68a9      	ldr	r1, [r5, #8]
    4c6e:	f851 2023 	ldr.w	r2, [r1, r3, lsl #2]
    4c72:	4362      	muls	r2, r4
    4c74:	f841 2023 	str.w	r2, [r1, r3, lsl #2]
/home/hsk/Desktop/devel/tee-tpm-hyp/optee_os/lib/libmbedtls/mbedtls/library/bignum.c:320 (discriminator 2)
    4c78:	3301      	adds	r3, #1
    4c7a:	e7e4      	b.n	4c46 <mbedtls_mpi_safe_cond_assign+0x36>

00004c7c <mbedtls_mpi_safe_cond_swap>:
mbedtls_mpi_safe_cond_swap():
/home/hsk/Desktop/devel/tee-tpm-hyp/optee_os/lib/libmbedtls/mbedtls/library/bignum.c:334
    4c7c:	e92d 41f0 	stmdb	sp!, {r4, r5, r6, r7, r8, lr}
/home/hsk/Desktop/devel/tee-tpm-hyp/optee_os/lib/libmbedtls/mbedtls/library/bignum.c:339
    4c80:	4288      	cmp	r0, r1
/home/hsk/Desktop/devel/tee-tpm-hyp/optee_os/lib/libmbedtls/mbedtls/library/bignum.c:334
    4c82:	4605      	mov	r5, r0
    4c84:	460c      	mov	r4, r1
    4c86:	4616      	mov	r6, r2
/home/hsk/Desktop/devel/tee-tpm-hyp/optee_os/lib/libmbedtls/mbedtls/library/bignum.c:339
    4c88:	d102      	bne.n	4c90 <mbedtls_mpi_safe_cond_swap+0x14>
/home/hsk/Desktop/devel/tee-tpm-hyp/optee_os/lib/libmbedtls/mbedtls/library/bignum.c:340
    4c8a:	2000      	movs	r0, #0
/home/hsk/Desktop/devel/tee-tpm-hyp/optee_os/lib/libmbedtls/mbedtls/library/bignum.c:362
    4c8c:	e8bd 81f0 	ldmia.w	sp!, {r4, r5, r6, r7, r8, pc}
/home/hsk/Desktop/devel/tee-tpm-hyp/optee_os/lib/libmbedtls/mbedtls/library/bignum.c:345
    4c90:	8889      	ldrh	r1, [r1, #4]
    4c92:	f7ff fec1 	bl	4a18 <mbedtls_mpi_grow>
    4c96:	2800      	cmp	r0, #0
    4c98:	d1f8      	bne.n	4c8c <mbedtls_mpi_safe_cond_swap+0x10>
/home/hsk/Desktop/devel/tee-tpm-hyp/optee_os/lib/libmbedtls/mbedtls/library/bignum.c:346
    4c9a:	88a9      	ldrh	r1, [r5, #4]
    4c9c:	4620      	mov	r0, r4
    4c9e:	f7ff febb 	bl	4a18 <mbedtls_mpi_grow>
    4ca2:	2800      	cmp	r0, #0
    4ca4:	d1f2      	bne.n	4c8c <mbedtls_mpi_safe_cond_swap+0x10>
/home/hsk/Desktop/devel/tee-tpm-hyp/optee_os/lib/libmbedtls/mbedtls/library/bignum.c:343
    4ca6:	4272      	negs	r2, r6
/home/hsk/Desktop/devel/tee-tpm-hyp/optee_os/lib/libmbedtls/mbedtls/library/bignum.c:349
    4ca8:	7829      	ldrb	r1, [r5, #0]
/home/hsk/Desktop/devel/tee-tpm-hyp/optee_os/lib/libmbedtls/mbedtls/library/bignum.c:343
    4caa:	4332      	orrs	r2, r6
/home/hsk/Desktop/devel/tee-tpm-hyp/optee_os/lib/libmbedtls/mbedtls/library/bignum.c:349
    4cac:	7827      	ldrb	r7, [r4, #0]
/home/hsk/Desktop/devel/tee-tpm-hyp/optee_os/lib/libmbedtls/mbedtls/library/bignum.c:343
    4cae:	f3c2 12c0 	ubfx	r2, r2, #7, #1
/home/hsk/Desktop/devel/tee-tpm-hyp/optee_os/lib/libmbedtls/mbedtls/library/bignum.c:349
    4cb2:	f1c2 0601 	rsb	r6, r2, #1
    4cb6:	b2f3      	uxtb	r3, r6
    4cb8:	fb11 fc03 	smulbb	ip, r1, r3
    4cbc:	fb07 c702 	mla	r7, r7, r2, ip
    4cc0:	702f      	strb	r7, [r5, #0]
/home/hsk/Desktop/devel/tee-tpm-hyp/optee_os/lib/libmbedtls/mbedtls/library/bignum.c:350
    4cc2:	fb11 f102 	smulbb	r1, r1, r2
    4cc6:	7827      	ldrb	r7, [r4, #0]
    4cc8:	fb07 1303 	mla	r3, r7, r3, r1
    4ccc:	7023      	strb	r3, [r4, #0]
/home/hsk/Desktop/devel/tee-tpm-hyp/optee_os/lib/libmbedtls/mbedtls/library/bignum.c:353
    4cce:	f8b5 c004 	ldrh.w	ip, [r5, #4]
/home/hsk/Desktop/devel/tee-tpm-hyp/optee_os/lib/libmbedtls/mbedtls/library/bignum.c:353 (discriminator 1)
    4cd2:	4584      	cmp	ip, r0
    4cd4:	d9d9      	bls.n	4c8a <mbedtls_mpi_safe_cond_swap+0xe>
/home/hsk/Desktop/devel/tee-tpm-hyp/optee_os/lib/libmbedtls/mbedtls/library/bignum.c:355 (discriminator 3)
    4cd6:	f8d5 e008 	ldr.w	lr, [r5, #8]
/home/hsk/Desktop/devel/tee-tpm-hyp/optee_os/lib/libmbedtls/mbedtls/library/bignum.c:356 (discriminator 3)
    4cda:	68a7      	ldr	r7, [r4, #8]
/home/hsk/Desktop/devel/tee-tpm-hyp/optee_os/lib/libmbedtls/mbedtls/library/bignum.c:355 (discriminator 3)
    4cdc:	f85e 3020 	ldr.w	r3, [lr, r0, lsl #2]
/home/hsk/Desktop/devel/tee-tpm-hyp/optee_os/lib/libmbedtls/mbedtls/library/bignum.c:356 (discriminator 3)
    4ce0:	f857 1020 	ldr.w	r1, [r7, r0, lsl #2]
    4ce4:	fb03 f806 	mul.w	r8, r3, r6
    4ce8:	fb01 8102 	mla	r1, r1, r2, r8
    4cec:	f84e 1020 	str.w	r1, [lr, r0, lsl #2]
/home/hsk/Desktop/devel/tee-tpm-hyp/optee_os/lib/libmbedtls/mbedtls/library/bignum.c:357 (discriminator 3)
    4cf0:	4353      	muls	r3, r2
    4cf2:	f857 1020 	ldr.w	r1, [r7, r0, lsl #2]
    4cf6:	fb01 3306 	mla	r3, r1, r6, r3
    4cfa:	f847 3020 	str.w	r3, [r7, r0, lsl #2]
/home/hsk/Desktop/devel/tee-tpm-hyp/optee_os/lib/libmbedtls/mbedtls/library/bignum.c:353 (discriminator 3)
    4cfe:	3001      	adds	r0, #1
    4d00:	e7e7      	b.n	4cd2 <mbedtls_mpi_safe_cond_swap+0x56>

00004d02 <mbedtls_mpi_lset>:
mbedtls_mpi_lset():
/home/hsk/Desktop/devel/tee-tpm-hyp/optee_os/lib/libmbedtls/mbedtls/library/bignum.c:368
    4d02:	b570      	push	{r4, r5, r6, lr}
    4d04:	460e      	mov	r6, r1
/home/hsk/Desktop/devel/tee-tpm-hyp/optee_os/lib/libmbedtls/mbedtls/library/bignum.c:371
    4d06:	2101      	movs	r1, #1
/home/hsk/Desktop/devel/tee-tpm-hyp/optee_os/lib/libmbedtls/mbedtls/library/bignum.c:368
    4d08:	4604      	mov	r4, r0
/home/hsk/Desktop/devel/tee-tpm-hyp/optee_os/lib/libmbedtls/mbedtls/library/bignum.c:371
    4d0a:	f7ff fe85 	bl	4a18 <mbedtls_mpi_grow>
    4d0e:	4605      	mov	r5, r0
    4d10:	b988      	cbnz	r0, 4d36 <mbedtls_mpi_lset+0x34>
/home/hsk/Desktop/devel/tee-tpm-hyp/optee_os/lib/libmbedtls/mbedtls/library/bignum.c:372
    4d12:	88a2      	ldrh	r2, [r4, #4]
    4d14:	4601      	mov	r1, r0
    4d16:	68a0      	ldr	r0, [r4, #8]
    4d18:	0092      	lsls	r2, r2, #2
    4d1a:	f002 ff16 	bl	7b4a <memset>
/home/hsk/Desktop/devel/tee-tpm-hyp/optee_os/lib/libmbedtls/mbedtls/library/bignum.c:374
    4d1e:	68a3      	ldr	r3, [r4, #8]
    4d20:	ea86 72e6 	eor.w	r2, r6, r6, asr #31
/home/hsk/Desktop/devel/tee-tpm-hyp/optee_os/lib/libmbedtls/mbedtls/library/bignum.c:375
    4d24:	2e00      	cmp	r6, #0
/home/hsk/Desktop/devel/tee-tpm-hyp/optee_os/lib/libmbedtls/mbedtls/library/bignum.c:374
    4d26:	eba2 72e6 	sub.w	r2, r2, r6, asr #31
    4d2a:	601a      	str	r2, [r3, #0]
/home/hsk/Desktop/devel/tee-tpm-hyp/optee_os/lib/libmbedtls/mbedtls/library/bignum.c:375
    4d2c:	f04f 33ff 	mov.w	r3, #4294967295	; 0xffffffff
    4d30:	bfa8      	it	ge
    4d32:	2301      	movge	r3, #1
    4d34:	7023      	strb	r3, [r4, #0]
/home/hsk/Desktop/devel/tee-tpm-hyp/optee_os/lib/libmbedtls/mbedtls/library/bignum.c:380
    4d36:	4628      	mov	r0, r5
    4d38:	bd70      	pop	{r4, r5, r6, pc}

00004d3a <mbedtls_mpi_get_bit>:
mbedtls_mpi_get_bit():
/home/hsk/Desktop/devel/tee-tpm-hyp/optee_os/lib/libmbedtls/mbedtls/library/bignum.c:387
    4d3a:	8883      	ldrh	r3, [r0, #4]
    4d3c:	ebb1 1f43 	cmp.w	r1, r3, lsl #5
    4d40:	d209      	bcs.n	4d56 <mbedtls_mpi_get_bit+0x1c>
/home/hsk/Desktop/devel/tee-tpm-hyp/optee_os/lib/libmbedtls/mbedtls/library/bignum.c:390
    4d42:	094a      	lsrs	r2, r1, #5
    4d44:	6883      	ldr	r3, [r0, #8]
    4d46:	f001 011f 	and.w	r1, r1, #31
    4d4a:	f853 0022 	ldr.w	r0, [r3, r2, lsl #2]
    4d4e:	40c8      	lsrs	r0, r1
    4d50:	f000 0001 	and.w	r0, r0, #1
    4d54:	4770      	bx	lr
/home/hsk/Desktop/devel/tee-tpm-hyp/optee_os/lib/libmbedtls/mbedtls/library/bignum.c:388
    4d56:	2000      	movs	r0, #0
/home/hsk/Desktop/devel/tee-tpm-hyp/optee_os/lib/libmbedtls/mbedtls/library/bignum.c:391
    4d58:	4770      	bx	lr

00004d5a <mbedtls_mpi_set_bit>:
mbedtls_mpi_set_bit():
/home/hsk/Desktop/devel/tee-tpm-hyp/optee_os/lib/libmbedtls/mbedtls/library/bignum.c:397
    4d5a:	b5f8      	push	{r3, r4, r5, r6, r7, lr}
/home/hsk/Desktop/devel/tee-tpm-hyp/optee_os/lib/libmbedtls/mbedtls/library/bignum.c:402
    4d5c:	2a01      	cmp	r2, #1
/home/hsk/Desktop/devel/tee-tpm-hyp/optee_os/lib/libmbedtls/mbedtls/library/bignum.c:397
    4d5e:	4607      	mov	r7, r0
    4d60:	460c      	mov	r4, r1
    4d62:	4615      	mov	r5, r2
/home/hsk/Desktop/devel/tee-tpm-hyp/optee_os/lib/libmbedtls/mbedtls/library/bignum.c:399
    4d64:	ea4f 1651 	mov.w	r6, r1, lsr #5
/home/hsk/Desktop/devel/tee-tpm-hyp/optee_os/lib/libmbedtls/mbedtls/library/bignum.c:402
    4d68:	d81b      	bhi.n	4da2 <mbedtls_mpi_set_bit+0x48>
/home/hsk/Desktop/devel/tee-tpm-hyp/optee_os/lib/libmbedtls/mbedtls/library/bignum.c:405
    4d6a:	8883      	ldrh	r3, [r0, #4]
    4d6c:	ebb1 1f43 	cmp.w	r1, r3, lsl #5
    4d70:	d210      	bcs.n	4d94 <mbedtls_mpi_set_bit+0x3a>
/home/hsk/Desktop/devel/tee-tpm-hyp/optee_os/lib/libmbedtls/mbedtls/library/bignum.c:413
    4d72:	68b9      	ldr	r1, [r7, #8]
/home/hsk/Desktop/devel/tee-tpm-hyp/optee_os/lib/libmbedtls/mbedtls/library/bignum.c:400
    4d74:	f004 041f 	and.w	r4, r4, #31
/home/hsk/Desktop/devel/tee-tpm-hyp/optee_os/lib/libmbedtls/mbedtls/library/bignum.c:413
    4d78:	2301      	movs	r3, #1
/home/hsk/Desktop/devel/tee-tpm-hyp/optee_os/lib/libmbedtls/mbedtls/library/bignum.c:414
    4d7a:	2000      	movs	r0, #0
/home/hsk/Desktop/devel/tee-tpm-hyp/optee_os/lib/libmbedtls/mbedtls/library/bignum.c:413
    4d7c:	fa03 f204 	lsl.w	r2, r3, r4
    4d80:	f851 3026 	ldr.w	r3, [r1, r6, lsl #2]
/home/hsk/Desktop/devel/tee-tpm-hyp/optee_os/lib/libmbedtls/mbedtls/library/bignum.c:414
    4d84:	fa05 f404 	lsl.w	r4, r5, r4
/home/hsk/Desktop/devel/tee-tpm-hyp/optee_os/lib/libmbedtls/mbedtls/library/bignum.c:413
    4d88:	ea23 0302 	bic.w	r3, r3, r2
/home/hsk/Desktop/devel/tee-tpm-hyp/optee_os/lib/libmbedtls/mbedtls/library/bignum.c:414
    4d8c:	431c      	orrs	r4, r3
    4d8e:	f841 4026 	str.w	r4, [r1, r6, lsl #2]
/home/hsk/Desktop/devel/tee-tpm-hyp/optee_os/lib/libmbedtls/mbedtls/library/bignum.c:419
    4d92:	bdf8      	pop	{r3, r4, r5, r6, r7, pc}
/home/hsk/Desktop/devel/tee-tpm-hyp/optee_os/lib/libmbedtls/mbedtls/library/bignum.c:407
    4d94:	b142      	cbz	r2, 4da8 <mbedtls_mpi_set_bit+0x4e>
/home/hsk/Desktop/devel/tee-tpm-hyp/optee_os/lib/libmbedtls/mbedtls/library/bignum.c:410
    4d96:	1c71      	adds	r1, r6, #1
    4d98:	f7ff fe3e 	bl	4a18 <mbedtls_mpi_grow>
    4d9c:	2800      	cmp	r0, #0
    4d9e:	d0e8      	beq.n	4d72 <mbedtls_mpi_set_bit+0x18>
    4da0:	e7f7      	b.n	4d92 <mbedtls_mpi_set_bit+0x38>
/home/hsk/Desktop/devel/tee-tpm-hyp/optee_os/lib/libmbedtls/mbedtls/library/bignum.c:403
    4da2:	f06f 0003 	mvn.w	r0, #3
    4da6:	e7f4      	b.n	4d92 <mbedtls_mpi_set_bit+0x38>
/home/hsk/Desktop/devel/tee-tpm-hyp/optee_os/lib/libmbedtls/mbedtls/library/bignum.c:408
    4da8:	4610      	mov	r0, r2
    4daa:	e7f2      	b.n	4d92 <mbedtls_mpi_set_bit+0x38>

00004dac <mbedtls_mpi_lsb>:
mbedtls_mpi_lsb():
/home/hsk/Desktop/devel/tee-tpm-hyp/optee_os/lib/libmbedtls/mbedtls/library/bignum.c:425
    4dac:	b5f0      	push	{r4, r5, r6, r7, lr}
/home/hsk/Desktop/devel/tee-tpm-hyp/optee_os/lib/libmbedtls/mbedtls/library/bignum.c:426
    4dae:	2100      	movs	r1, #0
/home/hsk/Desktop/devel/tee-tpm-hyp/optee_os/lib/libmbedtls/mbedtls/library/bignum.c:428
    4db0:	8885      	ldrh	r5, [r0, #4]
/home/hsk/Desktop/devel/tee-tpm-hyp/optee_os/lib/libmbedtls/mbedtls/library/bignum.c:425
    4db2:	4604      	mov	r4, r0
/home/hsk/Desktop/devel/tee-tpm-hyp/optee_os/lib/libmbedtls/mbedtls/library/bignum.c:428
    4db4:	460a      	mov	r2, r1
/home/hsk/Desktop/devel/tee-tpm-hyp/optee_os/lib/libmbedtls/mbedtls/library/bignum.c:428 (discriminator 1)
    4db6:	4295      	cmp	r5, r2
    4db8:	d801      	bhi.n	4dbe <mbedtls_mpi_lsb+0x12>
/home/hsk/Desktop/devel/tee-tpm-hyp/optee_os/lib/libmbedtls/mbedtls/library/bignum.c:433
    4dba:	2000      	movs	r0, #0
/home/hsk/Desktop/devel/tee-tpm-hyp/optee_os/lib/libmbedtls/mbedtls/library/bignum.c:434
    4dbc:	bdf0      	pop	{r4, r5, r6, r7, pc}
/home/hsk/Desktop/devel/tee-tpm-hyp/optee_os/lib/libmbedtls/mbedtls/library/bignum.c:430
    4dbe:	68a3      	ldr	r3, [r4, #8]
    4dc0:	f853 6022 	ldr.w	r6, [r3, r2, lsl #2]
/home/hsk/Desktop/devel/tee-tpm-hyp/optee_os/lib/libmbedtls/mbedtls/library/bignum.c:429
    4dc4:	2300      	movs	r3, #0
/home/hsk/Desktop/devel/tee-tpm-hyp/optee_os/lib/libmbedtls/mbedtls/library/bignum.c:430
    4dc6:	fa26 f703 	lsr.w	r7, r6, r3
    4dca:	18c8      	adds	r0, r1, r3
    4dcc:	07ff      	lsls	r7, r7, #31
    4dce:	d4f5      	bmi.n	4dbc <mbedtls_mpi_lsb+0x10>
/home/hsk/Desktop/devel/tee-tpm-hyp/optee_os/lib/libmbedtls/mbedtls/library/bignum.c:429 (discriminator 2)
    4dd0:	3301      	adds	r3, #1
    4dd2:	18c8      	adds	r0, r1, r3
    4dd4:	2b20      	cmp	r3, #32
    4dd6:	d1f6      	bne.n	4dc6 <mbedtls_mpi_lsb+0x1a>
/home/hsk/Desktop/devel/tee-tpm-hyp/optee_os/lib/libmbedtls/mbedtls/library/bignum.c:428 (discriminator 2)
    4dd8:	3201      	adds	r2, #1
/home/hsk/Desktop/devel/tee-tpm-hyp/optee_os/lib/libmbedtls/mbedtls/library/bignum.c:429 (discriminator 2)
    4dda:	4601      	mov	r1, r0
    4ddc:	e7eb      	b.n	4db6 <mbedtls_mpi_lsb+0xa>

00004dde <mbedtls_mpi_bitlen>:
mbedtls_mpi_bitlen():
/home/hsk/Desktop/devel/tee-tpm-hyp/optee_os/lib/libmbedtls/mbedtls/library/bignum.c:461
    4dde:	8883      	ldrh	r3, [r0, #4]
/home/hsk/Desktop/devel/tee-tpm-hyp/optee_os/lib/libmbedtls/mbedtls/library/bignum.c:458
    4de0:	b510      	push	{r4, lr}
/home/hsk/Desktop/devel/tee-tpm-hyp/optee_os/lib/libmbedtls/mbedtls/library/bignum.c:461
    4de2:	b1db      	cbz	r3, 4e1c <mbedtls_mpi_bitlen+0x3e>
/home/hsk/Desktop/devel/tee-tpm-hyp/optee_os/lib/libmbedtls/mbedtls/library/bignum.c:464
    4de4:	1e5a      	subs	r2, r3, #1
    4de6:	6880      	ldr	r0, [r0, #8]
    4de8:	0092      	lsls	r2, r2, #2
    4dea:	1e59      	subs	r1, r3, #1
/home/hsk/Desktop/devel/tee-tpm-hyp/optee_os/lib/libmbedtls/mbedtls/library/bignum.c:464 (discriminator 1)
    4dec:	2b01      	cmp	r3, #1
    4dee:	d101      	bne.n	4df4 <mbedtls_mpi_bitlen+0x16>
    4df0:	2100      	movs	r1, #0
    4df2:	e004      	b.n	4dfe <mbedtls_mpi_bitlen+0x20>
/home/hsk/Desktop/devel/tee-tpm-hyp/optee_os/lib/libmbedtls/mbedtls/library/bignum.c:465
    4df4:	5884      	ldr	r4, [r0, r2]
    4df6:	460b      	mov	r3, r1
    4df8:	3a04      	subs	r2, #4
    4dfa:	2c00      	cmp	r4, #0
    4dfc:	d0f5      	beq.n	4dea <mbedtls_mpi_bitlen+0xc>
/home/hsk/Desktop/devel/tee-tpm-hyp/optee_os/lib/libmbedtls/mbedtls/library/bignum.c:468
    4dfe:	f850 2021 	ldr.w	r2, [r0, r1, lsl #2]
mbedtls_clz():
/home/hsk/Desktop/devel/tee-tpm-hyp/optee_os/lib/libmbedtls/mbedtls/library/bignum.c:442
    4e02:	f04f 4300 	mov.w	r3, #2147483648	; 0x80000000
/home/hsk/Desktop/devel/tee-tpm-hyp/optee_os/lib/libmbedtls/mbedtls/library/bignum.c:444
    4e06:	2000      	movs	r0, #0
/home/hsk/Desktop/devel/tee-tpm-hyp/optee_os/lib/libmbedtls/mbedtls/library/bignum.c:446
    4e08:	421a      	tst	r2, r3
    4e0a:	d103      	bne.n	4e14 <mbedtls_mpi_bitlen+0x36>
/home/hsk/Desktop/devel/tee-tpm-hyp/optee_os/lib/libmbedtls/mbedtls/library/bignum.c:444
    4e0c:	3001      	adds	r0, #1
/home/hsk/Desktop/devel/tee-tpm-hyp/optee_os/lib/libmbedtls/mbedtls/library/bignum.c:448
    4e0e:	085b      	lsrs	r3, r3, #1
/home/hsk/Desktop/devel/tee-tpm-hyp/optee_os/lib/libmbedtls/mbedtls/library/bignum.c:444
    4e10:	2820      	cmp	r0, #32
    4e12:	d1f9      	bne.n	4e08 <mbedtls_mpi_bitlen+0x2a>
mbedtls_mpi_bitlen():
/home/hsk/Desktop/devel/tee-tpm-hyp/optee_os/lib/libmbedtls/mbedtls/library/bignum.c:470
    4e14:	ebc0 1041 	rsb	r0, r0, r1, lsl #5
    4e18:	3020      	adds	r0, #32
/home/hsk/Desktop/devel/tee-tpm-hyp/optee_os/lib/libmbedtls/mbedtls/library/bignum.c:471
    4e1a:	bd10      	pop	{r4, pc}
/home/hsk/Desktop/devel/tee-tpm-hyp/optee_os/lib/libmbedtls/mbedtls/library/bignum.c:462
    4e1c:	4618      	mov	r0, r3
    4e1e:	e7fc      	b.n	4e1a <mbedtls_mpi_bitlen+0x3c>

00004e20 <mbedtls_mpi_size>:
mbedtls_mpi_size():
/home/hsk/Desktop/devel/tee-tpm-hyp/optee_os/lib/libmbedtls/mbedtls/library/bignum.c:477
    4e20:	b508      	push	{r3, lr}
/home/hsk/Desktop/devel/tee-tpm-hyp/optee_os/lib/libmbedtls/mbedtls/library/bignum.c:478
    4e22:	f7ff ffdc 	bl	4dde <mbedtls_mpi_bitlen>
    4e26:	3007      	adds	r0, #7
/home/hsk/Desktop/devel/tee-tpm-hyp/optee_os/lib/libmbedtls/mbedtls/library/bignum.c:479
    4e28:	08c0      	lsrs	r0, r0, #3
    4e2a:	bd08      	pop	{r3, pc}

00004e2c <mbedtls_mpi_read_binary>:
mbedtls_mpi_read_binary():
/home/hsk/Desktop/devel/tee-tpm-hyp/optee_os/lib/libmbedtls/mbedtls/library/bignum.c:750
    4e2c:	b5f8      	push	{r3, r4, r5, r6, r7, lr}
    4e2e:	4606      	mov	r6, r0
    4e30:	460f      	mov	r7, r1
    4e32:	4615      	mov	r5, r2
/home/hsk/Desktop/devel/tee-tpm-hyp/optee_os/lib/libmbedtls/mbedtls/library/bignum.c:754
    4e34:	2400      	movs	r4, #0
/home/hsk/Desktop/devel/tee-tpm-hyp/optee_os/lib/libmbedtls/mbedtls/library/bignum.c:754 (discriminator 1)
    4e36:	42ac      	cmp	r4, r5
    4e38:	d001      	beq.n	4e3e <mbedtls_mpi_read_binary+0x12>
/home/hsk/Desktop/devel/tee-tpm-hyp/optee_os/lib/libmbedtls/mbedtls/library/bignum.c:755
    4e3a:	5d3b      	ldrb	r3, [r7, r4]
    4e3c:	b1b3      	cbz	r3, 4e6c <mbedtls_mpi_read_binary+0x40>
/home/hsk/Desktop/devel/tee-tpm-hyp/optee_os/lib/libmbedtls/mbedtls/library/bignum.c:758
    4e3e:	1b29      	subs	r1, r5, r4
    4e40:	4630      	mov	r0, r6
    4e42:	f011 0303 	ands.w	r3, r1, #3
    4e46:	bf18      	it	ne
    4e48:	2301      	movne	r3, #1
    4e4a:	eb03 0191 	add.w	r1, r3, r1, lsr #2
    4e4e:	f7ff fde3 	bl	4a18 <mbedtls_mpi_grow>
    4e52:	b950      	cbnz	r0, 4e6a <mbedtls_mpi_read_binary+0x3e>
/home/hsk/Desktop/devel/tee-tpm-hyp/optee_os/lib/libmbedtls/mbedtls/library/bignum.c:759
    4e54:	4601      	mov	r1, r0
    4e56:	4630      	mov	r0, r6
    4e58:	f7ff ff53 	bl	4d02 <mbedtls_mpi_lset>
    4e5c:	b928      	cbnz	r0, 4e6a <mbedtls_mpi_read_binary+0x3e>
    4e5e:	eb07 0e05 	add.w	lr, r7, r5
/home/hsk/Desktop/devel/tee-tpm-hyp/optee_os/lib/libmbedtls/mbedtls/library/bignum.c:761
    4e62:	4603      	mov	r3, r0
/home/hsk/Desktop/devel/tee-tpm-hyp/optee_os/lib/libmbedtls/mbedtls/library/bignum.c:761 (discriminator 1)
    4e64:	1aea      	subs	r2, r5, r3
    4e66:	4294      	cmp	r4, r2
    4e68:	d302      	bcc.n	4e70 <mbedtls_mpi_read_binary+0x44>
/home/hsk/Desktop/devel/tee-tpm-hyp/optee_os/lib/libmbedtls/mbedtls/library/bignum.c:767
    4e6a:	bdf8      	pop	{r3, r4, r5, r6, r7, pc}
/home/hsk/Desktop/devel/tee-tpm-hyp/optee_os/lib/libmbedtls/mbedtls/library/bignum.c:754 (discriminator 2)
    4e6c:	3401      	adds	r4, #1
    4e6e:	e7e2      	b.n	4e36 <mbedtls_mpi_read_binary+0xa>
/home/hsk/Desktop/devel/tee-tpm-hyp/optee_os/lib/libmbedtls/mbedtls/library/bignum.c:762 (discriminator 3)
    4e70:	f023 0c03 	bic.w	ip, r3, #3
    4e74:	f81e 2d01 	ldrb.w	r2, [lr, #-1]!
    4e78:	68b1      	ldr	r1, [r6, #8]
    4e7a:	00df      	lsls	r7, r3, #3
    4e7c:	f007 0718 	and.w	r7, r7, #24
/home/hsk/Desktop/devel/tee-tpm-hyp/optee_os/lib/libmbedtls/mbedtls/library/bignum.c:761 (discriminator 3)
    4e80:	3301      	adds	r3, #1
/home/hsk/Desktop/devel/tee-tpm-hyp/optee_os/lib/libmbedtls/mbedtls/library/bignum.c:762 (discriminator 3)
    4e82:	fa02 f707 	lsl.w	r7, r2, r7
    4e86:	f851 200c 	ldr.w	r2, [r1, ip]
    4e8a:	433a      	orrs	r2, r7
    4e8c:	f841 200c 	str.w	r2, [r1, ip]
    4e90:	e7e8      	b.n	4e64 <mbedtls_mpi_read_binary+0x38>

00004e92 <mbedtls_mpi_write_binary>:
mbedtls_mpi_write_binary():
/home/hsk/Desktop/devel/tee-tpm-hyp/optee_os/lib/libmbedtls/mbedtls/library/bignum.c:773
    4e92:	b5f8      	push	{r3, r4, r5, r6, r7, lr}
    4e94:	4617      	mov	r7, r2
    4e96:	4605      	mov	r5, r0
    4e98:	460c      	mov	r4, r1
/home/hsk/Desktop/devel/tee-tpm-hyp/optee_os/lib/libmbedtls/mbedtls/library/bignum.c:776
    4e9a:	f7ff ffc1 	bl	4e20 <mbedtls_mpi_size>
    4e9e:	4606      	mov	r6, r0
/home/hsk/Desktop/devel/tee-tpm-hyp/optee_os/lib/libmbedtls/mbedtls/library/bignum.c:778
    4ea0:	42b8      	cmp	r0, r7
    4ea2:	d816      	bhi.n	4ed2 <mbedtls_mpi_write_binary+0x40>
/home/hsk/Desktop/devel/tee-tpm-hyp/optee_os/lib/libmbedtls/mbedtls/library/bignum.c:781
    4ea4:	4620      	mov	r0, r4
    4ea6:	463a      	mov	r2, r7
    4ea8:	2100      	movs	r1, #0
    4eaa:	443c      	add	r4, r7
    4eac:	f002 fe4d 	bl	7b4a <memset>
/home/hsk/Desktop/devel/tee-tpm-hyp/optee_os/lib/libmbedtls/mbedtls/library/bignum.c:783
    4eb0:	2300      	movs	r3, #0
/home/hsk/Desktop/devel/tee-tpm-hyp/optee_os/lib/libmbedtls/mbedtls/library/bignum.c:783 (discriminator 1)
    4eb2:	42b3      	cmp	r3, r6
    4eb4:	d101      	bne.n	4eba <mbedtls_mpi_write_binary+0x28>
/home/hsk/Desktop/devel/tee-tpm-hyp/optee_os/lib/libmbedtls/mbedtls/library/bignum.c:786
    4eb6:	2000      	movs	r0, #0
/home/hsk/Desktop/devel/tee-tpm-hyp/optee_os/lib/libmbedtls/mbedtls/library/bignum.c:787
    4eb8:	bdf8      	pop	{r3, r4, r5, r6, r7, pc}
/home/hsk/Desktop/devel/tee-tpm-hyp/optee_os/lib/libmbedtls/mbedtls/library/bignum.c:784 (discriminator 3)
    4eba:	f023 0003 	bic.w	r0, r3, #3
    4ebe:	68af      	ldr	r7, [r5, #8]
    4ec0:	00da      	lsls	r2, r3, #3
/home/hsk/Desktop/devel/tee-tpm-hyp/optee_os/lib/libmbedtls/mbedtls/library/bignum.c:783 (discriminator 3)
    4ec2:	3301      	adds	r3, #1
/home/hsk/Desktop/devel/tee-tpm-hyp/optee_os/lib/libmbedtls/mbedtls/library/bignum.c:784 (discriminator 3)
    4ec4:	f002 0118 	and.w	r1, r2, #24
    4ec8:	583a      	ldr	r2, [r7, r0]
    4eca:	40ca      	lsrs	r2, r1
    4ecc:	f804 2d01 	strb.w	r2, [r4, #-1]!
    4ed0:	e7ef      	b.n	4eb2 <mbedtls_mpi_write_binary+0x20>
/home/hsk/Desktop/devel/tee-tpm-hyp/optee_os/lib/libmbedtls/mbedtls/library/bignum.c:779
    4ed2:	f06f 0007 	mvn.w	r0, #7
    4ed6:	e7ef      	b.n	4eb8 <mbedtls_mpi_write_binary+0x26>

00004ed8 <mbedtls_mpi_shift_l>:
mbedtls_mpi_shift_l():
/home/hsk/Desktop/devel/tee-tpm-hyp/optee_os/lib/libmbedtls/mbedtls/library/bignum.c:793
    4ed8:	b5f8      	push	{r3, r4, r5, r6, r7, lr}
    4eda:	4606      	mov	r6, r0
    4edc:	460d      	mov	r5, r1
/home/hsk/Desktop/devel/tee-tpm-hyp/optee_os/lib/libmbedtls/mbedtls/library/bignum.c:798
    4ede:	094c      	lsrs	r4, r1, #5
/home/hsk/Desktop/devel/tee-tpm-hyp/optee_os/lib/libmbedtls/mbedtls/library/bignum.c:799
    4ee0:	f001 071f 	and.w	r7, r1, #31
/home/hsk/Desktop/devel/tee-tpm-hyp/optee_os/lib/libmbedtls/mbedtls/library/bignum.c:801
    4ee4:	f7ff ff7b 	bl	4dde <mbedtls_mpi_bitlen>
/home/hsk/Desktop/devel/tee-tpm-hyp/optee_os/lib/libmbedtls/mbedtls/library/bignum.c:803
    4ee8:	88b3      	ldrh	r3, [r6, #4]
/home/hsk/Desktop/devel/tee-tpm-hyp/optee_os/lib/libmbedtls/mbedtls/library/bignum.c:801
    4eea:	4428      	add	r0, r5
/home/hsk/Desktop/devel/tee-tpm-hyp/optee_os/lib/libmbedtls/mbedtls/library/bignum.c:803
    4eec:	ebb0 1f43 	cmp.w	r0, r3, lsl #5
    4ef0:	d803      	bhi.n	4efa <mbedtls_mpi_shift_l+0x22>
/home/hsk/Desktop/devel/tee-tpm-hyp/optee_os/lib/libmbedtls/mbedtls/library/bignum.c:811
    4ef2:	b974      	cbnz	r4, 4f12 <mbedtls_mpi_shift_l+0x3a>
/home/hsk/Desktop/devel/tee-tpm-hyp/optee_os/lib/libmbedtls/mbedtls/library/bignum.c:823
    4ef4:	bb2f      	cbnz	r7, 4f42 <mbedtls_mpi_shift_l+0x6a>
/home/hsk/Desktop/devel/tee-tpm-hyp/optee_os/lib/libmbedtls/mbedtls/library/bignum.c:806
    4ef6:	2000      	movs	r0, #0
    4ef8:	e00a      	b.n	4f10 <mbedtls_mpi_shift_l+0x38>
/home/hsk/Desktop/devel/tee-tpm-hyp/optee_os/lib/libmbedtls/mbedtls/library/bignum.c:804
    4efa:	f010 011f 	ands.w	r1, r0, #31
    4efe:	bf18      	it	ne
    4f00:	2101      	movne	r1, #1
    4f02:	eb01 1150 	add.w	r1, r1, r0, lsr #5
    4f06:	4630      	mov	r0, r6
    4f08:	f7ff fd86 	bl	4a18 <mbedtls_mpi_grow>
    4f0c:	2800      	cmp	r0, #0
    4f0e:	d0f0      	beq.n	4ef2 <mbedtls_mpi_shift_l+0x1a>
/home/hsk/Desktop/devel/tee-tpm-hyp/optee_os/lib/libmbedtls/mbedtls/library/bignum.c:837
    4f10:	bdf8      	pop	{r3, r4, r5, r6, r7, pc}
/home/hsk/Desktop/devel/tee-tpm-hyp/optee_os/lib/libmbedtls/mbedtls/library/bignum.c:813
    4f12:	88b3      	ldrh	r3, [r6, #4]
    4f14:	00a0      	lsls	r0, r4, #2
    4f16:	f103 4280 	add.w	r2, r3, #1073741824	; 0x40000000
    4f1a:	3a01      	subs	r2, #1
    4f1c:	1b12      	subs	r2, r2, r4
    4f1e:	0092      	lsls	r2, r2, #2
/home/hsk/Desktop/devel/tee-tpm-hyp/optee_os/lib/libmbedtls/mbedtls/library/bignum.c:813 (discriminator 1)
    4f20:	42a3      	cmp	r3, r4
    4f22:	d807      	bhi.n	4f34 <mbedtls_mpi_shift_l+0x5c>
    4f24:	009b      	lsls	r3, r3, #2
/home/hsk/Desktop/devel/tee-tpm-hyp/optee_os/lib/libmbedtls/mbedtls/library/bignum.c:817
    4f26:	2200      	movs	r2, #0
    4f28:	3b04      	subs	r3, #4
/home/hsk/Desktop/devel/tee-tpm-hyp/optee_os/lib/libmbedtls/mbedtls/library/bignum.c:816 (discriminator 1)
    4f2a:	1d19      	adds	r1, r3, #4
    4f2c:	d0e2      	beq.n	4ef4 <mbedtls_mpi_shift_l+0x1c>
/home/hsk/Desktop/devel/tee-tpm-hyp/optee_os/lib/libmbedtls/mbedtls/library/bignum.c:817 (discriminator 2)
    4f2e:	68b1      	ldr	r1, [r6, #8]
    4f30:	50ca      	str	r2, [r1, r3]
    4f32:	e7f9      	b.n	4f28 <mbedtls_mpi_shift_l+0x50>
/home/hsk/Desktop/devel/tee-tpm-hyp/optee_os/lib/libmbedtls/mbedtls/library/bignum.c:814 (discriminator 3)
    4f34:	68b1      	ldr	r1, [r6, #8]
/home/hsk/Desktop/devel/tee-tpm-hyp/optee_os/lib/libmbedtls/mbedtls/library/bignum.c:813 (discriminator 3)
    4f36:	3b01      	subs	r3, #1
/home/hsk/Desktop/devel/tee-tpm-hyp/optee_os/lib/libmbedtls/mbedtls/library/bignum.c:814 (discriminator 3)
    4f38:	588d      	ldr	r5, [r1, r2]
    4f3a:	4411      	add	r1, r2
    4f3c:	3a04      	subs	r2, #4
    4f3e:	500d      	str	r5, [r1, r0]
    4f40:	e7ee      	b.n	4f20 <mbedtls_mpi_shift_l+0x48>
/home/hsk/Desktop/devel/tee-tpm-hyp/optee_os/lib/libmbedtls/mbedtls/library/bignum.c:825
    4f42:	f8b6 c004 	ldrh.w	ip, [r6, #4]
    4f46:	00a3      	lsls	r3, r4, #2
/home/hsk/Desktop/devel/tee-tpm-hyp/optee_os/lib/libmbedtls/mbedtls/library/bignum.c:796
    4f48:	2100      	movs	r1, #0
/home/hsk/Desktop/devel/tee-tpm-hyp/optee_os/lib/libmbedtls/mbedtls/library/bignum.c:827
    4f4a:	f1c7 0e20 	rsb	lr, r7, #32
/home/hsk/Desktop/devel/tee-tpm-hyp/optee_os/lib/libmbedtls/mbedtls/library/bignum.c:825 (discriminator 1)
    4f4e:	45a4      	cmp	ip, r4
    4f50:	d9d1      	bls.n	4ef6 <mbedtls_mpi_shift_l+0x1e>
/home/hsk/Desktop/devel/tee-tpm-hyp/optee_os/lib/libmbedtls/mbedtls/library/bignum.c:827 (discriminator 3)
    4f52:	68b5      	ldr	r5, [r6, #8]
/home/hsk/Desktop/devel/tee-tpm-hyp/optee_os/lib/libmbedtls/mbedtls/library/bignum.c:825 (discriminator 3)
    4f54:	3401      	adds	r4, #1
/home/hsk/Desktop/devel/tee-tpm-hyp/optee_os/lib/libmbedtls/mbedtls/library/bignum.c:827 (discriminator 3)
    4f56:	58e8      	ldr	r0, [r5, r3]
/home/hsk/Desktop/devel/tee-tpm-hyp/optee_os/lib/libmbedtls/mbedtls/library/bignum.c:828 (discriminator 3)
    4f58:	fa00 f207 	lsl.w	r2, r0, r7
/home/hsk/Desktop/devel/tee-tpm-hyp/optee_os/lib/libmbedtls/mbedtls/library/bignum.c:829 (discriminator 3)
    4f5c:	430a      	orrs	r2, r1
/home/hsk/Desktop/devel/tee-tpm-hyp/optee_os/lib/libmbedtls/mbedtls/library/bignum.c:827 (discriminator 3)
    4f5e:	fa20 f10e 	lsr.w	r1, r0, lr
/home/hsk/Desktop/devel/tee-tpm-hyp/optee_os/lib/libmbedtls/mbedtls/library/bignum.c:829 (discriminator 3)
    4f62:	50ea      	str	r2, [r5, r3]
    4f64:	3304      	adds	r3, #4
    4f66:	e7f2      	b.n	4f4e <mbedtls_mpi_shift_l+0x76>

00004f68 <mbedtls_mpi_shift_r>:
mbedtls_mpi_shift_r():
/home/hsk/Desktop/devel/tee-tpm-hyp/optee_os/lib/libmbedtls/mbedtls/library/bignum.c:850
    4f68:	8883      	ldrh	r3, [r0, #4]
/home/hsk/Desktop/devel/tee-tpm-hyp/optee_os/lib/libmbedtls/mbedtls/library/bignum.c:843
    4f6a:	b4f0      	push	{r4, r5, r6, r7}
/home/hsk/Desktop/devel/tee-tpm-hyp/optee_os/lib/libmbedtls/mbedtls/library/bignum.c:847
    4f6c:	094d      	lsrs	r5, r1, #5
/home/hsk/Desktop/devel/tee-tpm-hyp/optee_os/lib/libmbedtls/mbedtls/library/bignum.c:850
    4f6e:	42ab      	cmp	r3, r5
    4f70:	d303      	bcc.n	4f7a <mbedtls_mpi_shift_r+0x12>
/home/hsk/Desktop/devel/tee-tpm-hyp/optee_os/lib/libmbedtls/mbedtls/library/bignum.c:848 (discriminator 1)
    4f72:	f001 011f 	and.w	r1, r1, #31
/home/hsk/Desktop/devel/tee-tpm-hyp/optee_os/lib/libmbedtls/mbedtls/library/bignum.c:850 (discriminator 1)
    4f76:	d104      	bne.n	4f82 <mbedtls_mpi_shift_r+0x1a>
/home/hsk/Desktop/devel/tee-tpm-hyp/optee_os/lib/libmbedtls/mbedtls/library/bignum.c:850 (discriminator 2)
    4f78:	b381      	cbz	r1, 4fdc <mbedtls_mpi_shift_r+0x74>
/home/hsk/Desktop/devel/tee-tpm-hyp/optee_os/lib/libmbedtls/mbedtls/library/bignum.c:851
    4f7a:	2100      	movs	r1, #0
/home/hsk/Desktop/devel/tee-tpm-hyp/optee_os/lib/libmbedtls/mbedtls/library/bignum.c:880
    4f7c:	bcf0      	pop	{r4, r5, r6, r7}
/home/hsk/Desktop/devel/tee-tpm-hyp/optee_os/lib/libmbedtls/mbedtls/library/bignum.c:851
    4f7e:	f7ff bec0 	b.w	4d02 <mbedtls_mpi_lset>
/home/hsk/Desktop/devel/tee-tpm-hyp/optee_os/lib/libmbedtls/mbedtls/library/bignum.c:856
    4f82:	b9f5      	cbnz	r5, 4fc2 <mbedtls_mpi_shift_r+0x5a>
/home/hsk/Desktop/devel/tee-tpm-hyp/optee_os/lib/libmbedtls/mbedtls/library/bignum.c:868
    4f84:	b139      	cbz	r1, 4f96 <mbedtls_mpi_shift_r+0x2e>
    4f86:	f103 4280 	add.w	r2, r3, #1073741824	; 0x40000000
/home/hsk/Desktop/devel/tee-tpm-hyp/optee_os/lib/libmbedtls/mbedtls/library/bignum.c:845
    4f8a:	2500      	movs	r5, #0
    4f8c:	3a01      	subs	r2, #1
/home/hsk/Desktop/devel/tee-tpm-hyp/optee_os/lib/libmbedtls/mbedtls/library/bignum.c:872
    4f8e:	f1c1 0c20 	rsb	ip, r1, #32
    4f92:	0092      	lsls	r2, r2, #2
/home/hsk/Desktop/devel/tee-tpm-hyp/optee_os/lib/libmbedtls/mbedtls/library/bignum.c:870 (discriminator 1)
    4f94:	b9bb      	cbnz	r3, 4fc6 <mbedtls_mpi_shift_r+0x5e>
/home/hsk/Desktop/devel/tee-tpm-hyp/optee_os/lib/libmbedtls/mbedtls/library/bignum.c:880
    4f96:	2000      	movs	r0, #0
    4f98:	bcf0      	pop	{r4, r5, r6, r7}
    4f9a:	4770      	bx	lr
/home/hsk/Desktop/devel/tee-tpm-hyp/optee_os/lib/libmbedtls/mbedtls/library/bignum.c:859 (discriminator 3)
    4f9c:	6884      	ldr	r4, [r0, #8]
    4f9e:	1956      	adds	r6, r2, r5
    4fa0:	f854 6026 	ldr.w	r6, [r4, r6, lsl #2]
    4fa4:	f844 6022 	str.w	r6, [r4, r2, lsl #2]
/home/hsk/Desktop/devel/tee-tpm-hyp/optee_os/lib/libmbedtls/mbedtls/library/bignum.c:858 (discriminator 3)
    4fa8:	3201      	adds	r2, #1
/home/hsk/Desktop/devel/tee-tpm-hyp/optee_os/lib/libmbedtls/mbedtls/library/bignum.c:858 (discriminator 1)
    4faa:	1b5c      	subs	r4, r3, r5
    4fac:	4294      	cmp	r4, r2
    4fae:	d8f5      	bhi.n	4f9c <mbedtls_mpi_shift_r+0x34>
    4fb0:	00a2      	lsls	r2, r4, #2
/home/hsk/Desktop/devel/tee-tpm-hyp/optee_os/lib/libmbedtls/mbedtls/library/bignum.c:862
    4fb2:	2500      	movs	r5, #0
/home/hsk/Desktop/devel/tee-tpm-hyp/optee_os/lib/libmbedtls/mbedtls/library/bignum.c:861 (discriminator 1)
    4fb4:	42a3      	cmp	r3, r4
    4fb6:	d9e5      	bls.n	4f84 <mbedtls_mpi_shift_r+0x1c>
/home/hsk/Desktop/devel/tee-tpm-hyp/optee_os/lib/libmbedtls/mbedtls/library/bignum.c:862 (discriminator 2)
    4fb8:	6886      	ldr	r6, [r0, #8]
/home/hsk/Desktop/devel/tee-tpm-hyp/optee_os/lib/libmbedtls/mbedtls/library/bignum.c:861 (discriminator 2)
    4fba:	3401      	adds	r4, #1
/home/hsk/Desktop/devel/tee-tpm-hyp/optee_os/lib/libmbedtls/mbedtls/library/bignum.c:862 (discriminator 2)
    4fbc:	50b5      	str	r5, [r6, r2]
    4fbe:	3204      	adds	r2, #4
    4fc0:	e7f8      	b.n	4fb4 <mbedtls_mpi_shift_r+0x4c>
    4fc2:	2200      	movs	r2, #0
    4fc4:	e7f1      	b.n	4faa <mbedtls_mpi_shift_r+0x42>
/home/hsk/Desktop/devel/tee-tpm-hyp/optee_os/lib/libmbedtls/mbedtls/library/bignum.c:872 (discriminator 3)
    4fc6:	6887      	ldr	r7, [r0, #8]
/home/hsk/Desktop/devel/tee-tpm-hyp/optee_os/lib/libmbedtls/mbedtls/library/bignum.c:870 (discriminator 3)
    4fc8:	3b01      	subs	r3, #1
/home/hsk/Desktop/devel/tee-tpm-hyp/optee_os/lib/libmbedtls/mbedtls/library/bignum.c:872 (discriminator 3)
    4fca:	58be      	ldr	r6, [r7, r2]
/home/hsk/Desktop/devel/tee-tpm-hyp/optee_os/lib/libmbedtls/mbedtls/library/bignum.c:873 (discriminator 3)
    4fcc:	fa26 f401 	lsr.w	r4, r6, r1
/home/hsk/Desktop/devel/tee-tpm-hyp/optee_os/lib/libmbedtls/mbedtls/library/bignum.c:874 (discriminator 3)
    4fd0:	432c      	orrs	r4, r5
/home/hsk/Desktop/devel/tee-tpm-hyp/optee_os/lib/libmbedtls/mbedtls/library/bignum.c:872 (discriminator 3)
    4fd2:	fa06 f50c 	lsl.w	r5, r6, ip
/home/hsk/Desktop/devel/tee-tpm-hyp/optee_os/lib/libmbedtls/mbedtls/library/bignum.c:874 (discriminator 3)
    4fd6:	50bc      	str	r4, [r7, r2]
    4fd8:	3a04      	subs	r2, #4
    4fda:	e7db      	b.n	4f94 <mbedtls_mpi_shift_r+0x2c>
/home/hsk/Desktop/devel/tee-tpm-hyp/optee_os/lib/libmbedtls/mbedtls/library/bignum.c:856
    4fdc:	2b00      	cmp	r3, #0
    4fde:	d0da      	beq.n	4f96 <mbedtls_mpi_shift_r+0x2e>
    4fe0:	460a      	mov	r2, r1
    4fe2:	e7e2      	b.n	4faa <mbedtls_mpi_shift_r+0x42>

00004fe4 <mbedtls_mpi_cmp_abs>:
mbedtls_mpi_cmp_abs():
/home/hsk/Desktop/devel/tee-tpm-hyp/optee_os/lib/libmbedtls/mbedtls/library/bignum.c:889
    4fe4:	8883      	ldrh	r3, [r0, #4]
/home/hsk/Desktop/devel/tee-tpm-hyp/optee_os/lib/libmbedtls/mbedtls/library/bignum.c:886
    4fe6:	b530      	push	{r4, r5, lr}
    4fe8:	f103 4280 	add.w	r2, r3, #1073741824	; 0x40000000
    4fec:	3a01      	subs	r2, #1
    4fee:	0092      	lsls	r2, r2, #2
/home/hsk/Desktop/devel/tee-tpm-hyp/optee_os/lib/libmbedtls/mbedtls/library/bignum.c:889 (discriminator 1)
    4ff0:	b97b      	cbnz	r3, 5012 <mbedtls_mpi_cmp_abs+0x2e>
/home/hsk/Desktop/devel/tee-tpm-hyp/optee_os/lib/libmbedtls/mbedtls/library/bignum.c:893
    4ff2:	888c      	ldrh	r4, [r1, #4]
    4ff4:	f104 4280 	add.w	r2, r4, #1073741824	; 0x40000000
    4ff8:	3a01      	subs	r2, #1
    4ffa:	0092      	lsls	r2, r2, #2
/home/hsk/Desktop/devel/tee-tpm-hyp/optee_os/lib/libmbedtls/mbedtls/library/bignum.c:893 (discriminator 1)
    4ffc:	b984      	cbnz	r4, 5020 <mbedtls_mpi_cmp_abs+0x3c>
/home/hsk/Desktop/devel/tee-tpm-hyp/optee_os/lib/libmbedtls/mbedtls/library/bignum.c:897
    4ffe:	ea53 0204 	orrs.w	r2, r3, r4
    5002:	d01f      	beq.n	5044 <mbedtls_mpi_cmp_abs+0x60>
/home/hsk/Desktop/devel/tee-tpm-hyp/optee_os/lib/libmbedtls/mbedtls/library/bignum.c:900
    5004:	42a3      	cmp	r3, r4
    5006:	d81f      	bhi.n	5048 <mbedtls_mpi_cmp_abs+0x64>
/home/hsk/Desktop/devel/tee-tpm-hyp/optee_os/lib/libmbedtls/mbedtls/library/bignum.c:901
    5008:	d319      	bcc.n	503e <mbedtls_mpi_cmp_abs+0x5a>
    500a:	009b      	lsls	r3, r3, #2
/home/hsk/Desktop/devel/tee-tpm-hyp/optee_os/lib/libmbedtls/mbedtls/library/bignum.c:903 (discriminator 1)
    500c:	b97b      	cbnz	r3, 502e <mbedtls_mpi_cmp_abs+0x4a>
/home/hsk/Desktop/devel/tee-tpm-hyp/optee_os/lib/libmbedtls/mbedtls/library/bignum.c:898
    500e:	4618      	mov	r0, r3
/home/hsk/Desktop/devel/tee-tpm-hyp/optee_os/lib/libmbedtls/mbedtls/library/bignum.c:910
    5010:	bd30      	pop	{r4, r5, pc}
/home/hsk/Desktop/devel/tee-tpm-hyp/optee_os/lib/libmbedtls/mbedtls/library/bignum.c:890
    5012:	6884      	ldr	r4, [r0, #8]
    5014:	58a4      	ldr	r4, [r4, r2]
    5016:	3a04      	subs	r2, #4
    5018:	2c00      	cmp	r4, #0
    501a:	d1ea      	bne.n	4ff2 <mbedtls_mpi_cmp_abs+0xe>
/home/hsk/Desktop/devel/tee-tpm-hyp/optee_os/lib/libmbedtls/mbedtls/library/bignum.c:889 (discriminator 2)
    501c:	3b01      	subs	r3, #1
    501e:	e7e7      	b.n	4ff0 <mbedtls_mpi_cmp_abs+0xc>
/home/hsk/Desktop/devel/tee-tpm-hyp/optee_os/lib/libmbedtls/mbedtls/library/bignum.c:894
    5020:	688d      	ldr	r5, [r1, #8]
    5022:	58ad      	ldr	r5, [r5, r2]
    5024:	3a04      	subs	r2, #4
    5026:	2d00      	cmp	r5, #0
    5028:	d1e9      	bne.n	4ffe <mbedtls_mpi_cmp_abs+0x1a>
/home/hsk/Desktop/devel/tee-tpm-hyp/optee_os/lib/libmbedtls/mbedtls/library/bignum.c:893 (discriminator 2)
    502a:	3c01      	subs	r4, #1
    502c:	e7e6      	b.n	4ffc <mbedtls_mpi_cmp_abs+0x18>
/home/hsk/Desktop/devel/tee-tpm-hyp/optee_os/lib/libmbedtls/mbedtls/library/bignum.c:905
    502e:	3b04      	subs	r3, #4
    5030:	6882      	ldr	r2, [r0, #8]
    5032:	58d4      	ldr	r4, [r2, r3]
    5034:	688a      	ldr	r2, [r1, #8]
    5036:	58d2      	ldr	r2, [r2, r3]
    5038:	4294      	cmp	r4, r2
    503a:	d805      	bhi.n	5048 <mbedtls_mpi_cmp_abs+0x64>
/home/hsk/Desktop/devel/tee-tpm-hyp/optee_os/lib/libmbedtls/mbedtls/library/bignum.c:906
    503c:	d2e6      	bcs.n	500c <mbedtls_mpi_cmp_abs+0x28>
/home/hsk/Desktop/devel/tee-tpm-hyp/optee_os/lib/libmbedtls/mbedtls/library/bignum.c:901
    503e:	f04f 30ff 	mov.w	r0, #4294967295	; 0xffffffff
    5042:	e7e5      	b.n	5010 <mbedtls_mpi_cmp_abs+0x2c>
/home/hsk/Desktop/devel/tee-tpm-hyp/optee_os/lib/libmbedtls/mbedtls/library/bignum.c:898
    5044:	4610      	mov	r0, r2
    5046:	e7e3      	b.n	5010 <mbedtls_mpi_cmp_abs+0x2c>
/home/hsk/Desktop/devel/tee-tpm-hyp/optee_os/lib/libmbedtls/mbedtls/library/bignum.c:900
    5048:	2001      	movs	r0, #1
    504a:	e7e1      	b.n	5010 <mbedtls_mpi_cmp_abs+0x2c>

0000504c <mbedtls_mpi_cmp_mpi>:
mbedtls_mpi_cmp_mpi():
/home/hsk/Desktop/devel/tee-tpm-hyp/optee_os/lib/libmbedtls/mbedtls/library/bignum.c:919
    504c:	8883      	ldrh	r3, [r0, #4]
/home/hsk/Desktop/devel/tee-tpm-hyp/optee_os/lib/libmbedtls/mbedtls/library/bignum.c:916
    504e:	b530      	push	{r4, r5, lr}
    5050:	f103 4280 	add.w	r2, r3, #1073741824	; 0x40000000
    5054:	3a01      	subs	r2, #1
    5056:	0092      	lsls	r2, r2, #2
/home/hsk/Desktop/devel/tee-tpm-hyp/optee_os/lib/libmbedtls/mbedtls/library/bignum.c:919 (discriminator 1)
    5058:	b96b      	cbnz	r3, 5076 <mbedtls_mpi_cmp_mpi+0x2a>
/home/hsk/Desktop/devel/tee-tpm-hyp/optee_os/lib/libmbedtls/mbedtls/library/bignum.c:923
    505a:	888c      	ldrh	r4, [r1, #4]
    505c:	f104 4280 	add.w	r2, r4, #1073741824	; 0x40000000
    5060:	3a01      	subs	r2, #1
    5062:	0092      	lsls	r2, r2, #2
/home/hsk/Desktop/devel/tee-tpm-hyp/optee_os/lib/libmbedtls/mbedtls/library/bignum.c:923 (discriminator 1)
    5064:	b974      	cbnz	r4, 5084 <mbedtls_mpi_cmp_mpi+0x38>
/home/hsk/Desktop/devel/tee-tpm-hyp/optee_os/lib/libmbedtls/mbedtls/library/bignum.c:927
    5066:	ea54 0203 	orrs.w	r2, r4, r3
    506a:	d031      	beq.n	50d0 <mbedtls_mpi_cmp_mpi+0x84>
/home/hsk/Desktop/devel/tee-tpm-hyp/optee_os/lib/libmbedtls/mbedtls/library/bignum.c:930
    506c:	429c      	cmp	r4, r3
    506e:	d210      	bcs.n	5092 <mbedtls_mpi_cmp_mpi+0x46>
/home/hsk/Desktop/devel/tee-tpm-hyp/optee_os/lib/libmbedtls/mbedtls/library/bignum.c:930 (discriminator 1)
    5070:	f990 0000 	ldrsb.w	r0, [r0]
/home/hsk/Desktop/devel/tee-tpm-hyp/optee_os/lib/libmbedtls/mbedtls/library/bignum.c:943
    5074:	bd30      	pop	{r4, r5, pc}
/home/hsk/Desktop/devel/tee-tpm-hyp/optee_os/lib/libmbedtls/mbedtls/library/bignum.c:920
    5076:	6884      	ldr	r4, [r0, #8]
    5078:	58a4      	ldr	r4, [r4, r2]
    507a:	3a04      	subs	r2, #4
    507c:	2c00      	cmp	r4, #0
    507e:	d1ec      	bne.n	505a <mbedtls_mpi_cmp_mpi+0xe>
/home/hsk/Desktop/devel/tee-tpm-hyp/optee_os/lib/libmbedtls/mbedtls/library/bignum.c:919 (discriminator 2)
    5080:	3b01      	subs	r3, #1
    5082:	e7e9      	b.n	5058 <mbedtls_mpi_cmp_mpi+0xc>
/home/hsk/Desktop/devel/tee-tpm-hyp/optee_os/lib/libmbedtls/mbedtls/library/bignum.c:924
    5084:	688d      	ldr	r5, [r1, #8]
    5086:	58ad      	ldr	r5, [r5, r2]
    5088:	3a04      	subs	r2, #4
    508a:	2d00      	cmp	r5, #0
    508c:	d1eb      	bne.n	5066 <mbedtls_mpi_cmp_mpi+0x1a>
/home/hsk/Desktop/devel/tee-tpm-hyp/optee_os/lib/libmbedtls/mbedtls/library/bignum.c:923 (discriminator 2)
    508e:	3c01      	subs	r4, #1
    5090:	e7e8      	b.n	5064 <mbedtls_mpi_cmp_mpi+0x18>
    5092:	f991 2000 	ldrsb.w	r2, [r1]
/home/hsk/Desktop/devel/tee-tpm-hyp/optee_os/lib/libmbedtls/mbedtls/library/bignum.c:931
    5096:	d901      	bls.n	509c <mbedtls_mpi_cmp_mpi+0x50>
/home/hsk/Desktop/devel/tee-tpm-hyp/optee_os/lib/libmbedtls/mbedtls/library/bignum.c:931 (discriminator 1)
    5098:	4250      	negs	r0, r2
    509a:	e7eb      	b.n	5074 <mbedtls_mpi_cmp_mpi+0x28>
/home/hsk/Desktop/devel/tee-tpm-hyp/optee_os/lib/libmbedtls/mbedtls/library/bignum.c:933
    509c:	f990 4000 	ldrsb.w	r4, [r0]
    50a0:	2c00      	cmp	r4, #0
    50a2:	dd01      	ble.n	50a8 <mbedtls_mpi_cmp_mpi+0x5c>
/home/hsk/Desktop/devel/tee-tpm-hyp/optee_os/lib/libmbedtls/mbedtls/library/bignum.c:933 (discriminator 1)
    50a4:	2a00      	cmp	r2, #0
    50a6:	db15      	blt.n	50d4 <mbedtls_mpi_cmp_mpi+0x88>
/home/hsk/Desktop/devel/tee-tpm-hyp/optee_os/lib/libmbedtls/mbedtls/library/bignum.c:934
    50a8:	2a00      	cmp	r2, #0
    50aa:	dd01      	ble.n	50b0 <mbedtls_mpi_cmp_mpi+0x64>
/home/hsk/Desktop/devel/tee-tpm-hyp/optee_os/lib/libmbedtls/mbedtls/library/bignum.c:934 (discriminator 1)
    50ac:	2c00      	cmp	r4, #0
    50ae:	db13      	blt.n	50d8 <mbedtls_mpi_cmp_mpi+0x8c>
    50b0:	009b      	lsls	r3, r3, #2
/home/hsk/Desktop/devel/tee-tpm-hyp/optee_os/lib/libmbedtls/mbedtls/library/bignum.c:936 (discriminator 1)
    50b2:	b90b      	cbnz	r3, 50b8 <mbedtls_mpi_cmp_mpi+0x6c>
/home/hsk/Desktop/devel/tee-tpm-hyp/optee_os/lib/libmbedtls/mbedtls/library/bignum.c:928
    50b4:	4618      	mov	r0, r3
    50b6:	e7dd      	b.n	5074 <mbedtls_mpi_cmp_mpi+0x28>
/home/hsk/Desktop/devel/tee-tpm-hyp/optee_os/lib/libmbedtls/mbedtls/library/bignum.c:938
    50b8:	3b04      	subs	r3, #4
    50ba:	6882      	ldr	r2, [r0, #8]
    50bc:	58d5      	ldr	r5, [r2, r3]
    50be:	688a      	ldr	r2, [r1, #8]
    50c0:	58d2      	ldr	r2, [r2, r3]
    50c2:	4295      	cmp	r5, r2
    50c4:	d901      	bls.n	50ca <mbedtls_mpi_cmp_mpi+0x7e>
/home/hsk/Desktop/devel/tee-tpm-hyp/optee_os/lib/libmbedtls/mbedtls/library/bignum.c:938 (discriminator 1)
    50c6:	4620      	mov	r0, r4
    50c8:	e7d4      	b.n	5074 <mbedtls_mpi_cmp_mpi+0x28>
/home/hsk/Desktop/devel/tee-tpm-hyp/optee_os/lib/libmbedtls/mbedtls/library/bignum.c:939
    50ca:	d2f2      	bcs.n	50b2 <mbedtls_mpi_cmp_mpi+0x66>
/home/hsk/Desktop/devel/tee-tpm-hyp/optee_os/lib/libmbedtls/mbedtls/library/bignum.c:939 (discriminator 1)
    50cc:	4260      	negs	r0, r4
    50ce:	e7d1      	b.n	5074 <mbedtls_mpi_cmp_mpi+0x28>
/home/hsk/Desktop/devel/tee-tpm-hyp/optee_os/lib/libmbedtls/mbedtls/library/bignum.c:928
    50d0:	4610      	mov	r0, r2
    50d2:	e7cf      	b.n	5074 <mbedtls_mpi_cmp_mpi+0x28>
/home/hsk/Desktop/devel/tee-tpm-hyp/optee_os/lib/libmbedtls/mbedtls/library/bignum.c:933
    50d4:	2001      	movs	r0, #1
    50d6:	e7cd      	b.n	5074 <mbedtls_mpi_cmp_mpi+0x28>
/home/hsk/Desktop/devel/tee-tpm-hyp/optee_os/lib/libmbedtls/mbedtls/library/bignum.c:934
    50d8:	f04f 30ff 	mov.w	r0, #4294967295	; 0xffffffff
    50dc:	e7ca      	b.n	5074 <mbedtls_mpi_cmp_mpi+0x28>

000050de <mbedtls_mpi_cmp_int>:
mbedtls_mpi_cmp_int():
/home/hsk/Desktop/devel/tee-tpm-hyp/optee_os/lib/libmbedtls/mbedtls/library/bignum.c:949
    50de:	b51f      	push	{r0, r1, r2, r3, r4, lr}
/home/hsk/Desktop/devel/tee-tpm-hyp/optee_os/lib/libmbedtls/mbedtls/library/bignum.c:953
    50e0:	ea81 73e1 	eor.w	r3, r1, r1, asr #31
/home/hsk/Desktop/devel/tee-tpm-hyp/optee_os/lib/libmbedtls/mbedtls/library/bignum.c:954
    50e4:	2900      	cmp	r1, #0
/home/hsk/Desktop/devel/tee-tpm-hyp/optee_os/lib/libmbedtls/mbedtls/library/bignum.c:953
    50e6:	eba3 73e1 	sub.w	r3, r3, r1, asr #31
/home/hsk/Desktop/devel/tee-tpm-hyp/optee_os/lib/libmbedtls/mbedtls/library/bignum.c:958
    50ea:	a901      	add	r1, sp, #4
/home/hsk/Desktop/devel/tee-tpm-hyp/optee_os/lib/libmbedtls/mbedtls/library/bignum.c:953
    50ec:	9300      	str	r3, [sp, #0]
/home/hsk/Desktop/devel/tee-tpm-hyp/optee_os/lib/libmbedtls/mbedtls/library/bignum.c:954
    50ee:	f04f 33ff 	mov.w	r3, #4294967295	; 0xffffffff
    50f2:	bfa8      	it	ge
    50f4:	2301      	movge	r3, #1
    50f6:	f88d 3004 	strb.w	r3, [sp, #4]
/home/hsk/Desktop/devel/tee-tpm-hyp/optee_os/lib/libmbedtls/mbedtls/library/bignum.c:955
    50fa:	2301      	movs	r3, #1
    50fc:	f8ad 3008 	strh.w	r3, [sp, #8]
/home/hsk/Desktop/devel/tee-tpm-hyp/optee_os/lib/libmbedtls/mbedtls/library/bignum.c:956
    5100:	466b      	mov	r3, sp
    5102:	9303      	str	r3, [sp, #12]
/home/hsk/Desktop/devel/tee-tpm-hyp/optee_os/lib/libmbedtls/mbedtls/library/bignum.c:958
    5104:	f7ff ffa2 	bl	504c <mbedtls_mpi_cmp_mpi>
/home/hsk/Desktop/devel/tee-tpm-hyp/optee_os/lib/libmbedtls/mbedtls/library/bignum.c:959
    5108:	b005      	add	sp, #20
    510a:	f85d fb04 	ldr.w	pc, [sp], #4

0000510e <mbedtls_mpi_add_abs>:
mbedtls_mpi_add_abs():
/home/hsk/Desktop/devel/tee-tpm-hyp/optee_os/lib/libmbedtls/mbedtls/library/bignum.c:965
    510e:	e92d 41f0 	stmdb	sp!, {r4, r5, r6, r7, r8, lr}
/home/hsk/Desktop/devel/tee-tpm-hyp/optee_os/lib/libmbedtls/mbedtls/library/bignum.c:970
    5112:	4290      	cmp	r0, r2
/home/hsk/Desktop/devel/tee-tpm-hyp/optee_os/lib/libmbedtls/mbedtls/library/bignum.c:965
    5114:	4606      	mov	r6, r0
    5116:	460c      	mov	r4, r1
    5118:	4615      	mov	r5, r2
/home/hsk/Desktop/devel/tee-tpm-hyp/optee_os/lib/libmbedtls/mbedtls/library/bignum.c:970
    511a:	d002      	beq.n	5122 <mbedtls_mpi_add_abs+0x14>
/home/hsk/Desktop/devel/tee-tpm-hyp/optee_os/lib/libmbedtls/mbedtls/library/bignum.c:975
    511c:	4288      	cmp	r0, r1
    511e:	d12e      	bne.n	517e <mbedtls_mpi_add_abs+0x70>
/home/hsk/Desktop/devel/tee-tpm-hyp/optee_os/lib/libmbedtls/mbedtls/library/bignum.c:965
    5120:	462c      	mov	r4, r5
/home/hsk/Desktop/devel/tee-tpm-hyp/optee_os/lib/libmbedtls/mbedtls/library/bignum.c:981
    5122:	2301      	movs	r3, #1
    5124:	7033      	strb	r3, [r6, #0]
/home/hsk/Desktop/devel/tee-tpm-hyp/optee_os/lib/libmbedtls/mbedtls/library/bignum.c:983
    5126:	88a5      	ldrh	r5, [r4, #4]
    5128:	f105 4380 	add.w	r3, r5, #1073741824	; 0x40000000
    512c:	3b01      	subs	r3, #1
    512e:	009b      	lsls	r3, r3, #2
/home/hsk/Desktop/devel/tee-tpm-hyp/optee_os/lib/libmbedtls/mbedtls/library/bignum.c:983 (discriminator 1)
    5130:	bb6d      	cbnz	r5, 518e <mbedtls_mpi_add_abs+0x80>
/home/hsk/Desktop/devel/tee-tpm-hyp/optee_os/lib/libmbedtls/mbedtls/library/bignum.c:987
    5132:	4629      	mov	r1, r5
    5134:	4630      	mov	r0, r6
    5136:	f7ff fc6f 	bl	4a18 <mbedtls_mpi_grow>
    513a:	4607      	mov	r7, r0
    513c:	bb20      	cbnz	r0, 5188 <mbedtls_mpi_add_abs+0x7a>
/home/hsk/Desktop/devel/tee-tpm-hyp/optee_os/lib/libmbedtls/mbedtls/library/bignum.c:989
    513e:	68b1      	ldr	r1, [r6, #8]
    5140:	68a0      	ldr	r0, [r4, #8]
    5142:	463c      	mov	r4, r7
    5144:	3804      	subs	r0, #4
    5146:	eb01 0285 	add.w	r2, r1, r5, lsl #2
/home/hsk/Desktop/devel/tee-tpm-hyp/optee_os/lib/libmbedtls/mbedtls/library/bignum.c:994 (discriminator 1)
    514a:	4291      	cmp	r1, r2
    514c:	d126      	bne.n	519c <mbedtls_mpi_add_abs+0x8e>
/home/hsk/Desktop/devel/tee-tpm-hyp/optee_os/lib/libmbedtls/mbedtls/library/bignum.c:1001
    514e:	b1dc      	cbz	r4, 5188 <mbedtls_mpi_add_abs+0x7a>
/home/hsk/Desktop/devel/tee-tpm-hyp/optee_os/lib/libmbedtls/mbedtls/library/bignum.c:1003
    5150:	88b3      	ldrh	r3, [r6, #4]
    5152:	f105 0801 	add.w	r8, r5, #1
    5156:	42ab      	cmp	r3, r5
    5158:	d807      	bhi.n	516a <mbedtls_mpi_add_abs+0x5c>
/home/hsk/Desktop/devel/tee-tpm-hyp/optee_os/lib/libmbedtls/mbedtls/library/bignum.c:1005
    515a:	4641      	mov	r1, r8
    515c:	4630      	mov	r0, r6
    515e:	f7ff fc5b 	bl	4a18 <mbedtls_mpi_grow>
    5162:	bb70      	cbnz	r0, 51c2 <mbedtls_mpi_add_abs+0xb4>
/home/hsk/Desktop/devel/tee-tpm-hyp/optee_os/lib/libmbedtls/mbedtls/library/bignum.c:1006
    5164:	68b2      	ldr	r2, [r6, #8]
    5166:	eb02 0285 	add.w	r2, r2, r5, lsl #2
    516a:	6813      	ldr	r3, [r2, #0]
    516c:	2100      	movs	r1, #0
/home/hsk/Desktop/devel/tee-tpm-hyp/optee_os/lib/libmbedtls/mbedtls/library/bignum.c:1009
    516e:	4645      	mov	r5, r8
    5170:	191c      	adds	r4, r3, r4
    5172:	f842 4b04 	str.w	r4, [r2], #4
    5176:	bf28      	it	cs
    5178:	2101      	movcs	r1, #1
    517a:	460c      	mov	r4, r1
    517c:	e7e7      	b.n	514e <mbedtls_mpi_add_abs+0x40>
/home/hsk/Desktop/devel/tee-tpm-hyp/optee_os/lib/libmbedtls/mbedtls/library/bignum.c:976
    517e:	f7ff fd05 	bl	4b8c <mbedtls_mpi_copy>
    5182:	4607      	mov	r7, r0
    5184:	2800      	cmp	r0, #0
    5186:	d0cb      	beq.n	5120 <mbedtls_mpi_add_abs+0x12>
/home/hsk/Desktop/devel/tee-tpm-hyp/optee_os/lib/libmbedtls/mbedtls/library/bignum.c:1015
    5188:	4638      	mov	r0, r7
    518a:	e8bd 81f0 	ldmia.w	sp!, {r4, r5, r6, r7, r8, pc}
/home/hsk/Desktop/devel/tee-tpm-hyp/optee_os/lib/libmbedtls/mbedtls/library/bignum.c:984
    518e:	68a2      	ldr	r2, [r4, #8]
    5190:	58d2      	ldr	r2, [r2, r3]
    5192:	3b04      	subs	r3, #4
    5194:	2a00      	cmp	r2, #0
    5196:	d1cc      	bne.n	5132 <mbedtls_mpi_add_abs+0x24>
/home/hsk/Desktop/devel/tee-tpm-hyp/optee_os/lib/libmbedtls/mbedtls/library/bignum.c:983 (discriminator 2)
    5198:	3d01      	subs	r5, #1
    519a:	e7c9      	b.n	5130 <mbedtls_mpi_add_abs+0x22>
    519c:	680b      	ldr	r3, [r1, #0]
    519e:	3004      	adds	r0, #4
    51a0:	f04f 0c00 	mov.w	ip, #0
    51a4:	eb13 0e04 	adds.w	lr, r3, r4
    51a8:	d301      	bcc.n	51ae <mbedtls_mpi_add_abs+0xa0>
    51aa:	f04f 0c01 	mov.w	ip, #1
    51ae:	6803      	ldr	r3, [r0, #0]
    51b0:	2400      	movs	r4, #0
    51b2:	eb1e 0303 	adds.w	r3, lr, r3
/home/hsk/Desktop/devel/tee-tpm-hyp/optee_os/lib/libmbedtls/mbedtls/library/bignum.c:998 (discriminator 3)
    51b6:	f841 3b04 	str.w	r3, [r1], #4
    51ba:	bf28      	it	cs
    51bc:	2401      	movcs	r4, #1
    51be:	4464      	add	r4, ip
    51c0:	e7c3      	b.n	514a <mbedtls_mpi_add_abs+0x3c>
/home/hsk/Desktop/devel/tee-tpm-hyp/optee_os/lib/libmbedtls/mbedtls/library/bignum.c:1005
    51c2:	4607      	mov	r7, r0
/home/hsk/Desktop/devel/tee-tpm-hyp/optee_os/lib/libmbedtls/mbedtls/library/bignum.c:1014
    51c4:	e7e0      	b.n	5188 <mbedtls_mpi_add_abs+0x7a>

000051c6 <mbedtls_mpi_sub_abs>:
mbedtls_mpi_sub_abs():
/home/hsk/Desktop/devel/tee-tpm-hyp/optee_os/lib/libmbedtls/mbedtls/library/bignum.c:1042
    51c6:	e92d 41ff 	stmdb	sp!, {r0, r1, r2, r3, r4, r5, r6, r7, r8, lr}
    51ca:	4688      	mov	r8, r1
    51cc:	4606      	mov	r6, r0
/home/hsk/Desktop/devel/tee-tpm-hyp/optee_os/lib/libmbedtls/mbedtls/library/bignum.c:1047
    51ce:	4611      	mov	r1, r2
    51d0:	4640      	mov	r0, r8
/home/hsk/Desktop/devel/tee-tpm-hyp/optee_os/lib/libmbedtls/mbedtls/library/bignum.c:1042
    51d2:	4615      	mov	r5, r2
/home/hsk/Desktop/devel/tee-tpm-hyp/optee_os/lib/libmbedtls/mbedtls/library/bignum.c:1047
    51d4:	f7ff ff06 	bl	4fe4 <mbedtls_mpi_cmp_abs>
    51d8:	2800      	cmp	r0, #0
    51da:	db2e      	blt.n	523a <mbedtls_mpi_sub_abs+0x74>
/home/hsk/Desktop/devel/tee-tpm-hyp/optee_os/lib/libmbedtls/mbedtls/library/bignum.c:1050
    51dc:	af01      	add	r7, sp, #4
    51de:	4638      	mov	r0, r7
    51e0:	f7ff fbd8 	bl	4994 <mbedtls_mpi_init_mempool>
/home/hsk/Desktop/devel/tee-tpm-hyp/optee_os/lib/libmbedtls/mbedtls/library/bignum.c:1052
    51e4:	42b5      	cmp	r5, r6
    51e6:	d104      	bne.n	51f2 <mbedtls_mpi_sub_abs+0x2c>
/home/hsk/Desktop/devel/tee-tpm-hyp/optee_os/lib/libmbedtls/mbedtls/library/bignum.c:1054
    51e8:	f7ff fcd0 	bl	4b8c <mbedtls_mpi_copy>
    51ec:	4604      	mov	r4, r0
    51ee:	b9b8      	cbnz	r0, 5220 <mbedtls_mpi_sub_abs+0x5a>
/home/hsk/Desktop/devel/tee-tpm-hyp/optee_os/lib/libmbedtls/mbedtls/library/bignum.c:1055
    51f0:	463d      	mov	r5, r7
/home/hsk/Desktop/devel/tee-tpm-hyp/optee_os/lib/libmbedtls/mbedtls/library/bignum.c:1058
    51f2:	45b0      	cmp	r8, r6
    51f4:	d10d      	bne.n	5212 <mbedtls_mpi_sub_abs+0x4c>
/home/hsk/Desktop/devel/tee-tpm-hyp/optee_os/lib/libmbedtls/mbedtls/library/bignum.c:1064
    51f6:	2301      	movs	r3, #1
    51f8:	7033      	strb	r3, [r6, #0]
/home/hsk/Desktop/devel/tee-tpm-hyp/optee_os/lib/libmbedtls/mbedtls/library/bignum.c:1068
    51fa:	88a8      	ldrh	r0, [r5, #4]
    51fc:	68a9      	ldr	r1, [r5, #8]
    51fe:	f100 4380 	add.w	r3, r0, #1073741824	; 0x40000000
    5202:	3b01      	subs	r3, #1
    5204:	009b      	lsls	r3, r3, #2
/home/hsk/Desktop/devel/tee-tpm-hyp/optee_os/lib/libmbedtls/mbedtls/library/bignum.c:1068 (discriminator 1)
    5206:	b990      	cbnz	r0, 522e <mbedtls_mpi_sub_abs+0x68>
/home/hsk/Desktop/devel/tee-tpm-hyp/optee_os/lib/libmbedtls/mbedtls/library/bignum.c:1072
    5208:	68b2      	ldr	r2, [r6, #8]
/home/hsk/Desktop/devel/tee-tpm-hyp/optee_os/lib/libmbedtls/mbedtls/library/bignum.c:1066
    520a:	2400      	movs	r4, #0
/home/hsk/Desktop/devel/tee-tpm-hyp/optee_os/lib/libmbedtls/mbedtls/library/bignum.c:1072
    520c:	f7ff f91c 	bl	4448 <mpi_sub_hlp>
    5210:	e006      	b.n	5220 <mbedtls_mpi_sub_abs+0x5a>
/home/hsk/Desktop/devel/tee-tpm-hyp/optee_os/lib/libmbedtls/mbedtls/library/bignum.c:1059
    5212:	4641      	mov	r1, r8
    5214:	4630      	mov	r0, r6
    5216:	f7ff fcb9 	bl	4b8c <mbedtls_mpi_copy>
    521a:	4604      	mov	r4, r0
    521c:	2800      	cmp	r0, #0
    521e:	d0ea      	beq.n	51f6 <mbedtls_mpi_sub_abs+0x30>
/home/hsk/Desktop/devel/tee-tpm-hyp/optee_os/lib/libmbedtls/mbedtls/library/bignum.c:1076
    5220:	4638      	mov	r0, r7
    5222:	f7ff fbd2 	bl	49ca <mbedtls_mpi_free>
/home/hsk/Desktop/devel/tee-tpm-hyp/optee_os/lib/libmbedtls/mbedtls/library/bignum.c:1079
    5226:	4620      	mov	r0, r4
    5228:	b004      	add	sp, #16
    522a:	e8bd 81f0 	ldmia.w	sp!, {r4, r5, r6, r7, r8, pc}
/home/hsk/Desktop/devel/tee-tpm-hyp/optee_os/lib/libmbedtls/mbedtls/library/bignum.c:1069
    522e:	58ca      	ldr	r2, [r1, r3]
    5230:	3b04      	subs	r3, #4
    5232:	2a00      	cmp	r2, #0
    5234:	d1e8      	bne.n	5208 <mbedtls_mpi_sub_abs+0x42>
/home/hsk/Desktop/devel/tee-tpm-hyp/optee_os/lib/libmbedtls/mbedtls/library/bignum.c:1068 (discriminator 2)
    5236:	3801      	subs	r0, #1
    5238:	e7e5      	b.n	5206 <mbedtls_mpi_sub_abs+0x40>
/home/hsk/Desktop/devel/tee-tpm-hyp/optee_os/lib/libmbedtls/mbedtls/library/bignum.c:1048
    523a:	f06f 0409 	mvn.w	r4, #9
    523e:	e7f2      	b.n	5226 <mbedtls_mpi_sub_abs+0x60>

00005240 <mbedtls_mpi_add_mpi>:
mbedtls_mpi_add_mpi():
/home/hsk/Desktop/devel/tee-tpm-hyp/optee_os/lib/libmbedtls/mbedtls/library/bignum.c:1085
    5240:	b5f8      	push	{r3, r4, r5, r6, r7, lr}
    5242:	4605      	mov	r5, r0
    5244:	460f      	mov	r7, r1
/home/hsk/Desktop/devel/tee-tpm-hyp/optee_os/lib/libmbedtls/mbedtls/library/bignum.c:1086
    5246:	f991 4000 	ldrsb.w	r4, [r1]
/home/hsk/Desktop/devel/tee-tpm-hyp/optee_os/lib/libmbedtls/mbedtls/library/bignum.c:1085
    524a:	4616      	mov	r6, r2
/home/hsk/Desktop/devel/tee-tpm-hyp/optee_os/lib/libmbedtls/mbedtls/library/bignum.c:1088
    524c:	f992 3000 	ldrsb.w	r3, [r2]
    5250:	4363      	muls	r3, r4
    5252:	d515      	bpl.n	5280 <mbedtls_mpi_add_mpi+0x40>
/home/hsk/Desktop/devel/tee-tpm-hyp/optee_os/lib/libmbedtls/mbedtls/library/bignum.c:1090
    5254:	4611      	mov	r1, r2
    5256:	4638      	mov	r0, r7
    5258:	f7ff fec4 	bl	4fe4 <mbedtls_mpi_cmp_abs>
    525c:	2800      	cmp	r0, #0
    525e:	db06      	blt.n	526e <mbedtls_mpi_add_mpi+0x2e>
/home/hsk/Desktop/devel/tee-tpm-hyp/optee_os/lib/libmbedtls/mbedtls/library/bignum.c:1092
    5260:	4632      	mov	r2, r6
    5262:	4639      	mov	r1, r7
    5264:	4628      	mov	r0, r5
    5266:	f7ff ffae 	bl	51c6 <mbedtls_mpi_sub_abs>
/home/hsk/Desktop/devel/tee-tpm-hyp/optee_os/lib/libmbedtls/mbedtls/library/bignum.c:1103
    526a:	b138      	cbz	r0, 527c <mbedtls_mpi_add_mpi+0x3c>
/home/hsk/Desktop/devel/tee-tpm-hyp/optee_os/lib/libmbedtls/mbedtls/library/bignum.c:1110
    526c:	bdf8      	pop	{r3, r4, r5, r6, r7, pc}
/home/hsk/Desktop/devel/tee-tpm-hyp/optee_os/lib/libmbedtls/mbedtls/library/bignum.c:1097
    526e:	463a      	mov	r2, r7
    5270:	4628      	mov	r0, r5
    5272:	f7ff ffa8 	bl	51c6 <mbedtls_mpi_sub_abs>
    5276:	2800      	cmp	r0, #0
    5278:	d1f8      	bne.n	526c <mbedtls_mpi_add_mpi+0x2c>
/home/hsk/Desktop/devel/tee-tpm-hyp/optee_os/lib/libmbedtls/mbedtls/library/bignum.c:1098
    527a:	4264      	negs	r4, r4
/home/hsk/Desktop/devel/tee-tpm-hyp/optee_os/lib/libmbedtls/mbedtls/library/bignum.c:1104
    527c:	702c      	strb	r4, [r5, #0]
/home/hsk/Desktop/devel/tee-tpm-hyp/optee_os/lib/libmbedtls/mbedtls/library/bignum.c:1109
    527e:	e7f5      	b.n	526c <mbedtls_mpi_add_mpi+0x2c>
/home/hsk/Desktop/devel/tee-tpm-hyp/optee_os/lib/libmbedtls/mbedtls/library/bignum.c:1103
    5280:	f7ff ff45 	bl	510e <mbedtls_mpi_add_abs>
    5284:	e7f1      	b.n	526a <mbedtls_mpi_add_mpi+0x2a>

00005286 <mbedtls_mpi_sub_mpi>:
mbedtls_mpi_sub_mpi():
/home/hsk/Desktop/devel/tee-tpm-hyp/optee_os/lib/libmbedtls/mbedtls/library/bignum.c:1116
    5286:	b5f8      	push	{r3, r4, r5, r6, r7, lr}
    5288:	4605      	mov	r5, r0
    528a:	460f      	mov	r7, r1
/home/hsk/Desktop/devel/tee-tpm-hyp/optee_os/lib/libmbedtls/mbedtls/library/bignum.c:1117
    528c:	f991 4000 	ldrsb.w	r4, [r1]
/home/hsk/Desktop/devel/tee-tpm-hyp/optee_os/lib/libmbedtls/mbedtls/library/bignum.c:1116
    5290:	4616      	mov	r6, r2
/home/hsk/Desktop/devel/tee-tpm-hyp/optee_os/lib/libmbedtls/mbedtls/library/bignum.c:1119
    5292:	f992 3000 	ldrsb.w	r3, [r2]
    5296:	fb13 f304 	smulbb	r3, r3, r4
    529a:	2b00      	cmp	r3, #0
    529c:	dd15      	ble.n	52ca <mbedtls_mpi_sub_mpi+0x44>
/home/hsk/Desktop/devel/tee-tpm-hyp/optee_os/lib/libmbedtls/mbedtls/library/bignum.c:1121
    529e:	4611      	mov	r1, r2
    52a0:	4638      	mov	r0, r7
    52a2:	f7ff fe9f 	bl	4fe4 <mbedtls_mpi_cmp_abs>
    52a6:	2800      	cmp	r0, #0
    52a8:	db06      	blt.n	52b8 <mbedtls_mpi_sub_mpi+0x32>
/home/hsk/Desktop/devel/tee-tpm-hyp/optee_os/lib/libmbedtls/mbedtls/library/bignum.c:1123
    52aa:	4632      	mov	r2, r6
    52ac:	4639      	mov	r1, r7
    52ae:	4628      	mov	r0, r5
    52b0:	f7ff ff89 	bl	51c6 <mbedtls_mpi_sub_abs>
/home/hsk/Desktop/devel/tee-tpm-hyp/optee_os/lib/libmbedtls/mbedtls/library/bignum.c:1134
    52b4:	b138      	cbz	r0, 52c6 <mbedtls_mpi_sub_mpi+0x40>
/home/hsk/Desktop/devel/tee-tpm-hyp/optee_os/lib/libmbedtls/mbedtls/library/bignum.c:1141
    52b6:	bdf8      	pop	{r3, r4, r5, r6, r7, pc}
/home/hsk/Desktop/devel/tee-tpm-hyp/optee_os/lib/libmbedtls/mbedtls/library/bignum.c:1128
    52b8:	463a      	mov	r2, r7
    52ba:	4628      	mov	r0, r5
    52bc:	f7ff ff83 	bl	51c6 <mbedtls_mpi_sub_abs>
    52c0:	2800      	cmp	r0, #0
    52c2:	d1f8      	bne.n	52b6 <mbedtls_mpi_sub_mpi+0x30>
/home/hsk/Desktop/devel/tee-tpm-hyp/optee_os/lib/libmbedtls/mbedtls/library/bignum.c:1129
    52c4:	4264      	negs	r4, r4
/home/hsk/Desktop/devel/tee-tpm-hyp/optee_os/lib/libmbedtls/mbedtls/library/bignum.c:1135
    52c6:	702c      	strb	r4, [r5, #0]
/home/hsk/Desktop/devel/tee-tpm-hyp/optee_os/lib/libmbedtls/mbedtls/library/bignum.c:1140
    52c8:	e7f5      	b.n	52b6 <mbedtls_mpi_sub_mpi+0x30>
/home/hsk/Desktop/devel/tee-tpm-hyp/optee_os/lib/libmbedtls/mbedtls/library/bignum.c:1134
    52ca:	f7ff ff20 	bl	510e <mbedtls_mpi_add_abs>
    52ce:	e7f1      	b.n	52b4 <mbedtls_mpi_sub_mpi+0x2e>

000052d0 <mbedtls_mpi_add_int>:
mbedtls_mpi_add_int():
/home/hsk/Desktop/devel/tee-tpm-hyp/optee_os/lib/libmbedtls/mbedtls/library/bignum.c:1147
    52d0:	b51f      	push	{r0, r1, r2, r3, r4, lr}
/home/hsk/Desktop/devel/tee-tpm-hyp/optee_os/lib/libmbedtls/mbedtls/library/bignum.c:1151
    52d2:	ea82 73e2 	eor.w	r3, r2, r2, asr #31
/home/hsk/Desktop/devel/tee-tpm-hyp/optee_os/lib/libmbedtls/mbedtls/library/bignum.c:1152
    52d6:	2a00      	cmp	r2, #0
/home/hsk/Desktop/devel/tee-tpm-hyp/optee_os/lib/libmbedtls/mbedtls/library/bignum.c:1151
    52d8:	eba3 73e2 	sub.w	r3, r3, r2, asr #31
/home/hsk/Desktop/devel/tee-tpm-hyp/optee_os/lib/libmbedtls/mbedtls/library/bignum.c:1156
    52dc:	aa01      	add	r2, sp, #4
/home/hsk/Desktop/devel/tee-tpm-hyp/optee_os/lib/libmbedtls/mbedtls/library/bignum.c:1151
    52de:	9300      	str	r3, [sp, #0]
/home/hsk/Desktop/devel/tee-tpm-hyp/optee_os/lib/libmbedtls/mbedtls/library/bignum.c:1152
    52e0:	f04f 33ff 	mov.w	r3, #4294967295	; 0xffffffff
    52e4:	bfa8      	it	ge
    52e6:	2301      	movge	r3, #1
    52e8:	f88d 3004 	strb.w	r3, [sp, #4]
/home/hsk/Desktop/devel/tee-tpm-hyp/optee_os/lib/libmbedtls/mbedtls/library/bignum.c:1153
    52ec:	2301      	movs	r3, #1
    52ee:	f8ad 3008 	strh.w	r3, [sp, #8]
/home/hsk/Desktop/devel/tee-tpm-hyp/optee_os/lib/libmbedtls/mbedtls/library/bignum.c:1154
    52f2:	466b      	mov	r3, sp
    52f4:	9303      	str	r3, [sp, #12]
/home/hsk/Desktop/devel/tee-tpm-hyp/optee_os/lib/libmbedtls/mbedtls/library/bignum.c:1156
    52f6:	f7ff ffa3 	bl	5240 <mbedtls_mpi_add_mpi>
/home/hsk/Desktop/devel/tee-tpm-hyp/optee_os/lib/libmbedtls/mbedtls/library/bignum.c:1157
    52fa:	b005      	add	sp, #20
    52fc:	f85d fb04 	ldr.w	pc, [sp], #4

00005300 <mbedtls_mpi_sub_int>:
mbedtls_mpi_sub_int():
/home/hsk/Desktop/devel/tee-tpm-hyp/optee_os/lib/libmbedtls/mbedtls/library/bignum.c:1163
    5300:	b51f      	push	{r0, r1, r2, r3, r4, lr}
/home/hsk/Desktop/devel/tee-tpm-hyp/optee_os/lib/libmbedtls/mbedtls/library/bignum.c:1167
    5302:	ea82 73e2 	eor.w	r3, r2, r2, asr #31
/home/hsk/Desktop/devel/tee-tpm-hyp/optee_os/lib/libmbedtls/mbedtls/library/bignum.c:1168
    5306:	2a00      	cmp	r2, #0
/home/hsk/Desktop/devel/tee-tpm-hyp/optee_os/lib/libmbedtls/mbedtls/library/bignum.c:1167
    5308:	eba3 73e2 	sub.w	r3, r3, r2, asr #31
/home/hsk/Desktop/devel/tee-tpm-hyp/optee_os/lib/libmbedtls/mbedtls/library/bignum.c:1172
    530c:	aa01      	add	r2, sp, #4
/home/hsk/Desktop/devel/tee-tpm-hyp/optee_os/lib/libmbedtls/mbedtls/library/bignum.c:1167
    530e:	9300      	str	r3, [sp, #0]
/home/hsk/Desktop/devel/tee-tpm-hyp/optee_os/lib/libmbedtls/mbedtls/library/bignum.c:1168
    5310:	f04f 33ff 	mov.w	r3, #4294967295	; 0xffffffff
    5314:	bfa8      	it	ge
    5316:	2301      	movge	r3, #1
    5318:	f88d 3004 	strb.w	r3, [sp, #4]
/home/hsk/Desktop/devel/tee-tpm-hyp/optee_os/lib/libmbedtls/mbedtls/library/bignum.c:1169
    531c:	2301      	movs	r3, #1
    531e:	f8ad 3008 	strh.w	r3, [sp, #8]
/home/hsk/Desktop/devel/tee-tpm-hyp/optee_os/lib/libmbedtls/mbedtls/library/bignum.c:1170
    5322:	466b      	mov	r3, sp
    5324:	9303      	str	r3, [sp, #12]
/home/hsk/Desktop/devel/tee-tpm-hyp/optee_os/lib/libmbedtls/mbedtls/library/bignum.c:1172
    5326:	f7ff ffae 	bl	5286 <mbedtls_mpi_sub_mpi>
/home/hsk/Desktop/devel/tee-tpm-hyp/optee_os/lib/libmbedtls/mbedtls/library/bignum.c:1173
    532a:	b005      	add	sp, #20
    532c:	f85d fb04 	ldr.w	pc, [sp], #4

00005330 <mbedtls_mpi_mul_mpi>:
mbedtls_mpi_mul_mpi():
/home/hsk/Desktop/devel/tee-tpm-hyp/optee_os/lib/libmbedtls/mbedtls/library/bignum.c:1251
    5330:	e92d 4ff0 	stmdb	sp!, {r4, r5, r6, r7, r8, r9, sl, fp, lr}
    5334:	4604      	mov	r4, r0
    5336:	460e      	mov	r6, r1
    5338:	b087      	sub	sp, #28
    533a:	4615      	mov	r5, r2
/home/hsk/Desktop/devel/tee-tpm-hyp/optee_os/lib/libmbedtls/mbedtls/library/bignum.c:1256
    533c:	46e8      	mov	r8, sp
    533e:	f10d 090c 	add.w	r9, sp, #12
    5342:	4640      	mov	r0, r8
    5344:	f7ff fb26 	bl	4994 <mbedtls_mpi_init_mempool>
    5348:	4648      	mov	r0, r9
    534a:	f7ff fb23 	bl	4994 <mbedtls_mpi_init_mempool>
/home/hsk/Desktop/devel/tee-tpm-hyp/optee_os/lib/libmbedtls/mbedtls/library/bignum.c:1258
    534e:	428c      	cmp	r4, r1
    5350:	d106      	bne.n	5360 <mbedtls_mpi_mul_mpi+0x30>
/home/hsk/Desktop/devel/tee-tpm-hyp/optee_os/lib/libmbedtls/mbedtls/library/bignum.c:1258 (discriminator 1)
    5352:	4621      	mov	r1, r4
    5354:	4640      	mov	r0, r8
    5356:	f7ff fc19 	bl	4b8c <mbedtls_mpi_copy>
    535a:	4683      	mov	fp, r0
    535c:	bb88      	cbnz	r0, 53c2 <mbedtls_mpi_mul_mpi+0x92>
/home/hsk/Desktop/devel/tee-tpm-hyp/optee_os/lib/libmbedtls/mbedtls/library/bignum.c:1258
    535e:	4646      	mov	r6, r8
/home/hsk/Desktop/devel/tee-tpm-hyp/optee_os/lib/libmbedtls/mbedtls/library/bignum.c:1259
    5360:	42ac      	cmp	r4, r5
    5362:	d106      	bne.n	5372 <mbedtls_mpi_mul_mpi+0x42>
/home/hsk/Desktop/devel/tee-tpm-hyp/optee_os/lib/libmbedtls/mbedtls/library/bignum.c:1259 (discriminator 1)
    5364:	4621      	mov	r1, r4
    5366:	4648      	mov	r0, r9
    5368:	f7ff fc10 	bl	4b8c <mbedtls_mpi_copy>
    536c:	4683      	mov	fp, r0
    536e:	bb40      	cbnz	r0, 53c2 <mbedtls_mpi_mul_mpi+0x92>
/home/hsk/Desktop/devel/tee-tpm-hyp/optee_os/lib/libmbedtls/mbedtls/library/bignum.c:1259
    5370:	464d      	mov	r5, r9
/home/hsk/Desktop/devel/tee-tpm-hyp/optee_os/lib/libmbedtls/mbedtls/library/bignum.c:1261
    5372:	88b7      	ldrh	r7, [r6, #4]
    5374:	f107 4380 	add.w	r3, r7, #1073741824	; 0x40000000
    5378:	3b01      	subs	r3, #1
    537a:	009b      	lsls	r3, r3, #2
/home/hsk/Desktop/devel/tee-tpm-hyp/optee_os/lib/libmbedtls/mbedtls/library/bignum.c:1261 (discriminator 1)
    537c:	bb5f      	cbnz	r7, 53d6 <mbedtls_mpi_mul_mpi+0xa6>
/home/hsk/Desktop/devel/tee-tpm-hyp/optee_os/lib/libmbedtls/mbedtls/library/bignum.c:1265
    537e:	f8b5 a004 	ldrh.w	sl, [r5, #4]
    5382:	f10a 4380 	add.w	r3, sl, #1073741824	; 0x40000000
    5386:	3b01      	subs	r3, #1
    5388:	009b      	lsls	r3, r3, #2
/home/hsk/Desktop/devel/tee-tpm-hyp/optee_os/lib/libmbedtls/mbedtls/library/bignum.c:1265 (discriminator 1)
    538a:	f1ba 0f00 	cmp.w	sl, #0
    538e:	d129      	bne.n	53e4 <mbedtls_mpi_mul_mpi+0xb4>
/home/hsk/Desktop/devel/tee-tpm-hyp/optee_os/lib/libmbedtls/mbedtls/library/bignum.c:1269
    5390:	eb07 010a 	add.w	r1, r7, sl
    5394:	4620      	mov	r0, r4
    5396:	f7ff fb3f 	bl	4a18 <mbedtls_mpi_grow>
    539a:	4683      	mov	fp, r0
    539c:	b988      	cbnz	r0, 53c2 <mbedtls_mpi_mul_mpi+0x92>
/home/hsk/Desktop/devel/tee-tpm-hyp/optee_os/lib/libmbedtls/mbedtls/library/bignum.c:1270
    539e:	4601      	mov	r1, r0
    53a0:	4620      	mov	r0, r4
    53a2:	f7ff fcae 	bl	4d02 <mbedtls_mpi_lset>
    53a6:	4683      	mov	fp, r0
    53a8:	b958      	cbnz	r0, 53c2 <mbedtls_mpi_mul_mpi+0x92>
    53aa:	ea4f 0a8a 	mov.w	sl, sl, lsl #2
    53ae:	f1aa 0a04 	sub.w	sl, sl, #4
/home/hsk/Desktop/devel/tee-tpm-hyp/optee_os/lib/libmbedtls/mbedtls/library/bignum.c:1272 (discriminator 1)
    53b2:	f11a 0f04 	cmn.w	sl, #4
    53b6:	d11d      	bne.n	53f4 <mbedtls_mpi_mul_mpi+0xc4>
/home/hsk/Desktop/devel/tee-tpm-hyp/optee_os/lib/libmbedtls/mbedtls/library/bignum.c:1275
    53b8:	7833      	ldrb	r3, [r6, #0]
    53ba:	782a      	ldrb	r2, [r5, #0]
    53bc:	fb13 f302 	smulbb	r3, r3, r2
    53c0:	7023      	strb	r3, [r4, #0]
/home/hsk/Desktop/devel/tee-tpm-hyp/optee_os/lib/libmbedtls/mbedtls/library/bignum.c:1279
    53c2:	4648      	mov	r0, r9
    53c4:	f7ff fb01 	bl	49ca <mbedtls_mpi_free>
    53c8:	4640      	mov	r0, r8
    53ca:	f7ff fafe 	bl	49ca <mbedtls_mpi_free>
/home/hsk/Desktop/devel/tee-tpm-hyp/optee_os/lib/libmbedtls/mbedtls/library/bignum.c:1282
    53ce:	4658      	mov	r0, fp
    53d0:	b007      	add	sp, #28
    53d2:	e8bd 8ff0 	ldmia.w	sp!, {r4, r5, r6, r7, r8, r9, sl, fp, pc}
/home/hsk/Desktop/devel/tee-tpm-hyp/optee_os/lib/libmbedtls/mbedtls/library/bignum.c:1262
    53d6:	68b2      	ldr	r2, [r6, #8]
    53d8:	58d2      	ldr	r2, [r2, r3]
    53da:	3b04      	subs	r3, #4
    53dc:	2a00      	cmp	r2, #0
    53de:	d1ce      	bne.n	537e <mbedtls_mpi_mul_mpi+0x4e>
/home/hsk/Desktop/devel/tee-tpm-hyp/optee_os/lib/libmbedtls/mbedtls/library/bignum.c:1261 (discriminator 2)
    53e0:	3f01      	subs	r7, #1
    53e2:	e7cb      	b.n	537c <mbedtls_mpi_mul_mpi+0x4c>
/home/hsk/Desktop/devel/tee-tpm-hyp/optee_os/lib/libmbedtls/mbedtls/library/bignum.c:1266
    53e4:	68aa      	ldr	r2, [r5, #8]
    53e6:	58d2      	ldr	r2, [r2, r3]
    53e8:	3b04      	subs	r3, #4
    53ea:	2a00      	cmp	r2, #0
    53ec:	d1d0      	bne.n	5390 <mbedtls_mpi_mul_mpi+0x60>
/home/hsk/Desktop/devel/tee-tpm-hyp/optee_os/lib/libmbedtls/mbedtls/library/bignum.c:1265 (discriminator 2)
    53ee:	f10a 3aff 	add.w	sl, sl, #4294967295	; 0xffffffff
    53f2:	e7ca      	b.n	538a <mbedtls_mpi_mul_mpi+0x5a>
/home/hsk/Desktop/devel/tee-tpm-hyp/optee_os/lib/libmbedtls/mbedtls/library/bignum.c:1273 (discriminator 3)
    53f4:	68ab      	ldr	r3, [r5, #8]
    53f6:	4638      	mov	r0, r7
    53f8:	68a2      	ldr	r2, [r4, #8]
    53fa:	68b1      	ldr	r1, [r6, #8]
    53fc:	f853 300a 	ldr.w	r3, [r3, sl]
    5400:	4452      	add	r2, sl
    5402:	f7ff f84f 	bl	44a4 <mpi_mul_hlp>
    5406:	e7d2      	b.n	53ae <mbedtls_mpi_mul_mpi+0x7e>

00005408 <mbedtls_mpi_mul_int>:
mbedtls_mpi_mul_int():
/home/hsk/Desktop/devel/tee-tpm-hyp/optee_os/lib/libmbedtls/mbedtls/library/bignum.c:1288
    5408:	b51f      	push	{r0, r1, r2, r3, r4, lr}
/home/hsk/Desktop/devel/tee-tpm-hyp/optee_os/lib/libmbedtls/mbedtls/library/bignum.c:1292
    540a:	2301      	movs	r3, #1
/home/hsk/Desktop/devel/tee-tpm-hyp/optee_os/lib/libmbedtls/mbedtls/library/bignum.c:1295
    540c:	9200      	str	r2, [sp, #0]
/home/hsk/Desktop/devel/tee-tpm-hyp/optee_os/lib/libmbedtls/mbedtls/library/bignum.c:1297
    540e:	aa01      	add	r2, sp, #4
/home/hsk/Desktop/devel/tee-tpm-hyp/optee_os/lib/libmbedtls/mbedtls/library/bignum.c:1292
    5410:	f88d 3004 	strb.w	r3, [sp, #4]
/home/hsk/Desktop/devel/tee-tpm-hyp/optee_os/lib/libmbedtls/mbedtls/library/bignum.c:1293
    5414:	f8ad 3008 	strh.w	r3, [sp, #8]
/home/hsk/Desktop/devel/tee-tpm-hyp/optee_os/lib/libmbedtls/mbedtls/library/bignum.c:1294
    5418:	466b      	mov	r3, sp
    541a:	9303      	str	r3, [sp, #12]
/home/hsk/Desktop/devel/tee-tpm-hyp/optee_os/lib/libmbedtls/mbedtls/library/bignum.c:1297
    541c:	f7ff ff88 	bl	5330 <mbedtls_mpi_mul_mpi>
/home/hsk/Desktop/devel/tee-tpm-hyp/optee_os/lib/libmbedtls/mbedtls/library/bignum.c:1298
    5420:	b005      	add	sp, #20
    5422:	f85d fb04 	ldr.w	pc, [sp], #4

00005426 <mbedtls_mpi_read_string>:
mbedtls_mpi_read_string():
/home/hsk/Desktop/devel/tee-tpm-hyp/optee_os/lib/libmbedtls/mbedtls/library/bignum.c:502
    5426:	e92d 4ff0 	stmdb	sp!, {r4, r5, r6, r7, r8, r9, sl, fp, lr}
/home/hsk/Desktop/devel/tee-tpm-hyp/optee_os/lib/libmbedtls/mbedtls/library/bignum.c:508
    542a:	1e8b      	subs	r3, r1, #2
/home/hsk/Desktop/devel/tee-tpm-hyp/optee_os/lib/libmbedtls/mbedtls/library/bignum.c:502
    542c:	4604      	mov	r4, r0
    542e:	b087      	sub	sp, #28
    5430:	4689      	mov	r9, r1
    5432:	4690      	mov	r8, r2
/home/hsk/Desktop/devel/tee-tpm-hyp/optee_os/lib/libmbedtls/mbedtls/library/bignum.c:508
    5434:	2b0e      	cmp	r3, #14
    5436:	d905      	bls.n	5444 <mbedtls_mpi_read_string+0x1e>
/home/hsk/Desktop/devel/tee-tpm-hyp/optee_os/lib/libmbedtls/mbedtls/library/bignum.c:509
    5438:	f06f 0a03 	mvn.w	sl, #3
/home/hsk/Desktop/devel/tee-tpm-hyp/optee_os/lib/libmbedtls/mbedtls/library/bignum.c:568
    543c:	4650      	mov	r0, sl
    543e:	b007      	add	sp, #28
    5440:	e8bd 8ff0 	ldmia.w	sp!, {r4, r5, r6, r7, r8, r9, sl, fp, pc}
/home/hsk/Desktop/devel/tee-tpm-hyp/optee_os/lib/libmbedtls/mbedtls/library/bignum.c:511
    5444:	ae03      	add	r6, sp, #12
    5446:	4630      	mov	r0, r6
    5448:	f7ff faa4 	bl	4994 <mbedtls_mpi_init_mempool>
/home/hsk/Desktop/devel/tee-tpm-hyp/optee_os/lib/libmbedtls/mbedtls/library/bignum.c:513
    544c:	4640      	mov	r0, r8
    544e:	f002 fa7a 	bl	7946 <strlen>
/home/hsk/Desktop/devel/tee-tpm-hyp/optee_os/lib/libmbedtls/mbedtls/library/bignum.c:515
    5452:	f1b9 0f10 	cmp.w	r9, #16
/home/hsk/Desktop/devel/tee-tpm-hyp/optee_os/lib/libmbedtls/mbedtls/library/bignum.c:513
    5456:	4605      	mov	r5, r0
/home/hsk/Desktop/devel/tee-tpm-hyp/optee_os/lib/libmbedtls/mbedtls/library/bignum.c:515
    5458:	d141      	bne.n	54de <mbedtls_mpi_read_string+0xb8>
/home/hsk/Desktop/devel/tee-tpm-hyp/optee_os/lib/libmbedtls/mbedtls/library/bignum.c:517
    545a:	f1b0 4f80 	cmp.w	r0, #1073741824	; 0x40000000
    545e:	d2eb      	bcs.n	5438 <mbedtls_mpi_read_string+0x12>
/home/hsk/Desktop/devel/tee-tpm-hyp/optee_os/lib/libmbedtls/mbedtls/library/bignum.c:520
    5460:	0083      	lsls	r3, r0, #2
    5462:	2101      	movs	r1, #1
    5464:	f013 0f1c 	tst.w	r3, #28
/home/hsk/Desktop/devel/tee-tpm-hyp/optee_os/lib/libmbedtls/mbedtls/library/bignum.c:522
    5468:	4620      	mov	r0, r4
/home/hsk/Desktop/devel/tee-tpm-hyp/optee_os/lib/libmbedtls/mbedtls/library/bignum.c:520
    546a:	bf08      	it	eq
    546c:	2100      	moveq	r1, #0
/home/hsk/Desktop/devel/tee-tpm-hyp/optee_os/lib/libmbedtls/mbedtls/library/bignum.c:522
    546e:	eb01 1153 	add.w	r1, r1, r3, lsr #5
    5472:	f7ff fad1 	bl	4a18 <mbedtls_mpi_grow>
    5476:	4682      	mov	sl, r0
    5478:	b9a0      	cbnz	r0, 54a4 <mbedtls_mpi_read_string+0x7e>
/home/hsk/Desktop/devel/tee-tpm-hyp/optee_os/lib/libmbedtls/mbedtls/library/bignum.c:523
    547a:	4601      	mov	r1, r0
    547c:	4620      	mov	r0, r4
    547e:	f7ff fc40 	bl	4d02 <mbedtls_mpi_lset>
    5482:	4682      	mov	sl, r0
    5484:	b970      	cbnz	r0, 54a4 <mbedtls_mpi_read_string+0x7e>
/home/hsk/Desktop/devel/tee-tpm-hyp/optee_os/lib/libmbedtls/mbedtls/library/bignum.c:525
    5486:	4607      	mov	r7, r0
/home/hsk/Desktop/devel/tee-tpm-hyp/optee_os/lib/libmbedtls/mbedtls/library/bignum.c:533
    5488:	f10d 0908 	add.w	r9, sp, #8
/home/hsk/Desktop/devel/tee-tpm-hyp/optee_os/lib/libmbedtls/mbedtls/library/bignum.c:525 (discriminator 1)
    548c:	b915      	cbnz	r5, 5494 <mbedtls_mpi_read_string+0x6e>
/home/hsk/Desktop/devel/tee-tpm-hyp/optee_os/lib/libmbedtls/mbedtls/library/bignum.c:533
    548e:	f04f 0a00 	mov.w	sl, #0
    5492:	e007      	b.n	54a4 <mbedtls_mpi_read_string+0x7e>
/home/hsk/Desktop/devel/tee-tpm-hyp/optee_os/lib/libmbedtls/mbedtls/library/bignum.c:527
    5494:	2d01      	cmp	r5, #1
    5496:	d109      	bne.n	54ac <mbedtls_mpi_read_string+0x86>
/home/hsk/Desktop/devel/tee-tpm-hyp/optee_os/lib/libmbedtls/mbedtls/library/bignum.c:527 (discriminator 1)
    5498:	f898 2000 	ldrb.w	r2, [r8]
    549c:	2a2d      	cmp	r2, #45	; 0x2d
    549e:	d105      	bne.n	54ac <mbedtls_mpi_read_string+0x86>
/home/hsk/Desktop/devel/tee-tpm-hyp/optee_os/lib/libmbedtls/mbedtls/library/bignum.c:529
    54a0:	22ff      	movs	r2, #255	; 0xff
    54a2:	7022      	strb	r2, [r4, #0]
/home/hsk/Desktop/devel/tee-tpm-hyp/optee_os/lib/libmbedtls/mbedtls/library/bignum.c:565
    54a4:	4630      	mov	r0, r6
    54a6:	f7ff fa90 	bl	49ca <mbedtls_mpi_free>
/home/hsk/Desktop/devel/tee-tpm-hyp/optee_os/lib/libmbedtls/mbedtls/library/bignum.c:567
    54aa:	e7c7      	b.n	543c <mbedtls_mpi_read_string+0x16>
/home/hsk/Desktop/devel/tee-tpm-hyp/optee_os/lib/libmbedtls/mbedtls/library/bignum.c:533
    54ac:	3d01      	subs	r5, #1
    54ae:	2110      	movs	r1, #16
    54b0:	4648      	mov	r0, r9
    54b2:	f818 2005 	ldrb.w	r2, [r8, r5]
    54b6:	f7fe ffab 	bl	4410 <mpi_get_digit>
    54ba:	2800      	cmp	r0, #0
    54bc:	d147      	bne.n	554e <mbedtls_mpi_read_string+0x128>
/home/hsk/Desktop/devel/tee-tpm-hyp/optee_os/lib/libmbedtls/mbedtls/library/bignum.c:534 (discriminator 2)
    54be:	ea4f 0cd7 	mov.w	ip, r7, lsr #3
    54c2:	9a02      	ldr	r2, [sp, #8]
    54c4:	68a0      	ldr	r0, [r4, #8]
    54c6:	00b9      	lsls	r1, r7, #2
    54c8:	f001 011c 	and.w	r1, r1, #28
/home/hsk/Desktop/devel/tee-tpm-hyp/optee_os/lib/libmbedtls/mbedtls/library/bignum.c:525 (discriminator 2)
    54cc:	3701      	adds	r7, #1
/home/hsk/Desktop/devel/tee-tpm-hyp/optee_os/lib/libmbedtls/mbedtls/library/bignum.c:534 (discriminator 2)
    54ce:	fa02 f101 	lsl.w	r1, r2, r1
    54d2:	f850 202c 	ldr.w	r2, [r0, ip, lsl #2]
    54d6:	430a      	orrs	r2, r1
    54d8:	f840 202c 	str.w	r2, [r0, ip, lsl #2]
    54dc:	e7d6      	b.n	548c <mbedtls_mpi_read_string+0x66>
/home/hsk/Desktop/devel/tee-tpm-hyp/optee_os/lib/libmbedtls/mbedtls/library/bignum.c:539
    54de:	2100      	movs	r1, #0
    54e0:	4620      	mov	r0, r4
    54e2:	f7ff fc0e 	bl	4d02 <mbedtls_mpi_lset>
    54e6:	4682      	mov	sl, r0
    54e8:	2800      	cmp	r0, #0
    54ea:	d1db      	bne.n	54a4 <mbedtls_mpi_read_string+0x7e>
/home/hsk/Desktop/devel/tee-tpm-hyp/optee_os/lib/libmbedtls/mbedtls/library/bignum.c:541
    54ec:	4607      	mov	r7, r0
/home/hsk/Desktop/devel/tee-tpm-hyp/optee_os/lib/libmbedtls/mbedtls/library/bignum.c:545
    54ee:	f04f 0bff 	mov.w	fp, #255	; 0xff
/home/hsk/Desktop/devel/tee-tpm-hyp/optee_os/lib/libmbedtls/mbedtls/library/bignum.c:549
    54f2:	ab02      	add	r3, sp, #8
    54f4:	9301      	str	r3, [sp, #4]
/home/hsk/Desktop/devel/tee-tpm-hyp/optee_os/lib/libmbedtls/mbedtls/library/bignum.c:541 (discriminator 1)
    54f6:	42af      	cmp	r7, r5
    54f8:	d0c9      	beq.n	548e <mbedtls_mpi_read_string+0x68>
/home/hsk/Desktop/devel/tee-tpm-hyp/optee_os/lib/libmbedtls/mbedtls/library/bignum.c:543
    54fa:	b93f      	cbnz	r7, 550c <mbedtls_mpi_read_string+0xe6>
/home/hsk/Desktop/devel/tee-tpm-hyp/optee_os/lib/libmbedtls/mbedtls/library/bignum.c:543 (discriminator 1)
    54fc:	f898 3000 	ldrb.w	r3, [r8]
    5500:	2b2d      	cmp	r3, #45	; 0x2d
    5502:	d103      	bne.n	550c <mbedtls_mpi_read_string+0xe6>
/home/hsk/Desktop/devel/tee-tpm-hyp/optee_os/lib/libmbedtls/mbedtls/library/bignum.c:545
    5504:	f884 b000 	strb.w	fp, [r4]
/home/hsk/Desktop/devel/tee-tpm-hyp/optee_os/lib/libmbedtls/mbedtls/library/bignum.c:541 (discriminator 2)
    5508:	3701      	adds	r7, #1
    550a:	e7f4      	b.n	54f6 <mbedtls_mpi_read_string+0xd0>
/home/hsk/Desktop/devel/tee-tpm-hyp/optee_os/lib/libmbedtls/mbedtls/library/bignum.c:549
    550c:	f818 2007 	ldrb.w	r2, [r8, r7]
    5510:	4649      	mov	r1, r9
    5512:	9801      	ldr	r0, [sp, #4]
    5514:	f7fe ff7c 	bl	4410 <mpi_get_digit>
    5518:	4682      	mov	sl, r0
    551a:	2800      	cmp	r0, #0
    551c:	d1c2      	bne.n	54a4 <mbedtls_mpi_read_string+0x7e>
/home/hsk/Desktop/devel/tee-tpm-hyp/optee_os/lib/libmbedtls/mbedtls/library/bignum.c:550
    551e:	464a      	mov	r2, r9
    5520:	4621      	mov	r1, r4
    5522:	4630      	mov	r0, r6
    5524:	f7ff ff70 	bl	5408 <mbedtls_mpi_mul_int>
    5528:	4682      	mov	sl, r0
    552a:	2800      	cmp	r0, #0
    552c:	d1ba      	bne.n	54a4 <mbedtls_mpi_read_string+0x7e>
/home/hsk/Desktop/devel/tee-tpm-hyp/optee_os/lib/libmbedtls/mbedtls/library/bignum.c:552
    552e:	f994 3000 	ldrsb.w	r3, [r4]
/home/hsk/Desktop/devel/tee-tpm-hyp/optee_os/lib/libmbedtls/mbedtls/library/bignum.c:554
    5532:	4631      	mov	r1, r6
    5534:	9a02      	ldr	r2, [sp, #8]
    5536:	4620      	mov	r0, r4
/home/hsk/Desktop/devel/tee-tpm-hyp/optee_os/lib/libmbedtls/mbedtls/library/bignum.c:552
    5538:	2b01      	cmp	r3, #1
    553a:	d105      	bne.n	5548 <mbedtls_mpi_read_string+0x122>
/home/hsk/Desktop/devel/tee-tpm-hyp/optee_os/lib/libmbedtls/mbedtls/library/bignum.c:554
    553c:	f7ff fec8 	bl	52d0 <mbedtls_mpi_add_int>
/home/hsk/Desktop/devel/tee-tpm-hyp/optee_os/lib/libmbedtls/mbedtls/library/bignum.c:558
    5540:	4682      	mov	sl, r0
    5542:	2800      	cmp	r0, #0
    5544:	d0e0      	beq.n	5508 <mbedtls_mpi_read_string+0xe2>
/home/hsk/Desktop/devel/tee-tpm-hyp/optee_os/lib/libmbedtls/mbedtls/library/bignum.c:563
    5546:	e7ad      	b.n	54a4 <mbedtls_mpi_read_string+0x7e>
/home/hsk/Desktop/devel/tee-tpm-hyp/optee_os/lib/libmbedtls/mbedtls/library/bignum.c:558
    5548:	f7ff feda 	bl	5300 <mbedtls_mpi_sub_int>
    554c:	e7f8      	b.n	5540 <mbedtls_mpi_read_string+0x11a>
/home/hsk/Desktop/devel/tee-tpm-hyp/optee_os/lib/libmbedtls/mbedtls/library/bignum.c:533
    554e:	4682      	mov	sl, r0
    5550:	e7a8      	b.n	54a4 <mbedtls_mpi_read_string+0x7e>

00005552 <mbedtls_mpi_div_mpi>:
mbedtls_mpi_div_mpi():
/home/hsk/Desktop/devel/tee-tpm-hyp/optee_os/lib/libmbedtls/mbedtls/library/bignum.c:1400
    5552:	e92d 4ff0 	stmdb	sp!, {r4, r5, r6, r7, r8, r9, sl, fp, lr}
    5556:	4688      	mov	r8, r1
/home/hsk/Desktop/devel/tee-tpm-hyp/optee_os/lib/libmbedtls/mbedtls/library/bignum.c:1405
    5558:	2100      	movs	r1, #0
/home/hsk/Desktop/devel/tee-tpm-hyp/optee_os/lib/libmbedtls/mbedtls/library/bignum.c:1400
    555a:	b09d      	sub	sp, #116	; 0x74
    555c:	4691      	mov	r9, r2
    555e:	9002      	str	r0, [sp, #8]
/home/hsk/Desktop/devel/tee-tpm-hyp/optee_os/lib/libmbedtls/mbedtls/library/bignum.c:1405
    5560:	4618      	mov	r0, r3
/home/hsk/Desktop/devel/tee-tpm-hyp/optee_os/lib/libmbedtls/mbedtls/library/bignum.c:1400
    5562:	9305      	str	r3, [sp, #20]
/home/hsk/Desktop/devel/tee-tpm-hyp/optee_os/lib/libmbedtls/mbedtls/library/bignum.c:1405
    5564:	f7ff fdbb 	bl	50de <mbedtls_mpi_cmp_int>
    5568:	2800      	cmp	r0, #0
    556a:	f000 81ba 	beq.w	58e2 <mbedtls_mpi_div_mpi+0x390>
/home/hsk/Desktop/devel/tee-tpm-hyp/optee_os/lib/libmbedtls/mbedtls/library/bignum.c:1408
    556e:	ae0d      	add	r6, sp, #52	; 0x34
    5570:	ad10      	add	r5, sp, #64	; 0x40
    5572:	4630      	mov	r0, r6
/home/hsk/Desktop/devel/tee-tpm-hyp/optee_os/lib/libmbedtls/mbedtls/library/bignum.c:1409
    5574:	af13      	add	r7, sp, #76	; 0x4c
/home/hsk/Desktop/devel/tee-tpm-hyp/optee_os/lib/libmbedtls/mbedtls/library/bignum.c:1408
    5576:	f7ff fa0d 	bl	4994 <mbedtls_mpi_init_mempool>
    557a:	4628      	mov	r0, r5
    557c:	f7ff fa0a 	bl	4994 <mbedtls_mpi_init_mempool>
/home/hsk/Desktop/devel/tee-tpm-hyp/optee_os/lib/libmbedtls/mbedtls/library/bignum.c:1409
    5580:	f10d 0b58 	add.w	fp, sp, #88	; 0x58
    5584:	4638      	mov	r0, r7
/home/hsk/Desktop/devel/tee-tpm-hyp/optee_os/lib/libmbedtls/mbedtls/library/bignum.c:1410
    5586:	f10d 0a64 	add.w	sl, sp, #100	; 0x64
/home/hsk/Desktop/devel/tee-tpm-hyp/optee_os/lib/libmbedtls/mbedtls/library/bignum.c:1409
    558a:	f7ff fa03 	bl	4994 <mbedtls_mpi_init_mempool>
    558e:	4658      	mov	r0, fp
    5590:	f7ff fa00 	bl	4994 <mbedtls_mpi_init_mempool>
/home/hsk/Desktop/devel/tee-tpm-hyp/optee_os/lib/libmbedtls/mbedtls/library/bignum.c:1410
    5594:	4650      	mov	r0, sl
    5596:	f7ff f9fd 	bl	4994 <mbedtls_mpi_init_mempool>
/home/hsk/Desktop/devel/tee-tpm-hyp/optee_os/lib/libmbedtls/mbedtls/library/bignum.c:1412
    559a:	9905      	ldr	r1, [sp, #20]
    559c:	4648      	mov	r0, r9
    559e:	f7ff fd21 	bl	4fe4 <mbedtls_mpi_cmp_abs>
    55a2:	2800      	cmp	r0, #0
    55a4:	da28      	bge.n	55f8 <mbedtls_mpi_div_mpi+0xa6>
/home/hsk/Desktop/devel/tee-tpm-hyp/optee_os/lib/libmbedtls/mbedtls/library/bignum.c:1414
    55a6:	9b02      	ldr	r3, [sp, #8]
    55a8:	b93b      	cbnz	r3, 55ba <mbedtls_mpi_div_mpi+0x68>
/home/hsk/Desktop/devel/tee-tpm-hyp/optee_os/lib/libmbedtls/mbedtls/library/bignum.c:1415
    55aa:	f1b8 0f00 	cmp.w	r8, #0
    55ae:	d11b      	bne.n	55e8 <mbedtls_mpi_div_mpi+0x96>
/home/hsk/Desktop/devel/tee-tpm-hyp/optee_os/lib/libmbedtls/mbedtls/library/bignum.c:1416
    55b0:	2400      	movs	r4, #0
/home/hsk/Desktop/devel/tee-tpm-hyp/optee_os/lib/libmbedtls/mbedtls/library/bignum.c:1510
    55b2:	4620      	mov	r0, r4
    55b4:	b01d      	add	sp, #116	; 0x74
    55b6:	e8bd 8ff0 	ldmia.w	sp!, {r4, r5, r6, r7, r8, r9, sl, fp, pc}
/home/hsk/Desktop/devel/tee-tpm-hyp/optee_os/lib/libmbedtls/mbedtls/library/bignum.c:1414 (discriminator 1)
    55ba:	2100      	movs	r1, #0
    55bc:	9802      	ldr	r0, [sp, #8]
    55be:	f7ff fba0 	bl	4d02 <mbedtls_mpi_lset>
    55c2:	4604      	mov	r4, r0
    55c4:	2800      	cmp	r0, #0
    55c6:	d0f0      	beq.n	55aa <mbedtls_mpi_div_mpi+0x58>
/home/hsk/Desktop/devel/tee-tpm-hyp/optee_os/lib/libmbedtls/mbedtls/library/bignum.c:1506
    55c8:	a80d      	add	r0, sp, #52	; 0x34
    55ca:	f7ff f9fe 	bl	49ca <mbedtls_mpi_free>
    55ce:	a810      	add	r0, sp, #64	; 0x40
    55d0:	f7ff f9fb 	bl	49ca <mbedtls_mpi_free>
    55d4:	a813      	add	r0, sp, #76	; 0x4c
    55d6:	f7ff f9f8 	bl	49ca <mbedtls_mpi_free>
/home/hsk/Desktop/devel/tee-tpm-hyp/optee_os/lib/libmbedtls/mbedtls/library/bignum.c:1507
    55da:	a816      	add	r0, sp, #88	; 0x58
    55dc:	f7ff f9f5 	bl	49ca <mbedtls_mpi_free>
    55e0:	a819      	add	r0, sp, #100	; 0x64
    55e2:	f7ff f9f2 	bl	49ca <mbedtls_mpi_free>
/home/hsk/Desktop/devel/tee-tpm-hyp/optee_os/lib/libmbedtls/mbedtls/library/bignum.c:1509
    55e6:	e7e4      	b.n	55b2 <mbedtls_mpi_div_mpi+0x60>
/home/hsk/Desktop/devel/tee-tpm-hyp/optee_os/lib/libmbedtls/mbedtls/library/bignum.c:1415 (discriminator 1)
    55e8:	4649      	mov	r1, r9
    55ea:	4640      	mov	r0, r8
    55ec:	f7ff face 	bl	4b8c <mbedtls_mpi_copy>
    55f0:	4604      	mov	r4, r0
    55f2:	2800      	cmp	r0, #0
    55f4:	d1e8      	bne.n	55c8 <mbedtls_mpi_div_mpi+0x76>
    55f6:	e7db      	b.n	55b0 <mbedtls_mpi_div_mpi+0x5e>
/home/hsk/Desktop/devel/tee-tpm-hyp/optee_os/lib/libmbedtls/mbedtls/library/bignum.c:1419
    55f8:	4649      	mov	r1, r9
    55fa:	4630      	mov	r0, r6
    55fc:	f7ff fac6 	bl	4b8c <mbedtls_mpi_copy>
    5600:	4604      	mov	r4, r0
    5602:	2800      	cmp	r0, #0
    5604:	d1e0      	bne.n	55c8 <mbedtls_mpi_div_mpi+0x76>
/home/hsk/Desktop/devel/tee-tpm-hyp/optee_os/lib/libmbedtls/mbedtls/library/bignum.c:1420
    5606:	9905      	ldr	r1, [sp, #20]
    5608:	4628      	mov	r0, r5
    560a:	f7ff fabf 	bl	4b8c <mbedtls_mpi_copy>
    560e:	4604      	mov	r4, r0
    5610:	2800      	cmp	r0, #0
    5612:	d1d9      	bne.n	55c8 <mbedtls_mpi_div_mpi+0x76>
/home/hsk/Desktop/devel/tee-tpm-hyp/optee_os/lib/libmbedtls/mbedtls/library/bignum.c:1423
    5614:	f8b9 1004 	ldrh.w	r1, [r9, #4]
    5618:	4638      	mov	r0, r7
/home/hsk/Desktop/devel/tee-tpm-hyp/optee_os/lib/libmbedtls/mbedtls/library/bignum.c:1421
    561a:	2301      	movs	r3, #1
    561c:	f88d 3040 	strb.w	r3, [sp, #64]	; 0x40
/home/hsk/Desktop/devel/tee-tpm-hyp/optee_os/lib/libmbedtls/mbedtls/library/bignum.c:1423
    5620:	3102      	adds	r1, #2
/home/hsk/Desktop/devel/tee-tpm-hyp/optee_os/lib/libmbedtls/mbedtls/library/bignum.c:1421
    5622:	f88d 3034 	strb.w	r3, [sp, #52]	; 0x34
/home/hsk/Desktop/devel/tee-tpm-hyp/optee_os/lib/libmbedtls/mbedtls/library/bignum.c:1423
    5626:	f7ff f9f7 	bl	4a18 <mbedtls_mpi_grow>
    562a:	4604      	mov	r4, r0
    562c:	2800      	cmp	r0, #0
    562e:	d1cb      	bne.n	55c8 <mbedtls_mpi_div_mpi+0x76>
/home/hsk/Desktop/devel/tee-tpm-hyp/optee_os/lib/libmbedtls/mbedtls/library/bignum.c:1424
    5630:	4601      	mov	r1, r0
    5632:	4638      	mov	r0, r7
    5634:	f7ff fb65 	bl	4d02 <mbedtls_mpi_lset>
    5638:	4604      	mov	r4, r0
    563a:	2800      	cmp	r0, #0
    563c:	d1c4      	bne.n	55c8 <mbedtls_mpi_div_mpi+0x76>
/home/hsk/Desktop/devel/tee-tpm-hyp/optee_os/lib/libmbedtls/mbedtls/library/bignum.c:1425
    563e:	2102      	movs	r1, #2
    5640:	4658      	mov	r0, fp
    5642:	f7ff f9e9 	bl	4a18 <mbedtls_mpi_grow>
    5646:	4604      	mov	r4, r0
    5648:	2800      	cmp	r0, #0
    564a:	d1bd      	bne.n	55c8 <mbedtls_mpi_div_mpi+0x76>
/home/hsk/Desktop/devel/tee-tpm-hyp/optee_os/lib/libmbedtls/mbedtls/library/bignum.c:1426
    564c:	2103      	movs	r1, #3
    564e:	4650      	mov	r0, sl
    5650:	f7ff f9e2 	bl	4a18 <mbedtls_mpi_grow>
    5654:	4604      	mov	r4, r0
    5656:	2800      	cmp	r0, #0
    5658:	d1b6      	bne.n	55c8 <mbedtls_mpi_div_mpi+0x76>
/home/hsk/Desktop/devel/tee-tpm-hyp/optee_os/lib/libmbedtls/mbedtls/library/bignum.c:1428
    565a:	4628      	mov	r0, r5
    565c:	f7ff fbbf 	bl	4dde <mbedtls_mpi_bitlen>
    5660:	f000 001f 	and.w	r0, r0, #31
/home/hsk/Desktop/devel/tee-tpm-hyp/optee_os/lib/libmbedtls/mbedtls/library/bignum.c:1429
    5664:	281f      	cmp	r0, #31
    5666:	d07d      	beq.n	5764 <mbedtls_mpi_div_mpi+0x212>
/home/hsk/Desktop/devel/tee-tpm-hyp/optee_os/lib/libmbedtls/mbedtls/library/bignum.c:1431
    5668:	f1c0 031f 	rsb	r3, r0, #31
/home/hsk/Desktop/devel/tee-tpm-hyp/optee_os/lib/libmbedtls/mbedtls/library/bignum.c:1432
    566c:	4630      	mov	r0, r6
    566e:	4619      	mov	r1, r3
/home/hsk/Desktop/devel/tee-tpm-hyp/optee_os/lib/libmbedtls/mbedtls/library/bignum.c:1431
    5670:	9303      	str	r3, [sp, #12]
/home/hsk/Desktop/devel/tee-tpm-hyp/optee_os/lib/libmbedtls/mbedtls/library/bignum.c:1432
    5672:	f7ff fc31 	bl	4ed8 <mbedtls_mpi_shift_l>
    5676:	4604      	mov	r4, r0
    5678:	2800      	cmp	r0, #0
    567a:	d1a5      	bne.n	55c8 <mbedtls_mpi_div_mpi+0x76>
/home/hsk/Desktop/devel/tee-tpm-hyp/optee_os/lib/libmbedtls/mbedtls/library/bignum.c:1433
    567c:	9903      	ldr	r1, [sp, #12]
    567e:	4628      	mov	r0, r5
    5680:	f7ff fc2a 	bl	4ed8 <mbedtls_mpi_shift_l>
    5684:	4604      	mov	r4, r0
    5686:	2800      	cmp	r0, #0
    5688:	d19e      	bne.n	55c8 <mbedtls_mpi_div_mpi+0x76>
/home/hsk/Desktop/devel/tee-tpm-hyp/optee_os/lib/libmbedtls/mbedtls/library/bignum.c:1437
    568a:	f8bd 3038 	ldrh.w	r3, [sp, #56]	; 0x38
/home/hsk/Desktop/devel/tee-tpm-hyp/optee_os/lib/libmbedtls/mbedtls/library/bignum.c:1439
    568e:	4628      	mov	r0, r5
/home/hsk/Desktop/devel/tee-tpm-hyp/optee_os/lib/libmbedtls/mbedtls/library/bignum.c:1438
    5690:	f8bd 6044 	ldrh.w	r6, [sp, #68]	; 0x44
/home/hsk/Desktop/devel/tee-tpm-hyp/optee_os/lib/libmbedtls/mbedtls/library/bignum.c:1437
    5694:	9301      	str	r3, [sp, #4]
    5696:	1e73      	subs	r3, r6, #1
    5698:	9304      	str	r3, [sp, #16]
/home/hsk/Desktop/devel/tee-tpm-hyp/optee_os/lib/libmbedtls/mbedtls/library/bignum.c:1439
    569a:	9b01      	ldr	r3, [sp, #4]
    569c:	eba3 0b06 	sub.w	fp, r3, r6
    56a0:	ea4f 1a4b 	mov.w	sl, fp, lsl #5
    56a4:	4651      	mov	r1, sl
    56a6:	f7ff fc17 	bl	4ed8 <mbedtls_mpi_shift_l>
    56aa:	4604      	mov	r4, r0
    56ac:	2800      	cmp	r0, #0
    56ae:	d18b      	bne.n	55c8 <mbedtls_mpi_div_mpi+0x76>
/home/hsk/Desktop/devel/tee-tpm-hyp/optee_os/lib/libmbedtls/mbedtls/library/bignum.c:1443
    56b0:	ea4f 0b8b 	mov.w	fp, fp, lsl #2
/home/hsk/Desktop/devel/tee-tpm-hyp/optee_os/lib/libmbedtls/mbedtls/library/bignum.c:1441
    56b4:	af0d      	add	r7, sp, #52	; 0x34
    56b6:	4629      	mov	r1, r5
    56b8:	4638      	mov	r0, r7
    56ba:	f7ff fcc7 	bl	504c <mbedtls_mpi_cmp_mpi>
    56be:	2800      	cmp	r0, #0
    56c0:	da52      	bge.n	5768 <mbedtls_mpi_div_mpi+0x216>
/home/hsk/Desktop/devel/tee-tpm-hyp/optee_os/lib/libmbedtls/mbedtls/library/bignum.c:1446
    56c2:	4651      	mov	r1, sl
    56c4:	4628      	mov	r0, r5
    56c6:	f7ff fc4f 	bl	4f68 <mbedtls_mpi_shift_r>
    56ca:	4604      	mov	r4, r0
    56cc:	2800      	cmp	r0, #0
    56ce:	f47f af7b 	bne.w	55c8 <mbedtls_mpi_div_mpi+0x76>
/home/hsk/Desktop/devel/tee-tpm-hyp/optee_os/lib/libmbedtls/mbedtls/library/bignum.c:1450
    56d2:	9b04      	ldr	r3, [sp, #16]
    56d4:	009b      	lsls	r3, r3, #2
    56d6:	9306      	str	r3, [sp, #24]
/home/hsk/Desktop/devel/tee-tpm-hyp/optee_os/lib/libmbedtls/mbedtls/library/bignum.c:1464
    56d8:	3b04      	subs	r3, #4
    56da:	930b      	str	r3, [sp, #44]	; 0x2c
    56dc:	9b01      	ldr	r3, [sp, #4]
    56de:	f103 4580 	add.w	r5, r3, #1073741824	; 0x40000000
    56e2:	00b3      	lsls	r3, r6, #2
    56e4:	3d01      	subs	r5, #1
    56e6:	9307      	str	r3, [sp, #28]
    56e8:	1bad      	subs	r5, r5, r6
    56ea:	ebc6 63c6 	rsb	r3, r6, r6, lsl #27
    56ee:	930a      	str	r3, [sp, #40]	; 0x28
/home/hsk/Desktop/devel/tee-tpm-hyp/optee_os/lib/libmbedtls/mbedtls/library/bignum.c:1468
    56f0:	ab19      	add	r3, sp, #100	; 0x64
    56f2:	00ad      	lsls	r5, r5, #2
    56f4:	9309      	str	r3, [sp, #36]	; 0x24
    56f6:	9b01      	ldr	r3, [sp, #4]
    56f8:	3b01      	subs	r3, #1
    56fa:	9308      	str	r3, [sp, #32]
/home/hsk/Desktop/devel/tee-tpm-hyp/optee_os/lib/libmbedtls/mbedtls/library/bignum.c:1448 (discriminator 1)
    56fc:	9a08      	ldr	r2, [sp, #32]
    56fe:	9b04      	ldr	r3, [sp, #16]
    5700:	4293      	cmp	r3, r2
    5702:	d340      	bcc.n	5786 <mbedtls_mpi_div_mpi+0x234>
/home/hsk/Desktop/devel/tee-tpm-hyp/optee_os/lib/libmbedtls/mbedtls/library/bignum.c:1488
    5704:	9b02      	ldr	r3, [sp, #8]
    5706:	b163      	cbz	r3, 5722 <mbedtls_mpi_div_mpi+0x1d0>
/home/hsk/Desktop/devel/tee-tpm-hyp/optee_os/lib/libmbedtls/mbedtls/library/bignum.c:1490
    5708:	a913      	add	r1, sp, #76	; 0x4c
    570a:	4618      	mov	r0, r3
    570c:	f7ff fa3e 	bl	4b8c <mbedtls_mpi_copy>
    5710:	bb30      	cbnz	r0, 5760 <mbedtls_mpi_div_mpi+0x20e>
/home/hsk/Desktop/devel/tee-tpm-hyp/optee_os/lib/libmbedtls/mbedtls/library/bignum.c:1491
    5712:	9a05      	ldr	r2, [sp, #20]
    5714:	f899 3000 	ldrb.w	r3, [r9]
    5718:	7812      	ldrb	r2, [r2, #0]
    571a:	fb13 f302 	smulbb	r3, r3, r2
    571e:	9a02      	ldr	r2, [sp, #8]
    5720:	7013      	strb	r3, [r2, #0]
/home/hsk/Desktop/devel/tee-tpm-hyp/optee_os/lib/libmbedtls/mbedtls/library/bignum.c:1494
    5722:	f1b8 0f00 	cmp.w	r8, #0
    5726:	f43f af4f 	beq.w	55c8 <mbedtls_mpi_div_mpi+0x76>
/home/hsk/Desktop/devel/tee-tpm-hyp/optee_os/lib/libmbedtls/mbedtls/library/bignum.c:1496
    572a:	ad0d      	add	r5, sp, #52	; 0x34
    572c:	9903      	ldr	r1, [sp, #12]
    572e:	4628      	mov	r0, r5
    5730:	f7ff fc1a 	bl	4f68 <mbedtls_mpi_shift_r>
    5734:	b9a0      	cbnz	r0, 5760 <mbedtls_mpi_div_mpi+0x20e>
/home/hsk/Desktop/devel/tee-tpm-hyp/optee_os/lib/libmbedtls/mbedtls/library/bignum.c:1497
    5736:	f899 3000 	ldrb.w	r3, [r9]
/home/hsk/Desktop/devel/tee-tpm-hyp/optee_os/lib/libmbedtls/mbedtls/library/bignum.c:1498
    573a:	4629      	mov	r1, r5
    573c:	4640      	mov	r0, r8
/home/hsk/Desktop/devel/tee-tpm-hyp/optee_os/lib/libmbedtls/mbedtls/library/bignum.c:1497
    573e:	f88d 3034 	strb.w	r3, [sp, #52]	; 0x34
/home/hsk/Desktop/devel/tee-tpm-hyp/optee_os/lib/libmbedtls/mbedtls/library/bignum.c:1498
    5742:	f7ff fa23 	bl	4b8c <mbedtls_mpi_copy>
    5746:	4601      	mov	r1, r0
    5748:	2800      	cmp	r0, #0
    574a:	f040 80c8 	bne.w	58de <mbedtls_mpi_div_mpi+0x38c>
/home/hsk/Desktop/devel/tee-tpm-hyp/optee_os/lib/libmbedtls/mbedtls/library/bignum.c:1500
    574e:	4640      	mov	r0, r8
    5750:	f7ff fcc5 	bl	50de <mbedtls_mpi_cmp_int>
    5754:	2800      	cmp	r0, #0
    5756:	f47f af37 	bne.w	55c8 <mbedtls_mpi_div_mpi+0x76>
/home/hsk/Desktop/devel/tee-tpm-hyp/optee_os/lib/libmbedtls/mbedtls/library/bignum.c:1501
    575a:	2301      	movs	r3, #1
    575c:	f888 3000 	strb.w	r3, [r8]
/home/hsk/Desktop/devel/tee-tpm-hyp/optee_os/lib/libmbedtls/mbedtls/library/bignum.c:1504
    5760:	4604      	mov	r4, r0
    5762:	e731      	b.n	55c8 <mbedtls_mpi_div_mpi+0x76>
/home/hsk/Desktop/devel/tee-tpm-hyp/optee_os/lib/libmbedtls/mbedtls/library/bignum.c:1435
    5764:	9403      	str	r4, [sp, #12]
    5766:	e790      	b.n	568a <mbedtls_mpi_div_mpi+0x138>
/home/hsk/Desktop/devel/tee-tpm-hyp/optee_os/lib/libmbedtls/mbedtls/library/bignum.c:1443
    5768:	9915      	ldr	r1, [sp, #84]	; 0x54
/home/hsk/Desktop/devel/tee-tpm-hyp/optee_os/lib/libmbedtls/mbedtls/library/bignum.c:1444
    576a:	4638      	mov	r0, r7
/home/hsk/Desktop/devel/tee-tpm-hyp/optee_os/lib/libmbedtls/mbedtls/library/bignum.c:1443
    576c:	f851 200b 	ldr.w	r2, [r1, fp]
    5770:	3201      	adds	r2, #1
    5772:	f841 200b 	str.w	r2, [r1, fp]
/home/hsk/Desktop/devel/tee-tpm-hyp/optee_os/lib/libmbedtls/mbedtls/library/bignum.c:1444
    5776:	462a      	mov	r2, r5
    5778:	4639      	mov	r1, r7
    577a:	f7ff fd84 	bl	5286 <mbedtls_mpi_sub_mpi>
    577e:	4604      	mov	r4, r0
    5780:	2800      	cmp	r0, #0
    5782:	d098      	beq.n	56b6 <mbedtls_mpi_div_mpi+0x164>
/home/hsk/Desktop/devel/tee-tpm-hyp/optee_os/lib/libmbedtls/mbedtls/library/bignum.c:1504
    5784:	e720      	b.n	55c8 <mbedtls_mpi_div_mpi+0x76>
    5786:	9a07      	ldr	r2, [sp, #28]
/home/hsk/Desktop/devel/tee-tpm-hyp/optee_os/lib/libmbedtls/mbedtls/library/bignum.c:1450
    5788:	9806      	ldr	r0, [sp, #24]
    578a:	eb02 0a05 	add.w	sl, r2, r5
    578e:	9a12      	ldr	r2, [sp, #72]	; 0x48
    5790:	9b0f      	ldr	r3, [sp, #60]	; 0x3c
    5792:	5812      	ldr	r2, [r2, r0]
    5794:	9807      	ldr	r0, [sp, #28]
    5796:	f853 100a 	ldr.w	r1, [r3, sl]
    579a:	1f07      	subs	r7, r0, #4
    579c:	9815      	ldr	r0, [sp, #84]	; 0x54
    579e:	442f      	add	r7, r5
    57a0:	4291      	cmp	r1, r2
    57a2:	eb00 0605 	add.w	r6, r0, r5
    57a6:	f0c0 8086 	bcc.w	58b6 <mbedtls_mpi_div_mpi+0x364>
/home/hsk/Desktop/devel/tee-tpm-hyp/optee_os/lib/libmbedtls/mbedtls/library/bignum.c:1451
    57aa:	f04f 33ff 	mov.w	r3, #4294967295	; 0xffffffff
    57ae:	5143      	str	r3, [r0, r5]
/home/hsk/Desktop/devel/tee-tpm-hyp/optee_os/lib/libmbedtls/mbedtls/library/bignum.c:1458
    57b0:	6833      	ldr	r3, [r6, #0]
    57b2:	3301      	adds	r3, #1
    57b4:	6033      	str	r3, [r6, #0]
    57b6:	9b07      	ldr	r3, [sp, #28]
/home/hsk/Desktop/devel/tee-tpm-hyp/optee_os/lib/libmbedtls/mbedtls/library/bignum.c:1463
    57b8:	ae16      	add	r6, sp, #88	; 0x58
    57ba:	f1a3 0b08 	sub.w	fp, r3, #8
    57be:	44ab      	add	fp, r5
/home/hsk/Desktop/devel/tee-tpm-hyp/optee_os/lib/libmbedtls/mbedtls/library/bignum.c:1461
    57c0:	9a15      	ldr	r2, [sp, #84]	; 0x54
/home/hsk/Desktop/devel/tee-tpm-hyp/optee_os/lib/libmbedtls/mbedtls/library/bignum.c:1463
    57c2:	2100      	movs	r1, #0
    57c4:	4630      	mov	r0, r6
/home/hsk/Desktop/devel/tee-tpm-hyp/optee_os/lib/libmbedtls/mbedtls/library/bignum.c:1461
    57c6:	5953      	ldr	r3, [r2, r5]
    57c8:	3b01      	subs	r3, #1
    57ca:	5153      	str	r3, [r2, r5]
/home/hsk/Desktop/devel/tee-tpm-hyp/optee_os/lib/libmbedtls/mbedtls/library/bignum.c:1463
    57cc:	f7ff fa99 	bl	4d02 <mbedtls_mpi_lset>
    57d0:	2800      	cmp	r0, #0
    57d2:	d1c5      	bne.n	5760 <mbedtls_mpi_div_mpi+0x20e>
/home/hsk/Desktop/devel/tee-tpm-hyp/optee_os/lib/libmbedtls/mbedtls/library/bignum.c:1464
    57d4:	9b04      	ldr	r3, [sp, #16]
    57d6:	9a12      	ldr	r2, [sp, #72]	; 0x48
    57d8:	2b00      	cmp	r3, #0
    57da:	d07e      	beq.n	58da <mbedtls_mpi_div_mpi+0x388>
/home/hsk/Desktop/devel/tee-tpm-hyp/optee_os/lib/libmbedtls/mbedtls/library/bignum.c:1464 (discriminator 1)
    57dc:	9b0b      	ldr	r3, [sp, #44]	; 0x2c
    57de:	58d1      	ldr	r1, [r2, r3]
/home/hsk/Desktop/devel/tee-tpm-hyp/optee_os/lib/libmbedtls/mbedtls/library/bignum.c:1464 (discriminator 4)
    57e0:	9b18      	ldr	r3, [sp, #96]	; 0x60
/home/hsk/Desktop/devel/tee-tpm-hyp/optee_os/lib/libmbedtls/mbedtls/library/bignum.c:1466 (discriminator 4)
    57e2:	4630      	mov	r0, r6
/home/hsk/Desktop/devel/tee-tpm-hyp/optee_os/lib/libmbedtls/mbedtls/library/bignum.c:1464 (discriminator 4)
    57e4:	6019      	str	r1, [r3, #0]
/home/hsk/Desktop/devel/tee-tpm-hyp/optee_os/lib/libmbedtls/mbedtls/library/bignum.c:1465 (discriminator 4)
    57e6:	9906      	ldr	r1, [sp, #24]
    57e8:	5852      	ldr	r2, [r2, r1]
/home/hsk/Desktop/devel/tee-tpm-hyp/optee_os/lib/libmbedtls/mbedtls/library/bignum.c:1466 (discriminator 4)
    57ea:	4631      	mov	r1, r6
/home/hsk/Desktop/devel/tee-tpm-hyp/optee_os/lib/libmbedtls/mbedtls/library/bignum.c:1465 (discriminator 4)
    57ec:	605a      	str	r2, [r3, #4]
/home/hsk/Desktop/devel/tee-tpm-hyp/optee_os/lib/libmbedtls/mbedtls/library/bignum.c:1466 (discriminator 4)
    57ee:	9b15      	ldr	r3, [sp, #84]	; 0x54
    57f0:	595a      	ldr	r2, [r3, r5]
    57f2:	f7ff fe09 	bl	5408 <mbedtls_mpi_mul_int>
    57f6:	4601      	mov	r1, r0
    57f8:	2800      	cmp	r0, #0
    57fa:	d170      	bne.n	58de <mbedtls_mpi_div_mpi+0x38c>
/home/hsk/Desktop/devel/tee-tpm-hyp/optee_os/lib/libmbedtls/mbedtls/library/bignum.c:1468
    57fc:	9809      	ldr	r0, [sp, #36]	; 0x24
    57fe:	f7ff fa80 	bl	4d02 <mbedtls_mpi_lset>
    5802:	2800      	cmp	r0, #0
    5804:	d1ac      	bne.n	5760 <mbedtls_mpi_div_mpi+0x20e>
/home/hsk/Desktop/devel/tee-tpm-hyp/optee_os/lib/libmbedtls/mbedtls/library/bignum.c:1469
    5806:	9b08      	ldr	r3, [sp, #32]
    5808:	9a0f      	ldr	r2, [sp, #60]	; 0x3c
    580a:	2b01      	cmp	r3, #1
    580c:	d001      	beq.n	5812 <mbedtls_mpi_div_mpi+0x2c0>
/home/hsk/Desktop/devel/tee-tpm-hyp/optee_os/lib/libmbedtls/mbedtls/library/bignum.c:1469 (discriminator 1)
    580e:	f852 000b 	ldr.w	r0, [r2, fp]
/home/hsk/Desktop/devel/tee-tpm-hyp/optee_os/lib/libmbedtls/mbedtls/library/bignum.c:1469 (discriminator 4)
    5812:	9b1b      	ldr	r3, [sp, #108]	; 0x6c
    5814:	6018      	str	r0, [r3, #0]
/home/hsk/Desktop/devel/tee-tpm-hyp/optee_os/lib/libmbedtls/mbedtls/library/bignum.c:1473 (discriminator 4)
    5816:	4630      	mov	r0, r6
/home/hsk/Desktop/devel/tee-tpm-hyp/optee_os/lib/libmbedtls/mbedtls/library/bignum.c:1470 (discriminator 4)
    5818:	59d1      	ldr	r1, [r2, r7]
    581a:	6059      	str	r1, [r3, #4]
/home/hsk/Desktop/devel/tee-tpm-hyp/optee_os/lib/libmbedtls/mbedtls/library/bignum.c:1473 (discriminator 4)
    581c:	9909      	ldr	r1, [sp, #36]	; 0x24
/home/hsk/Desktop/devel/tee-tpm-hyp/optee_os/lib/libmbedtls/mbedtls/library/bignum.c:1471 (discriminator 4)
    581e:	f852 200a 	ldr.w	r2, [r2, sl]
    5822:	609a      	str	r2, [r3, #8]
/home/hsk/Desktop/devel/tee-tpm-hyp/optee_os/lib/libmbedtls/mbedtls/library/bignum.c:1473 (discriminator 4)
    5824:	f7ff fc12 	bl	504c <mbedtls_mpi_cmp_mpi>
    5828:	2800      	cmp	r0, #0
    582a:	dcc9      	bgt.n	57c0 <mbedtls_mpi_div_mpi+0x26e>
/home/hsk/Desktop/devel/tee-tpm-hyp/optee_os/lib/libmbedtls/mbedtls/library/bignum.c:1475
    582c:	9b15      	ldr	r3, [sp, #84]	; 0x54
    582e:	f10d 0b40 	add.w	fp, sp, #64	; 0x40
    5832:	4659      	mov	r1, fp
    5834:	4630      	mov	r0, r6
    5836:	595a      	ldr	r2, [r3, r5]
    5838:	f7ff fde6 	bl	5408 <mbedtls_mpi_mul_int>
    583c:	2800      	cmp	r0, #0
    583e:	d18f      	bne.n	5760 <mbedtls_mpi_div_mpi+0x20e>
    5840:	9b0a      	ldr	r3, [sp, #40]	; 0x28
/home/hsk/Desktop/devel/tee-tpm-hyp/optee_os/lib/libmbedtls/mbedtls/library/bignum.c:1476
    5842:	4630      	mov	r0, r6
    5844:	f103 6700 	add.w	r7, r3, #134217728	; 0x8000000
    5848:	9b01      	ldr	r3, [sp, #4]
    584a:	3f01      	subs	r7, #1
    584c:	441f      	add	r7, r3
    584e:	017f      	lsls	r7, r7, #5
    5850:	4639      	mov	r1, r7
    5852:	f7ff fb41 	bl	4ed8 <mbedtls_mpi_shift_l>
    5856:	2800      	cmp	r0, #0
    5858:	d182      	bne.n	5760 <mbedtls_mpi_div_mpi+0x20e>
/home/hsk/Desktop/devel/tee-tpm-hyp/optee_os/lib/libmbedtls/mbedtls/library/bignum.c:1477
    585a:	f10d 0a34 	add.w	sl, sp, #52	; 0x34
    585e:	4632      	mov	r2, r6
    5860:	4651      	mov	r1, sl
    5862:	4650      	mov	r0, sl
    5864:	f7ff fd0f 	bl	5286 <mbedtls_mpi_sub_mpi>
    5868:	4601      	mov	r1, r0
    586a:	2800      	cmp	r0, #0
    586c:	d137      	bne.n	58de <mbedtls_mpi_div_mpi+0x38c>
/home/hsk/Desktop/devel/tee-tpm-hyp/optee_os/lib/libmbedtls/mbedtls/library/bignum.c:1479
    586e:	4650      	mov	r0, sl
    5870:	f7ff fc35 	bl	50de <mbedtls_mpi_cmp_int>
    5874:	2800      	cmp	r0, #0
    5876:	da19      	bge.n	58ac <mbedtls_mpi_div_mpi+0x35a>
/home/hsk/Desktop/devel/tee-tpm-hyp/optee_os/lib/libmbedtls/mbedtls/library/bignum.c:1481
    5878:	4659      	mov	r1, fp
    587a:	4630      	mov	r0, r6
    587c:	f7ff f986 	bl	4b8c <mbedtls_mpi_copy>
    5880:	2800      	cmp	r0, #0
    5882:	f47f af6d 	bne.w	5760 <mbedtls_mpi_div_mpi+0x20e>
/home/hsk/Desktop/devel/tee-tpm-hyp/optee_os/lib/libmbedtls/mbedtls/library/bignum.c:1482
    5886:	4639      	mov	r1, r7
    5888:	4630      	mov	r0, r6
    588a:	f7ff fb25 	bl	4ed8 <mbedtls_mpi_shift_l>
    588e:	2800      	cmp	r0, #0
    5890:	f47f af66 	bne.w	5760 <mbedtls_mpi_div_mpi+0x20e>
/home/hsk/Desktop/devel/tee-tpm-hyp/optee_os/lib/libmbedtls/mbedtls/library/bignum.c:1483
    5894:	4632      	mov	r2, r6
    5896:	4651      	mov	r1, sl
    5898:	4650      	mov	r0, sl
    589a:	f7ff fcd1 	bl	5240 <mbedtls_mpi_add_mpi>
    589e:	2800      	cmp	r0, #0
    58a0:	f47f af5e 	bne.w	5760 <mbedtls_mpi_div_mpi+0x20e>
/home/hsk/Desktop/devel/tee-tpm-hyp/optee_os/lib/libmbedtls/mbedtls/library/bignum.c:1484
    58a4:	9a15      	ldr	r2, [sp, #84]	; 0x54
    58a6:	5953      	ldr	r3, [r2, r5]
    58a8:	3b01      	subs	r3, #1
    58aa:	5153      	str	r3, [r2, r5]
    58ac:	9b01      	ldr	r3, [sp, #4]
    58ae:	3d04      	subs	r5, #4
    58b0:	3b01      	subs	r3, #1
    58b2:	9301      	str	r3, [sp, #4]
    58b4:	e71f      	b.n	56f6 <mbedtls_mpi_div_mpi+0x1a4>
/home/hsk/Desktop/devel/tee-tpm-hyp/optee_os/lib/libmbedtls/mbedtls/library/bignum.c:1454
    58b6:	59d8      	ldr	r0, [r3, r7]
mbedtls_int_div_int():
/home/hsk/Desktop/devel/tee-tpm-hyp/optee_os/lib/libmbedtls/mbedtls/library/bignum.c:1320
    58b8:	b162      	cbz	r2, 58d4 <mbedtls_mpi_div_mpi+0x382>
/home/hsk/Desktop/devel/tee-tpm-hyp/optee_os/lib/libmbedtls/mbedtls/library/bignum.c:1330
    58ba:	2300      	movs	r3, #0
    58bc:	f7fb e9b0 	blx	c20 <__aeabi_uldivmod>
/home/hsk/Desktop/devel/tee-tpm-hyp/optee_os/lib/libmbedtls/mbedtls/library/bignum.c:1337
    58c0:	2300      	movs	r3, #0
    58c2:	f04f 32ff 	mov.w	r2, #4294967295	; 0xffffffff
    58c6:	428b      	cmp	r3, r1
    58c8:	bf08      	it	eq
    58ca:	4282      	cmpeq	r2, r0
    58cc:	d200      	bcs.n	58d0 <mbedtls_mpi_div_mpi+0x37e>
    58ce:	4610      	mov	r0, r2
mbedtls_mpi_div_mpi():
/home/hsk/Desktop/devel/tee-tpm-hyp/optee_os/lib/libmbedtls/mbedtls/library/bignum.c:1454
    58d0:	6030      	str	r0, [r6, #0]
    58d2:	e76d      	b.n	57b0 <mbedtls_mpi_div_mpi+0x25e>
mbedtls_int_div_int():
/home/hsk/Desktop/devel/tee-tpm-hyp/optee_os/lib/libmbedtls/mbedtls/library/bignum.c:1324
    58d4:	f04f 30ff 	mov.w	r0, #4294967295	; 0xffffffff
    58d8:	e7fa      	b.n	58d0 <mbedtls_mpi_div_mpi+0x37e>
mbedtls_mpi_div_mpi():
/home/hsk/Desktop/devel/tee-tpm-hyp/optee_os/lib/libmbedtls/mbedtls/library/bignum.c:1464
    58da:	9904      	ldr	r1, [sp, #16]
    58dc:	e780      	b.n	57e0 <mbedtls_mpi_div_mpi+0x28e>
/home/hsk/Desktop/devel/tee-tpm-hyp/optee_os/lib/libmbedtls/mbedtls/library/bignum.c:1504
    58de:	460c      	mov	r4, r1
    58e0:	e672      	b.n	55c8 <mbedtls_mpi_div_mpi+0x76>
/home/hsk/Desktop/devel/tee-tpm-hyp/optee_os/lib/libmbedtls/mbedtls/library/bignum.c:1406
    58e2:	f06f 040b 	mvn.w	r4, #11
    58e6:	e664      	b.n	55b2 <mbedtls_mpi_div_mpi+0x60>

000058e8 <mbedtls_mpi_div_int>:
mbedtls_mpi_div_int():
/home/hsk/Desktop/devel/tee-tpm-hyp/optee_os/lib/libmbedtls/mbedtls/library/bignum.c:1516
    58e8:	b51f      	push	{r0, r1, r2, r3, r4, lr}
/home/hsk/Desktop/devel/tee-tpm-hyp/optee_os/lib/libmbedtls/mbedtls/library/bignum.c:1521
    58ea:	2b00      	cmp	r3, #0
/home/hsk/Desktop/devel/tee-tpm-hyp/optee_os/lib/libmbedtls/mbedtls/library/bignum.c:1520
    58ec:	ea83 74e3 	eor.w	r4, r3, r3, asr #31
    58f0:	eba4 74e3 	sub.w	r4, r4, r3, asr #31
/home/hsk/Desktop/devel/tee-tpm-hyp/optee_os/lib/libmbedtls/mbedtls/library/bignum.c:1521
    58f4:	f04f 33ff 	mov.w	r3, #4294967295	; 0xffffffff
    58f8:	bfa8      	it	ge
    58fa:	2301      	movge	r3, #1
    58fc:	f88d 3004 	strb.w	r3, [sp, #4]
/home/hsk/Desktop/devel/tee-tpm-hyp/optee_os/lib/libmbedtls/mbedtls/library/bignum.c:1522
    5900:	2301      	movs	r3, #1
    5902:	f8ad 3008 	strh.w	r3, [sp, #8]
/home/hsk/Desktop/devel/tee-tpm-hyp/optee_os/lib/libmbedtls/mbedtls/library/bignum.c:1523
    5906:	466b      	mov	r3, sp
    5908:	9303      	str	r3, [sp, #12]
/home/hsk/Desktop/devel/tee-tpm-hyp/optee_os/lib/libmbedtls/mbedtls/library/bignum.c:1525
    590a:	ab01      	add	r3, sp, #4
/home/hsk/Desktop/devel/tee-tpm-hyp/optee_os/lib/libmbedtls/mbedtls/library/bignum.c:1520
    590c:	9400      	str	r4, [sp, #0]
/home/hsk/Desktop/devel/tee-tpm-hyp/optee_os/lib/libmbedtls/mbedtls/library/bignum.c:1525
    590e:	f7ff fe20 	bl	5552 <mbedtls_mpi_div_mpi>
/home/hsk/Desktop/devel/tee-tpm-hyp/optee_os/lib/libmbedtls/mbedtls/library/bignum.c:1526
    5912:	b004      	add	sp, #16
    5914:	bd10      	pop	{r4, pc}

00005916 <mbedtls_mpi_mod_mpi>:
mbedtls_mpi_mod_mpi():
/home/hsk/Desktop/devel/tee-tpm-hyp/optee_os/lib/libmbedtls/mbedtls/library/bignum.c:1532
    5916:	b570      	push	{r4, r5, r6, lr}
    5918:	4604      	mov	r4, r0
    591a:	460d      	mov	r5, r1
/home/hsk/Desktop/devel/tee-tpm-hyp/optee_os/lib/libmbedtls/mbedtls/library/bignum.c:1535
    591c:	4610      	mov	r0, r2
    591e:	2100      	movs	r1, #0
/home/hsk/Desktop/devel/tee-tpm-hyp/optee_os/lib/libmbedtls/mbedtls/library/bignum.c:1532
    5920:	4616      	mov	r6, r2
/home/hsk/Desktop/devel/tee-tpm-hyp/optee_os/lib/libmbedtls/mbedtls/library/bignum.c:1535
    5922:	f7ff fbdc 	bl	50de <mbedtls_mpi_cmp_int>
    5926:	2800      	cmp	r0, #0
    5928:	db24      	blt.n	5974 <mbedtls_mpi_mod_mpi+0x5e>
/home/hsk/Desktop/devel/tee-tpm-hyp/optee_os/lib/libmbedtls/mbedtls/library/bignum.c:1538
    592a:	462a      	mov	r2, r5
    592c:	4633      	mov	r3, r6
    592e:	4621      	mov	r1, r4
    5930:	2000      	movs	r0, #0
    5932:	f7ff fe0e 	bl	5552 <mbedtls_mpi_div_mpi>
    5936:	4605      	mov	r5, r0
    5938:	b138      	cbz	r0, 594a <mbedtls_mpi_mod_mpi+0x34>
/home/hsk/Desktop/devel/tee-tpm-hyp/optee_os/lib/libmbedtls/mbedtls/library/bignum.c:1549
    593a:	4628      	mov	r0, r5
    593c:	bd70      	pop	{r4, r5, r6, pc}
/home/hsk/Desktop/devel/tee-tpm-hyp/optee_os/lib/libmbedtls/mbedtls/library/bignum.c:1541
    593e:	4632      	mov	r2, r6
    5940:	4621      	mov	r1, r4
    5942:	4620      	mov	r0, r4
    5944:	f7ff fc7c 	bl	5240 <mbedtls_mpi_add_mpi>
    5948:	b990      	cbnz	r0, 5970 <mbedtls_mpi_mod_mpi+0x5a>
/home/hsk/Desktop/devel/tee-tpm-hyp/optee_os/lib/libmbedtls/mbedtls/library/bignum.c:1540
    594a:	2100      	movs	r1, #0
    594c:	4620      	mov	r0, r4
    594e:	f7ff fbc6 	bl	50de <mbedtls_mpi_cmp_int>
    5952:	2800      	cmp	r0, #0
    5954:	dbf3      	blt.n	593e <mbedtls_mpi_mod_mpi+0x28>
/home/hsk/Desktop/devel/tee-tpm-hyp/optee_os/lib/libmbedtls/mbedtls/library/bignum.c:1543
    5956:	4631      	mov	r1, r6
    5958:	4620      	mov	r0, r4
    595a:	f7ff fb77 	bl	504c <mbedtls_mpi_cmp_mpi>
    595e:	2800      	cmp	r0, #0
    5960:	dbeb      	blt.n	593a <mbedtls_mpi_mod_mpi+0x24>
/home/hsk/Desktop/devel/tee-tpm-hyp/optee_os/lib/libmbedtls/mbedtls/library/bignum.c:1544
    5962:	4632      	mov	r2, r6
    5964:	4621      	mov	r1, r4
    5966:	4620      	mov	r0, r4
    5968:	f7ff fc8d 	bl	5286 <mbedtls_mpi_sub_mpi>
    596c:	2800      	cmp	r0, #0
    596e:	d0f2      	beq.n	5956 <mbedtls_mpi_mod_mpi+0x40>
    5970:	4605      	mov	r5, r0
    5972:	e7e2      	b.n	593a <mbedtls_mpi_mod_mpi+0x24>
/home/hsk/Desktop/devel/tee-tpm-hyp/optee_os/lib/libmbedtls/mbedtls/library/bignum.c:1536
    5974:	f06f 0509 	mvn.w	r5, #9
    5978:	e7df      	b.n	593a <mbedtls_mpi_mod_mpi+0x24>

0000597a <mbedtls_mpi_mod_int>:
mbedtls_mpi_mod_int():
/home/hsk/Desktop/devel/tee-tpm-hyp/optee_os/lib/libmbedtls/mbedtls/library/bignum.c:1555
    597a:	b430      	push	{r4, r5}
/home/hsk/Desktop/devel/tee-tpm-hyp/optee_os/lib/libmbedtls/mbedtls/library/bignum.c:1559
    597c:	1e13      	subs	r3, r2, #0
/home/hsk/Desktop/devel/tee-tpm-hyp/optee_os/lib/libmbedtls/mbedtls/library/bignum.c:1555
    597e:	4604      	mov	r4, r0
/home/hsk/Desktop/devel/tee-tpm-hyp/optee_os/lib/libmbedtls/mbedtls/library/bignum.c:1559
    5980:	d012      	beq.n	59a8 <mbedtls_mpi_mod_int+0x2e>
/home/hsk/Desktop/devel/tee-tpm-hyp/optee_os/lib/libmbedtls/mbedtls/library/bignum.c:1562
    5982:	db14      	blt.n	59ae <mbedtls_mpi_mod_int+0x34>
/home/hsk/Desktop/devel/tee-tpm-hyp/optee_os/lib/libmbedtls/mbedtls/library/bignum.c:1568
    5984:	2b01      	cmp	r3, #1
    5986:	d103      	bne.n	5990 <mbedtls_mpi_mod_int+0x16>
/home/hsk/Desktop/devel/tee-tpm-hyp/optee_os/lib/libmbedtls/mbedtls/library/bignum.c:1570
    5988:	2000      	movs	r0, #0
    598a:	6020      	str	r0, [r4, #0]
/home/hsk/Desktop/devel/tee-tpm-hyp/optee_os/lib/libmbedtls/mbedtls/library/bignum.c:1606
    598c:	bc30      	pop	{r4, r5}
    598e:	4770      	bx	lr
/home/hsk/Desktop/devel/tee-tpm-hyp/optee_os/lib/libmbedtls/mbedtls/library/bignum.c:1574
    5990:	2b02      	cmp	r3, #2
    5992:	d106      	bne.n	59a2 <mbedtls_mpi_mod_int+0x28>
/home/hsk/Desktop/devel/tee-tpm-hyp/optee_os/lib/libmbedtls/mbedtls/library/bignum.c:1576
    5994:	688b      	ldr	r3, [r1, #8]
    5996:	681b      	ldr	r3, [r3, #0]
    5998:	f003 0301 	and.w	r3, r3, #1
    599c:	6003      	str	r3, [r0, #0]
/home/hsk/Desktop/devel/tee-tpm-hyp/optee_os/lib/libmbedtls/mbedtls/library/bignum.c:1577
    599e:	2000      	movs	r0, #0
    59a0:	e7f4      	b.n	598c <mbedtls_mpi_mod_int+0x12>
/home/hsk/Desktop/devel/tee-tpm-hyp/optee_os/lib/libmbedtls/mbedtls/library/bignum.c:1606
    59a2:	bc30      	pop	{r4, r5}
    59a4:	f7fe bfcb 	b.w	493e <mbedtls_mpi_mod_int.part.3>
/home/hsk/Desktop/devel/tee-tpm-hyp/optee_os/lib/libmbedtls/mbedtls/library/bignum.c:1560
    59a8:	f06f 000b 	mvn.w	r0, #11
    59ac:	e7ee      	b.n	598c <mbedtls_mpi_mod_int+0x12>
/home/hsk/Desktop/devel/tee-tpm-hyp/optee_os/lib/libmbedtls/mbedtls/library/bignum.c:1563
    59ae:	f06f 0009 	mvn.w	r0, #9
    59b2:	e7eb      	b.n	598c <mbedtls_mpi_mod_int+0x12>

000059b4 <mpi_write_hlp>:
mpi_write_hlp():
/home/hsk/Desktop/devel/tee-tpm-hyp/optee_os/lib/libmbedtls/mbedtls/library/bignum.c:578
    59b4:	1e8b      	subs	r3, r1, #2
/home/hsk/Desktop/devel/tee-tpm-hyp/optee_os/lib/libmbedtls/mbedtls/library/bignum.c:574
    59b6:	b5f7      	push	{r0, r1, r2, r4, r5, r6, r7, lr}
/home/hsk/Desktop/devel/tee-tpm-hyp/optee_os/lib/libmbedtls/mbedtls/library/bignum.c:578
    59b8:	2b0e      	cmp	r3, #14
/home/hsk/Desktop/devel/tee-tpm-hyp/optee_os/lib/libmbedtls/mbedtls/library/bignum.c:574
    59ba:	4605      	mov	r5, r0
    59bc:	460f      	mov	r7, r1
    59be:	4616      	mov	r6, r2
/home/hsk/Desktop/devel/tee-tpm-hyp/optee_os/lib/libmbedtls/mbedtls/library/bignum.c:578
    59c0:	d82c      	bhi.n	5a1c <mpi_write_hlp+0x68>
/home/hsk/Desktop/devel/tee-tpm-hyp/optee_os/lib/libmbedtls/mbedtls/library/bignum.c:581
    59c2:	460a      	mov	r2, r1
    59c4:	4601      	mov	r1, r0
    59c6:	a801      	add	r0, sp, #4
    59c8:	f7ff ffd7 	bl	597a <mbedtls_mpi_mod_int>
    59cc:	4604      	mov	r4, r0
    59ce:	b9b0      	cbnz	r0, 59fe <mpi_write_hlp+0x4a>
/home/hsk/Desktop/devel/tee-tpm-hyp/optee_os/lib/libmbedtls/mbedtls/library/bignum.c:582
    59d0:	4601      	mov	r1, r0
    59d2:	463b      	mov	r3, r7
    59d4:	462a      	mov	r2, r5
    59d6:	4628      	mov	r0, r5
    59d8:	f7ff ff86 	bl	58e8 <mbedtls_mpi_div_int>
    59dc:	4604      	mov	r4, r0
    59de:	b970      	cbnz	r0, 59fe <mpi_write_hlp+0x4a>
/home/hsk/Desktop/devel/tee-tpm-hyp/optee_os/lib/libmbedtls/mbedtls/library/bignum.c:584
    59e0:	4601      	mov	r1, r0
    59e2:	4628      	mov	r0, r5
    59e4:	f7ff fb7b 	bl	50de <mbedtls_mpi_cmp_int>
    59e8:	b960      	cbnz	r0, 5a04 <mpi_write_hlp+0x50>
/home/hsk/Desktop/devel/tee-tpm-hyp/optee_os/lib/libmbedtls/mbedtls/library/bignum.c:587
    59ea:	9801      	ldr	r0, [sp, #4]
    59ec:	6832      	ldr	r2, [r6, #0]
    59ee:	2809      	cmp	r0, #9
    59f0:	b2c3      	uxtb	r3, r0
    59f2:	f102 0101 	add.w	r1, r2, #1
    59f6:	d80e      	bhi.n	5a16 <mpi_write_hlp+0x62>
/home/hsk/Desktop/devel/tee-tpm-hyp/optee_os/lib/libmbedtls/mbedtls/library/bignum.c:588
    59f8:	3330      	adds	r3, #48	; 0x30
    59fa:	6031      	str	r1, [r6, #0]
/home/hsk/Desktop/devel/tee-tpm-hyp/optee_os/lib/libmbedtls/mbedtls/library/bignum.c:590
    59fc:	7013      	strb	r3, [r2, #0]
/home/hsk/Desktop/devel/tee-tpm-hyp/optee_os/lib/libmbedtls/mbedtls/library/bignum.c:595
    59fe:	4620      	mov	r0, r4
    5a00:	b003      	add	sp, #12
    5a02:	bdf0      	pop	{r4, r5, r6, r7, pc}
/home/hsk/Desktop/devel/tee-tpm-hyp/optee_os/lib/libmbedtls/mbedtls/library/bignum.c:585
    5a04:	4632      	mov	r2, r6
    5a06:	4639      	mov	r1, r7
    5a08:	4628      	mov	r0, r5
    5a0a:	f7ff ffd3 	bl	59b4 <mpi_write_hlp>
    5a0e:	2800      	cmp	r0, #0
    5a10:	d0eb      	beq.n	59ea <mpi_write_hlp+0x36>
/home/hsk/Desktop/devel/tee-tpm-hyp/optee_os/lib/libmbedtls/mbedtls/library/bignum.c:592
    5a12:	4604      	mov	r4, r0
    5a14:	e7f3      	b.n	59fe <mpi_write_hlp+0x4a>
/home/hsk/Desktop/devel/tee-tpm-hyp/optee_os/lib/libmbedtls/mbedtls/library/bignum.c:590
    5a16:	6031      	str	r1, [r6, #0]
    5a18:	3337      	adds	r3, #55	; 0x37
    5a1a:	e7ef      	b.n	59fc <mpi_write_hlp+0x48>
/home/hsk/Desktop/devel/tee-tpm-hyp/optee_os/lib/libmbedtls/mbedtls/library/bignum.c:579
    5a1c:	f06f 0403 	mvn.w	r4, #3
    5a20:	e7ed      	b.n	59fe <mpi_write_hlp+0x4a>

00005a22 <mbedtls_mpi_write_string>:
mbedtls_mpi_write_string():
/home/hsk/Desktop/devel/tee-tpm-hyp/optee_os/lib/libmbedtls/mbedtls/library/bignum.c:602
    5a22:	e92d 47ff 	stmdb	sp!, {r0, r1, r2, r3, r4, r5, r6, r7, r8, r9, sl, lr}
    5a26:	461f      	mov	r7, r3
/home/hsk/Desktop/devel/tee-tpm-hyp/optee_os/lib/libmbedtls/mbedtls/library/bignum.c:608
    5a28:	1e8b      	subs	r3, r1, #2
/home/hsk/Desktop/devel/tee-tpm-hyp/optee_os/lib/libmbedtls/mbedtls/library/bignum.c:602
    5a2a:	4604      	mov	r4, r0
    5a2c:	4688      	mov	r8, r1
    5a2e:	4615      	mov	r5, r2
    5a30:	9e0c      	ldr	r6, [sp, #48]	; 0x30
/home/hsk/Desktop/devel/tee-tpm-hyp/optee_os/lib/libmbedtls/mbedtls/library/bignum.c:608
    5a32:	2b0e      	cmp	r3, #14
    5a34:	f200 8087 	bhi.w	5b46 <mbedtls_mpi_write_string+0x124>
/home/hsk/Desktop/devel/tee-tpm-hyp/optee_os/lib/libmbedtls/mbedtls/library/bignum.c:611
    5a38:	f7ff f9d1 	bl	4dde <mbedtls_mpi_bitlen>
/home/hsk/Desktop/devel/tee-tpm-hyp/optee_os/lib/libmbedtls/mbedtls/library/bignum.c:612
    5a3c:	f1b8 0f03 	cmp.w	r8, #3
    5a40:	bfc8      	it	gt
    5a42:	0840      	lsrgt	r0, r0, #1
/home/hsk/Desktop/devel/tee-tpm-hyp/optee_os/lib/libmbedtls/mbedtls/library/bignum.c:613
    5a44:	f1b8 0f10 	cmp.w	r8, #16
    5a48:	bf08      	it	eq
    5a4a:	0840      	lsreq	r0, r0, #1
/home/hsk/Desktop/devel/tee-tpm-hyp/optee_os/lib/libmbedtls/mbedtls/library/bignum.c:619
    5a4c:	1c42      	adds	r2, r0, #1
    5a4e:	3003      	adds	r0, #3
    5a50:	f002 0201 	and.w	r2, r2, #1
    5a54:	4410      	add	r0, r2
/home/hsk/Desktop/devel/tee-tpm-hyp/optee_os/lib/libmbedtls/mbedtls/library/bignum.c:621
    5a56:	42b8      	cmp	r0, r7
    5a58:	d906      	bls.n	5a68 <mbedtls_mpi_write_string+0x46>
/home/hsk/Desktop/devel/tee-tpm-hyp/optee_os/lib/libmbedtls/mbedtls/library/bignum.c:624
    5a5a:	f06f 0407 	mvn.w	r4, #7
/home/hsk/Desktop/devel/tee-tpm-hyp/optee_os/lib/libmbedtls/mbedtls/library/bignum.c:623
    5a5e:	6030      	str	r0, [r6, #0]
/home/hsk/Desktop/devel/tee-tpm-hyp/optee_os/lib/libmbedtls/mbedtls/library/bignum.c:671
    5a60:	4620      	mov	r0, r4
    5a62:	b004      	add	sp, #16
    5a64:	e8bd 87f0 	ldmia.w	sp!, {r4, r5, r6, r7, r8, r9, sl, pc}
/home/hsk/Desktop/devel/tee-tpm-hyp/optee_os/lib/libmbedtls/mbedtls/library/bignum.c:628
    5a68:	af01      	add	r7, sp, #4
/home/hsk/Desktop/devel/tee-tpm-hyp/optee_os/lib/libmbedtls/mbedtls/library/bignum.c:627
    5a6a:	9500      	str	r5, [sp, #0]
/home/hsk/Desktop/devel/tee-tpm-hyp/optee_os/lib/libmbedtls/mbedtls/library/bignum.c:628
    5a6c:	4638      	mov	r0, r7
    5a6e:	f7fe ff91 	bl	4994 <mbedtls_mpi_init_mempool>
/home/hsk/Desktop/devel/tee-tpm-hyp/optee_os/lib/libmbedtls/mbedtls/library/bignum.c:630
    5a72:	f994 3000 	ldrsb.w	r3, [r4]
    5a76:	3301      	adds	r3, #1
    5a78:	d104      	bne.n	5a84 <mbedtls_mpi_write_string+0x62>
/home/hsk/Desktop/devel/tee-tpm-hyp/optee_os/lib/libmbedtls/mbedtls/library/bignum.c:631
    5a7a:	9b00      	ldr	r3, [sp, #0]
    5a7c:	1c5a      	adds	r2, r3, #1
    5a7e:	9200      	str	r2, [sp, #0]
    5a80:	222d      	movs	r2, #45	; 0x2d
    5a82:	701a      	strb	r2, [r3, #0]
/home/hsk/Desktop/devel/tee-tpm-hyp/optee_os/lib/libmbedtls/mbedtls/library/bignum.c:633
    5a84:	f1b8 0f10 	cmp.w	r8, #16
    5a88:	d146      	bne.n	5b18 <mbedtls_mpi_write_string+0xf6>
/home/hsk/Desktop/devel/tee-tpm-hyp/optee_os/lib/libmbedtls/mbedtls/library/bignum.c:638
    5a8a:	88a0      	ldrh	r0, [r4, #4]
    5a8c:	f04f 0800 	mov.w	r8, #0
/home/hsk/Desktop/devel/tee-tpm-hyp/optee_os/lib/libmbedtls/mbedtls/library/bignum.c:647
    5a90:	f8df c0b8 	ldr.w	ip, [pc, #184]	; 5b4c <mbedtls_mpi_write_string+0x12a>
    5a94:	f100 4380 	add.w	r3, r0, #1073741824	; 0x40000000
    5a98:	3b01      	subs	r3, #1
    5a9a:	44fc      	add	ip, pc
    5a9c:	009b      	lsls	r3, r3, #2
/home/hsk/Desktop/devel/tee-tpm-hyp/optee_os/lib/libmbedtls/mbedtls/library/bignum.c:638 (discriminator 1)
    5a9e:	b958      	cbnz	r0, 5ab8 <mbedtls_mpi_write_string+0x96>
/home/hsk/Desktop/devel/tee-tpm-hyp/optee_os/lib/libmbedtls/mbedtls/library/bignum.c:663
    5aa0:	9b00      	ldr	r3, [sp, #0]
    5aa2:	2400      	movs	r4, #0
    5aa4:	1c5a      	adds	r2, r3, #1
    5aa6:	9200      	str	r2, [sp, #0]
    5aa8:	701c      	strb	r4, [r3, #0]
/home/hsk/Desktop/devel/tee-tpm-hyp/optee_os/lib/libmbedtls/mbedtls/library/bignum.c:664
    5aaa:	9b00      	ldr	r3, [sp, #0]
    5aac:	1b5d      	subs	r5, r3, r5
    5aae:	6035      	str	r5, [r6, #0]
/home/hsk/Desktop/devel/tee-tpm-hyp/optee_os/lib/libmbedtls/mbedtls/library/bignum.c:668
    5ab0:	4638      	mov	r0, r7
    5ab2:	f7fe ff8a 	bl	49ca <mbedtls_mpi_free>
/home/hsk/Desktop/devel/tee-tpm-hyp/optee_os/lib/libmbedtls/mbedtls/library/bignum.c:670
    5ab6:	e7d3      	b.n	5a60 <mbedtls_mpi_write_string+0x3e>
/home/hsk/Desktop/devel/tee-tpm-hyp/optee_os/lib/libmbedtls/mbedtls/library/bignum.c:640
    5ab8:	2104      	movs	r1, #4
/home/hsk/Desktop/devel/tee-tpm-hyp/optee_os/lib/libmbedtls/mbedtls/library/bignum.c:642
    5aba:	68a2      	ldr	r2, [r4, #8]
    5abc:	f101 3eff 	add.w	lr, r1, #4294967295	; 0xffffffff
    5ac0:	ea4f 0ace 	mov.w	sl, lr, lsl #3
    5ac4:	f852 9003 	ldr.w	r9, [r2, r3]
    5ac8:	fa29 f20a 	lsr.w	r2, r9, sl
/home/hsk/Desktop/devel/tee-tpm-hyp/optee_os/lib/libmbedtls/mbedtls/library/bignum.c:644
    5acc:	f012 09ff 	ands.w	r9, r2, #255	; 0xff
    5ad0:	d105      	bne.n	5ade <mbedtls_mpi_write_string+0xbc>
/home/hsk/Desktop/devel/tee-tpm-hyp/optee_os/lib/libmbedtls/mbedtls/library/bignum.c:644 (discriminator 1)
    5ad2:	f1b8 0f00 	cmp.w	r8, #0
    5ad6:	d102      	bne.n	5ade <mbedtls_mpi_write_string+0xbc>
/home/hsk/Desktop/devel/tee-tpm-hyp/optee_os/lib/libmbedtls/mbedtls/library/bignum.c:644 (discriminator 2)
    5ad8:	4401      	add	r1, r0
    5ada:	2902      	cmp	r1, #2
    5adc:	d116      	bne.n	5b0c <mbedtls_mpi_write_string+0xea>
/home/hsk/Desktop/devel/tee-tpm-hyp/optee_os/lib/libmbedtls/mbedtls/library/bignum.c:647
    5ade:	f8dd 8000 	ldr.w	r8, [sp]
/home/hsk/Desktop/devel/tee-tpm-hyp/optee_os/lib/libmbedtls/mbedtls/library/bignum.c:648
    5ae2:	f002 020f 	and.w	r2, r2, #15
/home/hsk/Desktop/devel/tee-tpm-hyp/optee_os/lib/libmbedtls/mbedtls/library/bignum.c:647
    5ae6:	f108 0101 	add.w	r1, r8, #1
    5aea:	9100      	str	r1, [sp, #0]
    5aec:	ea4f 1129 	mov.w	r1, r9, asr #4
/home/hsk/Desktop/devel/tee-tpm-hyp/optee_os/lib/libmbedtls/mbedtls/library/bignum.c:648
    5af0:	f81c 2002 	ldrb.w	r2, [ip, r2]
/home/hsk/Desktop/devel/tee-tpm-hyp/optee_os/lib/libmbedtls/mbedtls/library/bignum.c:647
    5af4:	f81c 1001 	ldrb.w	r1, [ip, r1]
    5af8:	f888 1000 	strb.w	r1, [r8]
/home/hsk/Desktop/devel/tee-tpm-hyp/optee_os/lib/libmbedtls/mbedtls/library/bignum.c:648
    5afc:	9900      	ldr	r1, [sp, #0]
    5afe:	f101 0801 	add.w	r8, r1, #1
    5b02:	f8cd 8000 	str.w	r8, [sp]
/home/hsk/Desktop/devel/tee-tpm-hyp/optee_os/lib/libmbedtls/mbedtls/library/bignum.c:649
    5b06:	f04f 0801 	mov.w	r8, #1
/home/hsk/Desktop/devel/tee-tpm-hyp/optee_os/lib/libmbedtls/mbedtls/library/bignum.c:648
    5b0a:	700a      	strb	r2, [r1, #0]
    5b0c:	4671      	mov	r1, lr
/home/hsk/Desktop/devel/tee-tpm-hyp/optee_os/lib/libmbedtls/mbedtls/library/bignum.c:640 (discriminator 1)
    5b0e:	2900      	cmp	r1, #0
    5b10:	d1d3      	bne.n	5aba <mbedtls_mpi_write_string+0x98>
/home/hsk/Desktop/devel/tee-tpm-hyp/optee_os/lib/libmbedtls/mbedtls/library/bignum.c:638 (discriminator 2)
    5b12:	3801      	subs	r0, #1
    5b14:	3b04      	subs	r3, #4
    5b16:	e7c2      	b.n	5a9e <mbedtls_mpi_write_string+0x7c>
/home/hsk/Desktop/devel/tee-tpm-hyp/optee_os/lib/libmbedtls/mbedtls/library/bignum.c:655
    5b18:	4621      	mov	r1, r4
    5b1a:	4638      	mov	r0, r7
    5b1c:	f7ff f836 	bl	4b8c <mbedtls_mpi_copy>
    5b20:	4604      	mov	r4, r0
    5b22:	2800      	cmp	r0, #0
    5b24:	d1c4      	bne.n	5ab0 <mbedtls_mpi_write_string+0x8e>
/home/hsk/Desktop/devel/tee-tpm-hyp/optee_os/lib/libmbedtls/mbedtls/library/bignum.c:657
    5b26:	f99d 3004 	ldrsb.w	r3, [sp, #4]
    5b2a:	3301      	adds	r3, #1
    5b2c:	d102      	bne.n	5b34 <mbedtls_mpi_write_string+0x112>
/home/hsk/Desktop/devel/tee-tpm-hyp/optee_os/lib/libmbedtls/mbedtls/library/bignum.c:658
    5b2e:	2301      	movs	r3, #1
    5b30:	f88d 3004 	strb.w	r3, [sp, #4]
/home/hsk/Desktop/devel/tee-tpm-hyp/optee_os/lib/libmbedtls/mbedtls/library/bignum.c:660
    5b34:	466a      	mov	r2, sp
    5b36:	4641      	mov	r1, r8
    5b38:	4638      	mov	r0, r7
    5b3a:	f7ff ff3b 	bl	59b4 <mpi_write_hlp>
    5b3e:	4604      	mov	r4, r0
    5b40:	2800      	cmp	r0, #0
    5b42:	d0ad      	beq.n	5aa0 <mbedtls_mpi_write_string+0x7e>
/home/hsk/Desktop/devel/tee-tpm-hyp/optee_os/lib/libmbedtls/mbedtls/library/bignum.c:666
    5b44:	e7b4      	b.n	5ab0 <mbedtls_mpi_write_string+0x8e>
/home/hsk/Desktop/devel/tee-tpm-hyp/optee_os/lib/libmbedtls/mbedtls/library/bignum.c:609
    5b46:	f06f 0403 	mvn.w	r4, #3
    5b4a:	e789      	b.n	5a60 <mbedtls_mpi_write_string+0x3e>
    5b4c:	000028f3 	.word	0x000028f3

00005b50 <mpi_check_small_factors>:
mpi_check_small_factors():
/home/hsk/Desktop/devel/tee-tpm-hyp/optee_os/lib/libmbedtls/mbedtls/library/bignum.c:2108
    5b50:	6883      	ldr	r3, [r0, #8]
/home/hsk/Desktop/devel/tee-tpm-hyp/optee_os/lib/libmbedtls/mbedtls/library/bignum.c:2103
    5b52:	b5f7      	push	{r0, r1, r2, r4, r5, r6, r7, lr}
    5b54:	4606      	mov	r6, r0
/home/hsk/Desktop/devel/tee-tpm-hyp/optee_os/lib/libmbedtls/mbedtls/library/bignum.c:2108
    5b56:	681b      	ldr	r3, [r3, #0]
    5b58:	07db      	lsls	r3, r3, #31
    5b5a:	d51a      	bpl.n	5b92 <mpi_check_small_factors+0x42>
    5b5c:	4c0f      	ldr	r4, [pc, #60]	; (5b9c <mpi_check_small_factors+0x4c>)
/home/hsk/Desktop/devel/tee-tpm-hyp/optee_os/lib/libmbedtls/mbedtls/library/bignum.c:2116
    5b5e:	af01      	add	r7, sp, #4
    5b60:	447c      	add	r4, pc
    5b62:	3c04      	subs	r4, #4
/home/hsk/Desktop/devel/tee-tpm-hyp/optee_os/lib/libmbedtls/mbedtls/library/bignum.c:2111
    5b64:	f854 5f04 	ldr.w	r5, [r4, #4]!
    5b68:	2d00      	cmp	r5, #0
    5b6a:	dc02      	bgt.n	5b72 <mpi_check_small_factors+0x22>
    5b6c:	2000      	movs	r0, #0
/home/hsk/Desktop/devel/tee-tpm-hyp/optee_os/lib/libmbedtls/mbedtls/library/bignum.c:2124
    5b6e:	b003      	add	sp, #12
    5b70:	bdf0      	pop	{r4, r5, r6, r7, pc}
/home/hsk/Desktop/devel/tee-tpm-hyp/optee_os/lib/libmbedtls/mbedtls/library/bignum.c:2113
    5b72:	4629      	mov	r1, r5
    5b74:	4630      	mov	r0, r6
    5b76:	f7ff fab2 	bl	50de <mbedtls_mpi_cmp_int>
    5b7a:	2800      	cmp	r0, #0
    5b7c:	dd0c      	ble.n	5b98 <mpi_check_small_factors+0x48>
/home/hsk/Desktop/devel/tee-tpm-hyp/optee_os/lib/libmbedtls/mbedtls/library/bignum.c:2116
    5b7e:	462a      	mov	r2, r5
    5b80:	4631      	mov	r1, r6
    5b82:	4638      	mov	r0, r7
    5b84:	f7ff fef9 	bl	597a <mbedtls_mpi_mod_int>
    5b88:	2800      	cmp	r0, #0
    5b8a:	d1f0      	bne.n	5b6e <mpi_check_small_factors+0x1e>
/home/hsk/Desktop/devel/tee-tpm-hyp/optee_os/lib/libmbedtls/mbedtls/library/bignum.c:2118
    5b8c:	9b01      	ldr	r3, [sp, #4]
    5b8e:	2b00      	cmp	r3, #0
    5b90:	d1e8      	bne.n	5b64 <mpi_check_small_factors+0x14>
/home/hsk/Desktop/devel/tee-tpm-hyp/optee_os/lib/libmbedtls/mbedtls/library/bignum.c:2109
    5b92:	f06f 000d 	mvn.w	r0, #13
    5b96:	e7ea      	b.n	5b6e <mpi_check_small_factors+0x1e>
/home/hsk/Desktop/devel/tee-tpm-hyp/optee_os/lib/libmbedtls/mbedtls/library/bignum.c:2114
    5b98:	2001      	movs	r0, #1
    5b9a:	e7e8      	b.n	5b6e <mpi_check_small_factors+0x1e>
    5b9c:	00002080 	.word	0x00002080

00005ba0 <mbedtls_mpi_montg_init>:
mbedtls_mpi_montg_init():
/home/hsk/Desktop/devel/tee-tpm-hyp/optee_os/lib/libmbedtls/mbedtls/library/bignum.c:1613
    5ba0:	688b      	ldr	r3, [r1, #8]
/home/hsk/Desktop/devel/tee-tpm-hyp/optee_os/lib/libmbedtls/mbedtls/library/bignum.c:1617
    5ba2:	2203      	movs	r2, #3
/home/hsk/Desktop/devel/tee-tpm-hyp/optee_os/lib/libmbedtls/mbedtls/library/bignum.c:1612
    5ba4:	b510      	push	{r4, lr}
/home/hsk/Desktop/devel/tee-tpm-hyp/optee_os/lib/libmbedtls/mbedtls/library/bignum.c:1613
    5ba6:	681c      	ldr	r4, [r3, #0]
/home/hsk/Desktop/devel/tee-tpm-hyp/optee_os/lib/libmbedtls/mbedtls/library/bignum.c:1617
    5ba8:	1ca3      	adds	r3, r4, #2
    5baa:	005b      	lsls	r3, r3, #1
    5bac:	f003 0308 	and.w	r3, r3, #8
    5bb0:	4423      	add	r3, r4
/home/hsk/Desktop/devel/tee-tpm-hyp/optee_os/lib/libmbedtls/mbedtls/library/bignum.c:1620 (discriminator 3)
    5bb2:	fb03 f104 	mul.w	r1, r3, r4
/home/hsk/Desktop/devel/tee-tpm-hyp/optee_os/lib/libmbedtls/mbedtls/library/bignum.c:1619 (discriminator 3)
    5bb6:	3a01      	subs	r2, #1
/home/hsk/Desktop/devel/tee-tpm-hyp/optee_os/lib/libmbedtls/mbedtls/library/bignum.c:1620 (discriminator 3)
    5bb8:	f1c1 0102 	rsb	r1, r1, #2
    5bbc:	fb01 f303 	mul.w	r3, r1, r3
/home/hsk/Desktop/devel/tee-tpm-hyp/optee_os/lib/libmbedtls/mbedtls/library/bignum.c:1619 (discriminator 3)
    5bc0:	d1f7      	bne.n	5bb2 <mbedtls_mpi_montg_init+0x12>
/home/hsk/Desktop/devel/tee-tpm-hyp/optee_os/lib/libmbedtls/mbedtls/library/bignum.c:1622
    5bc2:	425b      	negs	r3, r3
    5bc4:	6003      	str	r3, [r0, #0]
/home/hsk/Desktop/devel/tee-tpm-hyp/optee_os/lib/libmbedtls/mbedtls/library/bignum.c:1623
    5bc6:	bd10      	pop	{r4, pc}

00005bc8 <mbedtls_mpi_montmul>:
mbedtls_mpi_montmul():
/home/hsk/Desktop/devel/tee-tpm-hyp/optee_os/lib/libmbedtls/mbedtls/library/bignum.c:1631
    5bc8:	e92d 4ff0 	stmdb	sp!, {r4, r5, r6, r7, r8, r9, sl, fp, lr}
    5bcc:	4616      	mov	r6, r2
    5bce:	4681      	mov	r9, r0
    5bd0:	b085      	sub	sp, #20
    5bd2:	468b      	mov	fp, r1
    5bd4:	9303      	str	r3, [sp, #12]
/home/hsk/Desktop/devel/tee-tpm-hyp/optee_os/lib/libmbedtls/mbedtls/library/bignum.c:1635
    5bd6:	9b0e      	ldr	r3, [sp, #56]	; 0x38
    5bd8:	889a      	ldrh	r2, [r3, #4]
    5bda:	88b3      	ldrh	r3, [r6, #4]
    5bdc:	4293      	cmp	r3, r2
    5bde:	d252      	bcs.n	5c86 <mbedtls_mpi_montmul+0xbe>
/home/hsk/Desktop/devel/tee-tpm-hyp/optee_os/lib/libmbedtls/mbedtls/library/bignum.c:1635 (discriminator 1)
    5be0:	9b0e      	ldr	r3, [sp, #56]	; 0x38
    5be2:	6898      	ldr	r0, [r3, #8]
    5be4:	2800      	cmp	r0, #0
    5be6:	d04e      	beq.n	5c86 <mbedtls_mpi_montmul+0xbe>
/home/hsk/Desktop/devel/tee-tpm-hyp/optee_os/lib/libmbedtls/mbedtls/library/bignum.c:1638
    5be8:	0092      	lsls	r2, r2, #2
    5bea:	2100      	movs	r1, #0
    5bec:	f001 ffad 	bl	7b4a <memset>
/home/hsk/Desktop/devel/tee-tpm-hyp/optee_os/lib/libmbedtls/mbedtls/library/bignum.c:1640
    5bf0:	9b0e      	ldr	r3, [sp, #56]	; 0x38
/home/hsk/Desktop/devel/tee-tpm-hyp/optee_os/lib/libmbedtls/mbedtls/library/bignum.c:1641
    5bf2:	88b4      	ldrh	r4, [r6, #4]
/home/hsk/Desktop/devel/tee-tpm-hyp/optee_os/lib/libmbedtls/mbedtls/library/bignum.c:1644
    5bf4:	2700      	movs	r7, #0
/home/hsk/Desktop/devel/tee-tpm-hyp/optee_os/lib/libmbedtls/mbedtls/library/bignum.c:1640
    5bf6:	689b      	ldr	r3, [r3, #8]
    5bf8:	9300      	str	r3, [sp, #0]
/home/hsk/Desktop/devel/tee-tpm-hyp/optee_os/lib/libmbedtls/mbedtls/library/bignum.c:1642
    5bfa:	f8bb 3004 	ldrh.w	r3, [fp, #4]
/home/hsk/Desktop/devel/tee-tpm-hyp/optee_os/lib/libmbedtls/mbedtls/library/bignum.c:1640
    5bfe:	9d00      	ldr	r5, [sp, #0]
/home/hsk/Desktop/devel/tee-tpm-hyp/optee_os/lib/libmbedtls/mbedtls/library/bignum.c:1642
    5c00:	42a3      	cmp	r3, r4
    5c02:	bf28      	it	cs
    5c04:	4623      	movcs	r3, r4
    5c06:	9301      	str	r3, [sp, #4]
/home/hsk/Desktop/devel/tee-tpm-hyp/optee_os/lib/libmbedtls/mbedtls/library/bignum.c:1655
    5c08:	1c63      	adds	r3, r4, #1
    5c0a:	ea4f 0883 	mov.w	r8, r3, lsl #2
    5c0e:	f8d9 0008 	ldr.w	r0, [r9, #8]
/home/hsk/Desktop/devel/tee-tpm-hyp/optee_os/lib/libmbedtls/mbedtls/library/bignum.c:1644 (discriminator 1)
    5c12:	42a7      	cmp	r7, r4
    5c14:	d315      	bcc.n	5c42 <mbedtls_mpi_montmul+0x7a>
/home/hsk/Desktop/devel/tee-tpm-hyp/optee_os/lib/libmbedtls/mbedtls/library/bignum.c:1658
    5c16:	9b00      	ldr	r3, [sp, #0]
    5c18:	4642      	mov	r2, r8
    5c1a:	eb03 0184 	add.w	r1, r3, r4, lsl #2
    5c1e:	f001 ff70 	bl	7b02 <memcpy>
/home/hsk/Desktop/devel/tee-tpm-hyp/optee_os/lib/libmbedtls/mbedtls/library/bignum.c:1660
    5c22:	4631      	mov	r1, r6
    5c24:	4648      	mov	r0, r9
    5c26:	f7ff f9dd 	bl	4fe4 <mbedtls_mpi_cmp_abs>
    5c2a:	2800      	cmp	r0, #0
    5c2c:	db26      	blt.n	5c7c <mbedtls_mpi_montmul+0xb4>
/home/hsk/Desktop/devel/tee-tpm-hyp/optee_os/lib/libmbedtls/mbedtls/library/bignum.c:1661
    5c2e:	f8d9 2008 	ldr.w	r2, [r9, #8]
    5c32:	68b1      	ldr	r1, [r6, #8]
/home/hsk/Desktop/devel/tee-tpm-hyp/optee_os/lib/libmbedtls/mbedtls/library/bignum.c:1664
    5c34:	4620      	mov	r0, r4
    5c36:	f7fe fc07 	bl	4448 <mpi_sub_hlp>
/home/hsk/Desktop/devel/tee-tpm-hyp/optee_os/lib/libmbedtls/mbedtls/library/bignum.c:1666
    5c3a:	2000      	movs	r0, #0
/home/hsk/Desktop/devel/tee-tpm-hyp/optee_os/lib/libmbedtls/mbedtls/library/bignum.c:1667
    5c3c:	b005      	add	sp, #20
    5c3e:	e8bd 8ff0 	ldmia.w	sp!, {r4, r5, r6, r7, r8, r9, sl, fp, pc}
/home/hsk/Desktop/devel/tee-tpm-hyp/optee_os/lib/libmbedtls/mbedtls/library/bignum.c:1650 (discriminator 3)
    5c42:	f8db 1008 	ldr.w	r1, [fp, #8]
/home/hsk/Desktop/devel/tee-tpm-hyp/optee_os/lib/libmbedtls/mbedtls/library/bignum.c:1649 (discriminator 3)
    5c46:	f850 a027 	ldr.w	sl, [r0, r7, lsl #2]
/home/hsk/Desktop/devel/tee-tpm-hyp/optee_os/lib/libmbedtls/mbedtls/library/bignum.c:1644 (discriminator 3)
    5c4a:	3701      	adds	r7, #1
/home/hsk/Desktop/devel/tee-tpm-hyp/optee_os/lib/libmbedtls/mbedtls/library/bignum.c:1650 (discriminator 3)
    5c4c:	682a      	ldr	r2, [r5, #0]
    5c4e:	680b      	ldr	r3, [r1, #0]
/home/hsk/Desktop/devel/tee-tpm-hyp/optee_os/lib/libmbedtls/mbedtls/library/bignum.c:1652 (discriminator 3)
    5c50:	9801      	ldr	r0, [sp, #4]
/home/hsk/Desktop/devel/tee-tpm-hyp/optee_os/lib/libmbedtls/mbedtls/library/bignum.c:1650 (discriminator 3)
    5c52:	fb03 230a 	mla	r3, r3, sl, r2
    5c56:	9a03      	ldr	r2, [sp, #12]
    5c58:	4353      	muls	r3, r2
/home/hsk/Desktop/devel/tee-tpm-hyp/optee_os/lib/libmbedtls/mbedtls/library/bignum.c:1652 (discriminator 3)
    5c5a:	462a      	mov	r2, r5
/home/hsk/Desktop/devel/tee-tpm-hyp/optee_os/lib/libmbedtls/mbedtls/library/bignum.c:1650 (discriminator 3)
    5c5c:	9302      	str	r3, [sp, #8]
/home/hsk/Desktop/devel/tee-tpm-hyp/optee_os/lib/libmbedtls/mbedtls/library/bignum.c:1652 (discriminator 3)
    5c5e:	4653      	mov	r3, sl
    5c60:	f7fe fc20 	bl	44a4 <mpi_mul_hlp>
/home/hsk/Desktop/devel/tee-tpm-hyp/optee_os/lib/libmbedtls/mbedtls/library/bignum.c:1653 (discriminator 3)
    5c64:	9b02      	ldr	r3, [sp, #8]
    5c66:	462a      	mov	r2, r5
    5c68:	68b1      	ldr	r1, [r6, #8]
    5c6a:	4620      	mov	r0, r4
    5c6c:	f7fe fc1a 	bl	44a4 <mpi_mul_hlp>
/home/hsk/Desktop/devel/tee-tpm-hyp/optee_os/lib/libmbedtls/mbedtls/library/bignum.c:1655 (discriminator 3)
    5c70:	f845 ab04 	str.w	sl, [r5], #4
    5c74:	2300      	movs	r3, #0
    5c76:	f845 3008 	str.w	r3, [r5, r8]
    5c7a:	e7c8      	b.n	5c0e <mbedtls_mpi_montmul+0x46>
/home/hsk/Desktop/devel/tee-tpm-hyp/optee_os/lib/libmbedtls/mbedtls/library/bignum.c:1664
    5c7c:	9b0e      	ldr	r3, [sp, #56]	; 0x38
    5c7e:	f8d9 1008 	ldr.w	r1, [r9, #8]
    5c82:	689a      	ldr	r2, [r3, #8]
    5c84:	e7d6      	b.n	5c34 <mbedtls_mpi_montmul+0x6c>
/home/hsk/Desktop/devel/tee-tpm-hyp/optee_os/lib/libmbedtls/mbedtls/library/bignum.c:1636
    5c86:	f06f 0003 	mvn.w	r0, #3
    5c8a:	e7d7      	b.n	5c3c <mbedtls_mpi_montmul+0x74>

00005c8c <mbedtls_mpi_montred>:
mbedtls_mpi_montred():
/home/hsk/Desktop/devel/tee-tpm-hyp/optee_os/lib/libmbedtls/mbedtls/library/bignum.c:1674
    5c8c:	b510      	push	{r4, lr}
/home/hsk/Desktop/devel/tee-tpm-hyp/optee_os/lib/libmbedtls/mbedtls/library/bignum.c:1675
    5c8e:	2401      	movs	r4, #1
/home/hsk/Desktop/devel/tee-tpm-hyp/optee_os/lib/libmbedtls/mbedtls/library/bignum.c:1674
    5c90:	b086      	sub	sp, #24
/home/hsk/Desktop/devel/tee-tpm-hyp/optee_os/lib/libmbedtls/mbedtls/library/bignum.c:1681
    5c92:	9300      	str	r3, [sp, #0]
    5c94:	4613      	mov	r3, r2
    5c96:	460a      	mov	r2, r1
    5c98:	a903      	add	r1, sp, #12
/home/hsk/Desktop/devel/tee-tpm-hyp/optee_os/lib/libmbedtls/mbedtls/library/bignum.c:1675
    5c9a:	9402      	str	r4, [sp, #8]
/home/hsk/Desktop/devel/tee-tpm-hyp/optee_os/lib/libmbedtls/mbedtls/library/bignum.c:1678
    5c9c:	f88d 400c 	strb.w	r4, [sp, #12]
    5ca0:	f8ad 4010 	strh.w	r4, [sp, #16]
/home/hsk/Desktop/devel/tee-tpm-hyp/optee_os/lib/libmbedtls/mbedtls/library/bignum.c:1679
    5ca4:	ac02      	add	r4, sp, #8
    5ca6:	9405      	str	r4, [sp, #20]
/home/hsk/Desktop/devel/tee-tpm-hyp/optee_os/lib/libmbedtls/mbedtls/library/bignum.c:1681
    5ca8:	f7ff ff8e 	bl	5bc8 <mbedtls_mpi_montmul>
/home/hsk/Desktop/devel/tee-tpm-hyp/optee_os/lib/libmbedtls/mbedtls/library/bignum.c:1682
    5cac:	b006      	add	sp, #24
    5cae:	bd10      	pop	{r4, pc}

00005cb0 <mbedtls_mpi_exp_mod>:
mbedtls_mpi_exp_mod():
/home/hsk/Desktop/devel/tee-tpm-hyp/optee_os/lib/libmbedtls/mbedtls/library/bignum.c:1688
    5cb0:	e92d 4ff0 	stmdb	sp!, {r4, r5, r6, r7, r8, r9, sl, fp, lr}
    5cb4:	4682      	mov	sl, r0
    5cb6:	460e      	mov	r6, r1
    5cb8:	f2ad 6d4c 	subw	sp, sp, #1612	; 0x64c
/home/hsk/Desktop/devel/tee-tpm-hyp/optee_os/lib/libmbedtls/mbedtls/library/bignum.c:1697
    5cbc:	2100      	movs	r1, #0
    5cbe:	4618      	mov	r0, r3
/home/hsk/Desktop/devel/tee-tpm-hyp/optee_os/lib/libmbedtls/mbedtls/library/bignum.c:1688
    5cc0:	461c      	mov	r4, r3
    5cc2:	9203      	str	r2, [sp, #12]
/home/hsk/Desktop/devel/tee-tpm-hyp/optee_os/lib/libmbedtls/mbedtls/library/bignum.c:1697
    5cc4:	f7ff fa0b 	bl	50de <mbedtls_mpi_cmp_int>
    5cc8:	2800      	cmp	r0, #0
    5cca:	f2c0 8218 	blt.w	60fe <mbedtls_mpi_exp_mod+0x44e>
/home/hsk/Desktop/devel/tee-tpm-hyp/optee_os/lib/libmbedtls/mbedtls/library/bignum.c:1697 (discriminator 1)
    5cce:	68a3      	ldr	r3, [r4, #8]
    5cd0:	681b      	ldr	r3, [r3, #0]
    5cd2:	07d9      	lsls	r1, r3, #31
    5cd4:	f140 8213 	bpl.w	60fe <mbedtls_mpi_exp_mod+0x44e>
/home/hsk/Desktop/devel/tee-tpm-hyp/optee_os/lib/libmbedtls/mbedtls/library/bignum.c:1700
    5cd8:	2100      	movs	r1, #0
    5cda:	9803      	ldr	r0, [sp, #12]
    5cdc:	f7ff f9ff 	bl	50de <mbedtls_mpi_cmp_int>
    5ce0:	2800      	cmp	r0, #0
    5ce2:	f2c0 820c 	blt.w	60fe <mbedtls_mpi_exp_mod+0x44e>
/home/hsk/Desktop/devel/tee-tpm-hyp/optee_os/lib/libmbedtls/mbedtls/library/bignum.c:1706
    5ce6:	f10d 0b20 	add.w	fp, sp, #32
    5cea:	4621      	mov	r1, r4
    5cec:	4658      	mov	r0, fp
/home/hsk/Desktop/devel/tee-tpm-hyp/optee_os/lib/libmbedtls/mbedtls/library/bignum.c:1707
    5cee:	ad09      	add	r5, sp, #36	; 0x24
/home/hsk/Desktop/devel/tee-tpm-hyp/optee_os/lib/libmbedtls/mbedtls/library/bignum.c:1706
    5cf0:	f7ff ff56 	bl	5ba0 <mbedtls_mpi_montg_init>
/home/hsk/Desktop/devel/tee-tpm-hyp/optee_os/lib/libmbedtls/mbedtls/library/bignum.c:1707
    5cf4:	4628      	mov	r0, r5
    5cf6:	f7fe fe4d 	bl	4994 <mbedtls_mpi_init_mempool>
    5cfa:	ab0c      	add	r3, sp, #48	; 0x30
    5cfc:	4618      	mov	r0, r3
/home/hsk/Desktop/devel/tee-tpm-hyp/optee_os/lib/libmbedtls/mbedtls/library/bignum.c:1708
    5cfe:	f10d 083c 	add.w	r8, sp, #60	; 0x3c
/home/hsk/Desktop/devel/tee-tpm-hyp/optee_os/lib/libmbedtls/mbedtls/library/bignum.c:1707
    5d02:	9304      	str	r3, [sp, #16]
    5d04:	f7fe fe46 	bl	4994 <mbedtls_mpi_init_mempool>
/home/hsk/Desktop/devel/tee-tpm-hyp/optee_os/lib/libmbedtls/mbedtls/library/bignum.c:1708
    5d08:	4640      	mov	r0, r8
    5d0a:	f7fe fe43 	bl	4994 <mbedtls_mpi_init_mempool>
/home/hsk/Desktop/devel/tee-tpm-hyp/optee_os/lib/libmbedtls/mbedtls/library/bignum.c:1709
    5d0e:	ab12      	add	r3, sp, #72	; 0x48
    5d10:	f44f 62c0 	mov.w	r2, #1536	; 0x600
    5d14:	2100      	movs	r1, #0
    5d16:	4618      	mov	r0, r3
    5d18:	9306      	str	r3, [sp, #24]
    5d1a:	f001 ff16 	bl	7b4a <memset>
/home/hsk/Desktop/devel/tee-tpm-hyp/optee_os/lib/libmbedtls/mbedtls/library/bignum.c:1711
    5d1e:	9803      	ldr	r0, [sp, #12]
    5d20:	f7ff f85d 	bl	4dde <mbedtls_mpi_bitlen>
/home/hsk/Desktop/devel/tee-tpm-hyp/optee_os/lib/libmbedtls/mbedtls/library/bignum.c:1713
    5d24:	f5b0 7f28 	cmp.w	r0, #672	; 0x2a0
    5d28:	f080 80dd 	bcs.w	5ee6 <mbedtls_mpi_exp_mod+0x236>
/home/hsk/Desktop/devel/tee-tpm-hyp/optee_os/lib/libmbedtls/mbedtls/library/bignum.c:1713 (discriminator 1)
    5d2c:	28ef      	cmp	r0, #239	; 0xef
    5d2e:	f200 80dc 	bhi.w	5eea <mbedtls_mpi_exp_mod+0x23a>
/home/hsk/Desktop/devel/tee-tpm-hyp/optee_os/lib/libmbedtls/mbedtls/library/bignum.c:1713 (discriminator 3)
    5d32:	284f      	cmp	r0, #79	; 0x4f
    5d34:	f200 80db 	bhi.w	5eee <mbedtls_mpi_exp_mod+0x23e>
/home/hsk/Desktop/devel/tee-tpm-hyp/optee_os/lib/libmbedtls/mbedtls/library/bignum.c:1713 (discriminator 5)
    5d38:	2818      	cmp	r0, #24
    5d3a:	f04f 0301 	mov.w	r3, #1
    5d3e:	bf28      	it	cs
    5d40:	2303      	movcs	r3, #3
/home/hsk/Desktop/devel/tee-tpm-hyp/optee_os/lib/libmbedtls/mbedtls/library/bignum.c:1719
    5d42:	88a2      	ldrh	r2, [r4, #4]
/home/hsk/Desktop/devel/tee-tpm-hyp/optee_os/lib/libmbedtls/mbedtls/library/bignum.c:1720
    5d44:	4650      	mov	r0, sl
/home/hsk/Desktop/devel/tee-tpm-hyp/optee_os/lib/libmbedtls/mbedtls/library/bignum.c:1713
    5d46:	9302      	str	r3, [sp, #8]
/home/hsk/Desktop/devel/tee-tpm-hyp/optee_os/lib/libmbedtls/mbedtls/library/bignum.c:1719
    5d48:	1c57      	adds	r7, r2, #1
/home/hsk/Desktop/devel/tee-tpm-hyp/optee_os/lib/libmbedtls/mbedtls/library/bignum.c:1720
    5d4a:	4639      	mov	r1, r7
    5d4c:	f7fe fe64 	bl	4a18 <mbedtls_mpi_grow>
    5d50:	4603      	mov	r3, r0
    5d52:	2800      	cmp	r0, #0
    5d54:	f040 815b 	bne.w	600e <mbedtls_mpi_exp_mod+0x35e>
/home/hsk/Desktop/devel/tee-tpm-hyp/optee_os/lib/libmbedtls/mbedtls/library/bignum.c:1721
    5d58:	f10d 0954 	add.w	r9, sp, #84	; 0x54
    5d5c:	4639      	mov	r1, r7
    5d5e:	4648      	mov	r0, r9
    5d60:	f7fe fe5a 	bl	4a18 <mbedtls_mpi_grow>
    5d64:	4603      	mov	r3, r0
    5d66:	2800      	cmp	r0, #0
    5d68:	f040 8151 	bne.w	600e <mbedtls_mpi_exp_mod+0x35e>
/home/hsk/Desktop/devel/tee-tpm-hyp/optee_os/lib/libmbedtls/mbedtls/library/bignum.c:1722
    5d6c:	0079      	lsls	r1, r7, #1
    5d6e:	9804      	ldr	r0, [sp, #16]
    5d70:	f7fe fe52 	bl	4a18 <mbedtls_mpi_grow>
    5d74:	4603      	mov	r3, r0
    5d76:	2800      	cmp	r0, #0
    5d78:	f040 8149 	bne.w	600e <mbedtls_mpi_exp_mod+0x35e>
/home/hsk/Desktop/devel/tee-tpm-hyp/optee_os/lib/libmbedtls/mbedtls/library/bignum.c:1727
    5d7c:	f996 3000 	ldrsb.w	r3, [r6]
    5d80:	9305      	str	r3, [sp, #20]
/home/hsk/Desktop/devel/tee-tpm-hyp/optee_os/lib/libmbedtls/mbedtls/library/bignum.c:1728
    5d82:	3301      	adds	r3, #1
    5d84:	d10b      	bne.n	5d9e <mbedtls_mpi_exp_mod+0xee>
/home/hsk/Desktop/devel/tee-tpm-hyp/optee_os/lib/libmbedtls/mbedtls/library/bignum.c:1730
    5d86:	4631      	mov	r1, r6
    5d88:	4640      	mov	r0, r8
    5d8a:	f7fe feff 	bl	4b8c <mbedtls_mpi_copy>
    5d8e:	4603      	mov	r3, r0
    5d90:	2800      	cmp	r0, #0
    5d92:	f040 813c 	bne.w	600e <mbedtls_mpi_exp_mod+0x35e>
/home/hsk/Desktop/devel/tee-tpm-hyp/optee_os/lib/libmbedtls/mbedtls/library/bignum.c:1732
    5d96:	4646      	mov	r6, r8
/home/hsk/Desktop/devel/tee-tpm-hyp/optee_os/lib/libmbedtls/mbedtls/library/bignum.c:1731
    5d98:	2301      	movs	r3, #1
    5d9a:	f888 3000 	strb.w	r3, [r8]
/home/hsk/Desktop/devel/tee-tpm-hyp/optee_os/lib/libmbedtls/mbedtls/library/bignum.c:1738
    5d9e:	f8dd 3670 	ldr.w	r3, [sp, #1648]	; 0x670
    5da2:	b11b      	cbz	r3, 5dac <mbedtls_mpi_exp_mod+0xfc>
/home/hsk/Desktop/devel/tee-tpm-hyp/optee_os/lib/libmbedtls/mbedtls/library/bignum.c:1738 (discriminator 1)
    5da4:	689b      	ldr	r3, [r3, #8]
    5da6:	2b00      	cmp	r3, #0
    5da8:	f040 80a3 	bne.w	5ef2 <mbedtls_mpi_exp_mod+0x242>
/home/hsk/Desktop/devel/tee-tpm-hyp/optee_os/lib/libmbedtls/mbedtls/library/bignum.c:1740
    5dac:	2101      	movs	r1, #1
    5dae:	4628      	mov	r0, r5
    5db0:	f7fe ffa7 	bl	4d02 <mbedtls_mpi_lset>
    5db4:	4603      	mov	r3, r0
    5db6:	2800      	cmp	r0, #0
    5db8:	f040 8129 	bne.w	600e <mbedtls_mpi_exp_mod+0x35e>
/home/hsk/Desktop/devel/tee-tpm-hyp/optee_os/lib/libmbedtls/mbedtls/library/bignum.c:1741
    5dbc:	88a1      	ldrh	r1, [r4, #4]
    5dbe:	4628      	mov	r0, r5
    5dc0:	0189      	lsls	r1, r1, #6
    5dc2:	f7ff f889 	bl	4ed8 <mbedtls_mpi_shift_l>
    5dc6:	4603      	mov	r3, r0
    5dc8:	2800      	cmp	r0, #0
    5dca:	f040 8120 	bne.w	600e <mbedtls_mpi_exp_mod+0x35e>
/home/hsk/Desktop/devel/tee-tpm-hyp/optee_os/lib/libmbedtls/mbedtls/library/bignum.c:1742
    5dce:	4622      	mov	r2, r4
    5dd0:	4629      	mov	r1, r5
    5dd2:	4628      	mov	r0, r5
    5dd4:	f7ff fd9f 	bl	5916 <mbedtls_mpi_mod_mpi>
    5dd8:	4603      	mov	r3, r0
    5dda:	2800      	cmp	r0, #0
    5ddc:	f040 8117 	bne.w	600e <mbedtls_mpi_exp_mod+0x35e>
/home/hsk/Desktop/devel/tee-tpm-hyp/optee_os/lib/libmbedtls/mbedtls/library/bignum.c:1744
    5de0:	f8dd 3670 	ldr.w	r3, [sp, #1648]	; 0x670
    5de4:	b123      	cbz	r3, 5df0 <mbedtls_mpi_exp_mod+0x140>
/home/hsk/Desktop/devel/tee-tpm-hyp/optee_os/lib/libmbedtls/mbedtls/library/bignum.c:1745
    5de6:	220c      	movs	r2, #12
    5de8:	4629      	mov	r1, r5
    5dea:	4618      	mov	r0, r3
/home/hsk/Desktop/devel/tee-tpm-hyp/optee_os/lib/libmbedtls/mbedtls/library/bignum.c:1748
    5dec:	f001 fe89 	bl	7b02 <memcpy>
/home/hsk/Desktop/devel/tee-tpm-hyp/optee_os/lib/libmbedtls/mbedtls/library/bignum.c:1753
    5df0:	4621      	mov	r1, r4
    5df2:	4630      	mov	r0, r6
    5df4:	f7ff f92a 	bl	504c <mbedtls_mpi_cmp_mpi>
    5df8:	2800      	cmp	r0, #0
    5dfa:	db7f      	blt.n	5efc <mbedtls_mpi_exp_mod+0x24c>
/home/hsk/Desktop/devel/tee-tpm-hyp/optee_os/lib/libmbedtls/mbedtls/library/bignum.c:1754
    5dfc:	4622      	mov	r2, r4
    5dfe:	4631      	mov	r1, r6
    5e00:	4648      	mov	r0, r9
    5e02:	f7ff fd88 	bl	5916 <mbedtls_mpi_mod_mpi>
    5e06:	4603      	mov	r3, r0
    5e08:	2800      	cmp	r0, #0
    5e0a:	f040 8100 	bne.w	600e <mbedtls_mpi_exp_mod+0x35e>
/home/hsk/Desktop/devel/tee-tpm-hyp/optee_os/lib/libmbedtls/mbedtls/library/bignum.c:1758
    5e0e:	ab0c      	add	r3, sp, #48	; 0x30
    5e10:	9300      	str	r3, [sp, #0]
    5e12:	f10d 0954 	add.w	r9, sp, #84	; 0x54
    5e16:	9304      	str	r3, [sp, #16]
    5e18:	4622      	mov	r2, r4
    5e1a:	f8db 3000 	ldr.w	r3, [fp]
    5e1e:	4629      	mov	r1, r5
    5e20:	4648      	mov	r0, r9
    5e22:	f7ff fed1 	bl	5bc8 <mbedtls_mpi_montmul>
    5e26:	4603      	mov	r3, r0
    5e28:	2800      	cmp	r0, #0
    5e2a:	f040 80f0 	bne.w	600e <mbedtls_mpi_exp_mod+0x35e>
/home/hsk/Desktop/devel/tee-tpm-hyp/optee_os/lib/libmbedtls/mbedtls/library/bignum.c:1763
    5e2e:	4629      	mov	r1, r5
    5e30:	4650      	mov	r0, sl
    5e32:	f7fe feab 	bl	4b8c <mbedtls_mpi_copy>
    5e36:	4603      	mov	r3, r0
    5e38:	2800      	cmp	r0, #0
    5e3a:	f040 80e8 	bne.w	600e <mbedtls_mpi_exp_mod+0x35e>
/home/hsk/Desktop/devel/tee-tpm-hyp/optee_os/lib/libmbedtls/mbedtls/library/bignum.c:1764
    5e3e:	9b04      	ldr	r3, [sp, #16]
    5e40:	4621      	mov	r1, r4
    5e42:	f8db 2000 	ldr.w	r2, [fp]
    5e46:	4650      	mov	r0, sl
    5e48:	f7ff ff20 	bl	5c8c <mbedtls_mpi_montred>
    5e4c:	4603      	mov	r3, r0
    5e4e:	2800      	cmp	r0, #0
    5e50:	f040 80dd 	bne.w	600e <mbedtls_mpi_exp_mod+0x35e>
/home/hsk/Desktop/devel/tee-tpm-hyp/optee_os/lib/libmbedtls/mbedtls/library/bignum.c:1766
    5e54:	9b02      	ldr	r3, [sp, #8]
    5e56:	2b01      	cmp	r3, #1
    5e58:	d155      	bne.n	5f06 <mbedtls_mpi_exp_mod+0x256>
/home/hsk/Desktop/devel/tee-tpm-hyp/optee_os/lib/libmbedtls/mbedtls/library/bignum.c:1791
    5e5a:	9b03      	ldr	r3, [sp, #12]
/home/hsk/Desktop/devel/tee-tpm-hyp/optee_os/lib/libmbedtls/mbedtls/library/bignum.c:1795
    5e5c:	f04f 0800 	mov.w	r8, #0
/home/hsk/Desktop/devel/tee-tpm-hyp/optee_os/lib/libmbedtls/mbedtls/library/bignum.c:1793
    5e60:	4647      	mov	r7, r8
/home/hsk/Desktop/devel/tee-tpm-hyp/optee_os/lib/libmbedtls/mbedtls/library/bignum.c:1792
    5e62:	46c1      	mov	r9, r8
/home/hsk/Desktop/devel/tee-tpm-hyp/optee_os/lib/libmbedtls/mbedtls/library/bignum.c:1794
    5e64:	4645      	mov	r5, r8
/home/hsk/Desktop/devel/tee-tpm-hyp/optee_os/lib/libmbedtls/mbedtls/library/bignum.c:1842
    5e66:	f10d 0b20 	add.w	fp, sp, #32
/home/hsk/Desktop/devel/tee-tpm-hyp/optee_os/lib/libmbedtls/mbedtls/library/bignum.c:1791
    5e6a:	889e      	ldrh	r6, [r3, #4]
/home/hsk/Desktop/devel/tee-tpm-hyp/optee_os/lib/libmbedtls/mbedtls/library/bignum.c:1842
    5e6c:	ab0c      	add	r3, sp, #48	; 0x30
    5e6e:	9306      	str	r3, [sp, #24]
/home/hsk/Desktop/devel/tee-tpm-hyp/optee_os/lib/libmbedtls/mbedtls/library/bignum.c:1847
    5e70:	ab12      	add	r3, sp, #72	; 0x48
    5e72:	9307      	str	r3, [sp, #28]
/home/hsk/Desktop/devel/tee-tpm-hyp/optee_os/lib/libmbedtls/mbedtls/library/bignum.c:1799
    5e74:	f1b9 0f00 	cmp.w	r9, #0
    5e78:	f040 80aa 	bne.w	5fd0 <mbedtls_mpi_exp_mod+0x320>
/home/hsk/Desktop/devel/tee-tpm-hyp/optee_os/lib/libmbedtls/mbedtls/library/bignum.c:1801
    5e7c:	2e00      	cmp	r6, #0
    5e7e:	f040 80a4 	bne.w	5fca <mbedtls_mpi_exp_mod+0x31a>
/home/hsk/Desktop/devel/tee-tpm-hyp/optee_os/lib/libmbedtls/mbedtls/library/bignum.c:1864
    5e82:	9b02      	ldr	r3, [sp, #8]
    5e84:	f04f 0b01 	mov.w	fp, #1
    5e88:	f10d 0820 	add.w	r8, sp, #32
/home/hsk/Desktop/devel/tee-tpm-hyp/optee_os/lib/libmbedtls/mbedtls/library/bignum.c:1860
    5e8c:	f10d 0930 	add.w	r9, sp, #48	; 0x30
/home/hsk/Desktop/devel/tee-tpm-hyp/optee_os/lib/libmbedtls/mbedtls/library/bignum.c:1864
    5e90:	fa0b fb03 	lsl.w	fp, fp, r3
/home/hsk/Desktop/devel/tee-tpm-hyp/optee_os/lib/libmbedtls/mbedtls/library/bignum.c:1865
    5e94:	ab15      	add	r3, sp, #84	; 0x54
    5e96:	9306      	str	r3, [sp, #24]
    5e98:	f8d8 2000 	ldr.w	r2, [r8]
/home/hsk/Desktop/devel/tee-tpm-hyp/optee_os/lib/libmbedtls/mbedtls/library/bignum.c:1858 (discriminator 1)
    5e9c:	42be      	cmp	r6, r7
    5e9e:	f040 8109 	bne.w	60b4 <mbedtls_mpi_exp_mod+0x404>
/home/hsk/Desktop/devel/tee-tpm-hyp/optee_os/lib/libmbedtls/mbedtls/library/bignum.c:1871
    5ea2:	9b04      	ldr	r3, [sp, #16]
    5ea4:	4621      	mov	r1, r4
    5ea6:	4650      	mov	r0, sl
    5ea8:	f7ff fef0 	bl	5c8c <mbedtls_mpi_montred>
    5eac:	4603      	mov	r3, r0
    5eae:	2800      	cmp	r0, #0
    5eb0:	f040 80ad 	bne.w	600e <mbedtls_mpi_exp_mod+0x35e>
/home/hsk/Desktop/devel/tee-tpm-hyp/optee_os/lib/libmbedtls/mbedtls/library/bignum.c:1873
    5eb4:	9a05      	ldr	r2, [sp, #20]
    5eb6:	3201      	adds	r2, #1
    5eb8:	f040 80a9 	bne.w	600e <mbedtls_mpi_exp_mod+0x35e>
/home/hsk/Desktop/devel/tee-tpm-hyp/optee_os/lib/libmbedtls/mbedtls/library/bignum.c:1873 (discriminator 1)
    5ebc:	9a03      	ldr	r2, [sp, #12]
    5ebe:	8892      	ldrh	r2, [r2, #4]
    5ec0:	2a00      	cmp	r2, #0
    5ec2:	f000 80a4 	beq.w	600e <mbedtls_mpi_exp_mod+0x35e>
/home/hsk/Desktop/devel/tee-tpm-hyp/optee_os/lib/libmbedtls/mbedtls/library/bignum.c:1873 (discriminator 2)
    5ec6:	9a03      	ldr	r2, [sp, #12]
    5ec8:	6892      	ldr	r2, [r2, #8]
    5eca:	6812      	ldr	r2, [r2, #0]
    5ecc:	07d2      	lsls	r2, r2, #31
    5ece:	f140 809e 	bpl.w	600e <mbedtls_mpi_exp_mod+0x35e>
/home/hsk/Desktop/devel/tee-tpm-hyp/optee_os/lib/libmbedtls/mbedtls/library/bignum.c:1875
    5ed2:	9b05      	ldr	r3, [sp, #20]
/home/hsk/Desktop/devel/tee-tpm-hyp/optee_os/lib/libmbedtls/mbedtls/library/bignum.c:1876
    5ed4:	4652      	mov	r2, sl
/home/hsk/Desktop/devel/tee-tpm-hyp/optee_os/lib/libmbedtls/mbedtls/library/bignum.c:1875
    5ed6:	f88a 3000 	strb.w	r3, [sl]
/home/hsk/Desktop/devel/tee-tpm-hyp/optee_os/lib/libmbedtls/mbedtls/library/bignum.c:1876
    5eda:	4621      	mov	r1, r4
    5edc:	4650      	mov	r0, sl
    5ede:	f7ff f9af 	bl	5240 <mbedtls_mpi_add_mpi>
    5ee2:	4603      	mov	r3, r0
/home/hsk/Desktop/devel/tee-tpm-hyp/optee_os/lib/libmbedtls/mbedtls/library/bignum.c:1879
    5ee4:	e093      	b.n	600e <mbedtls_mpi_exp_mod+0x35e>
/home/hsk/Desktop/devel/tee-tpm-hyp/optee_os/lib/libmbedtls/mbedtls/library/bignum.c:1713
    5ee6:	2306      	movs	r3, #6
    5ee8:	e72b      	b.n	5d42 <mbedtls_mpi_exp_mod+0x92>
    5eea:	2305      	movs	r3, #5
    5eec:	e729      	b.n	5d42 <mbedtls_mpi_exp_mod+0x92>
    5eee:	2304      	movs	r3, #4
    5ef0:	e727      	b.n	5d42 <mbedtls_mpi_exp_mod+0x92>
/home/hsk/Desktop/devel/tee-tpm-hyp/optee_os/lib/libmbedtls/mbedtls/library/bignum.c:1748
    5ef2:	220c      	movs	r2, #12
    5ef4:	f8dd 1670 	ldr.w	r1, [sp, #1648]	; 0x670
    5ef8:	4628      	mov	r0, r5
    5efa:	e777      	b.n	5dec <mbedtls_mpi_exp_mod+0x13c>
/home/hsk/Desktop/devel/tee-tpm-hyp/optee_os/lib/libmbedtls/mbedtls/library/bignum.c:1756
    5efc:	4631      	mov	r1, r6
    5efe:	4648      	mov	r0, r9
    5f00:	f7fe fe44 	bl	4b8c <mbedtls_mpi_copy>
    5f04:	e77f      	b.n	5e06 <mbedtls_mpi_exp_mod+0x156>
    5f06:	9b02      	ldr	r3, [sp, #8]
    5f08:	250c      	movs	r5, #12
/home/hsk/Desktop/devel/tee-tpm-hyp/optee_os/lib/libmbedtls/mbedtls/library/bignum.c:1773
    5f0a:	88a1      	ldrh	r1, [r4, #4]
    5f0c:	2601      	movs	r6, #1
    5f0e:	f103 38ff 	add.w	r8, r3, #4294967295	; 0xffffffff
    5f12:	9b06      	ldr	r3, [sp, #24]
    5f14:	3101      	adds	r1, #1
    5f16:	fa05 f508 	lsl.w	r5, r5, r8
    5f1a:	442b      	add	r3, r5
    5f1c:	fa06 f608 	lsl.w	r6, r6, r8
    5f20:	4618      	mov	r0, r3
    5f22:	461f      	mov	r7, r3
    5f24:	f7fe fd78 	bl	4a18 <mbedtls_mpi_grow>
    5f28:	4603      	mov	r3, r0
    5f2a:	2800      	cmp	r0, #0
    5f2c:	d16f      	bne.n	600e <mbedtls_mpi_exp_mod+0x35e>
/home/hsk/Desktop/devel/tee-tpm-hyp/optee_os/lib/libmbedtls/mbedtls/library/bignum.c:1774
    5f2e:	4649      	mov	r1, r9
    5f30:	4638      	mov	r0, r7
    5f32:	f7fe fe2b 	bl	4b8c <mbedtls_mpi_copy>
    5f36:	4603      	mov	r3, r0
    5f38:	2800      	cmp	r0, #0
    5f3a:	d168      	bne.n	600e <mbedtls_mpi_exp_mod+0x35e>
/home/hsk/Desktop/devel/tee-tpm-hyp/optee_os/lib/libmbedtls/mbedtls/library/bignum.c:1777
    5f3c:	9b04      	ldr	r3, [sp, #16]
/home/hsk/Desktop/devel/tee-tpm-hyp/optee_os/lib/libmbedtls/mbedtls/library/bignum.c:1776
    5f3e:	4681      	mov	r9, r0
/home/hsk/Desktop/devel/tee-tpm-hyp/optee_os/lib/libmbedtls/mbedtls/library/bignum.c:1777
    5f40:	f10d 0b20 	add.w	fp, sp, #32
    5f44:	9306      	str	r3, [sp, #24]
    5f46:	9b06      	ldr	r3, [sp, #24]
    5f48:	4622      	mov	r2, r4
    5f4a:	9300      	str	r3, [sp, #0]
    5f4c:	4639      	mov	r1, r7
    5f4e:	4638      	mov	r0, r7
    5f50:	f8db 3000 	ldr.w	r3, [fp]
    5f54:	f7ff fe38 	bl	5bc8 <mbedtls_mpi_montmul>
    5f58:	4603      	mov	r3, r0
    5f5a:	2800      	cmp	r0, #0
    5f5c:	d157      	bne.n	600e <mbedtls_mpi_exp_mod+0x35e>
/home/hsk/Desktop/devel/tee-tpm-hyp/optee_os/lib/libmbedtls/mbedtls/library/bignum.c:1776 (discriminator 2)
    5f5e:	f109 0901 	add.w	r9, r9, #1
    5f62:	45c1      	cmp	r9, r8
    5f64:	d3ef      	bcc.n	5f46 <mbedtls_mpi_exp_mod+0x296>
/home/hsk/Desktop/devel/tee-tpm-hyp/optee_os/lib/libmbedtls/mbedtls/library/bignum.c:1782
    5f66:	9b02      	ldr	r3, [sp, #8]
    5f68:	2701      	movs	r7, #1
    5f6a:	3601      	adds	r6, #1
/home/hsk/Desktop/devel/tee-tpm-hyp/optee_os/lib/libmbedtls/mbedtls/library/bignum.c:1787
    5f6c:	f10d 0820 	add.w	r8, sp, #32
    5f70:	f10d 0954 	add.w	r9, sp, #84	; 0x54
/home/hsk/Desktop/devel/tee-tpm-hyp/optee_os/lib/libmbedtls/mbedtls/library/bignum.c:1782
    5f74:	409f      	lsls	r7, r3
    5f76:	f50d 63c9 	add.w	r3, sp, #1608	; 0x648
    5f7a:	441d      	add	r5, r3
    5f7c:	f2a5 55f4 	subw	r5, r5, #1524	; 0x5f4
/home/hsk/Desktop/devel/tee-tpm-hyp/optee_os/lib/libmbedtls/mbedtls/library/bignum.c:1782 (discriminator 1)
    5f80:	42b7      	cmp	r7, r6
    5f82:	f67f af6a 	bls.w	5e5a <mbedtls_mpi_exp_mod+0x1aa>
/home/hsk/Desktop/devel/tee-tpm-hyp/optee_os/lib/libmbedtls/mbedtls/library/bignum.c:1784
    5f86:	88a1      	ldrh	r1, [r4, #4]
    5f88:	4628      	mov	r0, r5
    5f8a:	3101      	adds	r1, #1
    5f8c:	f7fe fd44 	bl	4a18 <mbedtls_mpi_grow>
    5f90:	4603      	mov	r3, r0
    5f92:	2800      	cmp	r0, #0
    5f94:	d13b      	bne.n	600e <mbedtls_mpi_exp_mod+0x35e>
/home/hsk/Desktop/devel/tee-tpm-hyp/optee_os/lib/libmbedtls/mbedtls/library/bignum.c:1785
    5f96:	f1a5 010c 	sub.w	r1, r5, #12
    5f9a:	4628      	mov	r0, r5
    5f9c:	f7fe fdf6 	bl	4b8c <mbedtls_mpi_copy>
    5fa0:	4603      	mov	r3, r0
    5fa2:	bba0      	cbnz	r0, 600e <mbedtls_mpi_exp_mod+0x35e>
/home/hsk/Desktop/devel/tee-tpm-hyp/optee_os/lib/libmbedtls/mbedtls/library/bignum.c:1787
    5fa4:	9b04      	ldr	r3, [sp, #16]
    5fa6:	4628      	mov	r0, r5
    5fa8:	9300      	str	r3, [sp, #0]
    5faa:	4622      	mov	r2, r4
    5fac:	4649      	mov	r1, r9
    5fae:	350c      	adds	r5, #12
    5fb0:	f8d8 3000 	ldr.w	r3, [r8]
    5fb4:	f7ff fe08 	bl	5bc8 <mbedtls_mpi_montmul>
    5fb8:	4603      	mov	r3, r0
    5fba:	bb40      	cbnz	r0, 600e <mbedtls_mpi_exp_mod+0x35e>
/home/hsk/Desktop/devel/tee-tpm-hyp/optee_os/lib/libmbedtls/mbedtls/library/bignum.c:1782 (discriminator 2)
    5fbc:	3601      	adds	r6, #1
    5fbe:	e7df      	b.n	5f80 <mbedtls_mpi_exp_mod+0x2d0>
    5fc0:	4690      	mov	r8, r2
    5fc2:	e757      	b.n	5e74 <mbedtls_mpi_exp_mod+0x1c4>
/home/hsk/Desktop/devel/tee-tpm-hyp/optee_os/lib/libmbedtls/mbedtls/library/bignum.c:1831
    5fc4:	f04f 0802 	mov.w	r8, #2
    5fc8:	e754      	b.n	5e74 <mbedtls_mpi_exp_mod+0x1c4>
/home/hsk/Desktop/devel/tee-tpm-hyp/optee_os/lib/libmbedtls/mbedtls/library/bignum.c:1804
    5fca:	3e01      	subs	r6, #1
/home/hsk/Desktop/devel/tee-tpm-hyp/optee_os/lib/libmbedtls/mbedtls/library/bignum.c:1806
    5fcc:	f04f 0920 	mov.w	r9, #32
/home/hsk/Desktop/devel/tee-tpm-hyp/optee_os/lib/libmbedtls/mbedtls/library/bignum.c:1811
    5fd0:	9b03      	ldr	r3, [sp, #12]
/home/hsk/Desktop/devel/tee-tpm-hyp/optee_os/lib/libmbedtls/mbedtls/library/bignum.c:1809
    5fd2:	f109 39ff 	add.w	r9, r9, #4294967295	; 0xffffffff
/home/hsk/Desktop/devel/tee-tpm-hyp/optee_os/lib/libmbedtls/mbedtls/library/bignum.c:1811
    5fd6:	689b      	ldr	r3, [r3, #8]
    5fd8:	f853 3026 	ldr.w	r3, [r3, r6, lsl #2]
    5fdc:	fa23 f309 	lsr.w	r3, r3, r9
    5fe0:	f003 0301 	and.w	r3, r3, #1
/home/hsk/Desktop/devel/tee-tpm-hyp/optee_os/lib/libmbedtls/mbedtls/library/bignum.c:1816
    5fe4:	ea58 0203 	orrs.w	r2, r8, r3
    5fe8:	d0ea      	beq.n	5fc0 <mbedtls_mpi_exp_mod+0x310>
/home/hsk/Desktop/devel/tee-tpm-hyp/optee_os/lib/libmbedtls/mbedtls/library/bignum.c:1819
    5fea:	2b00      	cmp	r3, #0
    5fec:	d135      	bne.n	605a <mbedtls_mpi_exp_mod+0x3aa>
/home/hsk/Desktop/devel/tee-tpm-hyp/optee_os/lib/libmbedtls/mbedtls/library/bignum.c:1819 (discriminator 1)
    5fee:	f1b8 0f01 	cmp.w	r8, #1
    5ff2:	d132      	bne.n	605a <mbedtls_mpi_exp_mod+0x3aa>
/home/hsk/Desktop/devel/tee-tpm-hyp/optee_os/lib/libmbedtls/mbedtls/library/bignum.c:1824
    5ff4:	9b06      	ldr	r3, [sp, #24]
    5ff6:	4622      	mov	r2, r4
    5ff8:	9300      	str	r3, [sp, #0]
    5ffa:	4651      	mov	r1, sl
    5ffc:	4650      	mov	r0, sl
    5ffe:	f8db 3000 	ldr.w	r3, [fp]
    6002:	f7ff fde1 	bl	5bc8 <mbedtls_mpi_montmul>
    6006:	4603      	mov	r3, r0
    6008:	2800      	cmp	r0, #0
    600a:	f43f af33 	beq.w	5e74 <mbedtls_mpi_exp_mod+0x1c4>
/home/hsk/Desktop/devel/tee-tpm-hyp/optee_os/lib/libmbedtls/mbedtls/library/bignum.c:1881
    600e:	9a02      	ldr	r2, [sp, #8]
/home/hsk/Desktop/devel/tee-tpm-hyp/optee_os/lib/libmbedtls/mbedtls/library/bignum.c:1882
    6010:	260c      	movs	r6, #12
/home/hsk/Desktop/devel/tee-tpm-hyp/optee_os/lib/libmbedtls/mbedtls/library/bignum.c:1881
    6012:	9902      	ldr	r1, [sp, #8]
/home/hsk/Desktop/devel/tee-tpm-hyp/optee_os/lib/libmbedtls/mbedtls/library/bignum.c:1882
    6014:	af12      	add	r7, sp, #72	; 0x48
/home/hsk/Desktop/devel/tee-tpm-hyp/optee_os/lib/libmbedtls/mbedtls/library/bignum.c:1881
    6016:	1e54      	subs	r4, r2, #1
    6018:	2201      	movs	r2, #1
    601a:	fa02 f404 	lsl.w	r4, r2, r4
    601e:	fa02 f501 	lsl.w	r5, r2, r1
    6022:	9302      	str	r3, [sp, #8]
/home/hsk/Desktop/devel/tee-tpm-hyp/optee_os/lib/libmbedtls/mbedtls/library/bignum.c:1881 (discriminator 1)
    6024:	42a5      	cmp	r5, r4
    6026:	d863      	bhi.n	60f0 <mbedtls_mpi_exp_mod+0x440>
/home/hsk/Desktop/devel/tee-tpm-hyp/optee_os/lib/libmbedtls/mbedtls/library/bignum.c:1884
    6028:	a815      	add	r0, sp, #84	; 0x54
    602a:	f7fe fcce 	bl	49ca <mbedtls_mpi_free>
    602e:	a80c      	add	r0, sp, #48	; 0x30
    6030:	f7fe fccb 	bl	49ca <mbedtls_mpi_free>
    6034:	a80f      	add	r0, sp, #60	; 0x3c
    6036:	f7fe fcc8 	bl	49ca <mbedtls_mpi_free>
/home/hsk/Desktop/devel/tee-tpm-hyp/optee_os/lib/libmbedtls/mbedtls/library/bignum.c:1886
    603a:	f8dd 2670 	ldr.w	r2, [sp, #1648]	; 0x670
    603e:	9b02      	ldr	r3, [sp, #8]
    6040:	b10a      	cbz	r2, 6046 <mbedtls_mpi_exp_mod+0x396>
/home/hsk/Desktop/devel/tee-tpm-hyp/optee_os/lib/libmbedtls/mbedtls/library/bignum.c:1886 (discriminator 1)
    6042:	6892      	ldr	r2, [r2, #8]
    6044:	b922      	cbnz	r2, 6050 <mbedtls_mpi_exp_mod+0x3a0>
/home/hsk/Desktop/devel/tee-tpm-hyp/optee_os/lib/libmbedtls/mbedtls/library/bignum.c:1887
    6046:	a809      	add	r0, sp, #36	; 0x24
    6048:	9302      	str	r3, [sp, #8]
    604a:	f7fe fcbe 	bl	49ca <mbedtls_mpi_free>
    604e:	9b02      	ldr	r3, [sp, #8]
/home/hsk/Desktop/devel/tee-tpm-hyp/optee_os/lib/libmbedtls/mbedtls/library/bignum.c:1890
    6050:	4618      	mov	r0, r3
    6052:	f20d 6d4c 	addw	sp, sp, #1612	; 0x64c
    6056:	e8bd 8ff0 	ldmia.w	sp!, {r4, r5, r6, r7, r8, r9, sl, fp, pc}
/home/hsk/Desktop/devel/tee-tpm-hyp/optee_os/lib/libmbedtls/mbedtls/library/bignum.c:1834
    605a:	9a02      	ldr	r2, [sp, #8]
/home/hsk/Desktop/devel/tee-tpm-hyp/optee_os/lib/libmbedtls/mbedtls/library/bignum.c:1833
    605c:	3701      	adds	r7, #1
/home/hsk/Desktop/devel/tee-tpm-hyp/optee_os/lib/libmbedtls/mbedtls/library/bignum.c:1834
    605e:	1bd2      	subs	r2, r2, r7
    6060:	4093      	lsls	r3, r2
    6062:	431d      	orrs	r5, r3
/home/hsk/Desktop/devel/tee-tpm-hyp/optee_os/lib/libmbedtls/mbedtls/library/bignum.c:1836
    6064:	9b02      	ldr	r3, [sp, #8]
    6066:	42bb      	cmp	r3, r7
    6068:	d1ac      	bne.n	5fc4 <mbedtls_mpi_exp_mod+0x314>
/home/hsk/Desktop/devel/tee-tpm-hyp/optee_os/lib/libmbedtls/mbedtls/library/bignum.c:1841
    606a:	2700      	movs	r7, #0
/home/hsk/Desktop/devel/tee-tpm-hyp/optee_os/lib/libmbedtls/mbedtls/library/bignum.c:1842
    606c:	9b06      	ldr	r3, [sp, #24]
    606e:	4622      	mov	r2, r4
    6070:	9300      	str	r3, [sp, #0]
    6072:	4651      	mov	r1, sl
    6074:	4650      	mov	r0, sl
    6076:	f8db 3000 	ldr.w	r3, [fp]
    607a:	f7ff fda5 	bl	5bc8 <mbedtls_mpi_montmul>
    607e:	4603      	mov	r3, r0
    6080:	2800      	cmp	r0, #0
    6082:	d1c4      	bne.n	600e <mbedtls_mpi_exp_mod+0x35e>
/home/hsk/Desktop/devel/tee-tpm-hyp/optee_os/lib/libmbedtls/mbedtls/library/bignum.c:1841 (discriminator 2)
    6084:	9b02      	ldr	r3, [sp, #8]
    6086:	3701      	adds	r7, #1
    6088:	42bb      	cmp	r3, r7
    608a:	d8ef      	bhi.n	606c <mbedtls_mpi_exp_mod+0x3bc>
/home/hsk/Desktop/devel/tee-tpm-hyp/optee_os/lib/libmbedtls/mbedtls/library/bignum.c:1847
    608c:	9807      	ldr	r0, [sp, #28]
    608e:	210c      	movs	r1, #12
    6090:	9b06      	ldr	r3, [sp, #24]
    6092:	4622      	mov	r2, r4
    6094:	9300      	str	r3, [sp, #0]
    6096:	fb01 0105 	mla	r1, r1, r5, r0
    609a:	f8db 3000 	ldr.w	r3, [fp]
    609e:	4650      	mov	r0, sl
    60a0:	f7ff fd92 	bl	5bc8 <mbedtls_mpi_montmul>
    60a4:	4603      	mov	r3, r0
    60a6:	2800      	cmp	r0, #0
    60a8:	d1b1      	bne.n	600e <mbedtls_mpi_exp_mod+0x35e>
/home/hsk/Desktop/devel/tee-tpm-hyp/optee_os/lib/libmbedtls/mbedtls/library/bignum.c:1849
    60aa:	f04f 0801 	mov.w	r8, #1
/home/hsk/Desktop/devel/tee-tpm-hyp/optee_os/lib/libmbedtls/mbedtls/library/bignum.c:1850
    60ae:	4605      	mov	r5, r0
/home/hsk/Desktop/devel/tee-tpm-hyp/optee_os/lib/libmbedtls/mbedtls/library/bignum.c:1851
    60b0:	4607      	mov	r7, r0
    60b2:	e6df      	b.n	5e74 <mbedtls_mpi_exp_mod+0x1c4>
/home/hsk/Desktop/devel/tee-tpm-hyp/optee_os/lib/libmbedtls/mbedtls/library/bignum.c:1860
    60b4:	4613      	mov	r3, r2
    60b6:	f8cd 9000 	str.w	r9, [sp]
    60ba:	4622      	mov	r2, r4
    60bc:	4651      	mov	r1, sl
    60be:	4650      	mov	r0, sl
    60c0:	f7ff fd82 	bl	5bc8 <mbedtls_mpi_montmul>
    60c4:	4603      	mov	r3, r0
    60c6:	2800      	cmp	r0, #0
    60c8:	d1a1      	bne.n	600e <mbedtls_mpi_exp_mod+0x35e>
/home/hsk/Desktop/devel/tee-tpm-hyp/optee_os/lib/libmbedtls/mbedtls/library/bignum.c:1862
    60ca:	006d      	lsls	r5, r5, #1
/home/hsk/Desktop/devel/tee-tpm-hyp/optee_os/lib/libmbedtls/mbedtls/library/bignum.c:1864
    60cc:	ea1b 0f05 	tst.w	fp, r5
    60d0:	d101      	bne.n	60d6 <mbedtls_mpi_exp_mod+0x426>
/home/hsk/Desktop/devel/tee-tpm-hyp/optee_os/lib/libmbedtls/mbedtls/library/bignum.c:1858
    60d2:	3601      	adds	r6, #1
    60d4:	e6e0      	b.n	5e98 <mbedtls_mpi_exp_mod+0x1e8>
/home/hsk/Desktop/devel/tee-tpm-hyp/optee_os/lib/libmbedtls/mbedtls/library/bignum.c:1865
    60d6:	f8cd 9000 	str.w	r9, [sp]
    60da:	4622      	mov	r2, r4
    60dc:	9906      	ldr	r1, [sp, #24]
    60de:	4650      	mov	r0, sl
    60e0:	f8d8 3000 	ldr.w	r3, [r8]
    60e4:	f7ff fd70 	bl	5bc8 <mbedtls_mpi_montmul>
    60e8:	4603      	mov	r3, r0
    60ea:	2800      	cmp	r0, #0
    60ec:	d0f1      	beq.n	60d2 <mbedtls_mpi_exp_mod+0x422>
    60ee:	e78e      	b.n	600e <mbedtls_mpi_exp_mod+0x35e>
/home/hsk/Desktop/devel/tee-tpm-hyp/optee_os/lib/libmbedtls/mbedtls/library/bignum.c:1882 (discriminator 3)
    60f0:	fb06 7004 	mla	r0, r6, r4, r7
/home/hsk/Desktop/devel/tee-tpm-hyp/optee_os/lib/libmbedtls/mbedtls/library/bignum.c:1881 (discriminator 3)
    60f4:	3401      	adds	r4, #1
/home/hsk/Desktop/devel/tee-tpm-hyp/optee_os/lib/libmbedtls/mbedtls/library/bignum.c:1882 (discriminator 3)
    60f6:	f7fe fc68 	bl	49ca <mbedtls_mpi_free>
/home/hsk/Desktop/devel/tee-tpm-hyp/optee_os/lib/libmbedtls/mbedtls/library/bignum.c:1881 (discriminator 3)
    60fa:	9b02      	ldr	r3, [sp, #8]
    60fc:	e791      	b.n	6022 <mbedtls_mpi_exp_mod+0x372>
/home/hsk/Desktop/devel/tee-tpm-hyp/optee_os/lib/libmbedtls/mbedtls/library/bignum.c:1698
    60fe:	f06f 0303 	mvn.w	r3, #3
    6102:	e7a5      	b.n	6050 <mbedtls_mpi_exp_mod+0x3a0>

00006104 <mbedtls_mpi_gcd>:
mbedtls_mpi_gcd():
/home/hsk/Desktop/devel/tee-tpm-hyp/optee_os/lib/libmbedtls/mbedtls/library/bignum.c:1896
    6104:	e92d 43f0 	stmdb	sp!, {r4, r5, r6, r7, r8, r9, lr}
    6108:	4681      	mov	r9, r0
    610a:	4617      	mov	r7, r2
    610c:	b08b      	sub	sp, #44	; 0x2c
/home/hsk/Desktop/devel/tee-tpm-hyp/optee_os/lib/libmbedtls/mbedtls/library/bignum.c:1901
    610e:	f10d 0804 	add.w	r8, sp, #4
    6112:	ae04      	add	r6, sp, #16
    6114:	4640      	mov	r0, r8
/home/hsk/Desktop/devel/tee-tpm-hyp/optee_os/lib/libmbedtls/mbedtls/library/bignum.c:1902
    6116:	ad07      	add	r5, sp, #28
/home/hsk/Desktop/devel/tee-tpm-hyp/optee_os/lib/libmbedtls/mbedtls/library/bignum.c:1901
    6118:	f7fe fc3c 	bl	4994 <mbedtls_mpi_init_mempool>
    611c:	4630      	mov	r0, r6
    611e:	f7fe fc39 	bl	4994 <mbedtls_mpi_init_mempool>
/home/hsk/Desktop/devel/tee-tpm-hyp/optee_os/lib/libmbedtls/mbedtls/library/bignum.c:1902
    6122:	4628      	mov	r0, r5
    6124:	f7fe fc36 	bl	4994 <mbedtls_mpi_init_mempool>
/home/hsk/Desktop/devel/tee-tpm-hyp/optee_os/lib/libmbedtls/mbedtls/library/bignum.c:1904
    6128:	4630      	mov	r0, r6
    612a:	f7fe fd2f 	bl	4b8c <mbedtls_mpi_copy>
    612e:	4604      	mov	r4, r0
    6130:	2800      	cmp	r0, #0
    6132:	d159      	bne.n	61e8 <mbedtls_mpi_gcd+0xe4>
/home/hsk/Desktop/devel/tee-tpm-hyp/optee_os/lib/libmbedtls/mbedtls/library/bignum.c:1905
    6134:	4639      	mov	r1, r7
    6136:	4628      	mov	r0, r5
    6138:	f7fe fd28 	bl	4b8c <mbedtls_mpi_copy>
    613c:	4604      	mov	r4, r0
    613e:	2800      	cmp	r0, #0
    6140:	d152      	bne.n	61e8 <mbedtls_mpi_gcd+0xe4>
/home/hsk/Desktop/devel/tee-tpm-hyp/optee_os/lib/libmbedtls/mbedtls/library/bignum.c:1907
    6142:	4630      	mov	r0, r6
    6144:	f7fe fe32 	bl	4dac <mbedtls_mpi_lsb>
    6148:	4607      	mov	r7, r0
/home/hsk/Desktop/devel/tee-tpm-hyp/optee_os/lib/libmbedtls/mbedtls/library/bignum.c:1908
    614a:	4628      	mov	r0, r5
    614c:	f7fe fe2e 	bl	4dac <mbedtls_mpi_lsb>
    6150:	4287      	cmp	r7, r0
    6152:	bf28      	it	cs
    6154:	4607      	movcs	r7, r0
/home/hsk/Desktop/devel/tee-tpm-hyp/optee_os/lib/libmbedtls/mbedtls/library/bignum.c:1913
    6156:	4630      	mov	r0, r6
    6158:	4639      	mov	r1, r7
    615a:	f7fe ff05 	bl	4f68 <mbedtls_mpi_shift_r>
    615e:	4604      	mov	r4, r0
    6160:	2800      	cmp	r0, #0
    6162:	d141      	bne.n	61e8 <mbedtls_mpi_gcd+0xe4>
/home/hsk/Desktop/devel/tee-tpm-hyp/optee_os/lib/libmbedtls/mbedtls/library/bignum.c:1914
    6164:	4639      	mov	r1, r7
    6166:	4628      	mov	r0, r5
    6168:	f7fe fefe 	bl	4f68 <mbedtls_mpi_shift_r>
    616c:	4604      	mov	r4, r0
    616e:	bbd8      	cbnz	r0, 61e8 <mbedtls_mpi_gcd+0xe4>
/home/hsk/Desktop/devel/tee-tpm-hyp/optee_os/lib/libmbedtls/mbedtls/library/bignum.c:1916
    6170:	2301      	movs	r3, #1
    6172:	f88d 301c 	strb.w	r3, [sp, #28]
    6176:	f88d 3010 	strb.w	r3, [sp, #16]
/home/hsk/Desktop/devel/tee-tpm-hyp/optee_os/lib/libmbedtls/mbedtls/library/bignum.c:1918
    617a:	2100      	movs	r1, #0
    617c:	4630      	mov	r0, r6
    617e:	f7fe ffae 	bl	50de <mbedtls_mpi_cmp_int>
    6182:	b958      	cbnz	r0, 619c <mbedtls_mpi_gcd+0x98>
/home/hsk/Desktop/devel/tee-tpm-hyp/optee_os/lib/libmbedtls/mbedtls/library/bignum.c:1935
    6184:	4639      	mov	r1, r7
    6186:	4628      	mov	r0, r5
    6188:	f7fe fea6 	bl	4ed8 <mbedtls_mpi_shift_l>
    618c:	4604      	mov	r4, r0
    618e:	bb58      	cbnz	r0, 61e8 <mbedtls_mpi_gcd+0xe4>
/home/hsk/Desktop/devel/tee-tpm-hyp/optee_os/lib/libmbedtls/mbedtls/library/bignum.c:1936
    6190:	4629      	mov	r1, r5
    6192:	4648      	mov	r0, r9
    6194:	f7fe fcfa 	bl	4b8c <mbedtls_mpi_copy>
    6198:	4604      	mov	r4, r0
/home/hsk/Desktop/devel/tee-tpm-hyp/optee_os/lib/libmbedtls/mbedtls/library/bignum.c:1938
    619a:	e025      	b.n	61e8 <mbedtls_mpi_gcd+0xe4>
/home/hsk/Desktop/devel/tee-tpm-hyp/optee_os/lib/libmbedtls/mbedtls/library/bignum.c:1920
    619c:	4630      	mov	r0, r6
    619e:	f7fe fe05 	bl	4dac <mbedtls_mpi_lsb>
    61a2:	4601      	mov	r1, r0
    61a4:	4630      	mov	r0, r6
    61a6:	f7fe fedf 	bl	4f68 <mbedtls_mpi_shift_r>
    61aa:	4604      	mov	r4, r0
    61ac:	b9e0      	cbnz	r0, 61e8 <mbedtls_mpi_gcd+0xe4>
/home/hsk/Desktop/devel/tee-tpm-hyp/optee_os/lib/libmbedtls/mbedtls/library/bignum.c:1921
    61ae:	4628      	mov	r0, r5
    61b0:	f7fe fdfc 	bl	4dac <mbedtls_mpi_lsb>
    61b4:	4601      	mov	r1, r0
    61b6:	4628      	mov	r0, r5
    61b8:	f7fe fed6 	bl	4f68 <mbedtls_mpi_shift_r>
    61bc:	4604      	mov	r4, r0
    61be:	b998      	cbnz	r0, 61e8 <mbedtls_mpi_gcd+0xe4>
/home/hsk/Desktop/devel/tee-tpm-hyp/optee_os/lib/libmbedtls/mbedtls/library/bignum.c:1923
    61c0:	4629      	mov	r1, r5
    61c2:	4630      	mov	r0, r6
    61c4:	f7fe ff42 	bl	504c <mbedtls_mpi_cmp_mpi>
    61c8:	2800      	cmp	r0, #0
    61ca:	db1a      	blt.n	6202 <mbedtls_mpi_gcd+0xfe>
/home/hsk/Desktop/devel/tee-tpm-hyp/optee_os/lib/libmbedtls/mbedtls/library/bignum.c:1925
    61cc:	462a      	mov	r2, r5
    61ce:	4631      	mov	r1, r6
    61d0:	4630      	mov	r0, r6
    61d2:	f7fe fff8 	bl	51c6 <mbedtls_mpi_sub_abs>
    61d6:	4604      	mov	r4, r0
    61d8:	b930      	cbnz	r0, 61e8 <mbedtls_mpi_gcd+0xe4>
/home/hsk/Desktop/devel/tee-tpm-hyp/optee_os/lib/libmbedtls/mbedtls/library/bignum.c:1926
    61da:	2101      	movs	r1, #1
    61dc:	4630      	mov	r0, r6
/home/hsk/Desktop/devel/tee-tpm-hyp/optee_os/lib/libmbedtls/mbedtls/library/bignum.c:1931
    61de:	f7fe fec3 	bl	4f68 <mbedtls_mpi_shift_r>
    61e2:	4604      	mov	r4, r0
    61e4:	2800      	cmp	r0, #0
    61e6:	d0c8      	beq.n	617a <mbedtls_mpi_gcd+0x76>
/home/hsk/Desktop/devel/tee-tpm-hyp/optee_os/lib/libmbedtls/mbedtls/library/bignum.c:1940
    61e8:	4640      	mov	r0, r8
    61ea:	f7fe fbee 	bl	49ca <mbedtls_mpi_free>
    61ee:	4630      	mov	r0, r6
    61f0:	f7fe fbeb 	bl	49ca <mbedtls_mpi_free>
    61f4:	4628      	mov	r0, r5
    61f6:	f7fe fbe8 	bl	49ca <mbedtls_mpi_free>
/home/hsk/Desktop/devel/tee-tpm-hyp/optee_os/lib/libmbedtls/mbedtls/library/bignum.c:1943
    61fa:	4620      	mov	r0, r4
    61fc:	b00b      	add	sp, #44	; 0x2c
    61fe:	e8bd 83f0 	ldmia.w	sp!, {r4, r5, r6, r7, r8, r9, pc}
/home/hsk/Desktop/devel/tee-tpm-hyp/optee_os/lib/libmbedtls/mbedtls/library/bignum.c:1930
    6202:	4632      	mov	r2, r6
    6204:	4628      	mov	r0, r5
    6206:	f7fe ffde 	bl	51c6 <mbedtls_mpi_sub_abs>
    620a:	4604      	mov	r4, r0
    620c:	2800      	cmp	r0, #0
    620e:	d1eb      	bne.n	61e8 <mbedtls_mpi_gcd+0xe4>
/home/hsk/Desktop/devel/tee-tpm-hyp/optee_os/lib/libmbedtls/mbedtls/library/bignum.c:1931
    6210:	2101      	movs	r1, #1
    6212:	4628      	mov	r0, r5
    6214:	e7e3      	b.n	61de <mbedtls_mpi_gcd+0xda>

00006216 <mbedtls_mpi_fill_random>:
mbedtls_mpi_fill_random():
/home/hsk/Desktop/devel/tee-tpm-hyp/optee_os/lib/libmbedtls/mbedtls/library/bignum.c:1955
    6216:	b5f0      	push	{r4, r5, r6, r7, lr}
/home/hsk/Desktop/devel/tee-tpm-hyp/optee_os/lib/libmbedtls/mbedtls/library/bignum.c:1959
    6218:	f5b1 6f80 	cmp.w	r1, #1024	; 0x400
/home/hsk/Desktop/devel/tee-tpm-hyp/optee_os/lib/libmbedtls/mbedtls/library/bignum.c:1955
    621c:	4606      	mov	r6, r0
    621e:	f2ad 4d04 	subw	sp, sp, #1028	; 0x404
    6222:	460c      	mov	r4, r1
    6224:	4617      	mov	r7, r2
/home/hsk/Desktop/devel/tee-tpm-hyp/optee_os/lib/libmbedtls/mbedtls/library/bignum.c:1959
    6226:	d80d      	bhi.n	6244 <mbedtls_mpi_fill_random+0x2e>
/home/hsk/Desktop/devel/tee-tpm-hyp/optee_os/lib/libmbedtls/mbedtls/library/bignum.c:1962
    6228:	466d      	mov	r5, sp
    622a:	460a      	mov	r2, r1
    622c:	4618      	mov	r0, r3
    622e:	4629      	mov	r1, r5
    6230:	47b8      	blx	r7
    6232:	b920      	cbnz	r0, 623e <mbedtls_mpi_fill_random+0x28>
/home/hsk/Desktop/devel/tee-tpm-hyp/optee_os/lib/libmbedtls/mbedtls/library/bignum.c:1963
    6234:	4622      	mov	r2, r4
    6236:	4629      	mov	r1, r5
    6238:	4630      	mov	r0, r6
    623a:	f7fe fdf7 	bl	4e2c <mbedtls_mpi_read_binary>
/home/hsk/Desktop/devel/tee-tpm-hyp/optee_os/lib/libmbedtls/mbedtls/library/bignum.c:1967
    623e:	f20d 4d04 	addw	sp, sp, #1028	; 0x404
    6242:	bdf0      	pop	{r4, r5, r6, r7, pc}
/home/hsk/Desktop/devel/tee-tpm-hyp/optee_os/lib/libmbedtls/mbedtls/library/bignum.c:1960
    6244:	f06f 0003 	mvn.w	r0, #3
    6248:	e7f9      	b.n	623e <mbedtls_mpi_fill_random+0x28>

0000624a <mpi_miller_rabin>:
mpi_miller_rabin():
/home/hsk/Desktop/devel/tee-tpm-hyp/optee_os/lib/libmbedtls/mbedtls/library/bignum.c:2132
    624a:	e92d 4ff0 	stmdb	sp!, {r4, r5, r6, r7, r8, r9, sl, fp, lr}
    624e:	4607      	mov	r7, r0
    6250:	b097      	sub	sp, #92	; 0x5c
/home/hsk/Desktop/devel/tee-tpm-hyp/optee_os/lib/libmbedtls/mbedtls/library/bignum.c:2137
    6252:	ad07      	add	r5, sp, #28
    6254:	f10d 0828 	add.w	r8, sp, #40	; 0x28
    6258:	4628      	mov	r0, r5
/home/hsk/Desktop/devel/tee-tpm-hyp/optee_os/lib/libmbedtls/mbedtls/library/bignum.c:2132
    625a:	9103      	str	r1, [sp, #12]
    625c:	9204      	str	r2, [sp, #16]
/home/hsk/Desktop/devel/tee-tpm-hyp/optee_os/lib/libmbedtls/mbedtls/library/bignum.c:2137
    625e:	f7fe fb99 	bl	4994 <mbedtls_mpi_init_mempool>
    6262:	4640      	mov	r0, r8
    6264:	f7fe fb96 	bl	4994 <mbedtls_mpi_init_mempool>
/home/hsk/Desktop/devel/tee-tpm-hyp/optee_os/lib/libmbedtls/mbedtls/library/bignum.c:2138
    6268:	a80d      	add	r0, sp, #52	; 0x34
    626a:	f7fe fb93 	bl	4994 <mbedtls_mpi_init_mempool>
    626e:	a810      	add	r0, sp, #64	; 0x40
    6270:	f7fe fb90 	bl	4994 <mbedtls_mpi_init_mempool>
/home/hsk/Desktop/devel/tee-tpm-hyp/optee_os/lib/libmbedtls/mbedtls/library/bignum.c:2139
    6274:	a813      	add	r0, sp, #76	; 0x4c
    6276:	f7fe fb8d 	bl	4994 <mbedtls_mpi_init_mempool>
/home/hsk/Desktop/devel/tee-tpm-hyp/optee_os/lib/libmbedtls/mbedtls/library/bignum.c:2145
    627a:	2201      	movs	r2, #1
    627c:	4639      	mov	r1, r7
    627e:	4628      	mov	r0, r5
    6280:	f7ff f83e 	bl	5300 <mbedtls_mpi_sub_int>
    6284:	4683      	mov	fp, r0
    6286:	2800      	cmp	r0, #0
    6288:	d178      	bne.n	637c <mpi_miller_rabin+0x132>
/home/hsk/Desktop/devel/tee-tpm-hyp/optee_os/lib/libmbedtls/mbedtls/library/bignum.c:2146
    628a:	4628      	mov	r0, r5
    628c:	f7fe fd8e 	bl	4dac <mbedtls_mpi_lsb>
/home/hsk/Desktop/devel/tee-tpm-hyp/optee_os/lib/libmbedtls/mbedtls/library/bignum.c:2147
    6290:	4629      	mov	r1, r5
/home/hsk/Desktop/devel/tee-tpm-hyp/optee_os/lib/libmbedtls/mbedtls/library/bignum.c:2146
    6292:	9002      	str	r0, [sp, #8]
/home/hsk/Desktop/devel/tee-tpm-hyp/optee_os/lib/libmbedtls/mbedtls/library/bignum.c:2147
    6294:	4640      	mov	r0, r8
    6296:	f7fe fc79 	bl	4b8c <mbedtls_mpi_copy>
    629a:	4683      	mov	fp, r0
    629c:	2800      	cmp	r0, #0
    629e:	d16d      	bne.n	637c <mpi_miller_rabin+0x132>
/home/hsk/Desktop/devel/tee-tpm-hyp/optee_os/lib/libmbedtls/mbedtls/library/bignum.c:2148
    62a0:	9902      	ldr	r1, [sp, #8]
    62a2:	4640      	mov	r0, r8
    62a4:	f7fe fe60 	bl	4f68 <mbedtls_mpi_shift_r>
    62a8:	4683      	mov	fp, r0
    62aa:	2800      	cmp	r0, #0
    62ac:	d166      	bne.n	637c <mpi_miller_rabin+0x132>
/home/hsk/Desktop/devel/tee-tpm-hyp/optee_os/lib/libmbedtls/mbedtls/library/bignum.c:2150
    62ae:	4638      	mov	r0, r7
    62b0:	f7fe fd95 	bl	4dde <mbedtls_mpi_bitlen>
/home/hsk/Desktop/devel/tee-tpm-hyp/optee_os/lib/libmbedtls/mbedtls/library/bignum.c:2154
    62b4:	f240 5313 	movw	r3, #1299	; 0x513
    62b8:	4298      	cmp	r0, r3
    62ba:	d845      	bhi.n	6348 <mpi_miller_rabin+0xfe>
/home/hsk/Desktop/devel/tee-tpm-hyp/optee_os/lib/libmbedtls/mbedtls/library/bignum.c:2154 (discriminator 1)
    62bc:	f240 3351 	movw	r3, #849	; 0x351
    62c0:	4298      	cmp	r0, r3
    62c2:	d843      	bhi.n	634c <mpi_miller_rabin+0x102>
/home/hsk/Desktop/devel/tee-tpm-hyp/optee_os/lib/libmbedtls/mbedtls/library/bignum.c:2154 (discriminator 3)
    62c4:	f240 2389 	movw	r3, #649	; 0x289
    62c8:	4298      	cmp	r0, r3
    62ca:	d841      	bhi.n	6350 <mpi_miller_rabin+0x106>
/home/hsk/Desktop/devel/tee-tpm-hyp/optee_os/lib/libmbedtls/mbedtls/library/bignum.c:2154 (discriminator 5)
    62cc:	f5b0 7faf 	cmp.w	r0, #350	; 0x15e
    62d0:	d240      	bcs.n	6354 <mpi_miller_rabin+0x10a>
/home/hsk/Desktop/devel/tee-tpm-hyp/optee_os/lib/libmbedtls/mbedtls/library/bignum.c:2154 (discriminator 7)
    62d2:	28f9      	cmp	r0, #249	; 0xf9
    62d4:	d840      	bhi.n	6358 <mpi_miller_rabin+0x10e>
/home/hsk/Desktop/devel/tee-tpm-hyp/optee_os/lib/libmbedtls/mbedtls/library/bignum.c:2154 (discriminator 9)
    62d6:	2896      	cmp	r0, #150	; 0x96
    62d8:	f04f 061b 	mov.w	r6, #27
    62dc:	bf28      	it	cs
    62de:	2612      	movcs	r6, #18
/home/hsk/Desktop/devel/tee-tpm-hyp/optee_os/lib/libmbedtls/mbedtls/library/bignum.c:2158 (discriminator 24)
    62e0:	f04f 0900 	mov.w	r9, #0
/home/hsk/Desktop/devel/tee-tpm-hyp/optee_os/lib/libmbedtls/mbedtls/library/bignum.c:2163 (discriminator 24)
    62e4:	ac10      	add	r4, sp, #64	; 0x40
/home/hsk/Desktop/devel/tee-tpm-hyp/optee_os/lib/libmbedtls/mbedtls/library/bignum.c:2205 (discriminator 24)
    62e6:	ab0d      	add	r3, sp, #52	; 0x34
    62e8:	9305      	str	r3, [sp, #20]
/home/hsk/Desktop/devel/tee-tpm-hyp/optee_os/lib/libmbedtls/mbedtls/library/bignum.c:2163
    62ea:	88b9      	ldrh	r1, [r7, #4]
    62ec:	4620      	mov	r0, r4
    62ee:	9b04      	ldr	r3, [sp, #16]
    62f0:	9a03      	ldr	r2, [sp, #12]
    62f2:	0089      	lsls	r1, r1, #2
    62f4:	f7ff ff8f 	bl	6216 <mbedtls_mpi_fill_random>
    62f8:	4683      	mov	fp, r0
    62fa:	2800      	cmp	r0, #0
    62fc:	d13e      	bne.n	637c <mpi_miller_rabin+0x132>
/home/hsk/Desktop/devel/tee-tpm-hyp/optee_os/lib/libmbedtls/mbedtls/library/bignum.c:2165
    62fe:	4629      	mov	r1, r5
    6300:	4620      	mov	r0, r4
    6302:	f7fe fea3 	bl	504c <mbedtls_mpi_cmp_mpi>
    6306:	2800      	cmp	r0, #0
    6308:	da28      	bge.n	635c <mpi_miller_rabin+0x112>
/home/hsk/Desktop/devel/tee-tpm-hyp/optee_os/lib/libmbedtls/mbedtls/library/bignum.c:2170
    630a:	9a12      	ldr	r2, [sp, #72]	; 0x48
    630c:	f44f 7a97 	mov.w	sl, #302	; 0x12e
    6310:	6813      	ldr	r3, [r2, #0]
    6312:	f043 0303 	orr.w	r3, r3, #3
    6316:	6013      	str	r3, [r2, #0]
/home/hsk/Desktop/devel/tee-tpm-hyp/optee_os/lib/libmbedtls/mbedtls/library/bignum.c:2174
    6318:	88b9      	ldrh	r1, [r7, #4]
    631a:	4620      	mov	r0, r4
    631c:	9b04      	ldr	r3, [sp, #16]
    631e:	9a03      	ldr	r2, [sp, #12]
    6320:	0089      	lsls	r1, r1, #2
    6322:	f7ff ff78 	bl	6216 <mbedtls_mpi_fill_random>
    6326:	4683      	mov	fp, r0
    6328:	bb40      	cbnz	r0, 637c <mpi_miller_rabin+0x132>
/home/hsk/Desktop/devel/tee-tpm-hyp/optee_os/lib/libmbedtls/mbedtls/library/bignum.c:2176
    632a:	4620      	mov	r0, r4
    632c:	f7fe fd57 	bl	4dde <mbedtls_mpi_bitlen>
    6330:	4683      	mov	fp, r0
/home/hsk/Desktop/devel/tee-tpm-hyp/optee_os/lib/libmbedtls/mbedtls/library/bignum.c:2177
    6332:	4628      	mov	r0, r5
    6334:	f7fe fd53 	bl	4dde <mbedtls_mpi_bitlen>
/home/hsk/Desktop/devel/tee-tpm-hyp/optee_os/lib/libmbedtls/mbedtls/library/bignum.c:2178
    6338:	4583      	cmp	fp, r0
    633a:	d832      	bhi.n	63a2 <mpi_miller_rabin+0x158>
/home/hsk/Desktop/devel/tee-tpm-hyp/optee_os/lib/libmbedtls/mbedtls/library/bignum.c:2182
    633c:	f1ba 0a01 	subs.w	sl, sl, #1
    6340:	d138      	bne.n	63b4 <mpi_miller_rabin+0x16a>
/home/hsk/Desktop/devel/tee-tpm-hyp/optee_os/lib/libmbedtls/mbedtls/library/bignum.c:2183
    6342:	f06f 0b0d 	mvn.w	fp, #13
    6346:	e019      	b.n	637c <mpi_miller_rabin+0x132>
/home/hsk/Desktop/devel/tee-tpm-hyp/optee_os/lib/libmbedtls/mbedtls/library/bignum.c:2154
    6348:	2602      	movs	r6, #2
    634a:	e7c9      	b.n	62e0 <mpi_miller_rabin+0x96>
    634c:	2603      	movs	r6, #3
    634e:	e7c7      	b.n	62e0 <mpi_miller_rabin+0x96>
    6350:	2604      	movs	r6, #4
    6352:	e7c5      	b.n	62e0 <mpi_miller_rabin+0x96>
    6354:	2608      	movs	r6, #8
    6356:	e7c3      	b.n	62e0 <mpi_miller_rabin+0x96>
    6358:	260c      	movs	r6, #12
    635a:	e7c1      	b.n	62e0 <mpi_miller_rabin+0x96>
/home/hsk/Desktop/devel/tee-tpm-hyp/optee_os/lib/libmbedtls/mbedtls/library/bignum.c:2167
    635c:	4620      	mov	r0, r4
    635e:	f7fe fd3e 	bl	4dde <mbedtls_mpi_bitlen>
    6362:	4682      	mov	sl, r0
    6364:	4628      	mov	r0, r5
    6366:	f7fe fd3a 	bl	4dde <mbedtls_mpi_bitlen>
/home/hsk/Desktop/devel/tee-tpm-hyp/optee_os/lib/libmbedtls/mbedtls/library/bignum.c:2168
    636a:	f10a 0101 	add.w	r1, sl, #1
    636e:	1a09      	subs	r1, r1, r0
    6370:	4620      	mov	r0, r4
    6372:	f7fe fdf9 	bl	4f68 <mbedtls_mpi_shift_r>
    6376:	4683      	mov	fp, r0
    6378:	2800      	cmp	r0, #0
    637a:	d0c6      	beq.n	630a <mpi_miller_rabin+0xc0>
/home/hsk/Desktop/devel/tee-tpm-hyp/optee_os/lib/libmbedtls/mbedtls/library/bignum.c:2226
    637c:	4628      	mov	r0, r5
    637e:	f7fe fb24 	bl	49ca <mbedtls_mpi_free>
    6382:	4640      	mov	r0, r8
    6384:	f7fe fb21 	bl	49ca <mbedtls_mpi_free>
    6388:	a80d      	add	r0, sp, #52	; 0x34
    638a:	f7fe fb1e 	bl	49ca <mbedtls_mpi_free>
    638e:	a810      	add	r0, sp, #64	; 0x40
    6390:	f7fe fb1b 	bl	49ca <mbedtls_mpi_free>
/home/hsk/Desktop/devel/tee-tpm-hyp/optee_os/lib/libmbedtls/mbedtls/library/bignum.c:2227
    6394:	a813      	add	r0, sp, #76	; 0x4c
    6396:	f7fe fb18 	bl	49ca <mbedtls_mpi_free>
/home/hsk/Desktop/devel/tee-tpm-hyp/optee_os/lib/libmbedtls/mbedtls/library/bignum.c:2230
    639a:	4658      	mov	r0, fp
    639c:	b017      	add	sp, #92	; 0x5c
    639e:	e8bd 8ff0 	ldmia.w	sp!, {r4, r5, r6, r7, r8, r9, sl, fp, pc}
/home/hsk/Desktop/devel/tee-tpm-hyp/optee_os/lib/libmbedtls/mbedtls/library/bignum.c:2179
    63a2:	ebab 0100 	sub.w	r1, fp, r0
    63a6:	4620      	mov	r0, r4
    63a8:	f7fe fdde 	bl	4f68 <mbedtls_mpi_shift_r>
    63ac:	4683      	mov	fp, r0
    63ae:	2800      	cmp	r0, #0
    63b0:	d0c4      	beq.n	633c <mpi_miller_rabin+0xf2>
    63b2:	e7e3      	b.n	637c <mpi_miller_rabin+0x132>
/home/hsk/Desktop/devel/tee-tpm-hyp/optee_os/lib/libmbedtls/mbedtls/library/bignum.c:2187
    63b4:	4629      	mov	r1, r5
    63b6:	4620      	mov	r0, r4
    63b8:	f7fe fe48 	bl	504c <mbedtls_mpi_cmp_mpi>
/home/hsk/Desktop/devel/tee-tpm-hyp/optee_os/lib/libmbedtls/mbedtls/library/bignum.c:2188
    63bc:	2800      	cmp	r0, #0
    63be:	daab      	bge.n	6318 <mpi_miller_rabin+0xce>
/home/hsk/Desktop/devel/tee-tpm-hyp/optee_os/lib/libmbedtls/mbedtls/library/bignum.c:2188 (discriminator 1)
    63c0:	2101      	movs	r1, #1
    63c2:	4620      	mov	r0, r4
    63c4:	f7fe fe8b 	bl	50de <mbedtls_mpi_cmp_int>
/home/hsk/Desktop/devel/tee-tpm-hyp/optee_os/lib/libmbedtls/mbedtls/library/bignum.c:2187 (discriminator 1)
    63c8:	2800      	cmp	r0, #0
    63ca:	dda5      	ble.n	6318 <mpi_miller_rabin+0xce>
/home/hsk/Desktop/devel/tee-tpm-hyp/optee_os/lib/libmbedtls/mbedtls/library/bignum.c:2193
    63cc:	ab13      	add	r3, sp, #76	; 0x4c
    63ce:	4642      	mov	r2, r8
    63d0:	9300      	str	r3, [sp, #0]
    63d2:	4621      	mov	r1, r4
    63d4:	463b      	mov	r3, r7
    63d6:	4620      	mov	r0, r4
    63d8:	f7ff fc6a 	bl	5cb0 <mbedtls_mpi_exp_mod>
    63dc:	4683      	mov	fp, r0
    63de:	2800      	cmp	r0, #0
    63e0:	d1cc      	bne.n	637c <mpi_miller_rabin+0x132>
/home/hsk/Desktop/devel/tee-tpm-hyp/optee_os/lib/libmbedtls/mbedtls/library/bignum.c:2195
    63e2:	4629      	mov	r1, r5
    63e4:	4620      	mov	r0, r4
    63e6:	f7fe fe31 	bl	504c <mbedtls_mpi_cmp_mpi>
    63ea:	b928      	cbnz	r0, 63f8 <mpi_miller_rabin+0x1ae>
/home/hsk/Desktop/devel/tee-tpm-hyp/optee_os/lib/libmbedtls/mbedtls/library/bignum.c:2158
    63ec:	f109 0901 	add.w	r9, r9, #1
    63f0:	454e      	cmp	r6, r9
    63f2:	f47f af7a 	bne.w	62ea <mpi_miller_rabin+0xa0>
    63f6:	e7c1      	b.n	637c <mpi_miller_rabin+0x132>
/home/hsk/Desktop/devel/tee-tpm-hyp/optee_os/lib/libmbedtls/mbedtls/library/bignum.c:2196 (discriminator 1)
    63f8:	2101      	movs	r1, #1
    63fa:	4620      	mov	r0, r4
    63fc:	f7fe fe6f 	bl	50de <mbedtls_mpi_cmp_int>
/home/hsk/Desktop/devel/tee-tpm-hyp/optee_os/lib/libmbedtls/mbedtls/library/bignum.c:2195 (discriminator 1)
    6400:	2800      	cmp	r0, #0
    6402:	d0f3      	beq.n	63ec <mpi_miller_rabin+0x1a2>
/home/hsk/Desktop/devel/tee-tpm-hyp/optee_os/lib/libmbedtls/mbedtls/library/bignum.c:2199
    6404:	f04f 0a01 	mov.w	sl, #1
    6408:	4629      	mov	r1, r5
    640a:	4620      	mov	r0, r4
    640c:	f7fe fe1e 	bl	504c <mbedtls_mpi_cmp_mpi>
/home/hsk/Desktop/devel/tee-tpm-hyp/optee_os/lib/libmbedtls/mbedtls/library/bignum.c:2200
    6410:	9b02      	ldr	r3, [sp, #8]
    6412:	459a      	cmp	sl, r3
    6414:	d211      	bcs.n	643a <mpi_miller_rabin+0x1f0>
/home/hsk/Desktop/devel/tee-tpm-hyp/optee_os/lib/libmbedtls/mbedtls/library/bignum.c:2200 (discriminator 1)
    6416:	b180      	cbz	r0, 643a <mpi_miller_rabin+0x1f0>
/home/hsk/Desktop/devel/tee-tpm-hyp/optee_os/lib/libmbedtls/mbedtls/library/bignum.c:2205
    6418:	4622      	mov	r2, r4
    641a:	4621      	mov	r1, r4
    641c:	9805      	ldr	r0, [sp, #20]
    641e:	f7fe ff87 	bl	5330 <mbedtls_mpi_mul_mpi>
    6422:	b9d8      	cbnz	r0, 645c <mpi_miller_rabin+0x212>
/home/hsk/Desktop/devel/tee-tpm-hyp/optee_os/lib/libmbedtls/mbedtls/library/bignum.c:2206
    6424:	463a      	mov	r2, r7
    6426:	9905      	ldr	r1, [sp, #20]
    6428:	4620      	mov	r0, r4
    642a:	f7ff fa74 	bl	5916 <mbedtls_mpi_mod_mpi>
    642e:	b9a8      	cbnz	r0, 645c <mpi_miller_rabin+0x212>
/home/hsk/Desktop/devel/tee-tpm-hyp/optee_os/lib/libmbedtls/mbedtls/library/bignum.c:2208
    6430:	2101      	movs	r1, #1
    6432:	4620      	mov	r0, r4
    6434:	f7fe fe53 	bl	50de <mbedtls_mpi_cmp_int>
    6438:	b968      	cbnz	r0, 6456 <mpi_miller_rabin+0x20c>
/home/hsk/Desktop/devel/tee-tpm-hyp/optee_os/lib/libmbedtls/mbedtls/library/bignum.c:2217
    643a:	4629      	mov	r1, r5
    643c:	4620      	mov	r0, r4
    643e:	f7fe fe05 	bl	504c <mbedtls_mpi_cmp_mpi>
    6442:	2800      	cmp	r0, #0
    6444:	f47f af7d 	bne.w	6342 <mpi_miller_rabin+0xf8>
/home/hsk/Desktop/devel/tee-tpm-hyp/optee_os/lib/libmbedtls/mbedtls/library/bignum.c:2218 (discriminator 1)
    6448:	2101      	movs	r1, #1
    644a:	4620      	mov	r0, r4
    644c:	f7fe fe47 	bl	50de <mbedtls_mpi_cmp_int>
/home/hsk/Desktop/devel/tee-tpm-hyp/optee_os/lib/libmbedtls/mbedtls/library/bignum.c:2217 (discriminator 1)
    6450:	2800      	cmp	r0, #0
    6452:	d1cb      	bne.n	63ec <mpi_miller_rabin+0x1a2>
    6454:	e775      	b.n	6342 <mpi_miller_rabin+0xf8>
/home/hsk/Desktop/devel/tee-tpm-hyp/optee_os/lib/libmbedtls/mbedtls/library/bignum.c:2211
    6456:	f10a 0a01 	add.w	sl, sl, #1
    645a:	e7d5      	b.n	6408 <mpi_miller_rabin+0x1be>
/home/hsk/Desktop/devel/tee-tpm-hyp/optee_os/lib/libmbedtls/mbedtls/library/bignum.c:2225
    645c:	4683      	mov	fp, r0
    645e:	e78d      	b.n	637c <mpi_miller_rabin+0x132>

00006460 <mbedtls_mpi_inv_mod>:
mbedtls_mpi_inv_mod():
/home/hsk/Desktop/devel/tee-tpm-hyp/optee_os/lib/libmbedtls/mbedtls/library/bignum.c:1973
    6460:	e92d 4ff0 	stmdb	sp!, {r4, r5, r6, r7, r8, r9, sl, fp, lr}
    6464:	460e      	mov	r6, r1
/home/hsk/Desktop/devel/tee-tpm-hyp/optee_os/lib/libmbedtls/mbedtls/library/bignum.c:1977
    6466:	2101      	movs	r1, #1
/home/hsk/Desktop/devel/tee-tpm-hyp/optee_os/lib/libmbedtls/mbedtls/library/bignum.c:1973
    6468:	b0a3      	sub	sp, #140	; 0x8c
    646a:	4615      	mov	r5, r2
    646c:	9005      	str	r0, [sp, #20]
/home/hsk/Desktop/devel/tee-tpm-hyp/optee_os/lib/libmbedtls/mbedtls/library/bignum.c:1977
    646e:	4610      	mov	r0, r2
    6470:	f7fe fe35 	bl	50de <mbedtls_mpi_cmp_int>
    6474:	2800      	cmp	r0, #0
    6476:	f340 8157 	ble.w	6728 <mbedtls_mpi_inv_mod+0x2c8>
/home/hsk/Desktop/devel/tee-tpm-hyp/optee_os/lib/libmbedtls/mbedtls/library/bignum.c:1980
    647a:	af0a      	add	r7, sp, #40	; 0x28
    647c:	ac0d      	add	r4, sp, #52	; 0x34
    647e:	4638      	mov	r0, r7
/home/hsk/Desktop/devel/tee-tpm-hyp/optee_os/lib/libmbedtls/mbedtls/library/bignum.c:1981
    6480:	f10d 0b40 	add.w	fp, sp, #64	; 0x40
/home/hsk/Desktop/devel/tee-tpm-hyp/optee_os/lib/libmbedtls/mbedtls/library/bignum.c:1980
    6484:	f7fe fa86 	bl	4994 <mbedtls_mpi_init_mempool>
    6488:	4620      	mov	r0, r4
    648a:	f7fe fa83 	bl	4994 <mbedtls_mpi_init_mempool>
/home/hsk/Desktop/devel/tee-tpm-hyp/optee_os/lib/libmbedtls/mbedtls/library/bignum.c:1981
    648e:	f10d 0a4c 	add.w	sl, sp, #76	; 0x4c
    6492:	4658      	mov	r0, fp
/home/hsk/Desktop/devel/tee-tpm-hyp/optee_os/lib/libmbedtls/mbedtls/library/bignum.c:1982
    6494:	f10d 091c 	add.w	r9, sp, #28
/home/hsk/Desktop/devel/tee-tpm-hyp/optee_os/lib/libmbedtls/mbedtls/library/bignum.c:1981
    6498:	f7fe fa7c 	bl	4994 <mbedtls_mpi_init_mempool>
    649c:	4650      	mov	r0, sl
    649e:	f7fe fa79 	bl	4994 <mbedtls_mpi_init_mempool>
/home/hsk/Desktop/devel/tee-tpm-hyp/optee_os/lib/libmbedtls/mbedtls/library/bignum.c:1982
    64a2:	4648      	mov	r0, r9
    64a4:	f7fe fa76 	bl	4994 <mbedtls_mpi_init_mempool>
    64a8:	ab16      	add	r3, sp, #88	; 0x58
    64aa:	4618      	mov	r0, r3
    64ac:	9301      	str	r3, [sp, #4]
    64ae:	f7fe fa71 	bl	4994 <mbedtls_mpi_init_mempool>
/home/hsk/Desktop/devel/tee-tpm-hyp/optee_os/lib/libmbedtls/mbedtls/library/bignum.c:1983
    64b2:	ab19      	add	r3, sp, #100	; 0x64
    64b4:	4618      	mov	r0, r3
    64b6:	9302      	str	r3, [sp, #8]
    64b8:	f7fe fa6c 	bl	4994 <mbedtls_mpi_init_mempool>
    64bc:	ab1c      	add	r3, sp, #112	; 0x70
    64be:	4618      	mov	r0, r3
    64c0:	9303      	str	r3, [sp, #12]
    64c2:	f7fe fa67 	bl	4994 <mbedtls_mpi_init_mempool>
/home/hsk/Desktop/devel/tee-tpm-hyp/optee_os/lib/libmbedtls/mbedtls/library/bignum.c:1984
    64c6:	a81f      	add	r0, sp, #124	; 0x7c
    64c8:	f7fe fa64 	bl	4994 <mbedtls_mpi_init_mempool>
/home/hsk/Desktop/devel/tee-tpm-hyp/optee_os/lib/libmbedtls/mbedtls/library/bignum.c:1986
    64cc:	4631      	mov	r1, r6
    64ce:	462a      	mov	r2, r5
    64d0:	4648      	mov	r0, r9
    64d2:	f7ff fe17 	bl	6104 <mbedtls_mpi_gcd>
    64d6:	4601      	mov	r1, r0
    64d8:	2800      	cmp	r0, #0
    64da:	d156      	bne.n	658a <mbedtls_mpi_inv_mod+0x12a>
/home/hsk/Desktop/devel/tee-tpm-hyp/optee_os/lib/libmbedtls/mbedtls/library/bignum.c:1988
    64dc:	2101      	movs	r1, #1
    64de:	4648      	mov	r0, r9
    64e0:	f7fe fdfd 	bl	50de <mbedtls_mpi_cmp_int>
    64e4:	2800      	cmp	r0, #0
    64e6:	f040 811c 	bne.w	6722 <mbedtls_mpi_inv_mod+0x2c2>
/home/hsk/Desktop/devel/tee-tpm-hyp/optee_os/lib/libmbedtls/mbedtls/library/bignum.c:1994
    64ea:	4631      	mov	r1, r6
    64ec:	462a      	mov	r2, r5
    64ee:	4638      	mov	r0, r7
    64f0:	f7ff fa11 	bl	5916 <mbedtls_mpi_mod_mpi>
    64f4:	4601      	mov	r1, r0
    64f6:	2800      	cmp	r0, #0
    64f8:	d147      	bne.n	658a <mbedtls_mpi_inv_mod+0x12a>
/home/hsk/Desktop/devel/tee-tpm-hyp/optee_os/lib/libmbedtls/mbedtls/library/bignum.c:1995
    64fa:	4639      	mov	r1, r7
    64fc:	4620      	mov	r0, r4
    64fe:	f7fe fb45 	bl	4b8c <mbedtls_mpi_copy>
    6502:	4601      	mov	r1, r0
    6504:	2800      	cmp	r0, #0
    6506:	d140      	bne.n	658a <mbedtls_mpi_inv_mod+0x12a>
/home/hsk/Desktop/devel/tee-tpm-hyp/optee_os/lib/libmbedtls/mbedtls/library/bignum.c:1996
    6508:	4629      	mov	r1, r5
    650a:	9801      	ldr	r0, [sp, #4]
    650c:	f7fe fb3e 	bl	4b8c <mbedtls_mpi_copy>
    6510:	4601      	mov	r1, r0
    6512:	2800      	cmp	r0, #0
    6514:	d139      	bne.n	658a <mbedtls_mpi_inv_mod+0x12a>
/home/hsk/Desktop/devel/tee-tpm-hyp/optee_os/lib/libmbedtls/mbedtls/library/bignum.c:1997
    6516:	4629      	mov	r1, r5
    6518:	9802      	ldr	r0, [sp, #8]
    651a:	f7fe fb37 	bl	4b8c <mbedtls_mpi_copy>
    651e:	4601      	mov	r1, r0
    6520:	2800      	cmp	r0, #0
    6522:	d132      	bne.n	658a <mbedtls_mpi_inv_mod+0x12a>
/home/hsk/Desktop/devel/tee-tpm-hyp/optee_os/lib/libmbedtls/mbedtls/library/bignum.c:1999
    6524:	2101      	movs	r1, #1
    6526:	4658      	mov	r0, fp
    6528:	f7fe fbeb 	bl	4d02 <mbedtls_mpi_lset>
    652c:	4601      	mov	r1, r0
    652e:	bb60      	cbnz	r0, 658a <mbedtls_mpi_inv_mod+0x12a>
/home/hsk/Desktop/devel/tee-tpm-hyp/optee_os/lib/libmbedtls/mbedtls/library/bignum.c:2000
    6530:	4650      	mov	r0, sl
    6532:	f7fe fbe6 	bl	4d02 <mbedtls_mpi_lset>
    6536:	4601      	mov	r1, r0
    6538:	bb38      	cbnz	r0, 658a <mbedtls_mpi_inv_mod+0x12a>
/home/hsk/Desktop/devel/tee-tpm-hyp/optee_os/lib/libmbedtls/mbedtls/library/bignum.c:2001
    653a:	9803      	ldr	r0, [sp, #12]
    653c:	f7fe fbe1 	bl	4d02 <mbedtls_mpi_lset>
    6540:	4601      	mov	r1, r0
    6542:	bb10      	cbnz	r0, 658a <mbedtls_mpi_inv_mod+0x12a>
/home/hsk/Desktop/devel/tee-tpm-hyp/optee_os/lib/libmbedtls/mbedtls/library/bignum.c:2002
    6544:	ae1f      	add	r6, sp, #124	; 0x7c
    6546:	2101      	movs	r1, #1
    6548:	4630      	mov	r0, r6
    654a:	f7fe fbda 	bl	4d02 <mbedtls_mpi_lset>
    654e:	4601      	mov	r1, r0
    6550:	b9d8      	cbnz	r0, 658a <mbedtls_mpi_inv_mod+0x12a>
    6552:	f10d 0864 	add.w	r8, sp, #100	; 0x64
/home/hsk/Desktop/devel/tee-tpm-hyp/optee_os/lib/libmbedtls/mbedtls/library/bignum.c:2026
    6556:	ab16      	add	r3, sp, #88	; 0x58
    6558:	9304      	str	r3, [sp, #16]
/home/hsk/Desktop/devel/tee-tpm-hyp/optee_os/lib/libmbedtls/mbedtls/library/bignum.c:2006
    655a:	9b0f      	ldr	r3, [sp, #60]	; 0x3c
    655c:	681b      	ldr	r3, [r3, #0]
    655e:	07d8      	lsls	r0, r3, #31
    6560:	d46a      	bmi.n	6638 <mbedtls_mpi_inv_mod+0x1d8>
/home/hsk/Desktop/devel/tee-tpm-hyp/optee_os/lib/libmbedtls/mbedtls/library/bignum.c:2008
    6562:	2101      	movs	r1, #1
    6564:	4620      	mov	r0, r4
    6566:	f7fe fcff 	bl	4f68 <mbedtls_mpi_shift_r>
    656a:	4601      	mov	r1, r0
    656c:	b968      	cbnz	r0, 658a <mbedtls_mpi_inv_mod+0x12a>
/home/hsk/Desktop/devel/tee-tpm-hyp/optee_os/lib/libmbedtls/mbedtls/library/bignum.c:2010
    656e:	9b12      	ldr	r3, [sp, #72]	; 0x48
    6570:	681b      	ldr	r3, [r3, #0]
    6572:	07da      	lsls	r2, r3, #31
    6574:	d42a      	bmi.n	65cc <mbedtls_mpi_inv_mod+0x16c>
/home/hsk/Desktop/devel/tee-tpm-hyp/optee_os/lib/libmbedtls/mbedtls/library/bignum.c:2010 (discriminator 1)
    6576:	9b15      	ldr	r3, [sp, #84]	; 0x54
    6578:	681b      	ldr	r3, [r3, #0]
    657a:	07db      	lsls	r3, r3, #31
    657c:	d426      	bmi.n	65cc <mbedtls_mpi_inv_mod+0x16c>
/home/hsk/Desktop/devel/tee-tpm-hyp/optee_os/lib/libmbedtls/mbedtls/library/bignum.c:2016
    657e:	2101      	movs	r1, #1
    6580:	a810      	add	r0, sp, #64	; 0x40
    6582:	f7fe fcf1 	bl	4f68 <mbedtls_mpi_shift_r>
    6586:	4601      	mov	r1, r0
    6588:	b388      	cbz	r0, 65ee <mbedtls_mpi_inv_mod+0x18e>
/home/hsk/Desktop/devel/tee-tpm-hyp/optee_os/lib/libmbedtls/mbedtls/library/bignum.c:2059
    658a:	4638      	mov	r0, r7
    658c:	9104      	str	r1, [sp, #16]
    658e:	f7fe fa1c 	bl	49ca <mbedtls_mpi_free>
    6592:	4620      	mov	r0, r4
    6594:	f7fe fa19 	bl	49ca <mbedtls_mpi_free>
    6598:	4658      	mov	r0, fp
    659a:	f7fe fa16 	bl	49ca <mbedtls_mpi_free>
    659e:	4650      	mov	r0, sl
    65a0:	f7fe fa13 	bl	49ca <mbedtls_mpi_free>
/home/hsk/Desktop/devel/tee-tpm-hyp/optee_os/lib/libmbedtls/mbedtls/library/bignum.c:2060
    65a4:	4648      	mov	r0, r9
    65a6:	f7fe fa10 	bl	49ca <mbedtls_mpi_free>
    65aa:	9801      	ldr	r0, [sp, #4]
    65ac:	f7fe fa0d 	bl	49ca <mbedtls_mpi_free>
    65b0:	9802      	ldr	r0, [sp, #8]
    65b2:	f7fe fa0a 	bl	49ca <mbedtls_mpi_free>
/home/hsk/Desktop/devel/tee-tpm-hyp/optee_os/lib/libmbedtls/mbedtls/library/bignum.c:2061
    65b6:	9803      	ldr	r0, [sp, #12]
    65b8:	f7fe fa07 	bl	49ca <mbedtls_mpi_free>
    65bc:	a81f      	add	r0, sp, #124	; 0x7c
    65be:	f7fe fa04 	bl	49ca <mbedtls_mpi_free>
/home/hsk/Desktop/devel/tee-tpm-hyp/optee_os/lib/libmbedtls/mbedtls/library/bignum.c:2063
    65c2:	9904      	ldr	r1, [sp, #16]
/home/hsk/Desktop/devel/tee-tpm-hyp/optee_os/lib/libmbedtls/mbedtls/library/bignum.c:2064
    65c4:	4608      	mov	r0, r1
    65c6:	b023      	add	sp, #140	; 0x8c
    65c8:	e8bd 8ff0 	ldmia.w	sp!, {r4, r5, r6, r7, r8, r9, sl, fp, pc}
/home/hsk/Desktop/devel/tee-tpm-hyp/optee_os/lib/libmbedtls/mbedtls/library/bignum.c:2012
    65cc:	a910      	add	r1, sp, #64	; 0x40
    65ce:	9a04      	ldr	r2, [sp, #16]
    65d0:	4608      	mov	r0, r1
    65d2:	f7fe fe35 	bl	5240 <mbedtls_mpi_add_mpi>
    65d6:	4601      	mov	r1, r0
    65d8:	2800      	cmp	r0, #0
    65da:	d1d6      	bne.n	658a <mbedtls_mpi_inv_mod+0x12a>
/home/hsk/Desktop/devel/tee-tpm-hyp/optee_os/lib/libmbedtls/mbedtls/library/bignum.c:2013
    65dc:	a913      	add	r1, sp, #76	; 0x4c
    65de:	463a      	mov	r2, r7
    65e0:	4608      	mov	r0, r1
    65e2:	f7fe fe50 	bl	5286 <mbedtls_mpi_sub_mpi>
    65e6:	4601      	mov	r1, r0
    65e8:	2800      	cmp	r0, #0
    65ea:	d0c8      	beq.n	657e <mbedtls_mpi_inv_mod+0x11e>
    65ec:	e7cd      	b.n	658a <mbedtls_mpi_inv_mod+0x12a>
/home/hsk/Desktop/devel/tee-tpm-hyp/optee_os/lib/libmbedtls/mbedtls/library/bignum.c:2017
    65ee:	2101      	movs	r1, #1
    65f0:	a813      	add	r0, sp, #76	; 0x4c
    65f2:	f7fe fcb9 	bl	4f68 <mbedtls_mpi_shift_r>
    65f6:	4601      	mov	r1, r0
    65f8:	2800      	cmp	r0, #0
    65fa:	d0ae      	beq.n	655a <mbedtls_mpi_inv_mod+0xfa>
/home/hsk/Desktop/devel/tee-tpm-hyp/optee_os/lib/libmbedtls/mbedtls/library/bignum.c:2057
    65fc:	e7c5      	b.n	658a <mbedtls_mpi_inv_mod+0x12a>
/home/hsk/Desktop/devel/tee-tpm-hyp/optee_os/lib/libmbedtls/mbedtls/library/bignum.c:2022
    65fe:	2101      	movs	r1, #1
    6600:	4640      	mov	r0, r8
    6602:	f7fe fcb1 	bl	4f68 <mbedtls_mpi_shift_r>
    6606:	4601      	mov	r1, r0
    6608:	2800      	cmp	r0, #0
    660a:	d1be      	bne.n	658a <mbedtls_mpi_inv_mod+0x12a>
/home/hsk/Desktop/devel/tee-tpm-hyp/optee_os/lib/libmbedtls/mbedtls/library/bignum.c:2024
    660c:	9b1e      	ldr	r3, [sp, #120]	; 0x78
    660e:	681b      	ldr	r3, [r3, #0]
    6610:	07d9      	lsls	r1, r3, #31
    6612:	d44d      	bmi.n	66b0 <mbedtls_mpi_inv_mod+0x250>
/home/hsk/Desktop/devel/tee-tpm-hyp/optee_os/lib/libmbedtls/mbedtls/library/bignum.c:2024 (discriminator 1)
    6614:	9b21      	ldr	r3, [sp, #132]	; 0x84
    6616:	681b      	ldr	r3, [r3, #0]
    6618:	07da      	lsls	r2, r3, #31
    661a:	d449      	bmi.n	66b0 <mbedtls_mpi_inv_mod+0x250>
/home/hsk/Desktop/devel/tee-tpm-hyp/optee_os/lib/libmbedtls/mbedtls/library/bignum.c:2030
    661c:	2101      	movs	r1, #1
    661e:	a81c      	add	r0, sp, #112	; 0x70
    6620:	f7fe fca2 	bl	4f68 <mbedtls_mpi_shift_r>
    6624:	4601      	mov	r1, r0
    6626:	2800      	cmp	r0, #0
    6628:	d1af      	bne.n	658a <mbedtls_mpi_inv_mod+0x12a>
/home/hsk/Desktop/devel/tee-tpm-hyp/optee_os/lib/libmbedtls/mbedtls/library/bignum.c:2031
    662a:	2101      	movs	r1, #1
    662c:	4630      	mov	r0, r6
    662e:	f7fe fc9b 	bl	4f68 <mbedtls_mpi_shift_r>
    6632:	4601      	mov	r1, r0
    6634:	2800      	cmp	r0, #0
    6636:	d1a8      	bne.n	658a <mbedtls_mpi_inv_mod+0x12a>
/home/hsk/Desktop/devel/tee-tpm-hyp/optee_os/lib/libmbedtls/mbedtls/library/bignum.c:2020
    6638:	9b1b      	ldr	r3, [sp, #108]	; 0x6c
    663a:	681b      	ldr	r3, [r3, #0]
    663c:	07db      	lsls	r3, r3, #31
    663e:	d5de      	bpl.n	65fe <mbedtls_mpi_inv_mod+0x19e>
/home/hsk/Desktop/devel/tee-tpm-hyp/optee_os/lib/libmbedtls/mbedtls/library/bignum.c:2034
    6640:	4641      	mov	r1, r8
    6642:	4620      	mov	r0, r4
    6644:	f7fe fd02 	bl	504c <mbedtls_mpi_cmp_mpi>
    6648:	2800      	cmp	r0, #0
    664a:	db43      	blt.n	66d4 <mbedtls_mpi_inv_mod+0x274>
/home/hsk/Desktop/devel/tee-tpm-hyp/optee_os/lib/libmbedtls/mbedtls/library/bignum.c:2036
    664c:	4621      	mov	r1, r4
    664e:	4642      	mov	r2, r8
    6650:	4620      	mov	r0, r4
    6652:	f7fe fe18 	bl	5286 <mbedtls_mpi_sub_mpi>
    6656:	4601      	mov	r1, r0
    6658:	2800      	cmp	r0, #0
    665a:	d196      	bne.n	658a <mbedtls_mpi_inv_mod+0x12a>
/home/hsk/Desktop/devel/tee-tpm-hyp/optee_os/lib/libmbedtls/mbedtls/library/bignum.c:2037
    665c:	a910      	add	r1, sp, #64	; 0x40
    665e:	aa1c      	add	r2, sp, #112	; 0x70
    6660:	4608      	mov	r0, r1
    6662:	f7fe fe10 	bl	5286 <mbedtls_mpi_sub_mpi>
    6666:	4601      	mov	r1, r0
    6668:	2800      	cmp	r0, #0
    666a:	d18e      	bne.n	658a <mbedtls_mpi_inv_mod+0x12a>
/home/hsk/Desktop/devel/tee-tpm-hyp/optee_os/lib/libmbedtls/mbedtls/library/bignum.c:2038
    666c:	a913      	add	r1, sp, #76	; 0x4c
    666e:	4632      	mov	r2, r6
    6670:	4608      	mov	r0, r1
    6672:	f7fe fe08 	bl	5286 <mbedtls_mpi_sub_mpi>
    6676:	4601      	mov	r1, r0
    6678:	2800      	cmp	r0, #0
    667a:	d186      	bne.n	658a <mbedtls_mpi_inv_mod+0x12a>
/home/hsk/Desktop/devel/tee-tpm-hyp/optee_os/lib/libmbedtls/mbedtls/library/bignum.c:2047
    667c:	2100      	movs	r1, #0
    667e:	4620      	mov	r0, r4
    6680:	f7fe fd2d 	bl	50de <mbedtls_mpi_cmp_int>
    6684:	2800      	cmp	r0, #0
    6686:	f47f af68 	bne.w	655a <mbedtls_mpi_inv_mod+0xfa>
/home/hsk/Desktop/devel/tee-tpm-hyp/optee_os/lib/libmbedtls/mbedtls/library/bignum.c:2049
    668a:	ae1c      	add	r6, sp, #112	; 0x70
    668c:	2100      	movs	r1, #0
    668e:	4630      	mov	r0, r6
    6690:	f7fe fd25 	bl	50de <mbedtls_mpi_cmp_int>
    6694:	2800      	cmp	r0, #0
    6696:	db32      	blt.n	66fe <mbedtls_mpi_inv_mod+0x29e>
/home/hsk/Desktop/devel/tee-tpm-hyp/optee_os/lib/libmbedtls/mbedtls/library/bignum.c:2052
    6698:	4629      	mov	r1, r5
    669a:	4630      	mov	r0, r6
    669c:	f7fe fcd6 	bl	504c <mbedtls_mpi_cmp_mpi>
    66a0:	2800      	cmp	r0, #0
    66a2:	da35      	bge.n	6710 <mbedtls_mpi_inv_mod+0x2b0>
/home/hsk/Desktop/devel/tee-tpm-hyp/optee_os/lib/libmbedtls/mbedtls/library/bignum.c:2055
    66a4:	4631      	mov	r1, r6
    66a6:	9805      	ldr	r0, [sp, #20]
    66a8:	f7fe fa70 	bl	4b8c <mbedtls_mpi_copy>
    66ac:	4601      	mov	r1, r0
/home/hsk/Desktop/devel/tee-tpm-hyp/optee_os/lib/libmbedtls/mbedtls/library/bignum.c:2057
    66ae:	e76c      	b.n	658a <mbedtls_mpi_inv_mod+0x12a>
/home/hsk/Desktop/devel/tee-tpm-hyp/optee_os/lib/libmbedtls/mbedtls/library/bignum.c:2026
    66b0:	a91c      	add	r1, sp, #112	; 0x70
    66b2:	9a04      	ldr	r2, [sp, #16]
    66b4:	4608      	mov	r0, r1
    66b6:	f7fe fdc3 	bl	5240 <mbedtls_mpi_add_mpi>
    66ba:	4601      	mov	r1, r0
    66bc:	2800      	cmp	r0, #0
    66be:	f47f af64 	bne.w	658a <mbedtls_mpi_inv_mod+0x12a>
/home/hsk/Desktop/devel/tee-tpm-hyp/optee_os/lib/libmbedtls/mbedtls/library/bignum.c:2027
    66c2:	4631      	mov	r1, r6
    66c4:	463a      	mov	r2, r7
    66c6:	4630      	mov	r0, r6
    66c8:	f7fe fddd 	bl	5286 <mbedtls_mpi_sub_mpi>
    66cc:	4601      	mov	r1, r0
    66ce:	2800      	cmp	r0, #0
    66d0:	d0a4      	beq.n	661c <mbedtls_mpi_inv_mod+0x1bc>
    66d2:	e75a      	b.n	658a <mbedtls_mpi_inv_mod+0x12a>
/home/hsk/Desktop/devel/tee-tpm-hyp/optee_os/lib/libmbedtls/mbedtls/library/bignum.c:2042
    66d4:	4622      	mov	r2, r4
    66d6:	4640      	mov	r0, r8
    66d8:	f7fe fdd5 	bl	5286 <mbedtls_mpi_sub_mpi>
    66dc:	4601      	mov	r1, r0
    66de:	2800      	cmp	r0, #0
    66e0:	f47f af53 	bne.w	658a <mbedtls_mpi_inv_mod+0x12a>
/home/hsk/Desktop/devel/tee-tpm-hyp/optee_os/lib/libmbedtls/mbedtls/library/bignum.c:2043
    66e4:	a91c      	add	r1, sp, #112	; 0x70
    66e6:	aa10      	add	r2, sp, #64	; 0x40
    66e8:	4608      	mov	r0, r1
    66ea:	f7fe fdcc 	bl	5286 <mbedtls_mpi_sub_mpi>
    66ee:	4601      	mov	r1, r0
    66f0:	2800      	cmp	r0, #0
    66f2:	f47f af4a 	bne.w	658a <mbedtls_mpi_inv_mod+0x12a>
/home/hsk/Desktop/devel/tee-tpm-hyp/optee_os/lib/libmbedtls/mbedtls/library/bignum.c:2044
    66f6:	aa13      	add	r2, sp, #76	; 0x4c
    66f8:	4631      	mov	r1, r6
    66fa:	4630      	mov	r0, r6
    66fc:	e7b9      	b.n	6672 <mbedtls_mpi_inv_mod+0x212>
/home/hsk/Desktop/devel/tee-tpm-hyp/optee_os/lib/libmbedtls/mbedtls/library/bignum.c:2050
    66fe:	4631      	mov	r1, r6
    6700:	462a      	mov	r2, r5
    6702:	4630      	mov	r0, r6
    6704:	f7fe fd9c 	bl	5240 <mbedtls_mpi_add_mpi>
    6708:	4601      	mov	r1, r0
    670a:	2800      	cmp	r0, #0
    670c:	d0be      	beq.n	668c <mbedtls_mpi_inv_mod+0x22c>
/home/hsk/Desktop/devel/tee-tpm-hyp/optee_os/lib/libmbedtls/mbedtls/library/bignum.c:2057
    670e:	e73c      	b.n	658a <mbedtls_mpi_inv_mod+0x12a>
/home/hsk/Desktop/devel/tee-tpm-hyp/optee_os/lib/libmbedtls/mbedtls/library/bignum.c:2053
    6710:	4631      	mov	r1, r6
    6712:	462a      	mov	r2, r5
    6714:	4630      	mov	r0, r6
    6716:	f7fe fdb6 	bl	5286 <mbedtls_mpi_sub_mpi>
    671a:	4601      	mov	r1, r0
    671c:	2800      	cmp	r0, #0
    671e:	d0bb      	beq.n	6698 <mbedtls_mpi_inv_mod+0x238>
/home/hsk/Desktop/devel/tee-tpm-hyp/optee_os/lib/libmbedtls/mbedtls/library/bignum.c:2057
    6720:	e733      	b.n	658a <mbedtls_mpi_inv_mod+0x12a>
/home/hsk/Desktop/devel/tee-tpm-hyp/optee_os/lib/libmbedtls/mbedtls/library/bignum.c:1990
    6722:	f06f 010d 	mvn.w	r1, #13
    6726:	e730      	b.n	658a <mbedtls_mpi_inv_mod+0x12a>
/home/hsk/Desktop/devel/tee-tpm-hyp/optee_os/lib/libmbedtls/mbedtls/library/bignum.c:1978
    6728:	f06f 0103 	mvn.w	r1, #3
    672c:	e74a      	b.n	65c4 <mbedtls_mpi_inv_mod+0x164>

0000672e <mbedtls_mpi_is_prime>:
mbedtls_mpi_is_prime():
/home/hsk/Desktop/devel/tee-tpm-hyp/optee_os/lib/libmbedtls/mbedtls/library/bignum.c:2238
    672e:	b5f0      	push	{r4, r5, r6, r7, lr}
    6730:	460e      	mov	r6, r1
/home/hsk/Desktop/devel/tee-tpm-hyp/optee_os/lib/libmbedtls/mbedtls/library/bignum.c:2243
    6732:	8883      	ldrh	r3, [r0, #4]
/home/hsk/Desktop/devel/tee-tpm-hyp/optee_os/lib/libmbedtls/mbedtls/library/bignum.c:2238
    6734:	b085      	sub	sp, #20
/home/hsk/Desktop/devel/tee-tpm-hyp/optee_os/lib/libmbedtls/mbedtls/library/bignum.c:2246
    6736:	2100      	movs	r1, #0
    6738:	ac01      	add	r4, sp, #4
/home/hsk/Desktop/devel/tee-tpm-hyp/optee_os/lib/libmbedtls/mbedtls/library/bignum.c:2242
    673a:	2501      	movs	r5, #1
/home/hsk/Desktop/devel/tee-tpm-hyp/optee_os/lib/libmbedtls/mbedtls/library/bignum.c:2238
    673c:	4617      	mov	r7, r2
/home/hsk/Desktop/devel/tee-tpm-hyp/optee_os/lib/libmbedtls/mbedtls/library/bignum.c:2243
    673e:	f8ad 3008 	strh.w	r3, [sp, #8]
/home/hsk/Desktop/devel/tee-tpm-hyp/optee_os/lib/libmbedtls/mbedtls/library/bignum.c:2244
    6742:	6883      	ldr	r3, [r0, #8]
/home/hsk/Desktop/devel/tee-tpm-hyp/optee_os/lib/libmbedtls/mbedtls/library/bignum.c:2246
    6744:	4620      	mov	r0, r4
/home/hsk/Desktop/devel/tee-tpm-hyp/optee_os/lib/libmbedtls/mbedtls/library/bignum.c:2242
    6746:	f88d 5004 	strb.w	r5, [sp, #4]
/home/hsk/Desktop/devel/tee-tpm-hyp/optee_os/lib/libmbedtls/mbedtls/library/bignum.c:2244
    674a:	9303      	str	r3, [sp, #12]
/home/hsk/Desktop/devel/tee-tpm-hyp/optee_os/lib/libmbedtls/mbedtls/library/bignum.c:2246
    674c:	f7fe fcc7 	bl	50de <mbedtls_mpi_cmp_int>
    6750:	b1c0      	cbz	r0, 6784 <mbedtls_mpi_is_prime+0x56>
/home/hsk/Desktop/devel/tee-tpm-hyp/optee_os/lib/libmbedtls/mbedtls/library/bignum.c:2247 (discriminator 1)
    6752:	4629      	mov	r1, r5
    6754:	4620      	mov	r0, r4
    6756:	f7fe fcc2 	bl	50de <mbedtls_mpi_cmp_int>
/home/hsk/Desktop/devel/tee-tpm-hyp/optee_os/lib/libmbedtls/mbedtls/library/bignum.c:2246 (discriminator 1)
    675a:	b198      	cbz	r0, 6784 <mbedtls_mpi_is_prime+0x56>
/home/hsk/Desktop/devel/tee-tpm-hyp/optee_os/lib/libmbedtls/mbedtls/library/bignum.c:2250
    675c:	2102      	movs	r1, #2
    675e:	4620      	mov	r0, r4
    6760:	f7fe fcbd 	bl	50de <mbedtls_mpi_cmp_int>
    6764:	b128      	cbz	r0, 6772 <mbedtls_mpi_is_prime+0x44>
/home/hsk/Desktop/devel/tee-tpm-hyp/optee_os/lib/libmbedtls/mbedtls/library/bignum.c:2253
    6766:	4620      	mov	r0, r4
    6768:	f7ff f9f2 	bl	5b50 <mpi_check_small_factors>
    676c:	b120      	cbz	r0, 6778 <mbedtls_mpi_is_prime+0x4a>
/home/hsk/Desktop/devel/tee-tpm-hyp/optee_os/lib/libmbedtls/mbedtls/library/bignum.c:2255
    676e:	42a8      	cmp	r0, r5
    6770:	d100      	bne.n	6774 <mbedtls_mpi_is_prime+0x46>
/home/hsk/Desktop/devel/tee-tpm-hyp/optee_os/lib/libmbedtls/mbedtls/library/bignum.c:2256
    6772:	2000      	movs	r0, #0
/home/hsk/Desktop/devel/tee-tpm-hyp/optee_os/lib/libmbedtls/mbedtls/library/bignum.c:2262
    6774:	b005      	add	sp, #20
    6776:	bdf0      	pop	{r4, r5, r6, r7, pc}
/home/hsk/Desktop/devel/tee-tpm-hyp/optee_os/lib/libmbedtls/mbedtls/library/bignum.c:2261
    6778:	463a      	mov	r2, r7
    677a:	4631      	mov	r1, r6
    677c:	4620      	mov	r0, r4
    677e:	f7ff fd64 	bl	624a <mpi_miller_rabin>
    6782:	e7f7      	b.n	6774 <mbedtls_mpi_is_prime+0x46>
/home/hsk/Desktop/devel/tee-tpm-hyp/optee_os/lib/libmbedtls/mbedtls/library/bignum.c:2248
    6784:	f06f 000d 	mvn.w	r0, #13
    6788:	e7f4      	b.n	6774 <mbedtls_mpi_is_prime+0x46>

0000678a <mbedtls_mpi_gen_prime>:
mbedtls_mpi_gen_prime():
/home/hsk/Desktop/devel/tee-tpm-hyp/optee_os/lib/libmbedtls/mbedtls/library/bignum.c:2270
    678a:	e92d 43f0 	stmdb	sp!, {r4, r5, r6, r7, r8, r9, lr}
    678e:	4691      	mov	r9, r2
/home/hsk/Desktop/devel/tee-tpm-hyp/optee_os/lib/libmbedtls/mbedtls/library/bignum.c:2276
    6790:	1eca      	subs	r2, r1, #3
/home/hsk/Desktop/devel/tee-tpm-hyp/optee_os/lib/libmbedtls/mbedtls/library/bignum.c:2270
    6792:	4698      	mov	r8, r3
    6794:	b085      	sub	sp, #20
/home/hsk/Desktop/devel/tee-tpm-hyp/optee_os/lib/libmbedtls/mbedtls/library/bignum.c:2276
    6796:	f641 73fd 	movw	r3, #8189	; 0x1ffd
/home/hsk/Desktop/devel/tee-tpm-hyp/optee_os/lib/libmbedtls/mbedtls/library/bignum.c:2270
    679a:	4604      	mov	r4, r0
    679c:	460f      	mov	r7, r1
/home/hsk/Desktop/devel/tee-tpm-hyp/optee_os/lib/libmbedtls/mbedtls/library/bignum.c:2276
    679e:	429a      	cmp	r2, r3
    67a0:	f200 808b 	bhi.w	68ba <mbedtls_mpi_gen_prime+0x130>
/home/hsk/Desktop/devel/tee-tpm-hyp/optee_os/lib/libmbedtls/mbedtls/library/bignum.c:2279
    67a4:	ae01      	add	r6, sp, #4
    67a6:	4630      	mov	r0, r6
    67a8:	f7fe f8f4 	bl	4994 <mbedtls_mpi_init_mempool>
/home/hsk/Desktop/devel/tee-tpm-hyp/optee_os/lib/libmbedtls/mbedtls/library/bignum.c:2281
    67ac:	f011 011f 	ands.w	r1, r1, #31
    67b0:	bf18      	it	ne
    67b2:	2101      	movne	r1, #1
/home/hsk/Desktop/devel/tee-tpm-hyp/optee_os/lib/libmbedtls/mbedtls/library/bignum.c:2283
    67b4:	9b0c      	ldr	r3, [sp, #48]	; 0x30
/home/hsk/Desktop/devel/tee-tpm-hyp/optee_os/lib/libmbedtls/mbedtls/library/bignum.c:2281
    67b6:	eb01 1157 	add.w	r1, r1, r7, lsr #5
/home/hsk/Desktop/devel/tee-tpm-hyp/optee_os/lib/libmbedtls/mbedtls/library/bignum.c:2283
    67ba:	4642      	mov	r2, r8
    67bc:	4620      	mov	r0, r4
    67be:	0089      	lsls	r1, r1, #2
    67c0:	f7ff fd29 	bl	6216 <mbedtls_mpi_fill_random>
    67c4:	4605      	mov	r5, r0
    67c6:	2800      	cmp	r0, #0
    67c8:	d161      	bne.n	688e <mbedtls_mpi_gen_prime+0x104>
/home/hsk/Desktop/devel/tee-tpm-hyp/optee_os/lib/libmbedtls/mbedtls/library/bignum.c:2285
    67ca:	4620      	mov	r0, r4
    67cc:	f7fe fb07 	bl	4dde <mbedtls_mpi_bitlen>
/home/hsk/Desktop/devel/tee-tpm-hyp/optee_os/lib/libmbedtls/mbedtls/library/bignum.c:2286
    67d0:	4287      	cmp	r7, r0
    67d2:	d349      	bcc.n	6868 <mbedtls_mpi_gen_prime+0xde>
/home/hsk/Desktop/devel/tee-tpm-hyp/optee_os/lib/libmbedtls/mbedtls/library/bignum.c:2288
    67d4:	2201      	movs	r2, #1
    67d6:	1e79      	subs	r1, r7, #1
    67d8:	4620      	mov	r0, r4
    67da:	f7fe fabe 	bl	4d5a <mbedtls_mpi_set_bit>
/home/hsk/Desktop/devel/tee-tpm-hyp/optee_os/lib/libmbedtls/mbedtls/library/bignum.c:2290
    67de:	68a2      	ldr	r2, [r4, #8]
    67e0:	6813      	ldr	r3, [r2, #0]
/home/hsk/Desktop/devel/tee-tpm-hyp/optee_os/lib/libmbedtls/mbedtls/library/bignum.c:2292
    67e2:	f1b9 0f00 	cmp.w	r9, #0
    67e6:	d049      	beq.n	687c <mbedtls_mpi_gen_prime+0xf2>
/home/hsk/Desktop/devel/tee-tpm-hyp/optee_os/lib/libmbedtls/mbedtls/library/bignum.c:2310
    67e8:	f043 0303 	orr.w	r3, r3, #3
mbedtls_mpi_mod_int():
    67ec:	4621      	mov	r1, r4
mbedtls_mpi_gen_prime():
    67ee:	6013      	str	r3, [r2, #0]
mbedtls_mpi_mod_int():
    67f0:	4668      	mov	r0, sp
    67f2:	2203      	movs	r2, #3
    67f4:	f7fe f8a3 	bl	493e <mbedtls_mpi_mod_int.part.3>
mbedtls_mpi_gen_prime():
/home/hsk/Desktop/devel/tee-tpm-hyp/optee_os/lib/libmbedtls/mbedtls/library/bignum.c:2312
    67f8:	2800      	cmp	r0, #0
    67fa:	d13d      	bne.n	6878 <mbedtls_mpi_gen_prime+0xee>
/home/hsk/Desktop/devel/tee-tpm-hyp/optee_os/lib/libmbedtls/mbedtls/library/bignum.c:2313
    67fc:	9b00      	ldr	r3, [sp, #0]
    67fe:	2b00      	cmp	r3, #0
    6800:	d157      	bne.n	68b2 <mbedtls_mpi_gen_prime+0x128>
/home/hsk/Desktop/devel/tee-tpm-hyp/optee_os/lib/libmbedtls/mbedtls/library/bignum.c:2314
    6802:	2208      	movs	r2, #8
/home/hsk/Desktop/devel/tee-tpm-hyp/optee_os/lib/libmbedtls/mbedtls/library/bignum.c:2316
    6804:	4621      	mov	r1, r4
    6806:	4620      	mov	r0, r4
    6808:	f7fe fd62 	bl	52d0 <mbedtls_mpi_add_int>
    680c:	bba0      	cbnz	r0, 6878 <mbedtls_mpi_gen_prime+0xee>
/home/hsk/Desktop/devel/tee-tpm-hyp/optee_os/lib/libmbedtls/mbedtls/library/bignum.c:2319
    680e:	4621      	mov	r1, r4
    6810:	4630      	mov	r0, r6
    6812:	f7fe f9bb 	bl	4b8c <mbedtls_mpi_copy>
    6816:	bb78      	cbnz	r0, 6878 <mbedtls_mpi_gen_prime+0xee>
/home/hsk/Desktop/devel/tee-tpm-hyp/optee_os/lib/libmbedtls/mbedtls/library/bignum.c:2320
    6818:	2101      	movs	r1, #1
    681a:	4630      	mov	r0, r6
    681c:	f7fe fba4 	bl	4f68 <mbedtls_mpi_shift_r>
    6820:	bb50      	cbnz	r0, 6878 <mbedtls_mpi_gen_prime+0xee>
/home/hsk/Desktop/devel/tee-tpm-hyp/optee_os/lib/libmbedtls/mbedtls/library/bignum.c:2328
    6822:	4620      	mov	r0, r4
    6824:	f7ff f994 	bl	5b50 <mpi_check_small_factors>
    6828:	b978      	cbnz	r0, 684a <mbedtls_mpi_gen_prime+0xc0>
/home/hsk/Desktop/devel/tee-tpm-hyp/optee_os/lib/libmbedtls/mbedtls/library/bignum.c:2328 (discriminator 1)
    682a:	4630      	mov	r0, r6
    682c:	f7ff f990 	bl	5b50 <mpi_check_small_factors>
    6830:	b958      	cbnz	r0, 684a <mbedtls_mpi_gen_prime+0xc0>
/home/hsk/Desktop/devel/tee-tpm-hyp/optee_os/lib/libmbedtls/mbedtls/library/bignum.c:2329
    6832:	9a0c      	ldr	r2, [sp, #48]	; 0x30
    6834:	4641      	mov	r1, r8
    6836:	4620      	mov	r0, r4
    6838:	f7ff fd07 	bl	624a <mpi_miller_rabin>
    683c:	b928      	cbnz	r0, 684a <mbedtls_mpi_gen_prime+0xc0>
/home/hsk/Desktop/devel/tee-tpm-hyp/optee_os/lib/libmbedtls/mbedtls/library/bignum.c:2330
    683e:	9a0c      	ldr	r2, [sp, #48]	; 0x30
    6840:	4641      	mov	r1, r8
    6842:	4630      	mov	r0, r6
    6844:	f7ff fd01 	bl	624a <mpi_miller_rabin>
    6848:	b308      	cbz	r0, 688e <mbedtls_mpi_gen_prime+0x104>
/home/hsk/Desktop/devel/tee-tpm-hyp/optee_os/lib/libmbedtls/mbedtls/library/bignum.c:2336
    684a:	f110 0f0e 	cmn.w	r0, #14
    684e:	d113      	bne.n	6878 <mbedtls_mpi_gen_prime+0xee>
/home/hsk/Desktop/devel/tee-tpm-hyp/optee_os/lib/libmbedtls/mbedtls/library/bignum.c:2344
    6850:	220c      	movs	r2, #12
    6852:	4621      	mov	r1, r4
    6854:	4620      	mov	r0, r4
    6856:	f7fe fd3b 	bl	52d0 <mbedtls_mpi_add_int>
    685a:	b968      	cbnz	r0, 6878 <mbedtls_mpi_gen_prime+0xee>
/home/hsk/Desktop/devel/tee-tpm-hyp/optee_os/lib/libmbedtls/mbedtls/library/bignum.c:2345
    685c:	2206      	movs	r2, #6
    685e:	4631      	mov	r1, r6
    6860:	4630      	mov	r0, r6
    6862:	f7fe fd35 	bl	52d0 <mbedtls_mpi_add_int>
    6866:	e7db      	b.n	6820 <mbedtls_mpi_gen_prime+0x96>
/home/hsk/Desktop/devel/tee-tpm-hyp/optee_os/lib/libmbedtls/mbedtls/library/bignum.c:2286 (discriminator 1)
    6868:	f1c7 0101 	rsb	r1, r7, #1
    686c:	4401      	add	r1, r0
    686e:	4620      	mov	r0, r4
    6870:	f7fe fb7a 	bl	4f68 <mbedtls_mpi_shift_r>
    6874:	2800      	cmp	r0, #0
    6876:	d0ad      	beq.n	67d4 <mbedtls_mpi_gen_prime+0x4a>
/home/hsk/Desktop/devel/tee-tpm-hyp/optee_os/lib/libmbedtls/mbedtls/library/bignum.c:2349
    6878:	4605      	mov	r5, r0
    687a:	e008      	b.n	688e <mbedtls_mpi_gen_prime+0x104>
/home/hsk/Desktop/devel/tee-tpm-hyp/optee_os/lib/libmbedtls/mbedtls/library/bignum.c:2290
    687c:	f043 0301 	orr.w	r3, r3, #1
    6880:	6013      	str	r3, [r2, #0]
/home/hsk/Desktop/devel/tee-tpm-hyp/optee_os/lib/libmbedtls/mbedtls/library/bignum.c:2294
    6882:	9a0c      	ldr	r2, [sp, #48]	; 0x30
    6884:	4641      	mov	r1, r8
    6886:	4620      	mov	r0, r4
    6888:	f7ff ff51 	bl	672e <mbedtls_mpi_is_prime>
    688c:	b930      	cbnz	r0, 689c <mbedtls_mpi_gen_prime+0x112>
/home/hsk/Desktop/devel/tee-tpm-hyp/optee_os/lib/libmbedtls/mbedtls/library/bignum.c:2351
    688e:	4630      	mov	r0, r6
    6890:	f7fe f89b 	bl	49ca <mbedtls_mpi_free>
/home/hsk/Desktop/devel/tee-tpm-hyp/optee_os/lib/libmbedtls/mbedtls/library/bignum.c:2354
    6894:	4628      	mov	r0, r5
    6896:	b005      	add	sp, #20
    6898:	e8bd 83f0 	ldmia.w	sp!, {r4, r5, r6, r7, r8, r9, pc}
/home/hsk/Desktop/devel/tee-tpm-hyp/optee_os/lib/libmbedtls/mbedtls/library/bignum.c:2296
    689c:	f110 0f0e 	cmn.w	r0, #14
    68a0:	d1ea      	bne.n	6878 <mbedtls_mpi_gen_prime+0xee>
/home/hsk/Desktop/devel/tee-tpm-hyp/optee_os/lib/libmbedtls/mbedtls/library/bignum.c:2299
    68a2:	2202      	movs	r2, #2
    68a4:	4621      	mov	r1, r4
    68a6:	4620      	mov	r0, r4
    68a8:	f7fe fd12 	bl	52d0 <mbedtls_mpi_add_int>
    68ac:	2800      	cmp	r0, #0
    68ae:	d0e8      	beq.n	6882 <mbedtls_mpi_gen_prime+0xf8>
/home/hsk/Desktop/devel/tee-tpm-hyp/optee_os/lib/libmbedtls/mbedtls/library/bignum.c:2349
    68b0:	e7e2      	b.n	6878 <mbedtls_mpi_gen_prime+0xee>
/home/hsk/Desktop/devel/tee-tpm-hyp/optee_os/lib/libmbedtls/mbedtls/library/bignum.c:2315
    68b2:	2b01      	cmp	r3, #1
    68b4:	d1ab      	bne.n	680e <mbedtls_mpi_gen_prime+0x84>
/home/hsk/Desktop/devel/tee-tpm-hyp/optee_os/lib/libmbedtls/mbedtls/library/bignum.c:2316
    68b6:	2204      	movs	r2, #4
    68b8:	e7a4      	b.n	6804 <mbedtls_mpi_gen_prime+0x7a>
/home/hsk/Desktop/devel/tee-tpm-hyp/optee_os/lib/libmbedtls/mbedtls/library/bignum.c:2277
    68ba:	f06f 0503 	mvn.w	r5, #3
    68be:	e7e9      	b.n	6894 <mbedtls_mpi_gen_prime+0x10a>

000068c0 <mbedtls_mpi_self_test>:
mbedtls_mpi_self_test():
/home/hsk/Desktop/devel/tee-tpm-hyp/optee_os/lib/libmbedtls/mbedtls/library/bignum.c:2373
    68c0:	e92d 4ff0 	stmdb	sp!, {r4, r5, r6, r7, r8, r9, sl, fp, lr}
    68c4:	4604      	mov	r4, r0
    68c6:	b09b      	sub	sp, #108	; 0x6c
/home/hsk/Desktop/devel/tee-tpm-hyp/optee_os/lib/libmbedtls/mbedtls/library/bignum.c:2377
    68c8:	af05      	add	r7, sp, #20
    68ca:	f10d 0b20 	add.w	fp, sp, #32
    68ce:	4638      	mov	r0, r7
/home/hsk/Desktop/devel/tee-tpm-hyp/optee_os/lib/libmbedtls/mbedtls/library/bignum.c:2378
    68d0:	f10d 082c 	add.w	r8, sp, #44	; 0x2c
/home/hsk/Desktop/devel/tee-tpm-hyp/optee_os/lib/libmbedtls/mbedtls/library/bignum.c:2377
    68d4:	f7fe f85e 	bl	4994 <mbedtls_mpi_init_mempool>
    68d8:	4658      	mov	r0, fp
    68da:	f7fe f85b 	bl	4994 <mbedtls_mpi_init_mempool>
/home/hsk/Desktop/devel/tee-tpm-hyp/optee_os/lib/libmbedtls/mbedtls/library/bignum.c:2378
    68de:	ad0e      	add	r5, sp, #56	; 0x38
    68e0:	4640      	mov	r0, r8
/home/hsk/Desktop/devel/tee-tpm-hyp/optee_os/lib/libmbedtls/mbedtls/library/bignum.c:2379
    68e2:	f10d 0944 	add.w	r9, sp, #68	; 0x44
/home/hsk/Desktop/devel/tee-tpm-hyp/optee_os/lib/libmbedtls/mbedtls/library/bignum.c:2378
    68e6:	f7fe f855 	bl	4994 <mbedtls_mpi_init_mempool>
    68ea:	4628      	mov	r0, r5
    68ec:	f7fe f852 	bl	4994 <mbedtls_mpi_init_mempool>
/home/hsk/Desktop/devel/tee-tpm-hyp/optee_os/lib/libmbedtls/mbedtls/library/bignum.c:2379
    68f0:	ae14      	add	r6, sp, #80	; 0x50
    68f2:	4648      	mov	r0, r9
    68f4:	f7fe f84e 	bl	4994 <mbedtls_mpi_init_mempool>
    68f8:	4630      	mov	r0, r6
    68fa:	f7fe f84b 	bl	4994 <mbedtls_mpi_init_mempool>
/home/hsk/Desktop/devel/tee-tpm-hyp/optee_os/lib/libmbedtls/mbedtls/library/bignum.c:2380
    68fe:	a817      	add	r0, sp, #92	; 0x5c
    6900:	f7fe f848 	bl	4994 <mbedtls_mpi_init_mempool>
/home/hsk/Desktop/devel/tee-tpm-hyp/optee_os/lib/libmbedtls/mbedtls/library/bignum.c:2382
    6904:	4aa3      	ldr	r2, [pc, #652]	; (6b94 <mbedtls_mpi_self_test+0x2d4>)
    6906:	2110      	movs	r1, #16
    6908:	4638      	mov	r0, r7
    690a:	447a      	add	r2, pc
    690c:	f7fe fd8b 	bl	5426 <mbedtls_mpi_read_string>
    6910:	4603      	mov	r3, r0
    6912:	2800      	cmp	r0, #0
    6914:	f040 8123 	bne.w	6b5e <mbedtls_mpi_self_test+0x29e>
/home/hsk/Desktop/devel/tee-tpm-hyp/optee_os/lib/libmbedtls/mbedtls/library/bignum.c:2388
    6918:	4a9f      	ldr	r2, [pc, #636]	; (6b98 <mbedtls_mpi_self_test+0x2d8>)
    691a:	2110      	movs	r1, #16
    691c:	4658      	mov	r0, fp
    691e:	447a      	add	r2, pc
    6920:	f7fe fd81 	bl	5426 <mbedtls_mpi_read_string>
    6924:	4603      	mov	r3, r0
    6926:	2800      	cmp	r0, #0
    6928:	f040 8119 	bne.w	6b5e <mbedtls_mpi_self_test+0x29e>
/home/hsk/Desktop/devel/tee-tpm-hyp/optee_os/lib/libmbedtls/mbedtls/library/bignum.c:2394
    692c:	4a9b      	ldr	r2, [pc, #620]	; (6b9c <mbedtls_mpi_self_test+0x2dc>)
    692e:	2110      	movs	r1, #16
    6930:	4640      	mov	r0, r8
    6932:	447a      	add	r2, pc
    6934:	f7fe fd77 	bl	5426 <mbedtls_mpi_read_string>
    6938:	4603      	mov	r3, r0
    693a:	2800      	cmp	r0, #0
    693c:	f040 810f 	bne.w	6b5e <mbedtls_mpi_self_test+0x29e>
/home/hsk/Desktop/devel/tee-tpm-hyp/optee_os/lib/libmbedtls/mbedtls/library/bignum.c:2399
    6940:	4642      	mov	r2, r8
    6942:	4639      	mov	r1, r7
    6944:	4628      	mov	r0, r5
    6946:	f7fe fcf3 	bl	5330 <mbedtls_mpi_mul_mpi>
    694a:	4603      	mov	r3, r0
    694c:	2800      	cmp	r0, #0
    694e:	f040 8106 	bne.w	6b5e <mbedtls_mpi_self_test+0x29e>
/home/hsk/Desktop/devel/tee-tpm-hyp/optee_os/lib/libmbedtls/mbedtls/library/bignum.c:2401
    6952:	4a93      	ldr	r2, [pc, #588]	; (6ba0 <mbedtls_mpi_self_test+0x2e0>)
    6954:	2110      	movs	r1, #16
    6956:	4630      	mov	r0, r6
    6958:	447a      	add	r2, pc
    695a:	f7fe fd64 	bl	5426 <mbedtls_mpi_read_string>
    695e:	4603      	mov	r3, r0
    6960:	2800      	cmp	r0, #0
    6962:	f040 80fc 	bne.w	6b5e <mbedtls_mpi_self_test+0x29e>
/home/hsk/Desktop/devel/tee-tpm-hyp/optee_os/lib/libmbedtls/mbedtls/library/bignum.c:2410
    6966:	b11c      	cbz	r4, 6970 <mbedtls_mpi_self_test+0xb0>
/home/hsk/Desktop/devel/tee-tpm-hyp/optee_os/lib/libmbedtls/mbedtls/library/bignum.c:2411
    6968:	488e      	ldr	r0, [pc, #568]	; (6ba4 <mbedtls_mpi_self_test+0x2e4>)
    696a:	4478      	add	r0, pc
    696c:	f7fa f971 	bl	c52 <printf>
/home/hsk/Desktop/devel/tee-tpm-hyp/optee_os/lib/libmbedtls/mbedtls/library/bignum.c:2413
    6970:	4631      	mov	r1, r6
    6972:	4628      	mov	r0, r5
    6974:	f7fe fb6a 	bl	504c <mbedtls_mpi_cmp_mpi>
    6978:	ab17      	add	r3, sp, #92	; 0x5c
    697a:	9303      	str	r3, [sp, #12]
    697c:	b170      	cbz	r0, 699c <mbedtls_mpi_self_test+0xdc>
/home/hsk/Desktop/devel/tee-tpm-hyp/optee_os/lib/libmbedtls/mbedtls/library/bignum.c:2415
    697e:	2c00      	cmp	r4, #0
    6980:	f000 80f0 	beq.w	6b64 <mbedtls_mpi_self_test+0x2a4>
/home/hsk/Desktop/devel/tee-tpm-hyp/optee_os/lib/libmbedtls/mbedtls/library/bignum.c:2416
    6984:	4888      	ldr	r0, [pc, #544]	; (6ba8 <mbedtls_mpi_self_test+0x2e8>)
    6986:	4478      	add	r0, pc
    6988:	f7fa f980 	bl	c8c <puts>
/home/hsk/Desktop/devel/tee-tpm-hyp/optee_os/lib/libmbedtls/mbedtls/library/bignum.c:2508
    698c:	2301      	movs	r3, #1
/home/hsk/Desktop/devel/tee-tpm-hyp/optee_os/lib/libmbedtls/mbedtls/library/bignum.c:2521
    698e:	4887      	ldr	r0, [pc, #540]	; (6bac <mbedtls_mpi_self_test+0x2ec>)
    6990:	4619      	mov	r1, r3
    6992:	9302      	str	r3, [sp, #8]
    6994:	4478      	add	r0, pc
    6996:	f7fa f95c 	bl	c52 <printf>
    699a:	e0bd      	b.n	6b18 <mbedtls_mpi_self_test+0x258>
/home/hsk/Desktop/devel/tee-tpm-hyp/optee_os/lib/libmbedtls/mbedtls/library/bignum.c:2422
    699c:	b11c      	cbz	r4, 69a6 <mbedtls_mpi_self_test+0xe6>
/home/hsk/Desktop/devel/tee-tpm-hyp/optee_os/lib/libmbedtls/mbedtls/library/bignum.c:2423
    699e:	4884      	ldr	r0, [pc, #528]	; (6bb0 <mbedtls_mpi_self_test+0x2f0>)
    69a0:	4478      	add	r0, pc
    69a2:	f7fa f973 	bl	c8c <puts>
/home/hsk/Desktop/devel/tee-tpm-hyp/optee_os/lib/libmbedtls/mbedtls/library/bignum.c:2425
    69a6:	4643      	mov	r3, r8
    69a8:	463a      	mov	r2, r7
    69aa:	4649      	mov	r1, r9
    69ac:	4628      	mov	r0, r5
    69ae:	f7fe fdd0 	bl	5552 <mbedtls_mpi_div_mpi>
    69b2:	4603      	mov	r3, r0
    69b4:	2800      	cmp	r0, #0
    69b6:	f040 80d2 	bne.w	6b5e <mbedtls_mpi_self_test+0x29e>
/home/hsk/Desktop/devel/tee-tpm-hyp/optee_os/lib/libmbedtls/mbedtls/library/bignum.c:2427
    69ba:	4a7e      	ldr	r2, [pc, #504]	; (6bb4 <mbedtls_mpi_self_test+0x2f4>)
    69bc:	2110      	movs	r1, #16
    69be:	4630      	mov	r0, r6
    69c0:	447a      	add	r2, pc
    69c2:	f7fe fd30 	bl	5426 <mbedtls_mpi_read_string>
    69c6:	4603      	mov	r3, r0
    69c8:	2800      	cmp	r0, #0
    69ca:	f040 80c8 	bne.w	6b5e <mbedtls_mpi_self_test+0x29e>
/home/hsk/Desktop/devel/tee-tpm-hyp/optee_os/lib/libmbedtls/mbedtls/library/bignum.c:2430
    69ce:	4a7a      	ldr	r2, [pc, #488]	; (6bb8 <mbedtls_mpi_self_test+0x2f8>)
    69d0:	2110      	movs	r1, #16
    69d2:	9803      	ldr	r0, [sp, #12]
    69d4:	447a      	add	r2, pc
    69d6:	f7fe fd26 	bl	5426 <mbedtls_mpi_read_string>
    69da:	4603      	mov	r3, r0
    69dc:	2800      	cmp	r0, #0
    69de:	f040 80be 	bne.w	6b5e <mbedtls_mpi_self_test+0x29e>
/home/hsk/Desktop/devel/tee-tpm-hyp/optee_os/lib/libmbedtls/mbedtls/library/bignum.c:2435
    69e2:	b11c      	cbz	r4, 69ec <mbedtls_mpi_self_test+0x12c>
/home/hsk/Desktop/devel/tee-tpm-hyp/optee_os/lib/libmbedtls/mbedtls/library/bignum.c:2436
    69e4:	4875      	ldr	r0, [pc, #468]	; (6bbc <mbedtls_mpi_self_test+0x2fc>)
    69e6:	4478      	add	r0, pc
    69e8:	f7fa f933 	bl	c52 <printf>
/home/hsk/Desktop/devel/tee-tpm-hyp/optee_os/lib/libmbedtls/mbedtls/library/bignum.c:2438
    69ec:	4631      	mov	r1, r6
    69ee:	4628      	mov	r0, r5
    69f0:	f7fe fb2c 	bl	504c <mbedtls_mpi_cmp_mpi>
    69f4:	2800      	cmp	r0, #0
    69f6:	d1c2      	bne.n	697e <mbedtls_mpi_self_test+0xbe>
/home/hsk/Desktop/devel/tee-tpm-hyp/optee_os/lib/libmbedtls/mbedtls/library/bignum.c:2439 (discriminator 1)
    69f8:	9903      	ldr	r1, [sp, #12]
    69fa:	4648      	mov	r0, r9
    69fc:	f7fe fb26 	bl	504c <mbedtls_mpi_cmp_mpi>
/home/hsk/Desktop/devel/tee-tpm-hyp/optee_os/lib/libmbedtls/mbedtls/library/bignum.c:2438 (discriminator 1)
    6a00:	2800      	cmp	r0, #0
    6a02:	d1bc      	bne.n	697e <mbedtls_mpi_self_test+0xbe>
/home/hsk/Desktop/devel/tee-tpm-hyp/optee_os/lib/libmbedtls/mbedtls/library/bignum.c:2448
    6a04:	b11c      	cbz	r4, 6a0e <mbedtls_mpi_self_test+0x14e>
/home/hsk/Desktop/devel/tee-tpm-hyp/optee_os/lib/libmbedtls/mbedtls/library/bignum.c:2449
    6a06:	486e      	ldr	r0, [pc, #440]	; (6bc0 <mbedtls_mpi_self_test+0x300>)
    6a08:	4478      	add	r0, pc
    6a0a:	f7fa f93f 	bl	c8c <puts>
/home/hsk/Desktop/devel/tee-tpm-hyp/optee_os/lib/libmbedtls/mbedtls/library/bignum.c:2451
    6a0e:	2300      	movs	r3, #0
    6a10:	465a      	mov	r2, fp
    6a12:	9300      	str	r3, [sp, #0]
    6a14:	4639      	mov	r1, r7
    6a16:	4643      	mov	r3, r8
    6a18:	4628      	mov	r0, r5
    6a1a:	f7ff f949 	bl	5cb0 <mbedtls_mpi_exp_mod>
    6a1e:	4603      	mov	r3, r0
    6a20:	2800      	cmp	r0, #0
    6a22:	f040 809c 	bne.w	6b5e <mbedtls_mpi_self_test+0x29e>
/home/hsk/Desktop/devel/tee-tpm-hyp/optee_os/lib/libmbedtls/mbedtls/library/bignum.c:2453
    6a26:	4a67      	ldr	r2, [pc, #412]	; (6bc4 <mbedtls_mpi_self_test+0x304>)
    6a28:	2110      	movs	r1, #16
    6a2a:	4630      	mov	r0, r6
    6a2c:	447a      	add	r2, pc
    6a2e:	f7fe fcfa 	bl	5426 <mbedtls_mpi_read_string>
    6a32:	4603      	mov	r3, r0
    6a34:	2800      	cmp	r0, #0
    6a36:	f040 8092 	bne.w	6b5e <mbedtls_mpi_self_test+0x29e>
/home/hsk/Desktop/devel/tee-tpm-hyp/optee_os/lib/libmbedtls/mbedtls/library/bignum.c:2458
    6a3a:	b11c      	cbz	r4, 6a44 <mbedtls_mpi_self_test+0x184>
/home/hsk/Desktop/devel/tee-tpm-hyp/optee_os/lib/libmbedtls/mbedtls/library/bignum.c:2459
    6a3c:	4862      	ldr	r0, [pc, #392]	; (6bc8 <mbedtls_mpi_self_test+0x308>)
    6a3e:	4478      	add	r0, pc
    6a40:	f7fa f907 	bl	c52 <printf>
/home/hsk/Desktop/devel/tee-tpm-hyp/optee_os/lib/libmbedtls/mbedtls/library/bignum.c:2461
    6a44:	4631      	mov	r1, r6
    6a46:	4628      	mov	r0, r5
    6a48:	f7fe fb00 	bl	504c <mbedtls_mpi_cmp_mpi>
    6a4c:	2800      	cmp	r0, #0
    6a4e:	d196      	bne.n	697e <mbedtls_mpi_self_test+0xbe>
/home/hsk/Desktop/devel/tee-tpm-hyp/optee_os/lib/libmbedtls/mbedtls/library/bignum.c:2470
    6a50:	b11c      	cbz	r4, 6a5a <mbedtls_mpi_self_test+0x19a>
/home/hsk/Desktop/devel/tee-tpm-hyp/optee_os/lib/libmbedtls/mbedtls/library/bignum.c:2471
    6a52:	485e      	ldr	r0, [pc, #376]	; (6bcc <mbedtls_mpi_self_test+0x30c>)
    6a54:	4478      	add	r0, pc
    6a56:	f7fa f919 	bl	c8c <puts>
/home/hsk/Desktop/devel/tee-tpm-hyp/optee_os/lib/libmbedtls/mbedtls/library/bignum.c:2473
    6a5a:	4642      	mov	r2, r8
    6a5c:	4639      	mov	r1, r7
    6a5e:	4628      	mov	r0, r5
    6a60:	f7ff fcfe 	bl	6460 <mbedtls_mpi_inv_mod>
    6a64:	4603      	mov	r3, r0
    6a66:	2800      	cmp	r0, #0
    6a68:	d179      	bne.n	6b5e <mbedtls_mpi_self_test+0x29e>
/home/hsk/Desktop/devel/tee-tpm-hyp/optee_os/lib/libmbedtls/mbedtls/library/bignum.c:2475
    6a6a:	4a59      	ldr	r2, [pc, #356]	; (6bd0 <mbedtls_mpi_self_test+0x310>)
    6a6c:	2110      	movs	r1, #16
    6a6e:	4630      	mov	r0, r6
    6a70:	447a      	add	r2, pc
    6a72:	f7fe fcd8 	bl	5426 <mbedtls_mpi_read_string>
    6a76:	4603      	mov	r3, r0
    6a78:	2800      	cmp	r0, #0
    6a7a:	d170      	bne.n	6b5e <mbedtls_mpi_self_test+0x29e>
/home/hsk/Desktop/devel/tee-tpm-hyp/optee_os/lib/libmbedtls/mbedtls/library/bignum.c:2480
    6a7c:	b11c      	cbz	r4, 6a86 <mbedtls_mpi_self_test+0x1c6>
/home/hsk/Desktop/devel/tee-tpm-hyp/optee_os/lib/libmbedtls/mbedtls/library/bignum.c:2481
    6a7e:	4855      	ldr	r0, [pc, #340]	; (6bd4 <mbedtls_mpi_self_test+0x314>)
    6a80:	4478      	add	r0, pc
    6a82:	f7fa f8e6 	bl	c52 <printf>
/home/hsk/Desktop/devel/tee-tpm-hyp/optee_os/lib/libmbedtls/mbedtls/library/bignum.c:2483
    6a86:	4631      	mov	r1, r6
    6a88:	4628      	mov	r0, r5
    6a8a:	f7fe fadf 	bl	504c <mbedtls_mpi_cmp_mpi>
    6a8e:	9002      	str	r0, [sp, #8]
    6a90:	2800      	cmp	r0, #0
    6a92:	f47f af74 	bne.w	697e <mbedtls_mpi_self_test+0xbe>
/home/hsk/Desktop/devel/tee-tpm-hyp/optee_os/lib/libmbedtls/mbedtls/library/bignum.c:2492
    6a96:	b13c      	cbz	r4, 6aa8 <mbedtls_mpi_self_test+0x1e8>
/home/hsk/Desktop/devel/tee-tpm-hyp/optee_os/lib/libmbedtls/mbedtls/library/bignum.c:2493
    6a98:	484f      	ldr	r0, [pc, #316]	; (6bd8 <mbedtls_mpi_self_test+0x318>)
    6a9a:	4478      	add	r0, pc
    6a9c:	f7fa f8f6 	bl	c8c <puts>
/home/hsk/Desktop/devel/tee-tpm-hyp/optee_os/lib/libmbedtls/mbedtls/library/bignum.c:2496
    6aa0:	484e      	ldr	r0, [pc, #312]	; (6bdc <mbedtls_mpi_self_test+0x31c>)
    6aa2:	4478      	add	r0, pc
    6aa4:	f7fa f8d5 	bl	c52 <printf>
    6aa8:	f8df a134 	ldr.w	sl, [pc, #308]	; 6be0 <mbedtls_mpi_self_test+0x320>
    6aac:	44fa      	add	sl, pc
    6aae:	f50a 7a28 	add.w	sl, sl, #672	; 0x2a0
/home/hsk/Desktop/devel/tee-tpm-hyp/optee_os/lib/libmbedtls/mbedtls/library/bignum.c:2500
    6ab2:	f8da 1000 	ldr.w	r1, [sl]
    6ab6:	4628      	mov	r0, r5
    6ab8:	f7fe f923 	bl	4d02 <mbedtls_mpi_lset>
    6abc:	4603      	mov	r3, r0
    6abe:	2800      	cmp	r0, #0
    6ac0:	d14d      	bne.n	6b5e <mbedtls_mpi_self_test+0x29e>
/home/hsk/Desktop/devel/tee-tpm-hyp/optee_os/lib/libmbedtls/mbedtls/library/bignum.c:2501
    6ac2:	f8da 1004 	ldr.w	r1, [sl, #4]
    6ac6:	4648      	mov	r0, r9
    6ac8:	f7fe f91b 	bl	4d02 <mbedtls_mpi_lset>
    6acc:	4603      	mov	r3, r0
    6ace:	2800      	cmp	r0, #0
    6ad0:	d145      	bne.n	6b5e <mbedtls_mpi_self_test+0x29e>
/home/hsk/Desktop/devel/tee-tpm-hyp/optee_os/lib/libmbedtls/mbedtls/library/bignum.c:2503
    6ad2:	464a      	mov	r2, r9
    6ad4:	4629      	mov	r1, r5
    6ad6:	4638      	mov	r0, r7
    6ad8:	f7ff fb14 	bl	6104 <mbedtls_mpi_gcd>
    6adc:	4603      	mov	r3, r0
    6ade:	2800      	cmp	r0, #0
    6ae0:	d13d      	bne.n	6b5e <mbedtls_mpi_self_test+0x29e>
/home/hsk/Desktop/devel/tee-tpm-hyp/optee_os/lib/libmbedtls/mbedtls/library/bignum.c:2505
    6ae2:	f8da 1008 	ldr.w	r1, [sl, #8]
    6ae6:	4638      	mov	r0, r7
    6ae8:	f7fe faf9 	bl	50de <mbedtls_mpi_cmp_int>
    6aec:	b138      	cbz	r0, 6afe <mbedtls_mpi_self_test+0x23e>
/home/hsk/Desktop/devel/tee-tpm-hyp/optee_os/lib/libmbedtls/mbedtls/library/bignum.c:2507
    6aee:	2c00      	cmp	r4, #0
    6af0:	d038      	beq.n	6b64 <mbedtls_mpi_self_test+0x2a4>
/home/hsk/Desktop/devel/tee-tpm-hyp/optee_os/lib/libmbedtls/mbedtls/library/bignum.c:2508
    6af2:	483c      	ldr	r0, [pc, #240]	; (6be4 <mbedtls_mpi_self_test+0x324>)
    6af4:	9902      	ldr	r1, [sp, #8]
    6af6:	4478      	add	r0, pc
    6af8:	f7fa f8ab 	bl	c52 <printf>
    6afc:	e746      	b.n	698c <mbedtls_mpi_self_test+0xcc>
/home/hsk/Desktop/devel/tee-tpm-hyp/optee_os/lib/libmbedtls/mbedtls/library/bignum.c:2498 (discriminator 2)
    6afe:	9a02      	ldr	r2, [sp, #8]
    6b00:	f10a 0a0c 	add.w	sl, sl, #12
    6b04:	3201      	adds	r2, #1
    6b06:	9202      	str	r2, [sp, #8]
    6b08:	2a03      	cmp	r2, #3
    6b0a:	d1d2      	bne.n	6ab2 <mbedtls_mpi_self_test+0x1f2>
/home/hsk/Desktop/devel/tee-tpm-hyp/optee_os/lib/libmbedtls/mbedtls/library/bignum.c:2515
    6b0c:	b32c      	cbz	r4, 6b5a <mbedtls_mpi_self_test+0x29a>
    6b0e:	9002      	str	r0, [sp, #8]
/home/hsk/Desktop/devel/tee-tpm-hyp/optee_os/lib/libmbedtls/mbedtls/library/bignum.c:2516
    6b10:	4835      	ldr	r0, [pc, #212]	; (6be8 <mbedtls_mpi_self_test+0x328>)
    6b12:	4478      	add	r0, pc
    6b14:	f7fa f8ba 	bl	c8c <puts>
    6b18:	9b02      	ldr	r3, [sp, #8]
/home/hsk/Desktop/devel/tee-tpm-hyp/optee_os/lib/libmbedtls/mbedtls/library/bignum.c:2523
    6b1a:	4638      	mov	r0, r7
    6b1c:	9302      	str	r3, [sp, #8]
    6b1e:	f7fd ff54 	bl	49ca <mbedtls_mpi_free>
    6b22:	4658      	mov	r0, fp
    6b24:	f7fd ff51 	bl	49ca <mbedtls_mpi_free>
    6b28:	4640      	mov	r0, r8
    6b2a:	f7fd ff4e 	bl	49ca <mbedtls_mpi_free>
    6b2e:	4628      	mov	r0, r5
    6b30:	f7fd ff4b 	bl	49ca <mbedtls_mpi_free>
/home/hsk/Desktop/devel/tee-tpm-hyp/optee_os/lib/libmbedtls/mbedtls/library/bignum.c:2524
    6b34:	4648      	mov	r0, r9
    6b36:	f7fd ff48 	bl	49ca <mbedtls_mpi_free>
    6b3a:	4630      	mov	r0, r6
    6b3c:	f7fd ff45 	bl	49ca <mbedtls_mpi_free>
    6b40:	a817      	add	r0, sp, #92	; 0x5c
    6b42:	f7fd ff42 	bl	49ca <mbedtls_mpi_free>
/home/hsk/Desktop/devel/tee-tpm-hyp/optee_os/lib/libmbedtls/mbedtls/library/bignum.c:2526
    6b46:	9b02      	ldr	r3, [sp, #8]
    6b48:	b11c      	cbz	r4, 6b52 <mbedtls_mpi_self_test+0x292>
/home/hsk/Desktop/devel/tee-tpm-hyp/optee_os/lib/libmbedtls/mbedtls/library/bignum.c:2527
    6b4a:	200a      	movs	r0, #10
    6b4c:	f7fa f8b0 	bl	cb0 <putchar>
/home/hsk/Desktop/devel/tee-tpm-hyp/optee_os/lib/libmbedtls/mbedtls/library/bignum.c:2529
    6b50:	9b02      	ldr	r3, [sp, #8]
/home/hsk/Desktop/devel/tee-tpm-hyp/optee_os/lib/libmbedtls/mbedtls/library/bignum.c:2530
    6b52:	4618      	mov	r0, r3
    6b54:	b01b      	add	sp, #108	; 0x6c
    6b56:	e8bd 8ff0 	ldmia.w	sp!, {r4, r5, r6, r7, r8, r9, sl, fp, pc}
/home/hsk/Desktop/devel/tee-tpm-hyp/optee_os/lib/libmbedtls/mbedtls/library/bignum.c:2518
    6b5a:	4623      	mov	r3, r4
    6b5c:	e7dd      	b.n	6b1a <mbedtls_mpi_self_test+0x25a>
/home/hsk/Desktop/devel/tee-tpm-hyp/optee_os/lib/libmbedtls/mbedtls/library/bignum.c:2520
    6b5e:	2c00      	cmp	r4, #0
    6b60:	d0db      	beq.n	6b1a <mbedtls_mpi_self_test+0x25a>
    6b62:	e714      	b.n	698e <mbedtls_mpi_self_test+0xce>
/home/hsk/Desktop/devel/tee-tpm-hyp/optee_os/lib/libmbedtls/mbedtls/library/bignum.c:2523
    6b64:	4638      	mov	r0, r7
    6b66:	f7fd ff30 	bl	49ca <mbedtls_mpi_free>
    6b6a:	4658      	mov	r0, fp
    6b6c:	f7fd ff2d 	bl	49ca <mbedtls_mpi_free>
    6b70:	4640      	mov	r0, r8
    6b72:	f7fd ff2a 	bl	49ca <mbedtls_mpi_free>
    6b76:	4628      	mov	r0, r5
    6b78:	f7fd ff27 	bl	49ca <mbedtls_mpi_free>
/home/hsk/Desktop/devel/tee-tpm-hyp/optee_os/lib/libmbedtls/mbedtls/library/bignum.c:2524
    6b7c:	4648      	mov	r0, r9
    6b7e:	f7fd ff24 	bl	49ca <mbedtls_mpi_free>
    6b82:	4630      	mov	r0, r6
    6b84:	f7fd ff21 	bl	49ca <mbedtls_mpi_free>
    6b88:	9803      	ldr	r0, [sp, #12]
    6b8a:	f7fd ff1e 	bl	49ca <mbedtls_mpi_free>
    6b8e:	2301      	movs	r3, #1
    6b90:	e7df      	b.n	6b52 <mbedtls_mpi_self_test+0x292>
    6b92:	bf00      	nop
    6b94:	00001a94 	.word	0x00001a94
    6b98:	00001b01 	.word	0x00001b01
    6b9c:	00001b6e 	.word	0x00001b6e
    6ba0:	00001ba9 	.word	0x00001ba9
    6ba4:	00001c76 	.word	0x00001c76
    6ba8:	00001c74 	.word	0x00001c74
    6bac:	00001e30 	.word	0x00001e30
    6bb0:	00001c61 	.word	0x00001c61
    6bb4:	00001c48 	.word	0x00001c48
    6bb8:	00001c58 	.word	0x00001c58
    6bbc:	00001ca5 	.word	0x00001ca5
    6bc0:	00001bf9 	.word	0x00001bf9
    6bc4:	00001c79 	.word	0x00001c79
    6bc8:	00001cc6 	.word	0x00001cc6
    6bcc:	00001bad 	.word	0x00001bad
    6bd0:	00001cae 	.word	0x00001cae
    6bd4:	00001cff 	.word	0x00001cff
    6bd8:	00001b67 	.word	0x00001b67
    6bdc:	00001cf7 	.word	0x00001cf7
    6be0:	00001134 	.word	0x00001134
    6be4:	00001cc0 	.word	0x00001cc0
    6be8:	00001aef 	.word	0x00001aef

00006bec <raw_malloc_return_hook.isra.3>:
raw_malloc_return_hook():
/home/hsk/Desktop/devel/tee-tpm-hyp/optee_os/lib/libutils/isoc/bget_malloc.c:167
    6bec:	4b09      	ldr	r3, [pc, #36]	; (6c14 <raw_malloc_return_hook.isra.3+0x28>)
/home/hsk/Desktop/devel/tee-tpm-hyp/optee_os/lib/libutils/isoc/bget_malloc.c:164
    6bee:	b510      	push	{r4, lr}
/home/hsk/Desktop/devel/tee-tpm-hyp/optee_os/lib/libutils/isoc/bget_malloc.c:167
    6bf0:	447b      	add	r3, pc
    6bf2:	6a5c      	ldr	r4, [r3, #36]	; 0x24
    6bf4:	42a2      	cmp	r2, r4
    6bf6:	d900      	bls.n	6bfa <raw_malloc_return_hook.isra.3+0xe>
/home/hsk/Desktop/devel/tee-tpm-hyp/optee_os/lib/libutils/isoc/bget_malloc.c:168
    6bf8:	625a      	str	r2, [r3, #36]	; 0x24
/home/hsk/Desktop/devel/tee-tpm-hyp/optee_os/lib/libutils/isoc/bget_malloc.c:170
    6bfa:	b948      	cbnz	r0, 6c10 <raw_malloc_return_hook.isra.3+0x24>
/home/hsk/Desktop/devel/tee-tpm-hyp/optee_os/lib/libutils/isoc/bget_malloc.c:171
    6bfc:	4b06      	ldr	r3, [pc, #24]	; (6c18 <raw_malloc_return_hook.isra.3+0x2c>)
    6bfe:	447b      	add	r3, pc
    6c00:	6ad8      	ldr	r0, [r3, #44]	; 0x2c
    6c02:	3001      	adds	r0, #1
    6c04:	62d8      	str	r0, [r3, #44]	; 0x2c
/home/hsk/Desktop/devel/tee-tpm-hyp/optee_os/lib/libutils/isoc/bget_malloc.c:172
    6c06:	6b18      	ldr	r0, [r3, #48]	; 0x30
    6c08:	4288      	cmp	r0, r1
    6c0a:	d201      	bcs.n	6c10 <raw_malloc_return_hook.isra.3+0x24>
/home/hsk/Desktop/devel/tee-tpm-hyp/optee_os/lib/libutils/isoc/bget_malloc.c:173
    6c0c:	6319      	str	r1, [r3, #48]	; 0x30
/home/hsk/Desktop/devel/tee-tpm-hyp/optee_os/lib/libutils/isoc/bget_malloc.c:174
    6c0e:	635a      	str	r2, [r3, #52]	; 0x34
/home/hsk/Desktop/devel/tee-tpm-hyp/optee_os/lib/libutils/isoc/bget_malloc.c:177
    6c10:	bd10      	pop	{r4, pc}
    6c12:	bf00      	nop
    6c14:	000054d4 	.word	0x000054d4
    6c18:	000054c6 	.word	0x000054c6

00006c1c <create_free_block.constprop.11>:
create_free_block():
/home/hsk/Desktop/devel/tee-tpm-hyp/optee_os/lib/libutils/isoc/bget_malloc.c:380
    6c1c:	b508      	push	{r3, lr}
/home/hsk/Desktop/devel/tee-tpm-hyp/optee_os/lib/libutils/isoc/bget_malloc.c:383
    6c1e:	1843      	adds	r3, r0, r1
    6c20:	4293      	cmp	r3, r2
    6c22:	d00b      	beq.n	6c3c <create_free_block.constprop.11+0x20>
    6c24:	4b23      	ldr	r3, [pc, #140]	; (6cb4 <create_free_block.constprop.11+0x98>)
    6c26:	f240 127f 	movw	r2, #383	; 0x17f
    6c2a:	4923      	ldr	r1, [pc, #140]	; (6cb8 <create_free_block.constprop.11+0x9c>)
    6c2c:	4823      	ldr	r0, [pc, #140]	; (6cbc <create_free_block.constprop.11+0xa0>)
    6c2e:	447b      	add	r3, pc
    6c30:	4479      	add	r1, pc
    6c32:	4478      	add	r0, pc
/home/hsk/Desktop/devel/tee-tpm-hyp/optee_os/lib/libutils/isoc/bget_malloc.c:384
    6c34:	f000 fe58 	bl	78e8 <_assert_log>
    6c38:	f000 fe6a 	bl	7910 <_assert_break>
    6c3c:	685b      	ldr	r3, [r3, #4]
    6c3e:	2b00      	cmp	r3, #0
    6c40:	db08      	blt.n	6c54 <create_free_block.constprop.11+0x38>
    6c42:	4b1f      	ldr	r3, [pc, #124]	; (6cc0 <create_free_block.constprop.11+0xa4>)
    6c44:	f44f 72c0 	mov.w	r2, #384	; 0x180
    6c48:	491e      	ldr	r1, [pc, #120]	; (6cc4 <create_free_block.constprop.11+0xa8>)
    6c4a:	481f      	ldr	r0, [pc, #124]	; (6cc8 <create_free_block.constprop.11+0xac>)
    6c4c:	447b      	add	r3, pc
    6c4e:	4479      	add	r1, pc
    6c50:	4478      	add	r0, pc
    6c52:	e7ef      	b.n	6c34 <create_free_block.constprop.11+0x18>
/home/hsk/Desktop/devel/tee-tpm-hyp/optee_os/lib/libutils/isoc/bget_malloc.c:386
    6c54:	5843      	ldr	r3, [r0, r1]
    6c56:	b143      	cbz	r3, 6c6a <create_free_block.constprop.11+0x4e>
    6c58:	4b1c      	ldr	r3, [pc, #112]	; (6ccc <create_free_block.constprop.11+0xb0>)
    6c5a:	f44f 72c1 	mov.w	r2, #386	; 0x182
    6c5e:	491c      	ldr	r1, [pc, #112]	; (6cd0 <create_free_block.constprop.11+0xb4>)
    6c60:	481c      	ldr	r0, [pc, #112]	; (6cd4 <create_free_block.constprop.11+0xb8>)
    6c62:	447b      	add	r3, pc
    6c64:	4479      	add	r1, pc
    6c66:	4478      	add	r0, pc
    6c68:	e7e4      	b.n	6c34 <create_free_block.constprop.11+0x18>
/home/hsk/Desktop/devel/tee-tpm-hyp/optee_os/lib/libutils/isoc/bget_malloc.c:390
    6c6a:	6003      	str	r3, [r0, #0]
/home/hsk/Desktop/devel/tee-tpm-hyp/optee_os/lib/libutils/isoc/bget_malloc.c:396
    6c6c:	4b1a      	ldr	r3, [pc, #104]	; (6cd8 <create_free_block.constprop.11+0xbc>)
/home/hsk/Desktop/devel/tee-tpm-hyp/optee_os/lib/libutils/isoc/bget_malloc.c:389
    6c6e:	6041      	str	r1, [r0, #4]
/home/hsk/Desktop/devel/tee-tpm-hyp/optee_os/lib/libutils/isoc/bget_malloc.c:396
    6c70:	447b      	add	r3, pc
/home/hsk/Desktop/devel/tee-tpm-hyp/optee_os/lib/libutils/isoc/bget_malloc.c:393
    6c72:	5041      	str	r1, [r0, r1]
/home/hsk/Desktop/devel/tee-tpm-hyp/optee_os/lib/libutils/isoc/bget_malloc.c:396
    6c74:	68d9      	ldr	r1, [r3, #12]
    6c76:	688a      	ldr	r2, [r1, #8]
    6c78:	429a      	cmp	r2, r3
    6c7a:	d008      	beq.n	6c8e <create_free_block.constprop.11+0x72>
    6c7c:	4b17      	ldr	r3, [pc, #92]	; (6cdc <create_free_block.constprop.11+0xc0>)
    6c7e:	f44f 72c6 	mov.w	r2, #396	; 0x18c
    6c82:	4917      	ldr	r1, [pc, #92]	; (6ce0 <create_free_block.constprop.11+0xc4>)
    6c84:	4817      	ldr	r0, [pc, #92]	; (6ce4 <create_free_block.constprop.11+0xc8>)
    6c86:	447b      	add	r3, pc
    6c88:	4479      	add	r1, pc
    6c8a:	4478      	add	r0, pc
    6c8c:	e7d2      	b.n	6c34 <create_free_block.constprop.11+0x18>
/home/hsk/Desktop/devel/tee-tpm-hyp/optee_os/lib/libutils/isoc/bget_malloc.c:397
    6c8e:	6893      	ldr	r3, [r2, #8]
    6c90:	68db      	ldr	r3, [r3, #12]
    6c92:	4293      	cmp	r3, r2
    6c94:	d008      	beq.n	6ca8 <create_free_block.constprop.11+0x8c>
    6c96:	4b14      	ldr	r3, [pc, #80]	; (6ce8 <create_free_block.constprop.11+0xcc>)
    6c98:	f240 128d 	movw	r2, #397	; 0x18d
    6c9c:	4913      	ldr	r1, [pc, #76]	; (6cec <create_free_block.constprop.11+0xd0>)
    6c9e:	4814      	ldr	r0, [pc, #80]	; (6cf0 <create_free_block.constprop.11+0xd4>)
    6ca0:	447b      	add	r3, pc
    6ca2:	4479      	add	r1, pc
    6ca4:	4478      	add	r0, pc
    6ca6:	e7c5      	b.n	6c34 <create_free_block.constprop.11+0x18>
/home/hsk/Desktop/devel/tee-tpm-hyp/optee_os/lib/libutils/isoc/bget_malloc.c:398
    6ca8:	6083      	str	r3, [r0, #8]
/home/hsk/Desktop/devel/tee-tpm-hyp/optee_os/lib/libutils/isoc/bget_malloc.c:399
    6caa:	60c1      	str	r1, [r0, #12]
/home/hsk/Desktop/devel/tee-tpm-hyp/optee_os/lib/libutils/isoc/bget_malloc.c:400
    6cac:	60d8      	str	r0, [r3, #12]
/home/hsk/Desktop/devel/tee-tpm-hyp/optee_os/lib/libutils/isoc/bget_malloc.c:401
    6cae:	68c3      	ldr	r3, [r0, #12]
    6cb0:	6098      	str	r0, [r3, #8]
/home/hsk/Desktop/devel/tee-tpm-hyp/optee_os/lib/libutils/isoc/bget_malloc.c:402
    6cb2:	bd08      	pop	{r3, pc}
    6cb4:	00001bbc 	.word	0x00001bbc
    6cb8:	00001c44 	.word	0x00001c44
    6cbc:	00001c62 	.word	0x00001c62
    6cc0:	00001b9e 	.word	0x00001b9e
    6cc4:	00001c26 	.word	0x00001c26
    6cc8:	00001c60 	.word	0x00001c60
    6ccc:	00001b88 	.word	0x00001b88
    6cd0:	00001c10 	.word	0x00001c10
    6cd4:	00001c58 	.word	0x00001c58
    6cd8:	00003408 	.word	0x00003408
    6cdc:	00001b64 	.word	0x00001b64
    6ce0:	00001bec 	.word	0x00001bec
    6ce4:	00001c46 	.word	0x00001c46
    6ce8:	00001b4a 	.word	0x00001b4a
    6cec:	00001bd2 	.word	0x00001bd2
    6cf0:	00001c67 	.word	0x00001c67

00006cf4 <bget>:
bget():
/home/hsk/Desktop/devel/tee-tpm-hyp/optee_os/lib/libutils/isoc/bget.c:582
    6cf4:	b570      	push	{r4, r5, r6, lr}
/home/hsk/Desktop/devel/tee-tpm-hyp/optee_os/lib/libutils/isoc/bget.c:593
    6cf6:	1e03      	subs	r3, r0, #0
    6cf8:	dc0c      	bgt.n	6d14 <bget+0x20>
/home/hsk/Desktop/devel/tee-tpm-hyp/optee_os/lib/libutils/isoc/bget.c:593 (discriminator 1)
    6cfa:	4b3c      	ldr	r3, [pc, #240]	; (6dec <bget+0xf8>)
    6cfc:	f240 2251 	movw	r2, #593	; 0x251
    6d00:	493b      	ldr	r1, [pc, #236]	; (6df0 <bget+0xfc>)
    6d02:	483c      	ldr	r0, [pc, #240]	; (6df4 <bget+0x100>)
    6d04:	447b      	add	r3, pc
    6d06:	3312      	adds	r3, #18
    6d08:	4479      	add	r1, pc
    6d0a:	4478      	add	r0, pc
/home/hsk/Desktop/devel/tee-tpm-hyp/optee_os/lib/libutils/isoc/bget.c:653 (discriminator 1)
    6d0c:	f000 fdec 	bl	78e8 <_assert_log>
    6d10:	f000 fdfe 	bl	7910 <_assert_break>
/home/hsk/Desktop/devel/tee-tpm-hyp/optee_os/lib/libutils/isoc/bget.c:600
    6d14:	2b08      	cmp	r3, #8
/home/hsk/Desktop/devel/tee-tpm-hyp/optee_os/lib/libutils/isoc/bget.c:614
    6d16:	6888      	ldr	r0, [r1, #8]
/home/hsk/Desktop/devel/tee-tpm-hyp/optee_os/lib/libutils/isoc/bget.c:600
    6d18:	bfb8      	it	lt
    6d1a:	2308      	movlt	r3, #8
    6d1c:	3307      	adds	r3, #7
    6d1e:	f023 0307 	bic.w	r3, r3, #7
/home/hsk/Desktop/devel/tee-tpm-hyp/optee_os/lib/libutils/isoc/bget.c:604
    6d22:	3308      	adds	r3, #8
/home/hsk/Desktop/devel/tee-tpm-hyp/optee_os/lib/libutils/isoc/bget.c:636
    6d24:	4281      	cmp	r1, r0
    6d26:	d101      	bne.n	6d2c <bget+0x38>
/home/hsk/Desktop/devel/tee-tpm-hyp/optee_os/lib/libutils/isoc/bget.c:764
    6d28:	2000      	movs	r0, #0
    6d2a:	e021      	b.n	6d70 <bget+0x7c>
/home/hsk/Desktop/devel/tee-tpm-hyp/optee_os/lib/libutils/isoc/bget.c:637
    6d2c:	6842      	ldr	r2, [r0, #4]
    6d2e:	429a      	cmp	r2, r3
    6d30:	db59      	blt.n	6de6 <bget+0xf2>
/home/hsk/Desktop/devel/tee-tpm-hyp/optee_os/lib/libutils/isoc/bget.c:648
    6d32:	1ad4      	subs	r4, r2, r3
    6d34:	2c10      	cmp	r4, #16
    6d36:	dd1c      	ble.n	6d72 <bget+0x7e>
/home/hsk/Desktop/devel/tee-tpm-hyp/optee_os/lib/libutils/isoc/bget.c:651
    6d38:	1905      	adds	r5, r0, r4
/home/hsk/Desktop/devel/tee-tpm-hyp/optee_os/lib/libutils/isoc/bget.c:653
    6d3a:	58ee      	ldr	r6, [r5, r3]
    6d3c:	42b2      	cmp	r2, r6
    6d3e:	d009      	beq.n	6d54 <bget+0x60>
/home/hsk/Desktop/devel/tee-tpm-hyp/optee_os/lib/libutils/isoc/bget.c:653 (discriminator 1)
    6d40:	4b2d      	ldr	r3, [pc, #180]	; (6df8 <bget+0x104>)
    6d42:	f240 228d 	movw	r2, #653	; 0x28d
    6d46:	492d      	ldr	r1, [pc, #180]	; (6dfc <bget+0x108>)
    6d48:	482d      	ldr	r0, [pc, #180]	; (6e00 <bget+0x10c>)
    6d4a:	447b      	add	r3, pc
    6d4c:	3312      	adds	r3, #18
    6d4e:	4479      	add	r1, pc
    6d50:	4478      	add	r0, pc
    6d52:	e7db      	b.n	6d0c <bget+0x18>
/home/hsk/Desktop/devel/tee-tpm-hyp/optee_os/lib/libutils/isoc/bget.c:655
    6d54:	6044      	str	r4, [r0, #4]
/home/hsk/Desktop/devel/tee-tpm-hyp/optee_os/lib/libutils/isoc/bget.c:659
    6d56:	425a      	negs	r2, r3
/home/hsk/Desktop/devel/tee-tpm-hyp/optee_os/lib/libutils/isoc/bget.c:657
    6d58:	5104      	str	r4, [r0, r4]
/home/hsk/Desktop/devel/tee-tpm-hyp/optee_os/lib/libutils/isoc/bget.c:667
    6d5a:	f105 0008 	add.w	r0, r5, #8
/home/hsk/Desktop/devel/tee-tpm-hyp/optee_os/lib/libutils/isoc/bget.c:659
    6d5e:	606a      	str	r2, [r5, #4]
/home/hsk/Desktop/devel/tee-tpm-hyp/optee_os/lib/libutils/isoc/bget.c:661
    6d60:	2200      	movs	r2, #0
    6d62:	50ea      	str	r2, [r5, r3]
/home/hsk/Desktop/devel/tee-tpm-hyp/optee_os/lib/libutils/isoc/bget.c:664
    6d64:	690a      	ldr	r2, [r1, #16]
    6d66:	4413      	add	r3, r2
    6d68:	610b      	str	r3, [r1, #16]
/home/hsk/Desktop/devel/tee-tpm-hyp/optee_os/lib/libutils/isoc/bget.c:665
    6d6a:	694b      	ldr	r3, [r1, #20]
    6d6c:	3301      	adds	r3, #1
    6d6e:	614b      	str	r3, [r1, #20]
/home/hsk/Desktop/devel/tee-tpm-hyp/optee_os/lib/libutils/isoc/bget.c:765
    6d70:	bd70      	pop	{r4, r5, r6, pc}
/home/hsk/Desktop/devel/tee-tpm-hyp/optee_os/lib/libutils/isoc/bget.c:674
    6d72:	5883      	ldr	r3, [r0, r2]
/home/hsk/Desktop/devel/tee-tpm-hyp/optee_os/lib/libutils/isoc/bget.c:673
    6d74:	1885      	adds	r5, r0, r2
/home/hsk/Desktop/devel/tee-tpm-hyp/optee_os/lib/libutils/isoc/bget.c:674
    6d76:	429a      	cmp	r2, r3
    6d78:	d009      	beq.n	6d8e <bget+0x9a>
/home/hsk/Desktop/devel/tee-tpm-hyp/optee_os/lib/libutils/isoc/bget.c:674 (discriminator 1)
    6d7a:	4b22      	ldr	r3, [pc, #136]	; (6e04 <bget+0x110>)
    6d7c:	f240 22a2 	movw	r2, #674	; 0x2a2
    6d80:	4921      	ldr	r1, [pc, #132]	; (6e08 <bget+0x114>)
    6d82:	4822      	ldr	r0, [pc, #136]	; (6e0c <bget+0x118>)
    6d84:	447b      	add	r3, pc
    6d86:	3312      	adds	r3, #18
    6d88:	4479      	add	r1, pc
    6d8a:	4478      	add	r0, pc
    6d8c:	e7be      	b.n	6d0c <bget+0x18>
/home/hsk/Desktop/devel/tee-tpm-hyp/optee_os/lib/libutils/isoc/bget.c:679
    6d8e:	68c3      	ldr	r3, [r0, #12]
    6d90:	689c      	ldr	r4, [r3, #8]
    6d92:	4284      	cmp	r4, r0
    6d94:	d009      	beq.n	6daa <bget+0xb6>
/home/hsk/Desktop/devel/tee-tpm-hyp/optee_os/lib/libutils/isoc/bget.c:679 (discriminator 1)
    6d96:	4b1e      	ldr	r3, [pc, #120]	; (6e10 <bget+0x11c>)
    6d98:	f240 22a7 	movw	r2, #679	; 0x2a7
    6d9c:	491d      	ldr	r1, [pc, #116]	; (6e14 <bget+0x120>)
    6d9e:	481e      	ldr	r0, [pc, #120]	; (6e18 <bget+0x124>)
    6da0:	447b      	add	r3, pc
    6da2:	3312      	adds	r3, #18
    6da4:	4479      	add	r1, pc
    6da6:	4478      	add	r0, pc
    6da8:	e7b0      	b.n	6d0c <bget+0x18>
/home/hsk/Desktop/devel/tee-tpm-hyp/optee_os/lib/libutils/isoc/bget.c:680
    6daa:	6884      	ldr	r4, [r0, #8]
    6dac:	68e6      	ldr	r6, [r4, #12]
    6dae:	4286      	cmp	r6, r0
    6db0:	d009      	beq.n	6dc6 <bget+0xd2>
/home/hsk/Desktop/devel/tee-tpm-hyp/optee_os/lib/libutils/isoc/bget.c:680 (discriminator 1)
    6db2:	4b1a      	ldr	r3, [pc, #104]	; (6e1c <bget+0x128>)
    6db4:	f44f 722a 	mov.w	r2, #680	; 0x2a8
    6db8:	4919      	ldr	r1, [pc, #100]	; (6e20 <bget+0x12c>)
    6dba:	481a      	ldr	r0, [pc, #104]	; (6e24 <bget+0x130>)
    6dbc:	447b      	add	r3, pc
    6dbe:	3312      	adds	r3, #18
    6dc0:	4479      	add	r1, pc
    6dc2:	4478      	add	r0, pc
    6dc4:	e7a2      	b.n	6d0c <bget+0x18>
/home/hsk/Desktop/devel/tee-tpm-hyp/optee_os/lib/libutils/isoc/bget.c:681
    6dc6:	609c      	str	r4, [r3, #8]
/home/hsk/Desktop/devel/tee-tpm-hyp/optee_os/lib/libutils/isoc/bget.c:696
    6dc8:	3008      	adds	r0, #8
/home/hsk/Desktop/devel/tee-tpm-hyp/optee_os/lib/libutils/isoc/bget.c:682
    6dca:	6804      	ldr	r4, [r0, #0]
    6dcc:	60e3      	str	r3, [r4, #12]
/home/hsk/Desktop/devel/tee-tpm-hyp/optee_os/lib/libutils/isoc/bget.c:685
    6dce:	690b      	ldr	r3, [r1, #16]
    6dd0:	4413      	add	r3, r2
    6dd2:	610b      	str	r3, [r1, #16]
/home/hsk/Desktop/devel/tee-tpm-hyp/optee_os/lib/libutils/isoc/bget.c:686
    6dd4:	694b      	ldr	r3, [r1, #20]
/home/hsk/Desktop/devel/tee-tpm-hyp/optee_os/lib/libutils/isoc/bget.c:689
    6dd6:	4252      	negs	r2, r2
/home/hsk/Desktop/devel/tee-tpm-hyp/optee_os/lib/libutils/isoc/bget.c:686
    6dd8:	3301      	adds	r3, #1
    6dda:	614b      	str	r3, [r1, #20]
/home/hsk/Desktop/devel/tee-tpm-hyp/optee_os/lib/libutils/isoc/bget.c:689
    6ddc:	f840 2c04 	str.w	r2, [r0, #-4]
/home/hsk/Desktop/devel/tee-tpm-hyp/optee_os/lib/libutils/isoc/bget.c:693
    6de0:	2300      	movs	r3, #0
    6de2:	602b      	str	r3, [r5, #0]
/home/hsk/Desktop/devel/tee-tpm-hyp/optee_os/lib/libutils/isoc/bget.c:698
    6de4:	e7c4      	b.n	6d70 <bget+0x7c>
/home/hsk/Desktop/devel/tee-tpm-hyp/optee_os/lib/libutils/isoc/bget.c:701
    6de6:	6880      	ldr	r0, [r0, #8]
    6de8:	e79c      	b.n	6d24 <bget+0x30>
    6dea:	bf00      	nop
    6dec:	00001ae6 	.word	0x00001ae6
    6df0:	00001c3e 	.word	0x00001c3e
    6df4:	00001e33 	.word	0x00001e33
    6df8:	00001aa0 	.word	0x00001aa0
    6dfc:	00001bf8 	.word	0x00001bf8
    6e00:	00001c0f 	.word	0x00001c0f
    6e04:	00001a66 	.word	0x00001a66
    6e08:	00001bbe 	.word	0x00001bbe
    6e0c:	00001bf1 	.word	0x00001bf1
    6e10:	00001a4a 	.word	0x00001a4a
    6e14:	00001ba2 	.word	0x00001ba2
    6e18:	00001bf1 	.word	0x00001bf1
    6e1c:	00001a2e 	.word	0x00001a2e
    6e20:	00001b86 	.word	0x00001b86
    6e24:	00001bf0 	.word	0x00001bf0

00006e28 <bgetz>:
bgetz():
/home/hsk/Desktop/devel/tee-tpm-hyp/optee_os/lib/libutils/isoc/bget.c:774
    6e28:	b510      	push	{r4, lr}
    6e2a:	4604      	mov	r4, r0
/home/hsk/Desktop/devel/tee-tpm-hyp/optee_os/lib/libutils/isoc/bget.c:775
    6e2c:	f7ff ff62 	bl	6cf4 <bget>
/home/hsk/Desktop/devel/tee-tpm-hyp/optee_os/lib/libutils/isoc/bget.c:777
    6e30:	4603      	mov	r3, r0
    6e32:	b1f8      	cbz	r0, 6e74 <bgetz+0x4c>
/home/hsk/Desktop/devel/tee-tpm-hyp/optee_os/lib/libutils/isoc/bget.c:782
    6e34:	f850 2c04 	ldr.w	r2, [r0, #-4]
/home/hsk/Desktop/devel/tee-tpm-hyp/optee_os/lib/libutils/isoc/bget.c:783
    6e38:	b98a      	cbnz	r2, 6e5e <bgetz+0x36>
/home/hsk/Desktop/devel/tee-tpm-hyp/optee_os/lib/libutils/isoc/bget.c:787
    6e3a:	f850 2c0c 	ldr.w	r2, [r0, #-12]
    6e3e:	3a0c      	subs	r2, #12
/home/hsk/Desktop/devel/tee-tpm-hyp/optee_os/lib/libutils/isoc/bget.c:791
    6e40:	42a2      	cmp	r2, r4
    6e42:	da12      	bge.n	6e6a <bgetz+0x42>
    6e44:	4b0c      	ldr	r3, [pc, #48]	; (6e78 <bgetz+0x50>)
    6e46:	f240 3217 	movw	r2, #791	; 0x317
    6e4a:	490c      	ldr	r1, [pc, #48]	; (6e7c <bgetz+0x54>)
    6e4c:	480c      	ldr	r0, [pc, #48]	; (6e80 <bgetz+0x58>)
    6e4e:	447b      	add	r3, pc
    6e50:	3317      	adds	r3, #23
    6e52:	4479      	add	r1, pc
    6e54:	4478      	add	r0, pc
    6e56:	f000 fd47 	bl	78e8 <_assert_log>
    6e5a:	f000 fd59 	bl	7910 <_assert_break>
/home/hsk/Desktop/devel/tee-tpm-hyp/optee_os/lib/libutils/isoc/bget.c:789
    6e5e:	f1c2 22ff 	rsb	r2, r2, #4278255360	; 0xff00ff00
    6e62:	f502 027f 	add.w	r2, r2, #16711680	; 0xff0000
    6e66:	32f8      	adds	r2, #248	; 0xf8
    6e68:	e7ea      	b.n	6e40 <bgetz+0x18>
memset_unchecked():
/home/hsk/Desktop/devel/tee-tpm-hyp/optee_os/lib/libutils/isoc/bget_malloc.c:141
    6e6a:	4618      	mov	r0, r3
    6e6c:	2100      	movs	r1, #0
    6e6e:	f000 fe6c 	bl	7b4a <memset>
    6e72:	4603      	mov	r3, r0
bgetz():
/home/hsk/Desktop/devel/tee-tpm-hyp/optee_os/lib/libutils/isoc/bget.c:795
    6e74:	4618      	mov	r0, r3
    6e76:	bd10      	pop	{r4, pc}
    6e78:	0000199c 	.word	0x0000199c
    6e7c:	00001af4 	.word	0x00001af4
    6e80:	00001b79 	.word	0x00001b79

00006e84 <brel>:
brel():
/home/hsk/Desktop/devel/tee-tpm-hyp/optee_os/lib/libutils/isoc/bget.c:852
    6e84:	698a      	ldr	r2, [r1, #24]
/home/hsk/Desktop/devel/tee-tpm-hyp/optee_os/lib/libutils/isoc/bget.c:846
    6e86:	b5f8      	push	{r3, r4, r5, r6, r7, lr}
/home/hsk/Desktop/devel/tee-tpm-hyp/optee_os/lib/libutils/isoc/bget.c:850
    6e88:	f1a0 0308 	sub.w	r3, r0, #8
/home/hsk/Desktop/devel/tee-tpm-hyp/optee_os/lib/libutils/isoc/bget.c:852
    6e8c:	3201      	adds	r2, #1
    6e8e:	618a      	str	r2, [r1, #24]
/home/hsk/Desktop/devel/tee-tpm-hyp/optee_os/lib/libutils/isoc/bget.c:854
    6e90:	b960      	cbnz	r0, 6eac <brel+0x28>
/home/hsk/Desktop/devel/tee-tpm-hyp/optee_os/lib/libutils/isoc/bget.c:854 (discriminator 1)
    6e92:	4b59      	ldr	r3, [pc, #356]	; (6ff8 <brel+0x174>)
    6e94:	f240 3256 	movw	r2, #854	; 0x356
    6e98:	4958      	ldr	r1, [pc, #352]	; (6ffc <brel+0x178>)
    6e9a:	4859      	ldr	r0, [pc, #356]	; (7000 <brel+0x17c>)
    6e9c:	447b      	add	r3, pc
    6e9e:	331d      	adds	r3, #29
    6ea0:	4479      	add	r1, pc
    6ea2:	4478      	add	r0, pc
/home/hsk/Desktop/devel/tee-tpm-hyp/optee_os/lib/libutils/isoc/bget.c:885 (discriminator 1)
    6ea4:	f000 fd20 	bl	78e8 <_assert_log>
    6ea8:	f000 fd32 	bl	7910 <_assert_break>
/home/hsk/Desktop/devel/tee-tpm-hyp/optee_os/lib/libutils/isoc/bget.c:882
    6eac:	f850 2c04 	ldr.w	r2, [r0, #-4]
/home/hsk/Desktop/devel/tee-tpm-hyp/optee_os/lib/libutils/isoc/bget.c:885
    6eb0:	2a00      	cmp	r2, #0
    6eb2:	db09      	blt.n	6ec8 <brel+0x44>
/home/hsk/Desktop/devel/tee-tpm-hyp/optee_os/lib/libutils/isoc/bget.c:885 (discriminator 1)
    6eb4:	4b53      	ldr	r3, [pc, #332]	; (7004 <brel+0x180>)
    6eb6:	f240 3275 	movw	r2, #885	; 0x375
    6eba:	4953      	ldr	r1, [pc, #332]	; (7008 <brel+0x184>)
    6ebc:	4853      	ldr	r0, [pc, #332]	; (700c <brel+0x188>)
    6ebe:	447b      	add	r3, pc
    6ec0:	331d      	adds	r3, #29
    6ec2:	4479      	add	r1, pc
    6ec4:	4478      	add	r0, pc
    6ec6:	e7ed      	b.n	6ea4 <brel+0x20>
/home/hsk/Desktop/devel/tee-tpm-hyp/optee_os/lib/libutils/isoc/bget.c:891
    6ec8:	1a9c      	subs	r4, r3, r2
    6eca:	6824      	ldr	r4, [r4, #0]
    6ecc:	b14c      	cbz	r4, 6ee2 <brel+0x5e>
/home/hsk/Desktop/devel/tee-tpm-hyp/optee_os/lib/libutils/isoc/bget.c:891 (discriminator 1)
    6ece:	4b50      	ldr	r3, [pc, #320]	; (7010 <brel+0x18c>)
    6ed0:	f240 327b 	movw	r2, #891	; 0x37b
    6ed4:	494f      	ldr	r1, [pc, #316]	; (7014 <brel+0x190>)
    6ed6:	4850      	ldr	r0, [pc, #320]	; (7018 <brel+0x194>)
    6ed8:	447b      	add	r3, pc
    6eda:	331d      	adds	r3, #29
    6edc:	4479      	add	r1, pc
    6ede:	4478      	add	r0, pc
    6ee0:	e7e0      	b.n	6ea4 <brel+0x20>
/home/hsk/Desktop/devel/tee-tpm-hyp/optee_os/lib/libutils/isoc/bget.c:894
    6ee2:	690c      	ldr	r4, [r1, #16]
    6ee4:	4414      	add	r4, r2
    6ee6:	610c      	str	r4, [r1, #16]
/home/hsk/Desktop/devel/tee-tpm-hyp/optee_os/lib/libutils/isoc/bget.c:895
    6ee8:	2c00      	cmp	r4, #0
    6eea:	da09      	bge.n	6f00 <brel+0x7c>
/home/hsk/Desktop/devel/tee-tpm-hyp/optee_os/lib/libutils/isoc/bget.c:895 (discriminator 1)
    6eec:	4b4b      	ldr	r3, [pc, #300]	; (701c <brel+0x198>)
    6eee:	f240 327f 	movw	r2, #895	; 0x37f
    6ef2:	494b      	ldr	r1, [pc, #300]	; (7020 <brel+0x19c>)
    6ef4:	484b      	ldr	r0, [pc, #300]	; (7024 <brel+0x1a0>)
    6ef6:	447b      	add	r3, pc
    6ef8:	331d      	adds	r3, #29
    6efa:	4479      	add	r1, pc
    6efc:	4478      	add	r0, pc
    6efe:	e7d1      	b.n	6ea4 <brel+0x20>
/home/hsk/Desktop/devel/tee-tpm-hyp/optee_os/lib/libutils/isoc/bget.c:900
    6f00:	f850 4c08 	ldr.w	r4, [r0, #-8]
    6f04:	b30c      	cbz	r4, 6f4a <brel+0xc6>
/home/hsk/Desktop/devel/tee-tpm-hyp/optee_os/lib/libutils/isoc/bget.c:911
    6f06:	1b1b      	subs	r3, r3, r4
    6f08:	6859      	ldr	r1, [r3, #4]
    6f0a:	428c      	cmp	r4, r1
    6f0c:	d009      	beq.n	6f22 <brel+0x9e>
/home/hsk/Desktop/devel/tee-tpm-hyp/optee_os/lib/libutils/isoc/bget.c:911 (discriminator 1)
    6f0e:	4b46      	ldr	r3, [pc, #280]	; (7028 <brel+0x1a4>)
    6f10:	f240 328f 	movw	r2, #911	; 0x38f
    6f14:	4945      	ldr	r1, [pc, #276]	; (702c <brel+0x1a8>)
    6f16:	4846      	ldr	r0, [pc, #280]	; (7030 <brel+0x1ac>)
    6f18:	447b      	add	r3, pc
    6f1a:	331d      	adds	r3, #29
    6f1c:	4479      	add	r1, pc
    6f1e:	4478      	add	r0, pc
    6f20:	e7c0      	b.n	6ea4 <brel+0x20>
/home/hsk/Desktop/devel/tee-tpm-hyp/optee_os/lib/libutils/isoc/bget.c:913
    6f22:	1aa2      	subs	r2, r4, r2
    6f24:	605a      	str	r2, [r3, #4]
/home/hsk/Desktop/devel/tee-tpm-hyp/optee_os/lib/libutils/isoc/bget.c:933
    6f26:	6859      	ldr	r1, [r3, #4]
    6f28:	185a      	adds	r2, r3, r1
/home/hsk/Desktop/devel/tee-tpm-hyp/optee_os/lib/libutils/isoc/bget.c:934
    6f2a:	6850      	ldr	r0, [r2, #4]
    6f2c:	2800      	cmp	r0, #0
    6f2e:	dd53      	ble.n	6fd8 <brel+0x154>
/home/hsk/Desktop/devel/tee-tpm-hyp/optee_os/lib/libutils/isoc/bget.c:939
    6f30:	5814      	ldr	r4, [r2, r0]
    6f32:	42a0      	cmp	r0, r4
    6f34:	d02e      	beq.n	6f94 <brel+0x110>
/home/hsk/Desktop/devel/tee-tpm-hyp/optee_os/lib/libutils/isoc/bget.c:939 (discriminator 1)
    6f36:	4b3f      	ldr	r3, [pc, #252]	; (7034 <brel+0x1b0>)
    6f38:	f240 32ab 	movw	r2, #939	; 0x3ab
    6f3c:	493e      	ldr	r1, [pc, #248]	; (7038 <brel+0x1b4>)
    6f3e:	483f      	ldr	r0, [pc, #252]	; (703c <brel+0x1b8>)
    6f40:	447b      	add	r3, pc
    6f42:	331d      	adds	r3, #29
    6f44:	4479      	add	r1, pc
    6f46:	4478      	add	r0, pc
    6f48:	e7ac      	b.n	6ea4 <brel+0x20>
/home/hsk/Desktop/devel/tee-tpm-hyp/optee_os/lib/libutils/isoc/bget.c:919
    6f4a:	68cd      	ldr	r5, [r1, #12]
    6f4c:	68ac      	ldr	r4, [r5, #8]
    6f4e:	428c      	cmp	r4, r1
    6f50:	d009      	beq.n	6f66 <brel+0xe2>
/home/hsk/Desktop/devel/tee-tpm-hyp/optee_os/lib/libutils/isoc/bget.c:919 (discriminator 1)
    6f52:	4b3b      	ldr	r3, [pc, #236]	; (7040 <brel+0x1bc>)
    6f54:	f240 3297 	movw	r2, #919	; 0x397
    6f58:	493a      	ldr	r1, [pc, #232]	; (7044 <brel+0x1c0>)
    6f5a:	483b      	ldr	r0, [pc, #236]	; (7048 <brel+0x1c4>)
    6f5c:	447b      	add	r3, pc
    6f5e:	331d      	adds	r3, #29
    6f60:	4479      	add	r1, pc
    6f62:	4478      	add	r0, pc
    6f64:	e79e      	b.n	6ea4 <brel+0x20>
/home/hsk/Desktop/devel/tee-tpm-hyp/optee_os/lib/libutils/isoc/bget.c:920
    6f66:	68a1      	ldr	r1, [r4, #8]
    6f68:	68c9      	ldr	r1, [r1, #12]
    6f6a:	428c      	cmp	r4, r1
    6f6c:	d009      	beq.n	6f82 <brel+0xfe>
/home/hsk/Desktop/devel/tee-tpm-hyp/optee_os/lib/libutils/isoc/bget.c:920 (discriminator 1)
    6f6e:	4b37      	ldr	r3, [pc, #220]	; (704c <brel+0x1c8>)
    6f70:	f44f 7266 	mov.w	r2, #920	; 0x398
    6f74:	4936      	ldr	r1, [pc, #216]	; (7050 <brel+0x1cc>)
    6f76:	4837      	ldr	r0, [pc, #220]	; (7054 <brel+0x1d0>)
    6f78:	447b      	add	r3, pc
    6f7a:	331d      	adds	r3, #29
    6f7c:	4479      	add	r1, pc
    6f7e:	4478      	add	r0, pc
    6f80:	e790      	b.n	6ea4 <brel+0x20>
/home/hsk/Desktop/devel/tee-tpm-hyp/optee_os/lib/libutils/isoc/bget.c:922
    6f82:	e9c0 4500 	strd	r4, r5, [r0]
/home/hsk/Desktop/devel/tee-tpm-hyp/optee_os/lib/libutils/isoc/bget.c:886
    6f86:	4252      	negs	r2, r2
/home/hsk/Desktop/devel/tee-tpm-hyp/optee_os/lib/libutils/isoc/bget.c:923
    6f88:	60e3      	str	r3, [r4, #12]
/home/hsk/Desktop/devel/tee-tpm-hyp/optee_os/lib/libutils/isoc/bget.c:924
    6f8a:	6841      	ldr	r1, [r0, #4]
    6f8c:	608b      	str	r3, [r1, #8]
/home/hsk/Desktop/devel/tee-tpm-hyp/optee_os/lib/libutils/isoc/bget.c:925
    6f8e:	f840 2c04 	str.w	r2, [r0, #-4]
    6f92:	e7c8      	b.n	6f26 <brel+0xa2>
/home/hsk/Desktop/devel/tee-tpm-hyp/optee_os/lib/libutils/isoc/bget.c:940
    6f94:	68d4      	ldr	r4, [r2, #12]
    6f96:	68a5      	ldr	r5, [r4, #8]
    6f98:	4295      	cmp	r5, r2
    6f9a:	d009      	beq.n	6fb0 <brel+0x12c>
/home/hsk/Desktop/devel/tee-tpm-hyp/optee_os/lib/libutils/isoc/bget.c:940 (discriminator 1)
    6f9c:	4b2e      	ldr	r3, [pc, #184]	; (7058 <brel+0x1d4>)
    6f9e:	f44f 726b 	mov.w	r2, #940	; 0x3ac
    6fa2:	492e      	ldr	r1, [pc, #184]	; (705c <brel+0x1d8>)
    6fa4:	482e      	ldr	r0, [pc, #184]	; (7060 <brel+0x1dc>)
    6fa6:	447b      	add	r3, pc
    6fa8:	331d      	adds	r3, #29
    6faa:	4479      	add	r1, pc
    6fac:	4478      	add	r0, pc
    6fae:	e779      	b.n	6ea4 <brel+0x20>
/home/hsk/Desktop/devel/tee-tpm-hyp/optee_os/lib/libutils/isoc/bget.c:941
    6fb0:	68ae      	ldr	r6, [r5, #8]
    6fb2:	68f7      	ldr	r7, [r6, #12]
    6fb4:	42af      	cmp	r7, r5
    6fb6:	d009      	beq.n	6fcc <brel+0x148>
/home/hsk/Desktop/devel/tee-tpm-hyp/optee_os/lib/libutils/isoc/bget.c:941 (discriminator 1)
    6fb8:	4b2a      	ldr	r3, [pc, #168]	; (7064 <brel+0x1e0>)
    6fba:	f240 32ad 	movw	r2, #941	; 0x3ad
    6fbe:	492a      	ldr	r1, [pc, #168]	; (7068 <brel+0x1e4>)
    6fc0:	482a      	ldr	r0, [pc, #168]	; (706c <brel+0x1e8>)
    6fc2:	447b      	add	r3, pc
    6fc4:	331d      	adds	r3, #29
    6fc6:	4479      	add	r1, pc
    6fc8:	4478      	add	r0, pc
    6fca:	e76b      	b.n	6ea4 <brel+0x20>
/home/hsk/Desktop/devel/tee-tpm-hyp/optee_os/lib/libutils/isoc/bget.c:942
    6fcc:	60a6      	str	r6, [r4, #8]
/home/hsk/Desktop/devel/tee-tpm-hyp/optee_os/lib/libutils/isoc/bget.c:943
    6fce:	6892      	ldr	r2, [r2, #8]
    6fd0:	60d4      	str	r4, [r2, #12]
/home/hsk/Desktop/devel/tee-tpm-hyp/optee_os/lib/libutils/isoc/bget.c:944
    6fd2:	180a      	adds	r2, r1, r0
    6fd4:	605a      	str	r2, [r3, #4]
/home/hsk/Desktop/devel/tee-tpm-hyp/optee_os/lib/libutils/isoc/bget.c:953
    6fd6:	441a      	add	r2, r3
/home/hsk/Desktop/devel/tee-tpm-hyp/optee_os/lib/libutils/isoc/bget.c:959
    6fd8:	6851      	ldr	r1, [r2, #4]
    6fda:	2900      	cmp	r1, #0
    6fdc:	db09      	blt.n	6ff2 <brel+0x16e>
/home/hsk/Desktop/devel/tee-tpm-hyp/optee_os/lib/libutils/isoc/bget.c:959 (discriminator 1)
    6fde:	4b24      	ldr	r3, [pc, #144]	; (7070 <brel+0x1ec>)
    6fe0:	f240 32bf 	movw	r2, #959	; 0x3bf
    6fe4:	4923      	ldr	r1, [pc, #140]	; (7074 <brel+0x1f0>)
    6fe6:	4824      	ldr	r0, [pc, #144]	; (7078 <brel+0x1f4>)
    6fe8:	447b      	add	r3, pc
    6fea:	331d      	adds	r3, #29
    6fec:	4479      	add	r1, pc
    6fee:	4478      	add	r0, pc
    6ff0:	e758      	b.n	6ea4 <brel+0x20>
/home/hsk/Desktop/devel/tee-tpm-hyp/optee_os/lib/libutils/isoc/bget.c:964
    6ff2:	685b      	ldr	r3, [r3, #4]
    6ff4:	6013      	str	r3, [r2, #0]
/home/hsk/Desktop/devel/tee-tpm-hyp/optee_os/lib/libutils/isoc/bget.c:992
    6ff6:	bdf8      	pop	{r3, r4, r5, r6, r7, pc}
    6ff8:	0000194e 	.word	0x0000194e
    6ffc:	00001aa6 	.word	0x00001aa6
    7000:	00001b39 	.word	0x00001b39
    7004:	0000192c 	.word	0x0000192c
    7008:	00001a84 	.word	0x00001a84
    700c:	00001b23 	.word	0x00001b23
    7010:	00001912 	.word	0x00001912
    7014:	00001a6a 	.word	0x00001a6a
    7018:	00001b19 	.word	0x00001b19
    701c:	000018f4 	.word	0x000018f4
    7020:	00001a4c 	.word	0x00001a4c
    7024:	00001b27 	.word	0x00001b27
    7028:	000018d2 	.word	0x000018d2
    702c:	00001a2a 	.word	0x00001a2a
    7030:	00001b1c 	.word	0x00001b1c
    7034:	000018aa 	.word	0x000018aa
    7038:	00001a02 	.word	0x00001a02
    703c:	00001b2d 	.word	0x00001b2d
    7040:	0000188e 	.word	0x0000188e
    7044:	000019e6 	.word	0x000019e6
    7048:	0000196e 	.word	0x0000196e
    704c:	00001872 	.word	0x00001872
    7050:	000019ca 	.word	0x000019ca
    7054:	0000198d 	.word	0x0000198d
    7058:	00001844 	.word	0x00001844
    705c:	0000199c 	.word	0x0000199c
    7060:	00001b00 	.word	0x00001b00
    7064:	00001828 	.word	0x00001828
    7068:	00001980 	.word	0x00001980
    706c:	00001b01 	.word	0x00001b01
    7070:	00001802 	.word	0x00001802
    7074:	0000195a 	.word	0x0000195a
    7078:	00001af8 	.word	0x00001af8

0000707c <bgetr>:
bgetr():
/home/hsk/Desktop/devel/tee-tpm-hyp/optee_os/lib/libutils/isoc/bget.c:806
    707c:	e92d 41f0 	stmdb	sp!, {r4, r5, r6, r7, r8, lr}
    7080:	460e      	mov	r6, r1
    7082:	4605      	mov	r5, r0
/home/hsk/Desktop/devel/tee-tpm-hyp/optee_os/lib/libutils/isoc/bget.c:811
    7084:	4611      	mov	r1, r2
    7086:	4630      	mov	r0, r6
/home/hsk/Desktop/devel/tee-tpm-hyp/optee_os/lib/libutils/isoc/bget.c:806
    7088:	4690      	mov	r8, r2
/home/hsk/Desktop/devel/tee-tpm-hyp/optee_os/lib/libutils/isoc/bget.c:811
    708a:	f7ff fe33 	bl	6cf4 <bget>
    708e:	4607      	mov	r7, r0
    7090:	b340      	cbz	r0, 70e4 <bgetr+0x68>
/home/hsk/Desktop/devel/tee-tpm-hyp/optee_os/lib/libutils/isoc/bget.c:814
    7092:	b33d      	cbz	r5, 70e4 <bgetr+0x68>
    7094:	f855 4c04 	ldr.w	r4, [r5, #-4]
    7098:	f1c4 24ff 	rsb	r4, r4, #4278255360	; 0xff00ff00
    709c:	f504 047f 	add.w	r4, r4, #16711680	; 0xff0000
    70a0:	34f8      	adds	r4, #248	; 0xf8
/home/hsk/Desktop/devel/tee-tpm-hyp/optee_os/lib/libutils/isoc/bget.c:829
    70a2:	2c00      	cmp	r4, #0
    70a4:	dc0c      	bgt.n	70c0 <bgetr+0x44>
    70a6:	4b11      	ldr	r3, [pc, #68]	; (70ec <bgetr+0x70>)
    70a8:	f240 323d 	movw	r2, #829	; 0x33d
    70ac:	4910      	ldr	r1, [pc, #64]	; (70f0 <bgetr+0x74>)
    70ae:	4811      	ldr	r0, [pc, #68]	; (70f4 <bgetr+0x78>)
    70b0:	447b      	add	r3, pc
    70b2:	3322      	adds	r3, #34	; 0x22
    70b4:	4479      	add	r1, pc
    70b6:	4478      	add	r0, pc
    70b8:	f000 fc16 	bl	78e8 <_assert_log>
    70bc:	f000 fc28 	bl	7910 <_assert_break>
/home/hsk/Desktop/devel/tee-tpm-hyp/optee_os/lib/libutils/isoc/bget.c:830
    70c0:	42a6      	cmp	r6, r4
    70c2:	4632      	mov	r2, r6
    70c4:	4629      	mov	r1, r5
    70c6:	bfa8      	it	ge
    70c8:	4622      	movge	r2, r4
    70ca:	f000 fd1a 	bl	7b02 <memcpy>
/home/hsk/Desktop/devel/tee-tpm-hyp/optee_os/lib/libutils/isoc/bget.c:834
    70ce:	42a6      	cmp	r6, r4
    70d0:	dd04      	ble.n	70dc <bgetr+0x60>
/home/hsk/Desktop/devel/tee-tpm-hyp/optee_os/lib/libutils/isoc/bget.c:835
    70d2:	1b32      	subs	r2, r6, r4
    70d4:	2100      	movs	r1, #0
    70d6:	1938      	adds	r0, r7, r4
    70d8:	f000 fd37 	bl	7b4a <memset>
/home/hsk/Desktop/devel/tee-tpm-hyp/optee_os/lib/libutils/isoc/bget.c:837
    70dc:	4641      	mov	r1, r8
    70de:	4628      	mov	r0, r5
    70e0:	f7ff fed0 	bl	6e84 <brel>
/home/hsk/Desktop/devel/tee-tpm-hyp/optee_os/lib/libutils/isoc/bget.c:839
    70e4:	4638      	mov	r0, r7
    70e6:	e8bd 81f0 	ldmia.w	sp!, {r4, r5, r6, r7, r8, pc}
    70ea:	bf00      	nop
    70ec:	0000173a 	.word	0x0000173a
    70f0:	00001892 	.word	0x00001892
    70f4:	00001a41 	.word	0x00001a41

000070f8 <bpool>:
bpool():
/home/hsk/Desktop/devel/tee-tpm-hyp/optee_os/lib/libutils/isoc/bget.c:1023
    70f8:	f021 0107 	bic.w	r1, r1, #7
/home/hsk/Desktop/devel/tee-tpm-hyp/optee_os/lib/libutils/isoc/bget.c:1018
    70fc:	b510      	push	{r4, lr}
/home/hsk/Desktop/devel/tee-tpm-hyp/optee_os/lib/libutils/isoc/bget.c:1042
    70fe:	3908      	subs	r1, #8
    7100:	d50c      	bpl.n	711c <bpool+0x24>
    7102:	4b1b      	ldr	r3, [pc, #108]	; (7170 <bpool+0x78>)
    7104:	f240 4212 	movw	r2, #1042	; 0x412
    7108:	491a      	ldr	r1, [pc, #104]	; (7174 <bpool+0x7c>)
    710a:	481b      	ldr	r0, [pc, #108]	; (7178 <bpool+0x80>)
    710c:	447b      	add	r3, pc
    710e:	3328      	adds	r3, #40	; 0x28
    7110:	4479      	add	r1, pc
    7112:	4478      	add	r0, pc
/home/hsk/Desktop/devel/tee-tpm-hyp/optee_os/lib/libutils/isoc/bget.c:1052 (discriminator 1)
    7114:	f000 fbe8 	bl	78e8 <_assert_log>
    7118:	f000 fbfa 	bl	7910 <_assert_break>
/home/hsk/Desktop/devel/tee-tpm-hyp/optee_os/lib/libutils/isoc/bget.c:1052
    711c:	68d4      	ldr	r4, [r2, #12]
/home/hsk/Desktop/devel/tee-tpm-hyp/optee_os/lib/libutils/isoc/bget.c:1048
    711e:	2300      	movs	r3, #0
    7120:	6003      	str	r3, [r0, #0]
/home/hsk/Desktop/devel/tee-tpm-hyp/optee_os/lib/libutils/isoc/bget.c:1052
    7122:	68a3      	ldr	r3, [r4, #8]
    7124:	4293      	cmp	r3, r2
    7126:	d009      	beq.n	713c <bpool+0x44>
/home/hsk/Desktop/devel/tee-tpm-hyp/optee_os/lib/libutils/isoc/bget.c:1052 (discriminator 1)
    7128:	4b14      	ldr	r3, [pc, #80]	; (717c <bpool+0x84>)
    712a:	f240 421c 	movw	r2, #1052	; 0x41c
    712e:	4914      	ldr	r1, [pc, #80]	; (7180 <bpool+0x88>)
    7130:	4814      	ldr	r0, [pc, #80]	; (7184 <bpool+0x8c>)
    7132:	447b      	add	r3, pc
    7134:	3328      	adds	r3, #40	; 0x28
    7136:	4479      	add	r1, pc
    7138:	4478      	add	r0, pc
    713a:	e7eb      	b.n	7114 <bpool+0x1c>
/home/hsk/Desktop/devel/tee-tpm-hyp/optee_os/lib/libutils/isoc/bget.c:1053
    713c:	689a      	ldr	r2, [r3, #8]
    713e:	68d2      	ldr	r2, [r2, #12]
    7140:	4293      	cmp	r3, r2
    7142:	d009      	beq.n	7158 <bpool+0x60>
/home/hsk/Desktop/devel/tee-tpm-hyp/optee_os/lib/libutils/isoc/bget.c:1053 (discriminator 1)
    7144:	4b10      	ldr	r3, [pc, #64]	; (7188 <bpool+0x90>)
    7146:	f240 421d 	movw	r2, #1053	; 0x41d
    714a:	4910      	ldr	r1, [pc, #64]	; (718c <bpool+0x94>)
    714c:	4810      	ldr	r0, [pc, #64]	; (7190 <bpool+0x98>)
    714e:	447b      	add	r3, pc
    7150:	3328      	adds	r3, #40	; 0x28
    7152:	4479      	add	r1, pc
    7154:	4478      	add	r0, pc
    7156:	e7dd      	b.n	7114 <bpool+0x1c>
/home/hsk/Desktop/devel/tee-tpm-hyp/optee_os/lib/libutils/isoc/bget.c:1054
    7158:	6083      	str	r3, [r0, #8]
/home/hsk/Desktop/devel/tee-tpm-hyp/optee_os/lib/libutils/isoc/bget.c:1077
    715a:	f04f 4200 	mov.w	r2, #2147483648	; 0x80000000
/home/hsk/Desktop/devel/tee-tpm-hyp/optee_os/lib/libutils/isoc/bget.c:1055
    715e:	60c4      	str	r4, [r0, #12]
/home/hsk/Desktop/devel/tee-tpm-hyp/optee_os/lib/libutils/isoc/bget.c:1056
    7160:	60d8      	str	r0, [r3, #12]
/home/hsk/Desktop/devel/tee-tpm-hyp/optee_os/lib/libutils/isoc/bget.c:1057
    7162:	68c3      	ldr	r3, [r0, #12]
    7164:	6098      	str	r0, [r3, #8]
/home/hsk/Desktop/devel/tee-tpm-hyp/optee_os/lib/libutils/isoc/bget.c:1073
    7166:	1843      	adds	r3, r0, r1
/home/hsk/Desktop/devel/tee-tpm-hyp/optee_os/lib/libutils/isoc/bget.c:1068
    7168:	6041      	str	r1, [r0, #4]
/home/hsk/Desktop/devel/tee-tpm-hyp/optee_os/lib/libutils/isoc/bget.c:1074
    716a:	5041      	str	r1, [r0, r1]
/home/hsk/Desktop/devel/tee-tpm-hyp/optee_os/lib/libutils/isoc/bget.c:1077
    716c:	605a      	str	r2, [r3, #4]
/home/hsk/Desktop/devel/tee-tpm-hyp/optee_os/lib/libutils/isoc/bget.c:1078
    716e:	bd10      	pop	{r4, pc}
    7170:	000016de 	.word	0x000016de
    7174:	00001836 	.word	0x00001836
    7178:	000019ef 	.word	0x000019ef
    717c:	000016b8 	.word	0x000016b8
    7180:	00001810 	.word	0x00001810
    7184:	00001798 	.word	0x00001798
    7188:	0000169c 	.word	0x0000169c
    718c:	000017f4 	.word	0x000017f4
    7190:	000017b7 	.word	0x000017b7

00007194 <bstats>:
bstats():
/home/hsk/Desktop/devel/tee-tpm-hyp/optee_os/lib/libutils/isoc/bget.c:1088
    7194:	b570      	push	{r4, r5, r6, lr}
    7196:	9d05      	ldr	r5, [sp, #20]
/home/hsk/Desktop/devel/tee-tpm-hyp/optee_os/lib/libutils/isoc/bget.c:1091
    7198:	696e      	ldr	r6, [r5, #20]
/home/hsk/Desktop/devel/tee-tpm-hyp/optee_os/lib/libutils/isoc/bget.c:1089
    719a:	68ac      	ldr	r4, [r5, #8]
/home/hsk/Desktop/devel/tee-tpm-hyp/optee_os/lib/libutils/isoc/bget.c:1091
    719c:	601e      	str	r6, [r3, #0]
/home/hsk/Desktop/devel/tee-tpm-hyp/optee_os/lib/libutils/isoc/bget.c:1092
    719e:	9b04      	ldr	r3, [sp, #16]
    71a0:	69ae      	ldr	r6, [r5, #24]
    71a2:	601e      	str	r6, [r3, #0]
/home/hsk/Desktop/devel/tee-tpm-hyp/optee_os/lib/libutils/isoc/bget.c:1093
    71a4:	692b      	ldr	r3, [r5, #16]
    71a6:	6003      	str	r3, [r0, #0]
/home/hsk/Desktop/devel/tee-tpm-hyp/optee_os/lib/libutils/isoc/bget.c:1094
    71a8:	2300      	movs	r3, #0
    71aa:	600b      	str	r3, [r1, #0]
/home/hsk/Desktop/devel/tee-tpm-hyp/optee_os/lib/libutils/isoc/bget.c:1095
    71ac:	f04f 33ff 	mov.w	r3, #4294967295	; 0xffffffff
    71b0:	6013      	str	r3, [r2, #0]
/home/hsk/Desktop/devel/tee-tpm-hyp/optee_os/lib/libutils/isoc/bget.c:1096
    71b2:	42a5      	cmp	r5, r4
    71b4:	d100      	bne.n	71b8 <bstats+0x24>
/home/hsk/Desktop/devel/tee-tpm-hyp/optee_os/lib/libutils/isoc/bget.c:1104
    71b6:	bd70      	pop	{r4, r5, r6, pc}
/home/hsk/Desktop/devel/tee-tpm-hyp/optee_os/lib/libutils/isoc/bget.c:1097
    71b8:	6860      	ldr	r0, [r4, #4]
    71ba:	2800      	cmp	r0, #0
    71bc:	dc0c      	bgt.n	71d8 <bstats+0x44>
/home/hsk/Desktop/devel/tee-tpm-hyp/optee_os/lib/libutils/isoc/bget.c:1097 (discriminator 1)
    71be:	4b0b      	ldr	r3, [pc, #44]	; (71ec <bstats+0x58>)
    71c0:	f240 4249 	movw	r2, #1097	; 0x449
    71c4:	490a      	ldr	r1, [pc, #40]	; (71f0 <bstats+0x5c>)
    71c6:	480b      	ldr	r0, [pc, #44]	; (71f4 <bstats+0x60>)
    71c8:	447b      	add	r3, pc
    71ca:	332e      	adds	r3, #46	; 0x2e
    71cc:	4479      	add	r1, pc
    71ce:	4478      	add	r0, pc
    71d0:	f000 fb8a 	bl	78e8 <_assert_log>
    71d4:	f000 fb9c 	bl	7910 <_assert_break>
/home/hsk/Desktop/devel/tee-tpm-hyp/optee_os/lib/libutils/isoc/bget.c:1098
    71d8:	680b      	ldr	r3, [r1, #0]
    71da:	4403      	add	r3, r0
    71dc:	600b      	str	r3, [r1, #0]
/home/hsk/Desktop/devel/tee-tpm-hyp/optee_os/lib/libutils/isoc/bget.c:1099
    71de:	6863      	ldr	r3, [r4, #4]
    71e0:	6810      	ldr	r0, [r2, #0]
    71e2:	4283      	cmp	r3, r0
    71e4:	dd00      	ble.n	71e8 <bstats+0x54>
/home/hsk/Desktop/devel/tee-tpm-hyp/optee_os/lib/libutils/isoc/bget.c:1100
    71e6:	6013      	str	r3, [r2, #0]
/home/hsk/Desktop/devel/tee-tpm-hyp/optee_os/lib/libutils/isoc/bget.c:1102
    71e8:	68a4      	ldr	r4, [r4, #8]
    71ea:	e7e2      	b.n	71b2 <bstats+0x1e>
    71ec:	00001622 	.word	0x00001622
    71f0:	0000177a 	.word	0x0000177a
    71f4:	00001968 	.word	0x00001968

000071f8 <malloc_reset_stats>:
malloc_reset_stats():
/home/hsk/Desktop/devel/tee-tpm-hyp/optee_os/lib/libutils/isoc/bget_malloc.c:183
    71f8:	4b03      	ldr	r3, [pc, #12]	; (7208 <malloc_reset_stats+0x10>)
    71fa:	2200      	movs	r2, #0
    71fc:	447b      	add	r3, pc
    71fe:	625a      	str	r2, [r3, #36]	; 0x24
/home/hsk/Desktop/devel/tee-tpm-hyp/optee_os/lib/libutils/isoc/bget_malloc.c:184
    7200:	62da      	str	r2, [r3, #44]	; 0x2c
/home/hsk/Desktop/devel/tee-tpm-hyp/optee_os/lib/libutils/isoc/bget_malloc.c:185
    7202:	631a      	str	r2, [r3, #48]	; 0x30
/home/hsk/Desktop/devel/tee-tpm-hyp/optee_os/lib/libutils/isoc/bget_malloc.c:186
    7204:	635a      	str	r2, [r3, #52]	; 0x34
/home/hsk/Desktop/devel/tee-tpm-hyp/optee_os/lib/libutils/isoc/bget_malloc.c:188
    7206:	4770      	bx	lr
    7208:	00004ec8 	.word	0x00004ec8

0000720c <malloc_get_stats>:
malloc_get_stats():
/home/hsk/Desktop/devel/tee-tpm-hyp/optee_os/lib/libutils/isoc/bget_malloc.c:194
    720c:	4905      	ldr	r1, [pc, #20]	; (7224 <malloc_get_stats+0x18>)
    720e:	2238      	movs	r2, #56	; 0x38
/home/hsk/Desktop/devel/tee-tpm-hyp/optee_os/lib/libutils/isoc/bget_malloc.c:191
    7210:	b508      	push	{r3, lr}
/home/hsk/Desktop/devel/tee-tpm-hyp/optee_os/lib/libutils/isoc/bget_malloc.c:194
    7212:	4479      	add	r1, pc
    7214:	f000 fc75 	bl	7b02 <memcpy>
/home/hsk/Desktop/devel/tee-tpm-hyp/optee_os/lib/libutils/isoc/bget_malloc.c:195
    7218:	4a03      	ldr	r2, [pc, #12]	; (7228 <malloc_get_stats+0x1c>)
    721a:	447a      	add	r2, pc
    721c:	6912      	ldr	r2, [r2, #16]
    721e:	6202      	str	r2, [r0, #32]
/home/hsk/Desktop/devel/tee-tpm-hyp/optee_os/lib/libutils/isoc/bget_malloc.c:197
    7220:	bd08      	pop	{r3, pc}
    7222:	bf00      	nop
    7224:	00004eb2 	.word	0x00004eb2
    7228:	00002e5e 	.word	0x00002e5e

0000722c <malloc>:
malloc():
/home/hsk/Desktop/devel/tee-tpm-hyp/optee_os/lib/libutils/isoc/bget_malloc.c:817
    722c:	b538      	push	{r3, r4, r5, lr}
raw_malloc():
/home/hsk/Desktop/devel/tee-tpm-hyp/optee_os/lib/libutils/isoc/bget_malloc.c:304
    722e:	1e05      	subs	r5, r0, #0
    7230:	db12      	blt.n	7258 <malloc+0x2c>
/home/hsk/Desktop/devel/tee-tpm-hyp/optee_os/lib/libutils/isoc/bget_malloc.c:313
    7232:	490a      	ldr	r1, [pc, #40]	; (725c <malloc+0x30>)
    7234:	4628      	mov	r0, r5
    7236:	bf18      	it	ne
    7238:	4628      	movne	r0, r5
    723a:	bf08      	it	eq
    723c:	2001      	moveq	r0, #1
    723e:	4479      	add	r1, pc
    7240:	f7ff fd58 	bl	6cf4 <bget>
    7244:	4604      	mov	r4, r0
/home/hsk/Desktop/devel/tee-tpm-hyp/optee_os/lib/libutils/isoc/bget_malloc.c:315
    7246:	4b06      	ldr	r3, [pc, #24]	; (7260 <malloc+0x34>)
    7248:	4620      	mov	r0, r4
    724a:	4629      	mov	r1, r5
    724c:	447b      	add	r3, pc
    724e:	691a      	ldr	r2, [r3, #16]
    7250:	f7ff fccc 	bl	6bec <raw_malloc_return_hook.isra.3>
malloc():
/home/hsk/Desktop/devel/tee-tpm-hyp/optee_os/lib/libutils/isoc/bget_malloc.c:824
    7254:	4620      	mov	r0, r4
    7256:	bd38      	pop	{r3, r4, r5, pc}
raw_malloc():
/home/hsk/Desktop/devel/tee-tpm-hyp/optee_os/lib/libutils/isoc/bget_malloc.c:291
    7258:	2400      	movs	r4, #0
    725a:	e7f4      	b.n	7246 <malloc+0x1a>
    725c:	00002e3a 	.word	0x00002e3a
    7260:	00002e2c 	.word	0x00002e2c

00007264 <free>:
raw_free():
/home/hsk/Desktop/devel/tee-tpm-hyp/optee_os/lib/libutils/isoc/bget_malloc.c:324
    7264:	b118      	cbz	r0, 726e <free+0xa>
/home/hsk/Desktop/devel/tee-tpm-hyp/optee_os/lib/libutils/isoc/bget_malloc.c:325
    7266:	4902      	ldr	r1, [pc, #8]	; (7270 <free+0xc>)
    7268:	4479      	add	r1, pc
    726a:	f7ff be0b 	b.w	6e84 <brel>
free():
/home/hsk/Desktop/devel/tee-tpm-hyp/optee_os/lib/libutils/isoc/bget_malloc.c:832
    726e:	4770      	bx	lr
    7270:	00002e10 	.word	0x00002e10

00007274 <calloc>:
raw_calloc():
/home/hsk/Desktop/devel/tee-tpm-hyp/optee_os/lib/libutils/isoc/bget_malloc.c:337
    7274:	fba0 2301 	umull	r2, r3, r0, r1
calloc():
/home/hsk/Desktop/devel/tee-tpm-hyp/optee_os/lib/libutils/isoc/bget_malloc.c:835
    7278:	b570      	push	{r4, r5, r6, lr}
    727a:	4605      	mov	r5, r0
    727c:	460e      	mov	r6, r1
raw_calloc():
/home/hsk/Desktop/devel/tee-tpm-hyp/optee_os/lib/libutils/isoc/bget_malloc.c:337
    727e:	4610      	mov	r0, r2
    7280:	2a00      	cmp	r2, #0
    7282:	bfa8      	it	ge
    7284:	2b00      	cmpge	r3, #0
    7286:	d113      	bne.n	72b0 <calloc+0x3c>
/home/hsk/Desktop/devel/tee-tpm-hyp/optee_os/lib/libutils/isoc/bget_malloc.c:348
    7288:	490a      	ldr	r1, [pc, #40]	; (72b4 <calloc+0x40>)
/home/hsk/Desktop/devel/tee-tpm-hyp/optee_os/lib/libutils/isoc/bget_malloc.c:345
    728a:	2a00      	cmp	r2, #0
/home/hsk/Desktop/devel/tee-tpm-hyp/optee_os/lib/libutils/isoc/bget_malloc.c:348
    728c:	bf18      	it	ne
    728e:	4610      	movne	r0, r2
    7290:	bf08      	it	eq
    7292:	2001      	moveq	r0, #1
    7294:	4479      	add	r1, pc
    7296:	f7ff fdc7 	bl	6e28 <bgetz>
    729a:	4604      	mov	r4, r0
/home/hsk/Desktop/devel/tee-tpm-hyp/optee_os/lib/libutils/isoc/bget_malloc.c:350
    729c:	4b06      	ldr	r3, [pc, #24]	; (72b8 <calloc+0x44>)
    729e:	4620      	mov	r0, r4
    72a0:	fb06 f105 	mul.w	r1, r6, r5
    72a4:	447b      	add	r3, pc
    72a6:	691a      	ldr	r2, [r3, #16]
    72a8:	f7ff fca0 	bl	6bec <raw_malloc_return_hook.isra.3>
calloc():
/home/hsk/Desktop/devel/tee-tpm-hyp/optee_os/lib/libutils/isoc/bget_malloc.c:842
    72ac:	4620      	mov	r0, r4
    72ae:	bd70      	pop	{r4, r5, r6, pc}
raw_calloc():
/home/hsk/Desktop/devel/tee-tpm-hyp/optee_os/lib/libutils/isoc/bget_malloc.c:331
    72b0:	2400      	movs	r4, #0
    72b2:	e7f3      	b.n	729c <calloc+0x28>
    72b4:	00002de4 	.word	0x00002de4
    72b8:	00002dd4 	.word	0x00002dd4

000072bc <realloc>:
realloc():
/home/hsk/Desktop/devel/tee-tpm-hyp/optee_os/lib/libutils/isoc/bget_malloc.c:850
    72bc:	b538      	push	{r3, r4, r5, lr}
raw_realloc():
/home/hsk/Desktop/devel/tee-tpm-hyp/optee_os/lib/libutils/isoc/bget_malloc.c:362
    72be:	1e0d      	subs	r5, r1, #0
    72c0:	db12      	blt.n	72e8 <realloc+0x2c>
/home/hsk/Desktop/devel/tee-tpm-hyp/optee_os/lib/libutils/isoc/bget_malloc.c:373
    72c2:	4a0a      	ldr	r2, [pc, #40]	; (72ec <realloc+0x30>)
    72c4:	4629      	mov	r1, r5
    72c6:	bf18      	it	ne
    72c8:	4629      	movne	r1, r5
    72ca:	bf08      	it	eq
    72cc:	2101      	moveq	r1, #1
    72ce:	447a      	add	r2, pc
    72d0:	f7ff fed4 	bl	707c <bgetr>
    72d4:	4604      	mov	r4, r0
/home/hsk/Desktop/devel/tee-tpm-hyp/optee_os/lib/libutils/isoc/bget_malloc.c:375
    72d6:	4b06      	ldr	r3, [pc, #24]	; (72f0 <realloc+0x34>)
    72d8:	4620      	mov	r0, r4
    72da:	4629      	mov	r1, r5
    72dc:	447b      	add	r3, pc
    72de:	691a      	ldr	r2, [r3, #16]
    72e0:	f7ff fc84 	bl	6bec <raw_malloc_return_hook.isra.3>
realloc():
/home/hsk/Desktop/devel/tee-tpm-hyp/optee_os/lib/libutils/isoc/bget_malloc.c:857
    72e4:	4620      	mov	r0, r4
    72e6:	bd38      	pop	{r3, r4, r5, pc}
raw_realloc():
/home/hsk/Desktop/devel/tee-tpm-hyp/optee_os/lib/libutils/isoc/bget_malloc.c:358
    72e8:	2400      	movs	r4, #0
    72ea:	e7f4      	b.n	72d6 <realloc+0x1a>
    72ec:	00002daa 	.word	0x00002daa
    72f0:	00002d9c 	.word	0x00002d9c

000072f4 <memalign>:
memalign():
/home/hsk/Desktop/devel/tee-tpm-hyp/optee_os/lib/libutils/isoc/bget_malloc.c:860
    72f4:	b5f8      	push	{r3, r4, r5, r6, r7, lr}
    72f6:	460e      	mov	r6, r1
raw_memalign():
/home/hsk/Desktop/devel/tee-tpm-hyp/optee_os/lib/libutils/isoc/bget_malloc.c:535
    72f8:	4604      	mov	r4, r0
    72fa:	b1b0      	cbz	r0, 732a <memalign+0x36>
    72fc:	4245      	negs	r5, r0
    72fe:	ea30 0305 	bics.w	r3, r0, r5
    7302:	d11c      	bne.n	733e <memalign+0x4a>
/home/hsk/Desktop/devel/tee-tpm-hyp/optee_os/lib/libutils/isoc/bget_malloc.c:542
    7304:	2808      	cmp	r0, #8
    7306:	d814      	bhi.n	7332 <memalign+0x3e>
raw_malloc():
/home/hsk/Desktop/devel/tee-tpm-hyp/optee_os/lib/libutils/isoc/bget_malloc.c:304
    7308:	2900      	cmp	r1, #0
    730a:	db10      	blt.n	732e <memalign+0x3a>
/home/hsk/Desktop/devel/tee-tpm-hyp/optee_os/lib/libutils/isoc/bget_malloc.c:313
    730c:	4986      	ldr	r1, [pc, #536]	; (7528 <memalign+0x234>)
    730e:	4630      	mov	r0, r6
    7310:	bf08      	it	eq
    7312:	2001      	moveq	r0, #1
    7314:	4479      	add	r1, pc
    7316:	f7ff fced 	bl	6cf4 <bget>
    731a:	4604      	mov	r4, r0
/home/hsk/Desktop/devel/tee-tpm-hyp/optee_os/lib/libutils/isoc/bget_malloc.c:315
    731c:	4b83      	ldr	r3, [pc, #524]	; (752c <memalign+0x238>)
    731e:	447b      	add	r3, pc
raw_memalign():
/home/hsk/Desktop/devel/tee-tpm-hyp/optee_os/lib/libutils/isoc/bget_malloc.c:589
    7320:	691a      	ldr	r2, [r3, #16]
    7322:	4631      	mov	r1, r6
    7324:	4620      	mov	r0, r4
    7326:	f7ff fc61 	bl	6bec <raw_malloc_return_hook.isra.3>
memalign():
/home/hsk/Desktop/devel/tee-tpm-hyp/optee_os/lib/libutils/isoc/bget_malloc.c:867
    732a:	4620      	mov	r0, r4
    732c:	bdf8      	pop	{r3, r4, r5, r6, r7, pc}
raw_malloc():
/home/hsk/Desktop/devel/tee-tpm-hyp/optee_os/lib/libutils/isoc/bget_malloc.c:291
    732e:	2400      	movs	r4, #0
    7330:	e7f4      	b.n	731c <memalign+0x28>
    7332:	f101 0710 	add.w	r7, r1, #16
    7336:	19c7      	adds	r7, r0, r7
    7338:	d201      	bcs.n	733e <memalign+0x4a>
raw_memalign():
/home/hsk/Desktop/devel/tee-tpm-hyp/optee_os/lib/libutils/isoc/bget_malloc.c:549
    733a:	42b9      	cmp	r1, r7
    733c:	d901      	bls.n	7342 <memalign+0x4e>
/home/hsk/Desktop/devel/tee-tpm-hyp/optee_os/lib/libutils/isoc/bget_malloc.c:536
    733e:	2400      	movs	r4, #0
memalign():
/home/hsk/Desktop/devel/tee-tpm-hyp/optee_os/lib/libutils/isoc/bget_malloc.c:866
    7340:	e7f3      	b.n	732a <memalign+0x36>
raw_memalign():
/home/hsk/Desktop/devel/tee-tpm-hyp/optee_os/lib/libutils/isoc/bget_malloc.c:552
    7342:	497b      	ldr	r1, [pc, #492]	; (7530 <memalign+0x23c>)
    7344:	4638      	mov	r0, r7
    7346:	4479      	add	r1, pc
    7348:	f7ff fcd4 	bl	6cf4 <bget>
/home/hsk/Desktop/devel/tee-tpm-hyp/optee_os/lib/libutils/isoc/bget_malloc.c:553
    734c:	4603      	mov	r3, r0
    734e:	2800      	cmp	r0, #0
    7350:	f000 80e5 	beq.w	751e <memalign+0x22a>
/home/hsk/Desktop/devel/tee-tpm-hyp/optee_os/lib/libutils/isoc/bget_malloc.c:556
    7354:	1e62      	subs	r2, r4, #1
    7356:	4210      	tst	r0, r2
    7358:	d063      	beq.n	7422 <memalign+0x12e>
/home/hsk/Desktop/devel/tee-tpm-hyp/optee_os/lib/libutils/isoc/bget_malloc.c:569
    735a:	1822      	adds	r2, r4, r0
/home/hsk/Desktop/devel/tee-tpm-hyp/optee_os/lib/libutils/isoc/bget_malloc.c:574
    735c:	4407      	add	r7, r0
/home/hsk/Desktop/devel/tee-tpm-hyp/optee_os/lib/libutils/isoc/bget_malloc.c:570
    735e:	4015      	ands	r5, r2
/home/hsk/Desktop/devel/tee-tpm-hyp/optee_os/lib/libutils/isoc/bget_malloc.c:572
    7360:	1a2a      	subs	r2, r5, r0
    7362:	2a0f      	cmp	r2, #15
/home/hsk/Desktop/devel/tee-tpm-hyp/optee_os/lib/libutils/isoc/bget_malloc.c:573
    7364:	bf98      	it	ls
    7366:	192d      	addls	r5, r5, r4
/home/hsk/Desktop/devel/tee-tpm-hyp/optee_os/lib/libutils/isoc/bget_malloc.c:574
    7368:	1972      	adds	r2, r6, r5
    736a:	42ba      	cmp	r2, r7
    736c:	d90c      	bls.n	7388 <memalign+0x94>
    736e:	4b71      	ldr	r3, [pc, #452]	; (7534 <memalign+0x240>)
    7370:	f240 223e 	movw	r2, #574	; 0x23e
    7374:	4970      	ldr	r1, [pc, #448]	; (7538 <memalign+0x244>)
    7376:	4871      	ldr	r0, [pc, #452]	; (753c <memalign+0x248>)
    7378:	447b      	add	r3, pc
    737a:	3335      	adds	r3, #53	; 0x35
    737c:	4479      	add	r1, pc
    737e:	4478      	add	r0, pc
brel_before():
/home/hsk/Desktop/devel/tee-tpm-hyp/optee_os/lib/libutils/isoc/bget_malloc.c:411
    7380:	f000 fab2 	bl	78e8 <_assert_log>
    7384:	f000 fac4 	bl	7910 <_assert_break>
    7388:	42a8      	cmp	r0, r5
    738a:	d309      	bcc.n	73a0 <memalign+0xac>
    738c:	4b6c      	ldr	r3, [pc, #432]	; (7540 <memalign+0x24c>)
    738e:	f240 129b 	movw	r2, #411	; 0x19b
    7392:	496c      	ldr	r1, [pc, #432]	; (7544 <memalign+0x250>)
    7394:	486c      	ldr	r0, [pc, #432]	; (7548 <memalign+0x254>)
    7396:	447b      	add	r3, pc
    7398:	3342      	adds	r3, #66	; 0x42
    739a:	4479      	add	r1, pc
    739c:	4478      	add	r0, pc
    739e:	e7ef      	b.n	7380 <memalign+0x8c>
/home/hsk/Desktop/devel/tee-tpm-hyp/optee_os/lib/libutils/isoc/bget_malloc.c:413
    73a0:	1a2c      	subs	r4, r5, r0
/home/hsk/Desktop/devel/tee-tpm-hyp/optee_os/lib/libutils/isoc/bget_malloc.c:414
    73a2:	2c0f      	cmp	r4, #15
    73a4:	d809      	bhi.n	73ba <memalign+0xc6>
    73a6:	4b69      	ldr	r3, [pc, #420]	; (754c <memalign+0x258>)
    73a8:	f44f 72cf 	mov.w	r2, #414	; 0x19e
    73ac:	4968      	ldr	r1, [pc, #416]	; (7550 <memalign+0x25c>)
    73ae:	4869      	ldr	r0, [pc, #420]	; (7554 <memalign+0x260>)
    73b0:	447b      	add	r3, pc
    73b2:	3342      	adds	r3, #66	; 0x42
    73b4:	4479      	add	r1, pc
    73b6:	4478      	add	r0, pc
    73b8:	e7e2      	b.n	7380 <memalign+0x8c>
/home/hsk/Desktop/devel/tee-tpm-hyp/optee_os/lib/libutils/isoc/bget_malloc.c:418
    73ba:	f853 2c04 	ldr.w	r2, [r3, #-4]
/home/hsk/Desktop/devel/tee-tpm-hyp/optee_os/lib/libutils/isoc/bget_malloc.c:417
    73be:	3808      	subs	r0, #8
/home/hsk/Desktop/devel/tee-tpm-hyp/optee_os/lib/libutils/isoc/bget_malloc.c:423
    73c0:	f853 3c08 	ldr.w	r3, [r3, #-8]
    73c4:	4422      	add	r2, r4
    73c6:	b323      	cbz	r3, 7412 <memalign+0x11e>
/home/hsk/Desktop/devel/tee-tpm-hyp/optee_os/lib/libutils/isoc/bget_malloc.c:428
    73c8:	1ac0      	subs	r0, r0, r3
/home/hsk/Desktop/devel/tee-tpm-hyp/optee_os/lib/libutils/isoc/bget_malloc.c:429
    73ca:	6841      	ldr	r1, [r0, #4]
    73cc:	428b      	cmp	r3, r1
    73ce:	d009      	beq.n	73e4 <memalign+0xf0>
    73d0:	4b61      	ldr	r3, [pc, #388]	; (7558 <memalign+0x264>)
    73d2:	f240 12ad 	movw	r2, #429	; 0x1ad
    73d6:	4961      	ldr	r1, [pc, #388]	; (755c <memalign+0x268>)
    73d8:	4861      	ldr	r0, [pc, #388]	; (7560 <memalign+0x26c>)
    73da:	447b      	add	r3, pc
    73dc:	3342      	adds	r3, #66	; 0x42
    73de:	4479      	add	r1, pc
    73e0:	4478      	add	r0, pc
    73e2:	e7cd      	b.n	7380 <memalign+0x8c>
/home/hsk/Desktop/devel/tee-tpm-hyp/optee_os/lib/libutils/isoc/bget_malloc.c:430
    73e4:	4423      	add	r3, r4
    73e6:	6043      	str	r3, [r0, #4]
/home/hsk/Desktop/devel/tee-tpm-hyp/optee_os/lib/libutils/isoc/bget_malloc.c:433
    73e8:	f845 3c08 	str.w	r3, [r5, #-8]
/home/hsk/Desktop/devel/tee-tpm-hyp/optee_os/lib/libutils/isoc/bget_malloc.c:435
    73ec:	f845 2c04 	str.w	r2, [r5, #-4]
/home/hsk/Desktop/devel/tee-tpm-hyp/optee_os/lib/libutils/isoc/bget_malloc.c:449
    73f0:	4a5c      	ldr	r2, [pc, #368]	; (7564 <memalign+0x270>)
    73f2:	447a      	add	r2, pc
    73f4:	6913      	ldr	r3, [r2, #16]
    73f6:	1b1c      	subs	r4, r3, r4
    73f8:	6114      	str	r4, [r2, #16]
/home/hsk/Desktop/devel/tee-tpm-hyp/optee_os/lib/libutils/isoc/bget_malloc.c:450
    73fa:	2c00      	cmp	r4, #0
    73fc:	da12      	bge.n	7424 <memalign+0x130>
    73fe:	4b5a      	ldr	r3, [pc, #360]	; (7568 <memalign+0x274>)
    7400:	f44f 72e1 	mov.w	r2, #450	; 0x1c2
    7404:	4959      	ldr	r1, [pc, #356]	; (756c <memalign+0x278>)
    7406:	485a      	ldr	r0, [pc, #360]	; (7570 <memalign+0x27c>)
    7408:	447b      	add	r3, pc
    740a:	3342      	adds	r3, #66	; 0x42
    740c:	4479      	add	r1, pc
    740e:	4478      	add	r0, pc
    7410:	e7b6      	b.n	7380 <memalign+0x8c>
/home/hsk/Desktop/devel/tee-tpm-hyp/optee_os/lib/libutils/isoc/bget_malloc.c:443
    7412:	f845 2c04 	str.w	r2, [r5, #-4]
/home/hsk/Desktop/devel/tee-tpm-hyp/optee_os/lib/libutils/isoc/bget_malloc.c:445
    7416:	4621      	mov	r1, r4
    7418:	f1a5 0208 	sub.w	r2, r5, #8
    741c:	f7ff fbfe 	bl	6c1c <create_free_block.constprop.11>
    7420:	e7e6      	b.n	73f0 <memalign+0xfc>
raw_memalign():
/home/hsk/Desktop/devel/tee-tpm-hyp/optee_os/lib/libutils/isoc/bget_malloc.c:556
    7422:	4605      	mov	r5, r0
brel_after():
/home/hsk/Desktop/devel/tee-tpm-hyp/optee_os/lib/libutils/isoc/bget_malloc.c:466
    7424:	2e08      	cmp	r6, #8
    7426:	4630      	mov	r0, r6
    7428:	bf38      	it	cc
    742a:	2008      	movcc	r0, #8
/home/hsk/Desktop/devel/tee-tpm-hyp/optee_os/lib/libutils/isoc/bget_malloc.c:470
    742c:	f855 1c04 	ldr.w	r1, [r5, #-4]
/home/hsk/Desktop/devel/tee-tpm-hyp/optee_os/lib/libutils/isoc/bget_malloc.c:466
    7430:	3007      	adds	r0, #7
    7432:	f020 0007 	bic.w	r0, r0, #7
/home/hsk/Desktop/devel/tee-tpm-hyp/optee_os/lib/libutils/isoc/bget_malloc.c:470
    7436:	424c      	negs	r4, r1
/home/hsk/Desktop/devel/tee-tpm-hyp/optee_os/lib/libutils/isoc/bget_malloc.c:469
    7438:	f100 0308 	add.w	r3, r0, #8
/home/hsk/Desktop/devel/tee-tpm-hyp/optee_os/lib/libutils/isoc/bget_malloc.c:470
    743c:	42a3      	cmp	r3, r4
    743e:	dd09      	ble.n	7454 <memalign+0x160>
    7440:	4b4c      	ldr	r3, [pc, #304]	; (7574 <memalign+0x280>)
    7442:	f44f 72eb 	mov.w	r2, #470	; 0x1d6
    7446:	494c      	ldr	r1, [pc, #304]	; (7578 <memalign+0x284>)
    7448:	484c      	ldr	r0, [pc, #304]	; (757c <memalign+0x288>)
    744a:	447b      	add	r3, pc
    744c:	334e      	adds	r3, #78	; 0x4e
    744e:	4479      	add	r1, pc
    7450:	4478      	add	r0, pc
    7452:	e795      	b.n	7380 <memalign+0x8c>
/home/hsk/Desktop/devel/tee-tpm-hyp/optee_os/lib/libutils/isoc/bget_malloc.c:476
    7454:	1ae4      	subs	r4, r4, r3
/home/hsk/Desktop/devel/tee-tpm-hyp/optee_os/lib/libutils/isoc/bget_malloc.c:477
    7456:	2c0f      	cmp	r4, #15
    7458:	dd62      	ble.n	7520 <memalign+0x22c>
/home/hsk/Desktop/devel/tee-tpm-hyp/optee_os/lib/libutils/isoc/bget_malloc.c:480
    745a:	f1c1 21ff 	rsb	r1, r1, #4278255360	; 0xff00ff00
/home/hsk/Desktop/devel/tee-tpm-hyp/optee_os/lib/libutils/isoc/bget_malloc.c:484
    745e:	425b      	negs	r3, r3
/home/hsk/Desktop/devel/tee-tpm-hyp/optee_os/lib/libutils/isoc/bget_malloc.c:480
    7460:	f501 017f 	add.w	r1, r1, #16711680	; 0xff0000
/home/hsk/Desktop/devel/tee-tpm-hyp/optee_os/lib/libutils/isoc/bget_malloc.c:484
    7464:	f845 3c04 	str.w	r3, [r5, #-4]
/home/hsk/Desktop/devel/tee-tpm-hyp/optee_os/lib/libutils/isoc/bget_malloc.c:480
    7468:	31f8      	adds	r1, #248	; 0xf8
    746a:	4428      	add	r0, r5
    746c:	186a      	adds	r2, r5, r1
/home/hsk/Desktop/devel/tee-tpm-hyp/optee_os/lib/libutils/isoc/bget_malloc.c:485
    746e:	6853      	ldr	r3, [r2, #4]
    7470:	2b00      	cmp	r3, #0
    7472:	dd50      	ble.n	7516 <memalign+0x222>
/home/hsk/Desktop/devel/tee-tpm-hyp/optee_os/lib/libutils/isoc/bget_malloc.c:491
    7474:	5869      	ldr	r1, [r5, r1]
    7476:	b149      	cbz	r1, 748c <memalign+0x198>
    7478:	4b41      	ldr	r3, [pc, #260]	; (7580 <memalign+0x28c>)
    747a:	f240 12eb 	movw	r2, #491	; 0x1eb
    747e:	4941      	ldr	r1, [pc, #260]	; (7584 <memalign+0x290>)
    7480:	4841      	ldr	r0, [pc, #260]	; (7588 <memalign+0x294>)
    7482:	447b      	add	r3, pc
    7484:	334e      	adds	r3, #78	; 0x4e
    7486:	4479      	add	r1, pc
    7488:	4478      	add	r0, pc
    748a:	e779      	b.n	7380 <memalign+0x8c>
/home/hsk/Desktop/devel/tee-tpm-hyp/optee_os/lib/libutils/isoc/bget_malloc.c:492
    748c:	58d7      	ldr	r7, [r2, r3]
    748e:	42bb      	cmp	r3, r7
    7490:	d009      	beq.n	74a6 <memalign+0x1b2>
    7492:	4b3e      	ldr	r3, [pc, #248]	; (758c <memalign+0x298>)
    7494:	f44f 72f6 	mov.w	r2, #492	; 0x1ec
    7498:	493d      	ldr	r1, [pc, #244]	; (7590 <memalign+0x29c>)
    749a:	483e      	ldr	r0, [pc, #248]	; (7594 <memalign+0x2a0>)
    749c:	447b      	add	r3, pc
    749e:	334e      	adds	r3, #78	; 0x4e
    74a0:	4479      	add	r1, pc
    74a2:	4478      	add	r0, pc
    74a4:	e76c      	b.n	7380 <memalign+0x8c>
/home/hsk/Desktop/devel/tee-tpm-hyp/optee_os/lib/libutils/isoc/bget_malloc.c:495
    74a6:	6001      	str	r1, [r0, #0]
/home/hsk/Desktop/devel/tee-tpm-hyp/optee_os/lib/libutils/isoc/bget_malloc.c:496
    74a8:	18e1      	adds	r1, r4, r3
    74aa:	6041      	str	r1, [r0, #4]
/home/hsk/Desktop/devel/tee-tpm-hyp/optee_os/lib/libutils/isoc/bget_malloc.c:499
    74ac:	58d1      	ldr	r1, [r2, r3]
    74ae:	4421      	add	r1, r4
    74b0:	50d1      	str	r1, [r2, r3]
/home/hsk/Desktop/devel/tee-tpm-hyp/optee_os/lib/libutils/isoc/bget_malloc.c:505
    74b2:	68d3      	ldr	r3, [r2, #12]
    74b4:	6899      	ldr	r1, [r3, #8]
    74b6:	428a      	cmp	r2, r1
    74b8:	d009      	beq.n	74ce <memalign+0x1da>
    74ba:	4b37      	ldr	r3, [pc, #220]	; (7598 <memalign+0x2a4>)
    74bc:	f240 12f9 	movw	r2, #505	; 0x1f9
    74c0:	4936      	ldr	r1, [pc, #216]	; (759c <memalign+0x2a8>)
    74c2:	4837      	ldr	r0, [pc, #220]	; (75a0 <memalign+0x2ac>)
    74c4:	447b      	add	r3, pc
    74c6:	334e      	adds	r3, #78	; 0x4e
    74c8:	4479      	add	r1, pc
    74ca:	4478      	add	r0, pc
    74cc:	e758      	b.n	7380 <memalign+0x8c>
/home/hsk/Desktop/devel/tee-tpm-hyp/optee_os/lib/libutils/isoc/bget_malloc.c:506
    74ce:	6891      	ldr	r1, [r2, #8]
    74d0:	68cf      	ldr	r7, [r1, #12]
    74d2:	42ba      	cmp	r2, r7
    74d4:	d009      	beq.n	74ea <memalign+0x1f6>
    74d6:	4b33      	ldr	r3, [pc, #204]	; (75a4 <memalign+0x2b0>)
    74d8:	f44f 72fd 	mov.w	r2, #506	; 0x1fa
    74dc:	4932      	ldr	r1, [pc, #200]	; (75a8 <memalign+0x2b4>)
    74de:	4833      	ldr	r0, [pc, #204]	; (75ac <memalign+0x2b8>)
    74e0:	447b      	add	r3, pc
    74e2:	334e      	adds	r3, #78	; 0x4e
    74e4:	4479      	add	r1, pc
    74e6:	4478      	add	r0, pc
    74e8:	e74a      	b.n	7380 <memalign+0x8c>
/home/hsk/Desktop/devel/tee-tpm-hyp/optee_os/lib/libutils/isoc/bget_malloc.c:509
    74ea:	60c3      	str	r3, [r0, #12]
/home/hsk/Desktop/devel/tee-tpm-hyp/optee_os/lib/libutils/isoc/bget_malloc.c:510
    74ec:	6081      	str	r1, [r0, #8]
/home/hsk/Desktop/devel/tee-tpm-hyp/optee_os/lib/libutils/isoc/bget_malloc.c:513
    74ee:	6098      	str	r0, [r3, #8]
/home/hsk/Desktop/devel/tee-tpm-hyp/optee_os/lib/libutils/isoc/bget_malloc.c:514
    74f0:	6883      	ldr	r3, [r0, #8]
    74f2:	60d8      	str	r0, [r3, #12]
/home/hsk/Desktop/devel/tee-tpm-hyp/optee_os/lib/libutils/isoc/bget_malloc.c:521
    74f4:	4a2e      	ldr	r2, [pc, #184]	; (75b0 <memalign+0x2bc>)
    74f6:	447a      	add	r2, pc
    74f8:	6913      	ldr	r3, [r2, #16]
    74fa:	1b1c      	subs	r4, r3, r4
    74fc:	6114      	str	r4, [r2, #16]
/home/hsk/Desktop/devel/tee-tpm-hyp/optee_os/lib/libutils/isoc/bget_malloc.c:522
    74fe:	2c00      	cmp	r4, #0
    7500:	da0e      	bge.n	7520 <memalign+0x22c>
    7502:	4b2c      	ldr	r3, [pc, #176]	; (75b4 <memalign+0x2c0>)
    7504:	f240 220a 	movw	r2, #522	; 0x20a
    7508:	492b      	ldr	r1, [pc, #172]	; (75b8 <memalign+0x2c4>)
    750a:	482c      	ldr	r0, [pc, #176]	; (75bc <memalign+0x2c8>)
    750c:	447b      	add	r3, pc
    750e:	334e      	adds	r3, #78	; 0x4e
    7510:	4479      	add	r1, pc
    7512:	4478      	add	r0, pc
    7514:	e734      	b.n	7380 <memalign+0x8c>
/home/hsk/Desktop/devel/tee-tpm-hyp/optee_os/lib/libutils/isoc/bget_malloc.c:517
    7516:	4621      	mov	r1, r4
    7518:	f7ff fb80 	bl	6c1c <create_free_block.constprop.11>
    751c:	e7ea      	b.n	74f4 <memalign+0x200>
raw_memalign():
/home/hsk/Desktop/devel/tee-tpm-hyp/optee_os/lib/libutils/isoc/bget_malloc.c:553
    751e:	4605      	mov	r5, r0
/home/hsk/Desktop/devel/tee-tpm-hyp/optee_os/lib/libutils/isoc/bget_malloc.c:589
    7520:	4b27      	ldr	r3, [pc, #156]	; (75c0 <memalign+0x2cc>)
    7522:	462c      	mov	r4, r5
    7524:	447b      	add	r3, pc
    7526:	e6fb      	b.n	7320 <memalign+0x2c>
    7528:	00002d64 	.word	0x00002d64
    752c:	00002d5a 	.word	0x00002d5a
    7530:	00002d32 	.word	0x00002d32
    7534:	00001472 	.word	0x00001472
    7538:	000014f8 	.word	0x000014f8
    753c:	000017c8 	.word	0x000017c8
    7540:	00001454 	.word	0x00001454
    7544:	000014da 	.word	0x000014da
    7548:	000017d6 	.word	0x000017d6
    754c:	0000143a 	.word	0x0000143a
    7550:	000014c0 	.word	0x000014c0
    7554:	000017cf 	.word	0x000017cf
    7558:	00001410 	.word	0x00001410
    755c:	00001496 	.word	0x00001496
    7560:	000017cc 	.word	0x000017cc
    7564:	00002c86 	.word	0x00002c86
    7568:	000013e2 	.word	0x000013e2
    756c:	00001468 	.word	0x00001468
    7570:	00001615 	.word	0x00001615
    7574:	000013a0 	.word	0x000013a0
    7578:	00001426 	.word	0x00001426
    757c:	0000177d 	.word	0x0000177d
    7580:	00001368 	.word	0x00001368
    7584:	000013ee 	.word	0x000013ee
    7588:	0000175b 	.word	0x0000175b
    758c:	0000134e 	.word	0x0000134e
    7590:	000013d4 	.word	0x000013d4
    7594:	00001757 	.word	0x00001757
    7598:	00001326 	.word	0x00001326
    759c:	000013ac 	.word	0x000013ac
    75a0:	0000174e 	.word	0x0000174e
    75a4:	0000130a 	.word	0x0000130a
    75a8:	00001390 	.word	0x00001390
    75ac:	00001751 	.word	0x00001751
    75b0:	00002b82 	.word	0x00002b82
    75b4:	000012de 	.word	0x000012de
    75b8:	00001364 	.word	0x00001364
    75bc:	00001511 	.word	0x00001511
    75c0:	00002b54 	.word	0x00002b54

000075c4 <malloc_add_pool>:
malloc_add_pool():
/home/hsk/Desktop/devel/tee-tpm-hyp/optee_os/lib/libutils/isoc/bget_malloc.c:878
    75c4:	e92d 41f3 	stmdb	sp!, {r0, r1, r4, r5, r6, r7, r8, lr}
/home/hsk/Desktop/devel/tee-tpm-hyp/optee_os/lib/libutils/isoc/bget_malloc.c:883
    75c8:	1844      	adds	r4, r0, r1
/home/hsk/Desktop/devel/tee-tpm-hyp/optee_os/lib/libutils/isoc/bget_malloc.c:889
    75ca:	3007      	adds	r0, #7
    75cc:	f020 0607 	bic.w	r6, r0, #7
/home/hsk/Desktop/devel/tee-tpm-hyp/optee_os/lib/libutils/isoc/bget_malloc.c:890
    75d0:	f024 0407 	bic.w	r4, r4, #7
/home/hsk/Desktop/devel/tee-tpm-hyp/optee_os/lib/libutils/isoc/bget_malloc.c:891
    75d4:	42a6      	cmp	r6, r4
    75d6:	d30c      	bcc.n	75f2 <malloc_add_pool+0x2e>
/home/hsk/Desktop/devel/tee-tpm-hyp/optee_os/lib/libutils/isoc/bget_malloc.c:891 (discriminator 1)
    75d8:	4b2c      	ldr	r3, [pc, #176]	; (768c <malloc_add_pool+0xc8>)
    75da:	f240 327b 	movw	r2, #891	; 0x37b
    75de:	492c      	ldr	r1, [pc, #176]	; (7690 <malloc_add_pool+0xcc>)
    75e0:	482c      	ldr	r0, [pc, #176]	; (7694 <malloc_add_pool+0xd0>)
    75e2:	447b      	add	r3, pc
    75e4:	3359      	adds	r3, #89	; 0x59
    75e6:	4479      	add	r1, pc
    75e8:	4478      	add	r0, pc
/home/hsk/Desktop/devel/tee-tpm-hyp/optee_os/lib/libutils/isoc/bget_malloc.c:904 (discriminator 1)
    75ea:	f000 f97d 	bl	78e8 <_assert_log>
    75ee:	f000 f98f 	bl	7910 <_assert_break>
/home/hsk/Desktop/devel/tee-tpm-hyp/optee_os/lib/libutils/isoc/bget_malloc.c:893
    75f2:	1ba4      	subs	r4, r4, r6
    75f4:	2c17      	cmp	r4, #23
    75f6:	d80e      	bhi.n	7616 <malloc_add_pool+0x52>
/home/hsk/Desktop/devel/tee-tpm-hyp/optee_os/lib/libutils/isoc/bget_malloc.c:894
    75f8:	4827      	ldr	r0, [pc, #156]	; (7698 <malloc_add_pool+0xd4>)
    75fa:	2203      	movs	r2, #3
    75fc:	4b27      	ldr	r3, [pc, #156]	; (769c <malloc_add_pool+0xd8>)
    75fe:	f240 317e 	movw	r1, #894	; 0x37e
    7602:	4478      	add	r0, pc
    7604:	447b      	add	r3, pc
    7606:	3059      	adds	r0, #89	; 0x59
    7608:	9300      	str	r3, [sp, #0]
    760a:	2301      	movs	r3, #1
    760c:	f7f8 fe50 	bl	2b0 <trace_printf>
/home/hsk/Desktop/devel/tee-tpm-hyp/optee_os/lib/libutils/isoc/bget_malloc.c:913
    7610:	b002      	add	sp, #8
    7612:	e8bd 81f0 	ldmia.w	sp!, {r4, r5, r6, r7, r8, pc}
/home/hsk/Desktop/devel/tee-tpm-hyp/optee_os/lib/libutils/isoc/bget_malloc.c:901
    7616:	4d22      	ldr	r5, [pc, #136]	; (76a0 <malloc_add_pool+0xdc>)
    7618:	4630      	mov	r0, r6
    761a:	4621      	mov	r1, r4
    761c:	447d      	add	r5, pc
    761e:	462a      	mov	r2, r5
    7620:	f7ff fd6a 	bl	70f8 <bpool>
/home/hsk/Desktop/devel/tee-tpm-hyp/optee_os/lib/libutils/isoc/bget_malloc.c:902
    7624:	4b1f      	ldr	r3, [pc, #124]	; (76a4 <malloc_add_pool+0xe0>)
    7626:	447b      	add	r3, pc
    7628:	6b9f      	ldr	r7, [r3, #56]	; 0x38
/home/hsk/Desktop/devel/tee-tpm-hyp/optee_os/lib/libutils/isoc/bget_malloc.c:903
    762a:	6bd8      	ldr	r0, [r3, #60]	; 0x3c
/home/hsk/Desktop/devel/tee-tpm-hyp/optee_os/lib/libutils/isoc/bget_malloc.c:902
    762c:	3701      	adds	r7, #1
raw_realloc():
/home/hsk/Desktop/devel/tee-tpm-hyp/optee_os/lib/libutils/isoc/bget_malloc.c:362
    762e:	ea5f 08c7 	movs.w	r8, r7, lsl #3
    7632:	d41a      	bmi.n	766a <malloc_add_pool+0xa6>
/home/hsk/Desktop/devel/tee-tpm-hyp/optee_os/lib/libutils/isoc/bget_malloc.c:371
    7634:	f1b8 0f00 	cmp.w	r8, #0
/home/hsk/Desktop/devel/tee-tpm-hyp/optee_os/lib/libutils/isoc/bget_malloc.c:373
    7638:	462a      	mov	r2, r5
    763a:	4641      	mov	r1, r8
    763c:	bf08      	it	eq
    763e:	2101      	moveq	r1, #1
    7640:	f7ff fd1c 	bl	707c <bgetr>
    7644:	4605      	mov	r5, r0
/home/hsk/Desktop/devel/tee-tpm-hyp/optee_os/lib/libutils/isoc/bget_malloc.c:375
    7646:	4b18      	ldr	r3, [pc, #96]	; (76a8 <malloc_add_pool+0xe4>)
    7648:	4641      	mov	r1, r8
    764a:	4628      	mov	r0, r5
    764c:	447b      	add	r3, pc
    764e:	691a      	ldr	r2, [r3, #16]
    7650:	f7ff facc 	bl	6bec <raw_malloc_return_hook.isra.3>
malloc_add_pool():
/home/hsk/Desktop/devel/tee-tpm-hyp/optee_os/lib/libutils/isoc/bget_malloc.c:904
    7654:	b95d      	cbnz	r5, 766e <malloc_add_pool+0xaa>
/home/hsk/Desktop/devel/tee-tpm-hyp/optee_os/lib/libutils/isoc/bget_malloc.c:904 (discriminator 1)
    7656:	4b15      	ldr	r3, [pc, #84]	; (76ac <malloc_add_pool+0xe8>)
    7658:	f44f 7262 	mov.w	r2, #904	; 0x388
    765c:	4914      	ldr	r1, [pc, #80]	; (76b0 <malloc_add_pool+0xec>)
    765e:	4815      	ldr	r0, [pc, #84]	; (76b4 <malloc_add_pool+0xf0>)
    7660:	447b      	add	r3, pc
    7662:	3359      	adds	r3, #89	; 0x59
    7664:	4479      	add	r1, pc
    7666:	4478      	add	r0, pc
    7668:	e7bf      	b.n	75ea <malloc_add_pool+0x26>
raw_realloc():
/home/hsk/Desktop/devel/tee-tpm-hyp/optee_os/lib/libutils/isoc/bget_malloc.c:358
    766a:	2500      	movs	r5, #0
    766c:	e7eb      	b.n	7646 <malloc_add_pool+0x82>
malloc_add_pool():
/home/hsk/Desktop/devel/tee-tpm-hyp/optee_os/lib/libutils/isoc/bget_malloc.c:905
    766e:	4b12      	ldr	r3, [pc, #72]	; (76b8 <malloc_add_pool+0xf4>)
    7670:	447b      	add	r3, pc
/home/hsk/Desktop/devel/tee-tpm-hyp/optee_os/lib/libutils/isoc/bget_malloc.c:906
    7672:	6b9a      	ldr	r2, [r3, #56]	; 0x38
/home/hsk/Desktop/devel/tee-tpm-hyp/optee_os/lib/libutils/isoc/bget_malloc.c:905
    7674:	63dd      	str	r5, [r3, #60]	; 0x3c
/home/hsk/Desktop/devel/tee-tpm-hyp/optee_os/lib/libutils/isoc/bget_malloc.c:911
    7676:	639f      	str	r7, [r3, #56]	; 0x38
/home/hsk/Desktop/devel/tee-tpm-hyp/optee_os/lib/libutils/isoc/bget_malloc.c:906
    7678:	eb05 01c2 	add.w	r1, r5, r2, lsl #3
    767c:	f845 6032 	str.w	r6, [r5, r2, lsl #3]
/home/hsk/Desktop/devel/tee-tpm-hyp/optee_os/lib/libutils/isoc/bget_malloc.c:907
    7680:	604c      	str	r4, [r1, #4]
/home/hsk/Desktop/devel/tee-tpm-hyp/optee_os/lib/libutils/isoc/bget_malloc.c:909
    7682:	6a99      	ldr	r1, [r3, #40]	; 0x28
    7684:	440c      	add	r4, r1
    7686:	629c      	str	r4, [r3, #40]	; 0x28
    7688:	e7c2      	b.n	7610 <malloc_add_pool+0x4c>
    768a:	bf00      	nop
    768c:	00001208 	.word	0x00001208
    7690:	0000128e 	.word	0x0000128e
    7694:	0000166e 	.word	0x0000166e
    7698:	000011e8 	.word	0x000011e8
    769c:	0000165e 	.word	0x0000165e
    76a0:	00002a5c 	.word	0x00002a5c
    76a4:	00004a9e 	.word	0x00004a9e
    76a8:	00002a2c 	.word	0x00002a2c
    76ac:	0000118a 	.word	0x0000118a
    76b0:	00001210 	.word	0x00001210
    76b4:	00001614 	.word	0x00001614
    76b8:	00004a54 	.word	0x00004a54

000076bc <malloc_buffer_is_within_alloced>:
malloc_buffer_is_within_alloced():
/home/hsk/Desktop/devel/tee-tpm-hyp/optee_os/lib/libutils/isoc/bget_malloc.c:916
    76bc:	b5f8      	push	{r3, r4, r5, r6, r7, lr}
/home/hsk/Desktop/devel/tee-tpm-hyp/optee_os/lib/libutils/isoc/bget_malloc.c:927
    76be:	1841      	adds	r1, r0, r1
    76c0:	d253      	bcs.n	776a <malloc_buffer_is_within_alloced+0xae>
bpool_foreach_iterator_init():
/home/hsk/Desktop/devel/tee-tpm-hyp/optee_os/lib/libutils/isoc/bget_malloc.c:230
    76c2:	4a2b      	ldr	r2, [pc, #172]	; (7770 <malloc_buffer_is_within_alloced+0xb4>)
/home/hsk/Desktop/devel/tee-tpm-hyp/optee_os/lib/libutils/isoc/bget_malloc.c:229
    76c4:	2500      	movs	r5, #0
    76c6:	f06f 0707 	mvn.w	r7, #7
/home/hsk/Desktop/devel/tee-tpm-hyp/optee_os/lib/libutils/isoc/bget_malloc.c:230
    76ca:	447a      	add	r2, pc
    76cc:	6bd6      	ldr	r6, [r2, #60]	; 0x3c
bpool_foreach():
/home/hsk/Desktop/devel/tee-tpm-hyp/optee_os/lib/libutils/isoc/bget_malloc.c:275
    76ce:	f8d2 c038 	ldr.w	ip, [r2, #56]	; 0x38
bpool_foreach_iterator_init():
/home/hsk/Desktop/devel/tee-tpm-hyp/optee_os/lib/libutils/isoc/bget_malloc.c:230
    76d2:	6833      	ldr	r3, [r6, #0]
bpool_foreach_pool():
/home/hsk/Desktop/devel/tee-tpm-hyp/optee_os/lib/libutils/isoc/bget_malloc.c:237
    76d4:	685a      	ldr	r2, [r3, #4]
/home/hsk/Desktop/devel/tee-tpm-hyp/optee_os/lib/libutils/isoc/bget_malloc.c:239
    76d6:	f1b2 4f00 	cmp.w	r2, #2147483648	; 0x80000000
    76da:	d043      	beq.n	7764 <malloc_buffer_is_within_alloced+0xa8>
/home/hsk/Desktop/devel/tee-tpm-hyp/optee_os/lib/libutils/isoc/bget_malloc.c:242
    76dc:	2a00      	cmp	r2, #0
    76de:	da1e      	bge.n	771e <malloc_buffer_is_within_alloced+0x62>
/home/hsk/Desktop/devel/tee-tpm-hyp/optee_os/lib/libutils/isoc/bget_malloc.c:244
    76e0:	4254      	negs	r4, r2
/home/hsk/Desktop/devel/tee-tpm-hyp/optee_os/lib/libutils/isoc/bget_malloc.c:246
    76e2:	f04f 0e00 	mov.w	lr, #0
/home/hsk/Desktop/devel/tee-tpm-hyp/optee_os/lib/libutils/isoc/bget_malloc.c:259
    76e6:	441c      	add	r4, r3
bpool_foreach():
/home/hsk/Desktop/devel/tee-tpm-hyp/optee_os/lib/libutils/isoc/bget_malloc.c:270
    76e8:	f1be 0f00 	cmp.w	lr, #0
    76ec:	d115      	bne.n	771a <malloc_buffer_is_within_alloced+0x5e>
    76ee:	1aba      	subs	r2, r7, r2
bget_buf_size():
/home/hsk/Desktop/devel/tee-tpm-hyp/optee_os/lib/libutils/isoc/bget_malloc.c:612
    76f0:	2a00      	cmp	r2, #0
    76f2:	dc0c      	bgt.n	770e <malloc_buffer_is_within_alloced+0x52>
    76f4:	4b1f      	ldr	r3, [pc, #124]	; (7774 <malloc_buffer_is_within_alloced+0xb8>)
    76f6:	f44f 7219 	mov.w	r2, #612	; 0x264
    76fa:	491f      	ldr	r1, [pc, #124]	; (7778 <malloc_buffer_is_within_alloced+0xbc>)
    76fc:	481f      	ldr	r0, [pc, #124]	; (777c <malloc_buffer_is_within_alloced+0xc0>)
    76fe:	447b      	add	r3, pc
    7700:	3369      	adds	r3, #105	; 0x69
    7702:	4479      	add	r1, pc
    7704:	4478      	add	r0, pc
bpool_foreach_pool():
/home/hsk/Desktop/devel/tee-tpm-hyp/optee_os/lib/libutils/isoc/bget_malloc.c:252
    7706:	f000 f8ef 	bl	78e8 <_assert_log>
    770a:	f000 f901 	bl	7910 <_assert_break>
/home/hsk/Desktop/devel/tee-tpm-hyp/optee_os/lib/libutils/isoc/bget_malloc.c:256
    770e:	3308      	adds	r3, #8
malloc_buffer_is_within_alloced():
/home/hsk/Desktop/devel/tee-tpm-hyp/optee_os/lib/libutils/isoc/bget_malloc.c:938
    7710:	4298      	cmp	r0, r3
    7712:	d302      	bcc.n	771a <malloc_buffer_is_within_alloced+0x5e>
/home/hsk/Desktop/devel/tee-tpm-hyp/optee_os/lib/libutils/isoc/bget_malloc.c:936 (discriminator 1)
    7714:	441a      	add	r2, r3
/home/hsk/Desktop/devel/tee-tpm-hyp/optee_os/lib/libutils/isoc/bget_malloc.c:938 (discriminator 1)
    7716:	4291      	cmp	r1, r2
    7718:	d922      	bls.n	7760 <malloc_buffer_is_within_alloced+0xa4>
bpool_foreach_iterator_init():
/home/hsk/Desktop/devel/tee-tpm-hyp/optee_os/lib/libutils/isoc/bget_malloc.c:229
    771a:	4623      	mov	r3, r4
    771c:	e7da      	b.n	76d4 <malloc_buffer_is_within_alloced+0x18>
bpool_foreach_pool():
/home/hsk/Desktop/devel/tee-tpm-hyp/optee_os/lib/libutils/isoc/bget_malloc.c:252
    771e:	68dc      	ldr	r4, [r3, #12]
    7720:	68a4      	ldr	r4, [r4, #8]
    7722:	429c      	cmp	r4, r3
    7724:	d008      	beq.n	7738 <malloc_buffer_is_within_alloced+0x7c>
    7726:	4b16      	ldr	r3, [pc, #88]	; (7780 <malloc_buffer_is_within_alloced+0xc4>)
    7728:	22fc      	movs	r2, #252	; 0xfc
    772a:	4916      	ldr	r1, [pc, #88]	; (7784 <malloc_buffer_is_within_alloced+0xc8>)
    772c:	4816      	ldr	r0, [pc, #88]	; (7788 <malloc_buffer_is_within_alloced+0xcc>)
    772e:	447b      	add	r3, pc
    7730:	3377      	adds	r3, #119	; 0x77
    7732:	4479      	add	r1, pc
    7734:	4478      	add	r0, pc
    7736:	e7e6      	b.n	7706 <malloc_buffer_is_within_alloced+0x4a>
/home/hsk/Desktop/devel/tee-tpm-hyp/optee_os/lib/libutils/isoc/bget_malloc.c:253
    7738:	689c      	ldr	r4, [r3, #8]
    773a:	68e4      	ldr	r4, [r4, #12]
    773c:	429c      	cmp	r4, r3
    773e:	d008      	beq.n	7752 <malloc_buffer_is_within_alloced+0x96>
    7740:	4b12      	ldr	r3, [pc, #72]	; (778c <malloc_buffer_is_within_alloced+0xd0>)
    7742:	22fd      	movs	r2, #253	; 0xfd
    7744:	4912      	ldr	r1, [pc, #72]	; (7790 <malloc_buffer_is_within_alloced+0xd4>)
    7746:	4813      	ldr	r0, [pc, #76]	; (7794 <malloc_buffer_is_within_alloced+0xd8>)
    7748:	447b      	add	r3, pc
    774a:	3377      	adds	r3, #119	; 0x77
    774c:	4479      	add	r1, pc
    774e:	4478      	add	r0, pc
    7750:	e7d9      	b.n	7706 <malloc_buffer_is_within_alloced+0x4a>
    7752:	4614      	mov	r4, r2
/home/hsk/Desktop/devel/tee-tpm-hyp/optee_os/lib/libutils/isoc/bget_malloc.c:249
    7754:	f04f 0e01 	mov.w	lr, #1
    7758:	e7c5      	b.n	76e6 <malloc_buffer_is_within_alloced+0x2a>
bpool_foreach():
/home/hsk/Desktop/devel/tee-tpm-hyp/optee_os/lib/libutils/isoc/bget_malloc.c:279
    775a:	f856 4035 	ldr.w	r4, [r6, r5, lsl #3]
    775e:	e7dc      	b.n	771a <malloc_buffer_is_within_alloced+0x5e>
malloc_buffer_is_within_alloced():
/home/hsk/Desktop/devel/tee-tpm-hyp/optee_os/lib/libutils/isoc/bget_malloc.c:939
    7760:	2001      	movs	r0, #1
/home/hsk/Desktop/devel/tee-tpm-hyp/optee_os/lib/libutils/isoc/bget_malloc.c:947
    7762:	e003      	b.n	776c <malloc_buffer_is_within_alloced+0xb0>
bpool_foreach():
/home/hsk/Desktop/devel/tee-tpm-hyp/optee_os/lib/libutils/isoc/bget_malloc.c:275
    7764:	3501      	adds	r5, #1
    7766:	4565      	cmp	r5, ip
    7768:	d3f7      	bcc.n	775a <malloc_buffer_is_within_alloced+0x9e>
malloc_buffer_is_within_alloced():
/home/hsk/Desktop/devel/tee-tpm-hyp/optee_os/lib/libutils/isoc/bget_malloc.c:921
    776a:	2000      	movs	r0, #0
/home/hsk/Desktop/devel/tee-tpm-hyp/optee_os/lib/libutils/isoc/bget_malloc.c:948
    776c:	bdf8      	pop	{r3, r4, r5, r6, r7, pc}
    776e:	bf00      	nop
    7770:	000049fa 	.word	0x000049fa
    7774:	000010ec 	.word	0x000010ec
    7778:	00001172 	.word	0x00001172
    777c:	000013f3 	.word	0x000013f3
    7780:	000010bc 	.word	0x000010bc
    7784:	00001142 	.word	0x00001142
    7788:	00001263 	.word	0x00001263
    778c:	000010a2 	.word	0x000010a2
    7790:	00001128 	.word	0x00001128
    7794:	00001264 	.word	0x00001264

00007798 <malloc_buffer_overlaps_heap>:
malloc_buffer_overlaps_heap():
/home/hsk/Desktop/devel/tee-tpm-hyp/optee_os/lib/libutils/isoc/bget_malloc.c:960
    7798:	4b11      	ldr	r3, [pc, #68]	; (77e0 <malloc_buffer_overlaps_heap+0x48>)
    779a:	eb10 0c01 	adds.w	ip, r0, r1
/home/hsk/Desktop/devel/tee-tpm-hyp/optee_os/lib/libutils/isoc/bget_malloc.c:951
    779e:	b5f0      	push	{r4, r5, r6, r7, lr}
    77a0:	f04f 0101 	mov.w	r1, #1
/home/hsk/Desktop/devel/tee-tpm-hyp/optee_os/lib/libutils/isoc/bget_malloc.c:960
    77a4:	447b      	add	r3, pc
    77a6:	bf38      	it	cc
    77a8:	2100      	movcc	r1, #0
    77aa:	6b9f      	ldr	r7, [r3, #56]	; 0x38
/home/hsk/Desktop/devel/tee-tpm-hyp/optee_os/lib/libutils/isoc/bget_malloc.c:961
    77ac:	6bdd      	ldr	r5, [r3, #60]	; 0x3c
/home/hsk/Desktop/devel/tee-tpm-hyp/optee_os/lib/libutils/isoc/bget_malloc.c:960
    77ae:	2300      	movs	r3, #0
/home/hsk/Desktop/devel/tee-tpm-hyp/optee_os/lib/libutils/isoc/bget_malloc.c:960 (discriminator 1)
    77b0:	429f      	cmp	r7, r3
    77b2:	d101      	bne.n	77b8 <malloc_buffer_overlaps_heap+0x20>
/home/hsk/Desktop/devel/tee-tpm-hyp/optee_os/lib/libutils/isoc/bget_malloc.c:955
    77b4:	2000      	movs	r0, #0
/home/hsk/Desktop/devel/tee-tpm-hyp/optee_os/lib/libutils/isoc/bget_malloc.c:978
    77b6:	bdf0      	pop	{r4, r5, r6, r7, pc}
/home/hsk/Desktop/devel/tee-tpm-hyp/optee_os/lib/libutils/isoc/bget_malloc.c:962
    77b8:	eb05 02c3 	add.w	r2, r5, r3, lsl #3
/home/hsk/Desktop/devel/tee-tpm-hyp/optee_os/lib/libutils/isoc/bget_malloc.c:961
    77bc:	f855 4033 	ldr.w	r4, [r5, r3, lsl #3]
    77c0:	2600      	movs	r6, #0
    77c2:	6852      	ldr	r2, [r2, #4]
    77c4:	1912      	adds	r2, r2, r4
    77c6:	bf28      	it	cs
    77c8:	2601      	movcs	r6, #1
/home/hsk/Desktop/devel/tee-tpm-hyp/optee_os/lib/libutils/isoc/bget_malloc.c:964
    77ca:	b931      	cbnz	r1, 77da <malloc_buffer_overlaps_heap+0x42>
/home/hsk/Desktop/devel/tee-tpm-hyp/optee_os/lib/libutils/isoc/bget_malloc.c:964 (discriminator 1)
    77cc:	b92e      	cbnz	r6, 77da <malloc_buffer_overlaps_heap+0x42>
/home/hsk/Desktop/devel/tee-tpm-hyp/optee_os/lib/libutils/isoc/bget_malloc.c:969
    77ce:	45a4      	cmp	ip, r4
    77d0:	d803      	bhi.n	77da <malloc_buffer_overlaps_heap+0x42>
/home/hsk/Desktop/devel/tee-tpm-hyp/optee_os/lib/libutils/isoc/bget_malloc.c:969 (discriminator 1)
    77d2:	4290      	cmp	r0, r2
    77d4:	d301      	bcc.n	77da <malloc_buffer_overlaps_heap+0x42>
/home/hsk/Desktop/devel/tee-tpm-hyp/optee_os/lib/libutils/isoc/bget_malloc.c:960 (discriminator 2)
    77d6:	3301      	adds	r3, #1
    77d8:	e7ea      	b.n	77b0 <malloc_buffer_overlaps_heap+0x18>
/home/hsk/Desktop/devel/tee-tpm-hyp/optee_os/lib/libutils/isoc/bget_malloc.c:965
    77da:	2001      	movs	r0, #1
    77dc:	e7eb      	b.n	77b6 <malloc_buffer_overlaps_heap+0x1e>
    77de:	bf00      	nop
    77e0:	00004920 	.word	0x00004920

000077e4 <mempool_alloc_pool>:
mempool_alloc_pool():
/home/hsk/Desktop/devel/tee-tpm-hyp/optee_os/lib/libutils/ext/mempool.c:130
    77e4:	b538      	push	{r3, r4, r5, lr}
    77e6:	4604      	mov	r4, r0
    77e8:	460d      	mov	r5, r1
/home/hsk/Desktop/devel/tee-tpm-hyp/optee_os/lib/libutils/ext/mempool.c:131
    77ea:	2001      	movs	r0, #1
    77ec:	210c      	movs	r1, #12
    77ee:	f7ff fd41 	bl	7274 <calloc>
/home/hsk/Desktop/devel/tee-tpm-hyp/optee_os/lib/libutils/ext/mempool.c:134
    77f2:	07a3      	lsls	r3, r4, #30
    77f4:	d00a      	beq.n	780c <mempool_alloc_pool+0x28>
/home/hsk/Desktop/devel/tee-tpm-hyp/optee_os/lib/libutils/ext/mempool.c:134 (discriminator 1)
    77f6:	4b09      	ldr	r3, [pc, #36]	; (781c <mempool_alloc_pool+0x38>)
    77f8:	2286      	movs	r2, #134	; 0x86
    77fa:	4909      	ldr	r1, [pc, #36]	; (7820 <mempool_alloc_pool+0x3c>)
    77fc:	4809      	ldr	r0, [pc, #36]	; (7824 <mempool_alloc_pool+0x40>)
    77fe:	447b      	add	r3, pc
    7800:	4479      	add	r1, pc
    7802:	4478      	add	r0, pc
    7804:	f000 f870 	bl	78e8 <_assert_log>
    7808:	f000 f882 	bl	7910 <_assert_break>
/home/hsk/Desktop/devel/tee-tpm-hyp/optee_os/lib/libutils/ext/mempool.c:136
    780c:	b120      	cbz	r0, 7818 <mempool_alloc_pool+0x34>
/home/hsk/Desktop/devel/tee-tpm-hyp/optee_os/lib/libutils/ext/mempool.c:139
    780e:	f04f 33ff 	mov.w	r3, #4294967295	; 0xffffffff
/home/hsk/Desktop/devel/tee-tpm-hyp/optee_os/lib/libutils/ext/mempool.c:137
    7812:	6005      	str	r5, [r0, #0]
/home/hsk/Desktop/devel/tee-tpm-hyp/optee_os/lib/libutils/ext/mempool.c:138
    7814:	6084      	str	r4, [r0, #8]
/home/hsk/Desktop/devel/tee-tpm-hyp/optee_os/lib/libutils/ext/mempool.c:139
    7816:	6043      	str	r3, [r0, #4]
/home/hsk/Desktop/devel/tee-tpm-hyp/optee_os/lib/libutils/ext/mempool.c:149
    7818:	bd38      	pop	{r3, r4, r5, pc}
    781a:	bf00      	nop
    781c:	0000147e 	.word	0x0000147e
    7820:	0000149d 	.word	0x0000149d
    7824:	000014b6 	.word	0x000014b6

00007828 <mempool_alloc>:
mempool_alloc():
/home/hsk/Desktop/devel/tee-tpm-hyp/optee_os/lib/libutils/ext/mempool.c:152
    7828:	b573      	push	{r0, r1, r4, r5, r6, lr}
    782a:	e9d0 2400 	ldrd	r2, r4, [r0]
/home/hsk/Desktop/devel/tee-tpm-hyp/optee_os/lib/libutils/ext/mempool.c:159
    782e:	2c00      	cmp	r4, #0
    7830:	db16      	blt.n	7860 <mempool_alloc+0x38>
/home/hsk/Desktop/devel/tee-tpm-hyp/optee_os/lib/libutils/ext/mempool.c:162
    7832:	6886      	ldr	r6, [r0, #8]
/home/hsk/Desktop/devel/tee-tpm-hyp/optee_os/lib/libutils/ext/mempool.c:166
    7834:	1ce3      	adds	r3, r4, #3
/home/hsk/Desktop/devel/tee-tpm-hyp/optee_os/lib/libutils/ext/mempool.c:162
    7836:	19a5      	adds	r5, r4, r6
/home/hsk/Desktop/devel/tee-tpm-hyp/optee_os/lib/libutils/ext/mempool.c:166
    7838:	59a6      	ldr	r6, [r4, r6]
    783a:	4433      	add	r3, r6
    783c:	f023 0303 	bic.w	r3, r3, #3
/home/hsk/Desktop/devel/tee-tpm-hyp/optee_os/lib/libutils/ext/mempool.c:167
    7840:	429a      	cmp	r2, r3
    7842:	d20f      	bcs.n	7864 <mempool_alloc+0x3c>
/home/hsk/Desktop/devel/tee-tpm-hyp/optee_os/lib/libutils/ext/mempool.c:194
    7844:	4b11      	ldr	r3, [pc, #68]	; (788c <mempool_alloc+0x64>)
    7846:	4812      	ldr	r0, [pc, #72]	; (7890 <mempool_alloc+0x68>)
    7848:	447b      	add	r3, pc
    784a:	9300      	str	r3, [sp, #0]
    784c:	4478      	add	r0, pc
    784e:	2301      	movs	r3, #1
    7850:	9101      	str	r1, [sp, #4]
    7852:	3013      	adds	r0, #19
    7854:	461a      	mov	r2, r3
    7856:	21c2      	movs	r1, #194	; 0xc2
    7858:	f7f8 fd2a 	bl	2b0 <trace_printf>
/home/hsk/Desktop/devel/tee-tpm-hyp/optee_os/lib/libutils/ext/mempool.c:196
    785c:	2000      	movs	r0, #0
    785e:	e013      	b.n	7888 <mempool_alloc+0x60>
/home/hsk/Desktop/devel/tee-tpm-hyp/optee_os/lib/libutils/ext/mempool.c:155
    7860:	2500      	movs	r5, #0
/home/hsk/Desktop/devel/tee-tpm-hyp/optee_os/lib/libutils/ext/mempool.c:160
    7862:	462b      	mov	r3, r5
/home/hsk/Desktop/devel/tee-tpm-hyp/optee_os/lib/libutils/ext/mempool.c:172
    7864:	310f      	adds	r1, #15
    7866:	f021 0103 	bic.w	r1, r1, #3
/home/hsk/Desktop/devel/tee-tpm-hyp/optee_os/lib/libutils/ext/mempool.c:173
    786a:	185e      	adds	r6, r3, r1
    786c:	4296      	cmp	r6, r2
    786e:	d8e9      	bhi.n	7844 <mempool_alloc+0x1c>
/home/hsk/Desktop/devel/tee-tpm-hyp/optee_os/lib/libutils/ext/mempool.c:176
    7870:	6886      	ldr	r6, [r0, #8]
    7872:	199a      	adds	r2, r3, r6
/home/hsk/Desktop/devel/tee-tpm-hyp/optee_os/lib/libutils/ext/mempool.c:177
    7874:	5199      	str	r1, [r3, r6]
/home/hsk/Desktop/devel/tee-tpm-hyp/optee_os/lib/libutils/ext/mempool.c:178
    7876:	6054      	str	r4, [r2, #4]
/home/hsk/Desktop/devel/tee-tpm-hyp/optee_os/lib/libutils/ext/mempool.c:179
    7878:	b105      	cbz	r5, 787c <mempool_alloc+0x54>
/home/hsk/Desktop/devel/tee-tpm-hyp/optee_os/lib/libutils/ext/mempool.c:180
    787a:	60ab      	str	r3, [r5, #8]
/home/hsk/Desktop/devel/tee-tpm-hyp/optee_os/lib/libutils/ext/mempool.c:181
    787c:	f04f 31ff 	mov.w	r1, #4294967295	; 0xffffffff
    7880:	6091      	str	r1, [r2, #8]
/home/hsk/Desktop/devel/tee-tpm-hyp/optee_os/lib/libutils/ext/mempool.c:182
    7882:	6043      	str	r3, [r0, #4]
/home/hsk/Desktop/devel/tee-tpm-hyp/optee_os/lib/libutils/ext/mempool.c:191
    7884:	f102 000c 	add.w	r0, r2, #12
/home/hsk/Desktop/devel/tee-tpm-hyp/optee_os/lib/libutils/ext/mempool.c:197
    7888:	b002      	add	sp, #8
    788a:	bd70      	pop	{r4, r5, r6, pc}
    788c:	00001494 	.word	0x00001494
    7890:	00001430 	.word	0x00001430

00007894 <mempool_calloc>:
mempool_calloc():
/home/hsk/Desktop/devel/tee-tpm-hyp/optee_os/lib/libutils/ext/mempool.c:200
    7894:	b570      	push	{r4, r5, r6, lr}
/home/hsk/Desktop/devel/tee-tpm-hyp/optee_os/lib/libutils/ext/mempool.c:204
    7896:	fba1 4502 	umull	r4, r5, r1, r2
    789a:	b935      	cbnz	r5, 78aa <mempool_calloc+0x16>
/home/hsk/Desktop/devel/tee-tpm-hyp/optee_os/lib/libutils/ext/mempool.c:207
    789c:	4621      	mov	r1, r4
    789e:	f7ff ffc3 	bl	7828 <mempool_alloc>
/home/hsk/Desktop/devel/tee-tpm-hyp/optee_os/lib/libutils/ext/mempool.c:208
    78a2:	4606      	mov	r6, r0
    78a4:	b918      	cbnz	r0, 78ae <mempool_calloc+0x1a>
/home/hsk/Desktop/devel/tee-tpm-hyp/optee_os/lib/libutils/ext/mempool.c:212
    78a6:	4630      	mov	r0, r6
    78a8:	bd70      	pop	{r4, r5, r6, pc}
/home/hsk/Desktop/devel/tee-tpm-hyp/optee_os/lib/libutils/ext/mempool.c:205
    78aa:	2600      	movs	r6, #0
    78ac:	e7fb      	b.n	78a6 <mempool_calloc+0x12>
/home/hsk/Desktop/devel/tee-tpm-hyp/optee_os/lib/libutils/ext/mempool.c:209
    78ae:	4622      	mov	r2, r4
    78b0:	4629      	mov	r1, r5
    78b2:	f000 f94a 	bl	7b4a <memset>
    78b6:	e7f6      	b.n	78a6 <mempool_calloc+0x12>

000078b8 <mempool_free>:
mempool_free():
/home/hsk/Desktop/devel/tee-tpm-hyp/optee_os/lib/libutils/ext/mempool.c:215
    78b8:	b510      	push	{r4, lr}
/home/hsk/Desktop/devel/tee-tpm-hyp/optee_os/lib/libutils/ext/mempool.c:221
    78ba:	b181      	cbz	r1, 78de <mempool_free+0x26>
/home/hsk/Desktop/devel/tee-tpm-hyp/optee_os/lib/libutils/ext/mempool.c:224
    78bc:	390c      	subs	r1, #12
/home/hsk/Desktop/devel/tee-tpm-hyp/optee_os/lib/libutils/ext/mempool.c:226
    78be:	684b      	ldr	r3, [r1, #4]
    78c0:	2b00      	cmp	r3, #0
    78c2:	db0d      	blt.n	78e0 <mempool_free+0x28>
/home/hsk/Desktop/devel/tee-tpm-hyp/optee_os/lib/libutils/ext/mempool.c:229
    78c4:	6882      	ldr	r2, [r0, #8]
    78c6:	688c      	ldr	r4, [r1, #8]
    78c8:	441a      	add	r2, r3
    78ca:	6094      	str	r4, [r2, #8]
    78cc:	461a      	mov	r2, r3
/home/hsk/Desktop/devel/tee-tpm-hyp/optee_os/lib/libutils/ext/mempool.c:233
    78ce:	6889      	ldr	r1, [r1, #8]
    78d0:	2900      	cmp	r1, #0
    78d2:	db03      	blt.n	78dc <mempool_free+0x24>
/home/hsk/Desktop/devel/tee-tpm-hyp/optee_os/lib/libutils/ext/mempool.c:236
    78d4:	6882      	ldr	r2, [r0, #8]
    78d6:	440a      	add	r2, r1
    78d8:	6053      	str	r3, [r2, #4]
/home/hsk/Desktop/devel/tee-tpm-hyp/optee_os/lib/libutils/ext/mempool.c:237
    78da:	6842      	ldr	r2, [r0, #4]
/home/hsk/Desktop/devel/tee-tpm-hyp/optee_os/lib/libutils/ext/mempool.c:240
    78dc:	6042      	str	r2, [r0, #4]
/home/hsk/Desktop/devel/tee-tpm-hyp/optee_os/lib/libutils/ext/mempool.c:242
    78de:	bd10      	pop	{r4, pc}
/home/hsk/Desktop/devel/tee-tpm-hyp/optee_os/lib/libutils/ext/mempool.c:219
    78e0:	f04f 32ff 	mov.w	r2, #4294967295	; 0xffffffff
    78e4:	e7f3      	b.n	78ce <mempool_free+0x16>
    78e6:	bf00      	nop

000078e8 <_assert_log>:
_assert_log():
/home/hsk/Desktop/devel/tee-tpm-hyp/optee_os/lib/libutee/assert.c:17
    78e8:	b57f      	push	{r0, r1, r2, r3, r4, r5, r6, lr}
/home/hsk/Desktop/devel/tee-tpm-hyp/optee_os/lib/libutee/assert.c:18
    78ea:	9304      	str	r3, [sp, #16]
    78ec:	4b07      	ldr	r3, [pc, #28]	; (790c <_assert_log+0x24>)
    78ee:	9102      	str	r1, [sp, #8]
    78f0:	2100      	movs	r1, #0
    78f2:	447b      	add	r3, pc
    78f4:	9300      	str	r3, [sp, #0]
    78f6:	2301      	movs	r3, #1
    78f8:	9203      	str	r2, [sp, #12]
    78fa:	9001      	str	r0, [sp, #4]
    78fc:	461a      	mov	r2, r3
    78fe:	4608      	mov	r0, r1
    7900:	f7f8 fcd6 	bl	2b0 <trace_printf>
/home/hsk/Desktop/devel/tee-tpm-hyp/optee_os/lib/libutee/assert.c:20
    7904:	b007      	add	sp, #28
    7906:	f85d fb04 	ldr.w	pc, [sp], #4
    790a:	bf00      	nop
    790c:	00001422 	.word	0x00001422

00007910 <_assert_break>:
_assert_break():
/home/hsk/Desktop/devel/tee-tpm-hyp/optee_os/lib/libutee/assert.c:23
    7910:	b508      	push	{r3, lr}
/home/hsk/Desktop/devel/tee-tpm-hyp/optee_os/lib/libutee/assert.c:24
    7912:	4802      	ldr	r0, [pc, #8]	; (791c <_assert_break+0xc>)
    7914:	f7fb eb06 	blx	2f24 <utee_panic>
    7918:	e7fe      	b.n	7918 <_assert_break+0x8>
    791a:	bf00      	nop
    791c:	ffff0000 	.word	0xffff0000

00007920 <tahead_get_trace_level>:
tahead_get_trace_level():
/home/hsk/Desktop/devel/tee-tpm-hyp/optee_os/out/arm/export-ta_arm32/src/user_ta_header.c:107
    7920:	2004      	movs	r0, #4
    7922:	4770      	bx	lr

00007924 <__aeabi_unwind_cpp_pr0>:
__aeabi_unwind_cpp_pr0():
/home/hsk/Desktop/devel/tee-tpm-hyp/optee_os/lib/libutils/ext/arch/arm/aeabi_unwind.c:9
    7924:	4770      	bx	lr

00007926 <__aeabi_unwind_cpp_pr1>:
__aeabi_unwind_cpp_pr1():
    7926:	4770      	bx	lr

00007928 <__aeabi_unwind_cpp_pr2>:
__aeabi_unwind_cpp_pr2():
    7928:	4770      	bx	lr

0000792a <memchr>:
memchr():
/home/hsk/Desktop/devel/tee-tpm-hyp/optee_os/lib/libutils/isoc/newlib/memchr.c:109
    792a:	b2c9      	uxtb	r1, r1
    792c:	4402      	add	r2, r0
/home/hsk/Desktop/devel/tee-tpm-hyp/optee_os/lib/libutils/isoc/newlib/memchr.c:107
    792e:	b510      	push	{r4, lr}
    7930:	4603      	mov	r3, r0
/home/hsk/Desktop/devel/tee-tpm-hyp/optee_os/lib/libutils/isoc/newlib/memchr.c:153
    7932:	4290      	cmp	r0, r2
    7934:	d101      	bne.n	793a <memchr+0x10>
/home/hsk/Desktop/devel/tee-tpm-hyp/optee_os/lib/libutils/isoc/newlib/memchr.c:159
    7936:	2300      	movs	r3, #0
    7938:	e003      	b.n	7942 <memchr+0x18>
/home/hsk/Desktop/devel/tee-tpm-hyp/optee_os/lib/libutils/isoc/newlib/memchr.c:154
    793a:	781c      	ldrb	r4, [r3, #0]
    793c:	3001      	adds	r0, #1
    793e:	428c      	cmp	r4, r1
    7940:	d1f6      	bne.n	7930 <memchr+0x6>
/home/hsk/Desktop/devel/tee-tpm-hyp/optee_os/lib/libutils/isoc/newlib/memchr.c:160
    7942:	4618      	mov	r0, r3
    7944:	bd10      	pop	{r4, pc}

00007946 <strlen>:
strlen():
/home/hsk/Desktop/devel/tee-tpm-hyp/optee_os/lib/libutils/isoc/newlib/strlen.c:92
    7946:	4603      	mov	r3, r0
/home/hsk/Desktop/devel/tee-tpm-hyp/optee_os/lib/libutils/isoc/newlib/strlen.c:117
    7948:	781a      	ldrb	r2, [r3, #0]
    794a:	1c59      	adds	r1, r3, #1
    794c:	b90a      	cbnz	r2, 7952 <strlen+0xc>
/home/hsk/Desktop/devel/tee-tpm-hyp/optee_os/lib/libutils/isoc/newlib/strlen.c:120
    794e:	1a18      	subs	r0, r3, r0
    7950:	4770      	bx	lr
    7952:	460b      	mov	r3, r1
    7954:	e7f8      	b.n	7948 <strlen+0x2>

00007956 <__ul_divmod>:
__ul_divmod():
/home/hsk/Desktop/devel/tee-tpm-hyp/optee_os/lib/libutils/isoc/arch/arm/arm32_aeabi_ldivmod.c:68
    7956:	e9d0 2302 	ldrd	r2, r3, [r0, #8]
/home/hsk/Desktop/devel/tee-tpm-hyp/optee_os/lib/libutils/isoc/arch/arm/arm32_aeabi_ldivmod.c:66
    795a:	e92d 43f0 	stmdb	sp!, {r4, r5, r6, r7, r8, r9, lr}
division_lqr():
/home/hsk/Desktop/devel/tee-tpm-hyp/optee_os/lib/libutils/isoc/arch/arm/arm32_aeabi_ldivmod.c:22
    795e:	ea52 0103 	orrs.w	r1, r2, r3
__ul_divmod():
/home/hsk/Desktop/devel/tee-tpm-hyp/optee_os/lib/libutils/isoc/arch/arm/arm32_aeabi_ldivmod.c:67
    7962:	e9d0 6700 	ldrd	r6, r7, [r0]
division_lqr():
/home/hsk/Desktop/devel/tee-tpm-hyp/optee_os/lib/libutils/isoc/arch/arm/arm32_aeabi_ldivmod.c:22
    7966:	d02c      	beq.n	79c2 <__ul_divmod+0x6c>
/home/hsk/Desktop/devel/tee-tpm-hyp/optee_os/lib/libutils/isoc/arch/arm/arm32_aeabi_ldivmod.c:21
    7968:	2401      	movs	r4, #1
    796a:	2500      	movs	r5, #0
/home/hsk/Desktop/devel/tee-tpm-hyp/optee_os/lib/libutils/isoc/arch/arm/arm32_aeabi_ldivmod.c:27
    796c:	2a00      	cmp	r2, #0
    796e:	f173 0100 	sbcs.w	r1, r3, #0
    7972:	da0c      	bge.n	798e <__ul_divmod+0x38>
    7974:	4690      	mov	r8, r2
    7976:	4699      	mov	r9, r3
/home/hsk/Desktop/devel/tee-tpm-hyp/optee_os/lib/libutils/isoc/arch/arm/arm32_aeabi_ldivmod.c:21
    7978:	2200      	movs	r2, #0
    797a:	2300      	movs	r3, #0
/home/hsk/Desktop/devel/tee-tpm-hyp/optee_os/lib/libutils/isoc/arch/arm/arm32_aeabi_ldivmod.c:32
    797c:	ea54 0105 	orrs.w	r1, r4, r5
    7980:	d10a      	bne.n	7998 <__ul_divmod+0x42>
__ul_divmod():
/home/hsk/Desktop/devel/tee-tpm-hyp/optee_os/lib/libutils/isoc/arch/arm/arm32_aeabi_ldivmod.c:73
    7982:	e9c0 2300 	strd	r2, r3, [r0]
/home/hsk/Desktop/devel/tee-tpm-hyp/optee_os/lib/libutils/isoc/arch/arm/arm32_aeabi_ldivmod.c:74
    7986:	e9c0 6702 	strd	r6, r7, [r0, #8]
/home/hsk/Desktop/devel/tee-tpm-hyp/optee_os/lib/libutils/isoc/arch/arm/arm32_aeabi_ldivmod.c:75
    798a:	e8bd 83f0 	ldmia.w	sp!, {r4, r5, r6, r7, r8, r9, pc}
division_lqr():
/home/hsk/Desktop/devel/tee-tpm-hyp/optee_os/lib/libutils/isoc/arch/arm/arm32_aeabi_ldivmod.c:28
    798e:	1924      	adds	r4, r4, r4
    7990:	416d      	adcs	r5, r5
/home/hsk/Desktop/devel/tee-tpm-hyp/optee_os/lib/libutils/isoc/arch/arm/arm32_aeabi_ldivmod.c:29
    7992:	1892      	adds	r2, r2, r2
    7994:	415b      	adcs	r3, r3
    7996:	e7e9      	b.n	796c <__ul_divmod+0x16>
/home/hsk/Desktop/devel/tee-tpm-hyp/optee_os/lib/libutils/isoc/arch/arm/arm32_aeabi_ldivmod.c:33
    7998:	1892      	adds	r2, r2, r2
    799a:	415b      	adcs	r3, r3
/home/hsk/Desktop/devel/tee-tpm-hyp/optee_os/lib/libutils/isoc/arch/arm/arm32_aeabi_ldivmod.c:34
    799c:	454f      	cmp	r7, r9
    799e:	bf08      	it	eq
    79a0:	4546      	cmpeq	r6, r8
    79a2:	d306      	bcc.n	79b2 <__ul_divmod+0x5c>
/home/hsk/Desktop/devel/tee-tpm-hyp/optee_os/lib/libutils/isoc/arch/arm/arm32_aeabi_ldivmod.c:35
    79a4:	ebb6 0608 	subs.w	r6, r6, r8
    79a8:	eb67 0709 	sbc.w	r7, r7, r9
/home/hsk/Desktop/devel/tee-tpm-hyp/optee_os/lib/libutils/isoc/arch/arm/arm32_aeabi_ldivmod.c:36
    79ac:	3201      	adds	r2, #1
    79ae:	f143 0300 	adc.w	r3, r3, #0
/home/hsk/Desktop/devel/tee-tpm-hyp/optee_os/lib/libutils/isoc/arch/arm/arm32_aeabi_ldivmod.c:38
    79b2:	ea5f 0959 	movs.w	r9, r9, lsr #1
    79b6:	ea4f 0838 	mov.w	r8, r8, rrx
/home/hsk/Desktop/devel/tee-tpm-hyp/optee_os/lib/libutils/isoc/arch/arm/arm32_aeabi_ldivmod.c:39
    79ba:	086d      	lsrs	r5, r5, #1
    79bc:	ea4f 0434 	mov.w	r4, r4, rrx
    79c0:	e7dc      	b.n	797c <__ul_divmod+0x26>
/home/hsk/Desktop/devel/tee-tpm-hyp/optee_os/lib/libutils/isoc/arch/arm/arm32_aeabi_ldivmod.c:23
    79c2:	f04f 36ff 	mov.w	r6, #4294967295	; 0xffffffff
    79c6:	f04f 37ff 	mov.w	r7, #4294967295	; 0xffffffff
    79ca:	e7da      	b.n	7982 <__ul_divmod+0x2c>

000079cc <__l_divmod>:
__l_divmod():
/home/hsk/Desktop/devel/tee-tpm-hyp/optee_os/lib/libutils/isoc/arch/arm/arm32_aeabi_ldivmod.c:85
    79cc:	e92d 43f0 	stmdb	sp!, {r4, r5, r6, r7, r8, r9, lr}
/home/hsk/Desktop/devel/tee-tpm-hyp/optee_os/lib/libutils/isoc/arch/arm/arm32_aeabi_ldivmod.c:86
    79d0:	e9d0 4500 	ldrd	r4, r5, [r0]
/home/hsk/Desktop/devel/tee-tpm-hyp/optee_os/lib/libutils/isoc/arch/arm/arm32_aeabi_ldivmod.c:87
    79d4:	e9d0 2302 	ldrd	r2, r3, [r0, #8]
/home/hsk/Desktop/devel/tee-tpm-hyp/optee_os/lib/libutils/isoc/arch/arm/arm32_aeabi_ldivmod.c:90
    79d8:	2c00      	cmp	r4, #0
    79da:	f175 0100 	sbcs.w	r1, r5, #0
    79de:	da34      	bge.n	7a4a <__l_divmod+0x7e>
/home/hsk/Desktop/devel/tee-tpm-hyp/optee_os/lib/libutils/isoc/arch/arm/arm32_aeabi_ldivmod.c:90 (discriminator 1)
    79e0:	2a01      	cmp	r2, #1
/home/hsk/Desktop/devel/tee-tpm-hyp/optee_os/lib/libutils/isoc/arch/arm/arm32_aeabi_ldivmod.c:95 (discriminator 1)
    79e2:	f04f 0c01 	mov.w	ip, #1
/home/hsk/Desktop/devel/tee-tpm-hyp/optee_os/lib/libutils/isoc/arch/arm/arm32_aeabi_ldivmod.c:90 (discriminator 1)
    79e6:	f173 0100 	sbcs.w	r1, r3, #0
    79ea:	f04f 0101 	mov.w	r1, #1
    79ee:	bfb8      	it	lt
    79f0:	2100      	movlt	r1, #0
/home/hsk/Desktop/devel/tee-tpm-hyp/optee_os/lib/libutils/isoc/arch/arm/arm32_aeabi_ldivmod.c:94 (discriminator 1)
    79f2:	4264      	negs	r4, r4
    79f4:	eb65 0545 	sbc.w	r5, r5, r5, lsl #1
division_lqr():
/home/hsk/Desktop/devel/tee-tpm-hyp/optee_os/lib/libutils/isoc/arch/arm/arm32_aeabi_ldivmod.c:22 (discriminator 1)
    79f8:	ea52 0603 	orrs.w	r6, r2, r3
    79fc:	d04b      	beq.n	7a96 <__l_divmod+0xca>
__l_divmod():
/home/hsk/Desktop/devel/tee-tpm-hyp/optee_os/lib/libutils/isoc/arch/arm/arm32_aeabi_ldivmod.c:100
    79fe:	2a00      	cmp	r2, #0
    7a00:	f173 0600 	sbcs.w	r6, r3, #0
    7a04:	da02      	bge.n	7a0c <__l_divmod+0x40>
    7a06:	4252      	negs	r2, r2
    7a08:	eb63 0343 	sbc.w	r3, r3, r3, lsl #1
    7a0c:	4616      	mov	r6, r2
    7a0e:	461f      	mov	r7, r3
division_lqr():
/home/hsk/Desktop/devel/tee-tpm-hyp/optee_os/lib/libutils/isoc/arch/arm/arm32_aeabi_ldivmod.c:21
    7a10:	f04f 0801 	mov.w	r8, #1
    7a14:	f04f 0900 	mov.w	r9, #0
/home/hsk/Desktop/devel/tee-tpm-hyp/optee_os/lib/libutils/isoc/arch/arm/arm32_aeabi_ldivmod.c:27
    7a18:	2e00      	cmp	r6, #0
    7a1a:	f177 0300 	sbcs.w	r3, r7, #0
    7a1e:	da1f      	bge.n	7a60 <__l_divmod+0x94>
/home/hsk/Desktop/devel/tee-tpm-hyp/optee_os/lib/libutils/isoc/arch/arm/arm32_aeabi_ldivmod.c:21
    7a20:	2200      	movs	r2, #0
    7a22:	2300      	movs	r3, #0
/home/hsk/Desktop/devel/tee-tpm-hyp/optee_os/lib/libutils/isoc/arch/arm/arm32_aeabi_ldivmod.c:32
    7a24:	ea58 0e09 	orrs.w	lr, r8, r9
    7a28:	d121      	bne.n	7a6e <__l_divmod+0xa2>
ul_div_qr():
/home/hsk/Desktop/devel/tee-tpm-hyp/optee_os/lib/libutils/isoc/arch/arm/arm32_aeabi_ldivmod.c:52
    7a2a:	b111      	cbz	r1, 7a32 <__l_divmod+0x66>
/home/hsk/Desktop/devel/tee-tpm-hyp/optee_os/lib/libutils/isoc/arch/arm/arm32_aeabi_ldivmod.c:53
    7a2c:	4252      	negs	r2, r2
    7a2e:	eb63 0343 	sbc.w	r3, r3, r3, lsl #1
/home/hsk/Desktop/devel/tee-tpm-hyp/optee_os/lib/libutils/isoc/arch/arm/arm32_aeabi_ldivmod.c:54
    7a32:	f1bc 0f00 	cmp.w	ip, #0
    7a36:	d002      	beq.n	7a3e <__l_divmod+0x72>
/home/hsk/Desktop/devel/tee-tpm-hyp/optee_os/lib/libutils/isoc/arch/arm/arm32_aeabi_ldivmod.c:55
    7a38:	4264      	negs	r4, r4
    7a3a:	eb65 0545 	sbc.w	r5, r5, r5, lsl #1
__l_divmod():
/home/hsk/Desktop/devel/tee-tpm-hyp/optee_os/lib/libutils/isoc/arch/arm/arm32_aeabi_ldivmod.c:102
    7a3e:	e9c0 2300 	strd	r2, r3, [r0]
/home/hsk/Desktop/devel/tee-tpm-hyp/optee_os/lib/libutils/isoc/arch/arm/arm32_aeabi_ldivmod.c:103
    7a42:	e9c0 4502 	strd	r4, r5, [r0, #8]
/home/hsk/Desktop/devel/tee-tpm-hyp/optee_os/lib/libutils/isoc/arch/arm/arm32_aeabi_ldivmod.c:104
    7a46:	e8bd 83f0 	ldmia.w	sp!, {r4, r5, r6, r7, r8, r9, pc}
/home/hsk/Desktop/devel/tee-tpm-hyp/optee_os/lib/libutils/isoc/arch/arm/arm32_aeabi_ldivmod.c:90 (discriminator 3)
    7a4a:	ea54 0105 	orrs.w	r1, r4, r5
    7a4e:	d02c      	beq.n	7aaa <__l_divmod+0xde>
/home/hsk/Desktop/devel/tee-tpm-hyp/optee_os/lib/libutils/isoc/arch/arm/arm32_aeabi_ldivmod.c:91
    7a50:	2a00      	cmp	r2, #0
    7a52:	f173 0100 	sbcs.w	r1, r3, #0
    7a56:	da28      	bge.n	7aaa <__l_divmod+0xde>
/home/hsk/Desktop/devel/tee-tpm-hyp/optee_os/lib/libutils/isoc/arch/arm/arm32_aeabi_ldivmod.c:92
    7a58:	2101      	movs	r1, #1
/home/hsk/Desktop/devel/tee-tpm-hyp/optee_os/lib/libutils/isoc/arch/arm/arm32_aeabi_ldivmod.c:88
    7a5a:	f04f 0c00 	mov.w	ip, #0
    7a5e:	e7ce      	b.n	79fe <__l_divmod+0x32>
division_lqr():
/home/hsk/Desktop/devel/tee-tpm-hyp/optee_os/lib/libutils/isoc/arch/arm/arm32_aeabi_ldivmod.c:28
    7a60:	eb18 0808 	adds.w	r8, r8, r8
    7a64:	eb49 0909 	adc.w	r9, r9, r9
/home/hsk/Desktop/devel/tee-tpm-hyp/optee_os/lib/libutils/isoc/arch/arm/arm32_aeabi_ldivmod.c:29
    7a68:	19b6      	adds	r6, r6, r6
    7a6a:	417f      	adcs	r7, r7
    7a6c:	e7d4      	b.n	7a18 <__l_divmod+0x4c>
/home/hsk/Desktop/devel/tee-tpm-hyp/optee_os/lib/libutils/isoc/arch/arm/arm32_aeabi_ldivmod.c:33
    7a6e:	1892      	adds	r2, r2, r2
    7a70:	415b      	adcs	r3, r3
/home/hsk/Desktop/devel/tee-tpm-hyp/optee_os/lib/libutils/isoc/arch/arm/arm32_aeabi_ldivmod.c:34
    7a72:	42bd      	cmp	r5, r7
    7a74:	bf08      	it	eq
    7a76:	42b4      	cmpeq	r4, r6
    7a78:	d305      	bcc.n	7a86 <__l_divmod+0xba>
/home/hsk/Desktop/devel/tee-tpm-hyp/optee_os/lib/libutils/isoc/arch/arm/arm32_aeabi_ldivmod.c:35
    7a7a:	1ba4      	subs	r4, r4, r6
    7a7c:	eb65 0507 	sbc.w	r5, r5, r7
/home/hsk/Desktop/devel/tee-tpm-hyp/optee_os/lib/libutils/isoc/arch/arm/arm32_aeabi_ldivmod.c:36
    7a80:	3201      	adds	r2, #1
    7a82:	f143 0300 	adc.w	r3, r3, #0
/home/hsk/Desktop/devel/tee-tpm-hyp/optee_os/lib/libutils/isoc/arch/arm/arm32_aeabi_ldivmod.c:38
    7a86:	087f      	lsrs	r7, r7, #1
    7a88:	ea4f 0636 	mov.w	r6, r6, rrx
/home/hsk/Desktop/devel/tee-tpm-hyp/optee_os/lib/libutils/isoc/arch/arm/arm32_aeabi_ldivmod.c:39
    7a8c:	ea5f 0959 	movs.w	r9, r9, lsr #1
    7a90:	ea4f 0838 	mov.w	r8, r8, rrx
    7a94:	e7c6      	b.n	7a24 <__l_divmod+0x58>
/home/hsk/Desktop/devel/tee-tpm-hyp/optee_os/lib/libutils/isoc/arch/arm/arm32_aeabi_ldivmod.c:23
    7a96:	f04f 34ff 	mov.w	r4, #4294967295	; 0xffffffff
    7a9a:	f04f 35ff 	mov.w	r5, #4294967295	; 0xffffffff
    7a9e:	e7c4      	b.n	7a2a <__l_divmod+0x5e>
    7aa0:	f04f 34ff 	mov.w	r4, #4294967295	; 0xffffffff
    7aa4:	f04f 35ff 	mov.w	r5, #4294967295	; 0xffffffff
    7aa8:	e7c9      	b.n	7a3e <__l_divmod+0x72>
/home/hsk/Desktop/devel/tee-tpm-hyp/optee_os/lib/libutils/isoc/arch/arm/arm32_aeabi_ldivmod.c:22
    7aaa:	ea52 0103 	orrs.w	r1, r2, r3
    7aae:	d0f7      	beq.n	7aa0 <__l_divmod+0xd4>
    7ab0:	2100      	movs	r1, #0
    7ab2:	e7d2      	b.n	7a5a <__l_divmod+0x8e>

00007ab4 <TEE_Panic>:
TEE_Panic():
/home/hsk/Desktop/devel/tee-tpm-hyp/optee_os/lib/libutee/tee_api_panic.c:12
    7ab4:	f000 b880 	b.w	7bb8 <__utee_panic_from_thumb>

00007ab8 <snprintf>:
snprintf():
/home/hsk/Desktop/devel/tee-tpm-hyp/optee_os/lib/libutils/isoc/snprintf.c:10
    7ab8:	b40c      	push	{r2, r3}
    7aba:	b51f      	push	{r0, r1, r2, r3, r4, lr}
/home/hsk/Desktop/devel/tee-tpm-hyp/optee_os/lib/libutils/isoc/snprintf.c:15
    7abc:	2400      	movs	r4, #0
/home/hsk/Desktop/devel/tee-tpm-hyp/optee_os/lib/libutils/isoc/snprintf.c:10
    7abe:	ab06      	add	r3, sp, #24
    7ac0:	f853 2b04 	ldr.w	r2, [r3], #4
/home/hsk/Desktop/devel/tee-tpm-hyp/optee_os/lib/libutils/isoc/snprintf.c:15
    7ac4:	9400      	str	r4, [sp, #0]
/home/hsk/Desktop/devel/tee-tpm-hyp/optee_os/lib/libutils/isoc/snprintf.c:14
    7ac6:	9303      	str	r3, [sp, #12]
/home/hsk/Desktop/devel/tee-tpm-hyp/optee_os/lib/libutils/isoc/snprintf.c:15
    7ac8:	f7f8 fd0c 	bl	4e4 <__vsnprintf>
/home/hsk/Desktop/devel/tee-tpm-hyp/optee_os/lib/libutils/isoc/snprintf.c:19
    7acc:	b004      	add	sp, #16
    7ace:	e8bd 4010 	ldmia.w	sp!, {r4, lr}
    7ad2:	b002      	add	sp, #8
    7ad4:	4770      	bx	lr

00007ad6 <vsnprintf>:
vsnprintf():
/home/hsk/Desktop/devel/tee-tpm-hyp/optee_os/lib/libutils/isoc/snprintf.c:22
    7ad6:	b513      	push	{r0, r1, r4, lr}
/home/hsk/Desktop/devel/tee-tpm-hyp/optee_os/lib/libutils/isoc/snprintf.c:23
    7ad8:	2400      	movs	r4, #0
    7ada:	9400      	str	r4, [sp, #0]
    7adc:	f7f8 fd02 	bl	4e4 <__vsnprintf>
/home/hsk/Desktop/devel/tee-tpm-hyp/optee_os/lib/libutils/isoc/snprintf.c:24
    7ae0:	b002      	add	sp, #8
    7ae2:	bd10      	pop	{r4, pc}

00007ae4 <memcmp>:
memcmp():
/home/hsk/Desktop/devel/tee-tpm-hyp/optee_os/lib/libutils/isoc/newlib/memcmp.c:85
    7ae4:	b530      	push	{r4, r5, lr}
/home/hsk/Desktop/devel/tee-tpm-hyp/optee_os/lib/libutils/isoc/newlib/memcmp.c:90
    7ae6:	2400      	movs	r4, #0
    7ae8:	42a2      	cmp	r2, r4
    7aea:	d101      	bne.n	7af0 <memcmp+0xc>
/home/hsk/Desktop/devel/tee-tpm-hyp/optee_os/lib/libutils/isoc/newlib/memcmp.c:96
    7aec:	2000      	movs	r0, #0
    7aee:	e007      	b.n	7b00 <memcmp+0x1c>
/home/hsk/Desktop/devel/tee-tpm-hyp/optee_os/lib/libutils/isoc/newlib/memcmp.c:91
    7af0:	5d03      	ldrb	r3, [r0, r4]
    7af2:	3401      	adds	r4, #1
    7af4:	190d      	adds	r5, r1, r4
    7af6:	f815 5c01 	ldrb.w	r5, [r5, #-1]
    7afa:	42ab      	cmp	r3, r5
    7afc:	d0f4      	beq.n	7ae8 <memcmp+0x4>
/home/hsk/Desktop/devel/tee-tpm-hyp/optee_os/lib/libutils/isoc/newlib/memcmp.c:92
    7afe:	1b58      	subs	r0, r3, r5
/home/hsk/Desktop/devel/tee-tpm-hyp/optee_os/lib/libutils/isoc/newlib/memcmp.c:136
    7b00:	bd30      	pop	{r4, r5, pc}

00007b02 <memcpy>:
memcpy():
/home/hsk/Desktop/devel/tee-tpm-hyp/optee_os/lib/libutils/isoc/newlib/memcpy.c:87
    7b02:	1e43      	subs	r3, r0, #1
    7b04:	440a      	add	r2, r1
    7b06:	b510      	push	{r4, lr}
/home/hsk/Desktop/devel/tee-tpm-hyp/optee_os/lib/libutils/isoc/newlib/memcpy.c:94
    7b08:	4291      	cmp	r1, r2
    7b0a:	d100      	bne.n	7b0e <memcpy+0xc>
/home/hsk/Desktop/devel/tee-tpm-hyp/optee_os/lib/libutils/isoc/newlib/memcpy.c:135
    7b0c:	bd10      	pop	{r4, pc}
/home/hsk/Desktop/devel/tee-tpm-hyp/optee_os/lib/libutils/isoc/newlib/memcpy.c:95
    7b0e:	f811 4b01 	ldrb.w	r4, [r1], #1
    7b12:	f803 4f01 	strb.w	r4, [r3, #1]!
    7b16:	e7f7      	b.n	7b08 <memcpy+0x6>

00007b18 <memmove>:
memmove():
/home/hsk/Desktop/devel/tee-tpm-hyp/optee_os/lib/libutils/isoc/newlib/memmove.c:91
    7b18:	b510      	push	{r4, lr}
/home/hsk/Desktop/devel/tee-tpm-hyp/optee_os/lib/libutils/isoc/newlib/memmove.c:96
    7b1a:	4288      	cmp	r0, r1
    7b1c:	eb01 0302 	add.w	r3, r1, r2
    7b20:	d807      	bhi.n	7b32 <memmove+0x1a>
    7b22:	1e42      	subs	r2, r0, #1
/home/hsk/Desktop/devel/tee-tpm-hyp/optee_os/lib/libutils/isoc/newlib/memmove.c:103
    7b24:	4299      	cmp	r1, r3
    7b26:	d00a      	beq.n	7b3e <memmove+0x26>
/home/hsk/Desktop/devel/tee-tpm-hyp/optee_os/lib/libutils/isoc/newlib/memmove.c:104
    7b28:	f811 4b01 	ldrb.w	r4, [r1], #1
    7b2c:	f802 4f01 	strb.w	r4, [r2, #1]!
    7b30:	e7f8      	b.n	7b24 <memmove+0xc>
/home/hsk/Desktop/devel/tee-tpm-hyp/optee_os/lib/libutils/isoc/newlib/memmove.c:96 (discriminator 1)
    7b32:	4283      	cmp	r3, r0
    7b34:	d9f5      	bls.n	7b22 <memmove+0xa>
/home/hsk/Desktop/devel/tee-tpm-hyp/optee_os/lib/libutils/isoc/newlib/memmove.c:99
    7b36:	1881      	adds	r1, r0, r2
    7b38:	1ad2      	subs	r2, r2, r3
/home/hsk/Desktop/devel/tee-tpm-hyp/optee_os/lib/libutils/isoc/newlib/memmove.c:100
    7b3a:	42d3      	cmn	r3, r2
    7b3c:	d100      	bne.n	7b40 <memmove+0x28>
/home/hsk/Desktop/devel/tee-tpm-hyp/optee_os/lib/libutils/isoc/newlib/memmove.c:157
    7b3e:	bd10      	pop	{r4, pc}
/home/hsk/Desktop/devel/tee-tpm-hyp/optee_os/lib/libutils/isoc/newlib/memmove.c:101
    7b40:	f813 4d01 	ldrb.w	r4, [r3, #-1]!
    7b44:	f801 4d01 	strb.w	r4, [r1, #-1]!
    7b48:	e7f7      	b.n	7b3a <memmove+0x22>

00007b4a <memset>:
memset():
/home/hsk/Desktop/devel/tee-tpm-hyp/optee_os/lib/libutils/isoc/newlib/memset.c:76
    7b4a:	4402      	add	r2, r0
/home/hsk/Desktop/devel/tee-tpm-hyp/optee_os/lib/libutils/isoc/newlib/memset.c:77
    7b4c:	4603      	mov	r3, r0
/home/hsk/Desktop/devel/tee-tpm-hyp/optee_os/lib/libutils/isoc/newlib/memset.c:125
    7b4e:	4293      	cmp	r3, r2
    7b50:	d100      	bne.n	7b54 <memset+0xa>
/home/hsk/Desktop/devel/tee-tpm-hyp/optee_os/lib/libutils/isoc/newlib/memset.c:129
    7b52:	4770      	bx	lr
/home/hsk/Desktop/devel/tee-tpm-hyp/optee_os/lib/libutils/isoc/newlib/memset.c:126
    7b54:	f803 1b01 	strb.w	r1, [r3], #1
    7b58:	e7f9      	b.n	7b4e <memset+0x4>

00007b5a <buf_compare_ct>:
buf_compare_ct():
/home/hsk/Desktop/devel/tee-tpm-hyp/optee_os/lib/libutils/ext/buf_compare_ct.c:8
    7b5a:	3801      	subs	r0, #1
    7b5c:	440a      	add	r2, r1
/home/hsk/Desktop/devel/tee-tpm-hyp/optee_os/lib/libutils/ext/buf_compare_ct.c:9
    7b5e:	2300      	movs	r3, #0
/home/hsk/Desktop/devel/tee-tpm-hyp/optee_os/lib/libutils/ext/buf_compare_ct.c:8
    7b60:	b530      	push	{r4, r5, lr}
/home/hsk/Desktop/devel/tee-tpm-hyp/optee_os/lib/libutils/ext/buf_compare_ct.c:13
    7b62:	428a      	cmp	r2, r1
    7b64:	d108      	bne.n	7b78 <buf_compare_ct+0x1e>
/home/hsk/Desktop/devel/tee-tpm-hyp/optee_os/lib/libutils/ext/buf_compare_ct.c:19
    7b66:	ea43 1323 	orr.w	r3, r3, r3, asr #4
/home/hsk/Desktop/devel/tee-tpm-hyp/optee_os/lib/libutils/ext/buf_compare_ct.c:20
    7b6a:	ea43 03a3 	orr.w	r3, r3, r3, asr #2
/home/hsk/Desktop/devel/tee-tpm-hyp/optee_os/lib/libutils/ext/buf_compare_ct.c:21
    7b6e:	ea43 0363 	orr.w	r3, r3, r3, asr #1
/home/hsk/Desktop/devel/tee-tpm-hyp/optee_os/lib/libutils/ext/buf_compare_ct.c:25
    7b72:	f003 0001 	and.w	r0, r3, #1
    7b76:	bd30      	pop	{r4, r5, pc}
/home/hsk/Desktop/devel/tee-tpm-hyp/optee_os/lib/libutils/ext/buf_compare_ct.c:14
    7b78:	f810 4f01 	ldrb.w	r4, [r0, #1]!
    7b7c:	f811 5b01 	ldrb.w	r5, [r1], #1
    7b80:	406c      	eors	r4, r5
    7b82:	4323      	orrs	r3, r4
    7b84:	e7ed      	b.n	7b62 <buf_compare_ct+0x8>
	...

00007b88 <__utee_log_from_thumb>:
__utee_log_from_thumb():
    7b88:	4778      	bx	pc
    7b8a:	46c0      	nop			; (mov r8, r8)
    7b8c:	e59fc000 	ldr	ip, [pc]	; 7b94 <__utee_log_from_thumb+0xc>
    7b90:	e08cf00f 	add	pc, ip, pc
    7b94:	ffffb3b4 	.word	0xffffb3b4

00007b98 <__utee_check_access_rights_from_thumb>:
__utee_check_access_rights_from_thumb():
    7b98:	4778      	bx	pc
    7b9a:	46c0      	nop			; (mov r8, r8)
    7b9c:	e59fc000 	ldr	ip, [pc]	; 7ba4 <__utee_check_access_rights_from_thumb+0xc>
    7ba0:	e08cf00f 	add	pc, ip, pc
    7ba4:	ffffb450 	.word	0xffffb450

00007ba8 <__utee_cache_operation_from_thumb>:
__utee_cache_operation_from_thumb():
    7ba8:	4778      	bx	pc
    7baa:	46c0      	nop			; (mov r8, r8)
    7bac:	e59fc000 	ldr	ip, [pc]	; 7bb4 <__utee_cache_operation_from_thumb+0xc>
    7bb0:	e08cf00f 	add	pc, ip, pc
    7bb4:	ffffb808 	.word	0xffffb808

00007bb8 <__utee_panic_from_thumb>:
__utee_panic_from_thumb():
    7bb8:	4778      	bx	pc
    7bba:	46c0      	nop			; (mov r8, r8)
    7bbc:	e59fc000 	ldr	ip, [pc]	; 7bc4 <__utee_panic_from_thumb+0xc>
    7bc0:	e08cf00f 	add	pc, ip, pc
    7bc4:	ffffb35c 	.word	0xffffb35c
