
a734eed9-d6a1-4244-aa50-7c99719e7b7b.elf:     file format elf32-littlearm
a734eed9-d6a1-4244-aa50-7c99719e7b7b.elf
architecture: arm, flags 0x00000150:
HAS_SYMS, DYNAMIC, D_PAGED
start address 0x00000020

Program Header:
0x70000001 off    0x00018e6c vaddr 0x00008e6c paddr 0x00008e6c align 2**2
         filesz 0x00000648 memsz 0x00000648 flags r--
    LOAD off    0x00010000 vaddr 0x00000000 paddr 0x00000000 align 2**16
         filesz 0x00007bc8 memsz 0x00007bc8 flags r-x
    LOAD off    0x00017bc8 vaddr 0x00007bc8 paddr 0x00007bc8 align 2**16
         filesz 0x00001cd0 memsz 0x00001cd0 flags r--
    LOAD off    0x0001a000 vaddr 0x0000a000 paddr 0x0000a000 align 2**16
         filesz 0x00000098 memsz 0x0000a108 flags rw-
 DYNAMIC off    0x00019608 vaddr 0x00009608 paddr 0x00009608 align 2**2
         filesz 0x00000080 memsz 0x00000080 flags rw-

Dynamic Section:
  HASH                 0x00009848
  STRTAB               0x00009778
  SYMTAB               0x00009688
  STRSZ                0x000000ce
  SYMENT               0x00000010
  DEBUG                0x00000000
  REL                  0x000094f0
  RELSZ                0x00000118
  RELENT               0x00000008
  FLAGS_1              0x08000000
  RELCOUNT             0x00000017
private flags = 5000400: [Version5 EABI] [hard-float ABI]

Sections:
Idx Name          Size      VMA       LMA       File off  Algn
  0 .ta_head      00000020  00000000  00000000  00010000  2**3
                  CONTENTS, ALLOC, LOAD, DATA
  1 .text         00007ba8  00000020  00000020  00010020  2**3
                  CONTENTS, ALLOC, LOAD, READONLY, CODE
  2 .rodata       00001177  00007bc8  00007bc8  00017bc8  2**2
                  CONTENTS, ALLOC, LOAD, READONLY, DATA
  3 .ARM.extab    000000fc  00008d40  00008d40  00018d40  2**2
                  CONTENTS, ALLOC, LOAD, READONLY, DATA
  4 .ARM.extab.text.__aeabi_ldivmod 0000000c  00008e3c  00008e3c  00018e3c  2**2
                  CONTENTS, ALLOC, LOAD, READONLY, DATA
  5 .ARM.extab.text.__aeabi_uldivmod 0000000c  00008e48  00008e48  00018e48  2**2
                  CONTENTS, ALLOC, LOAD, READONLY, DATA
  6 .ARM.extab.text.utee_panic 0000000c  00008e54  00008e54  00018e54  2**2
                  CONTENTS, ALLOC, LOAD, READONLY, DATA
  7 .ARM.extab.text.unlikely 0000000c  00008e60  00008e60  00018e60  2**2
                  CONTENTS, ALLOC, LOAD, READONLY, DATA
  8 .ARM.exidx    00000648  00008e6c  00008e6c  00018e6c  2**2
                  CONTENTS, ALLOC, LOAD, READONLY, DATA
  9 .got          0000003c  000094b4  000094b4  000194b4  2**2
                  CONTENTS, ALLOC, LOAD, DATA
 10 .dynsym       000000f0  00009688  00009688  00019688  2**2
                  CONTENTS, ALLOC, LOAD, READONLY, DATA
 11 .rel.got      00000060  000095a8  000095a8  000195a8  2**2
                  CONTENTS, ALLOC, LOAD, READONLY, DATA
 12 .dynamic      00000080  00009608  00009608  00019608  2**2
                  CONTENTS, ALLOC, LOAD, DATA
 13 .dynstr       000000ce  00009778  00009778  00019778  2**0
                  CONTENTS, ALLOC, LOAD, READONLY, DATA
 14 .hash         00000050  00009848  00009848  00019848  2**2
                  CONTENTS, ALLOC, LOAD, READONLY, DATA
 15 .data         00000098  0000a000  0000a000  0001a000  2**2
                  CONTENTS, ALLOC, LOAD, DATA
 16 .bss          0000a070  0000a098  0000a098  0001a098  2**2
                  ALLOC
 17 .debug_info   0001184f  00000000  00000000  0001a098  2**0
                  CONTENTS, READONLY, DEBUGGING
 18 .debug_abbrev 00002dbf  00000000  00000000  0002b8e7  2**0
                  CONTENTS, READONLY, DEBUGGING
 19 .debug_loc    0001102a  00000000  00000000  0002e6a6  2**0
                  CONTENTS, READONLY, DEBUGGING
 20 .debug_aranges 00000550  00000000  00000000  0003f6d0  2**3
                  CONTENTS, READONLY, DEBUGGING
 21 .debug_ranges 00000858  00000000  00000000  0003fc20  2**3
                  CONTENTS, READONLY, DEBUGGING
 22 .debug_macro  00013e90  00000000  00000000  00040478  2**0
                  CONTENTS, READONLY, DEBUGGING
 23 .debug_line   00005486  00000000  00000000  00054308  2**0
                  CONTENTS, READONLY, DEBUGGING
 24 .debug_str    00011e68  00000000  00000000  0005978e  2**0
                  CONTENTS, READONLY, DEBUGGING
 25 .comment      00000074  00000000  00000000  0006b5f6  2**0
                  CONTENTS, READONLY
 26 .ARM.attributes 00000036  00000000  00000000  0006b66a  2**0
                  CONTENTS, READONLY
 27 .debug_frame  00001f58  00000000  00000000  0006b6a0  2**2
                  CONTENTS, READONLY, DEBUGGING
 28 .rel.dyn      000000b8  000094f0  000094f0  000194f0  2**2
                  CONTENTS, ALLOC, LOAD, READONLY, DATA
SYMBOL TABLE:
00000000 l    d  .ta_head	00000000 .ta_head
00000020 l    d  .text	00000000 .text
00007bc8 l    d  .rodata	00000000 .rodata
00008d40 l    d  .ARM.extab	00000000 .ARM.extab
00008e3c l    d  .ARM.extab.text.__aeabi_ldivmod	00000000 .ARM.extab.text.__aeabi_ldivmod
00008e48 l    d  .ARM.extab.text.__aeabi_uldivmod	00000000 .ARM.extab.text.__aeabi_uldivmod
00008e54 l    d  .ARM.extab.text.utee_panic	00000000 .ARM.extab.text.utee_panic
00008e60 l    d  .ARM.extab.text.unlikely	00000000 .ARM.extab.text.unlikely
00008e6c l    d  .ARM.exidx	00000000 .ARM.exidx
000094b4 l    d  .got	00000000 .got
000095a8 l    d  .rel.got	00000000 .rel.got
00009608 l    d  .dynamic	00000000 .dynamic
00009688 l    d  .dynsym	00000000 .dynsym
00009778 l    d  .dynstr	00000000 .dynstr
00009848 l    d  .hash	00000000 .hash
0000a000 l    d  .data	00000000 .data
0000a098 l    d  .bss	00000000 .bss
00000000 l    d  .debug_info	00000000 .debug_info
00000000 l    d  .debug_abbrev	00000000 .debug_abbrev
00000000 l    d  .debug_loc	00000000 .debug_loc
00000000 l    d  .debug_aranges	00000000 .debug_aranges
00000000 l    d  .debug_ranges	00000000 .debug_ranges
00000000 l    d  .debug_macro	00000000 .debug_macro
00000000 l    d  .debug_line	00000000 .debug_line
00000000 l    d  .debug_str	00000000 .debug_str
00000000 l    d  .comment	00000000 .comment
00000000 l    d  .ARM.attributes	00000000 .ARM.attributes
00000000 l    d  .debug_frame	00000000 .debug_frame
000094f0 l    d  .rel.dyn	00000000 .rel.dyn
00000000 l    df *ABS*	00000000 user_ta_header.c
00007bcc l     O .rodata	00000004 __compound_literal.5
00007bd0 l     O .rodata	00000004 __compound_literal.4
00007bd4 l     O .rodata	00000004 __compound_literal.3
00007bd8 l     O .rodata	00000001 __compound_literal.2
00007bd9 l     O .rodata	00000001 __compound_literal.1
00007bda l     O .rodata	00000001 __compound_literal.0
00000000 l    df *ABS*	00000000 acipher_ta.c
00007ea8 l     O .rodata	0000000c __func__.6125
00007eb4 l     O .rodata	00000008 __func__.6140
00007ebc l     O .rodata	0000001b __func__.6167
00000000 l    df *ABS*	00000000 trace.c
00000230 l     F .text	0000004e append
000080b8 l     O .rodata	00000005 lvl_strs.5573
000080bd l     O .rodata	0000000a __func__.5627
00000000 l    df *ABS*	00000000 snprintk.c
00008101 l     O .rodata	00000011 HEXDIGITS
00008112 l     O .rodata	00000011 hexdigits
00000000 l    df *ABS*	00000000 arm32_aeabi_ldivmod_a32.o
00000000 l    df *ABS*	00000000 trace_ext.c
00000000 l    df *ABS*	00000000 tee_api.c
0000815b l     O .rodata	0000000b __func__.6740
0000a098 l     O .bss	00000004 tee_api_instance_data
00000000 l    df *ABS*	00000000 tee_api_objects.c
00008177 l     O .rodata	00000010 __func__.6655
00000000 l    df *ABS*	00000000 tee_api_operations.c
00001764 l     F .text	00000154 tee_buffer_update
00000000 l    df *ABS*	00000000 user_ta_entry.c
00002d14 l     F .text	0000001c ta_header_get_session
00002d30 l     F .text	00000068 ta_header_remove_session
0000a09c l     O .bss	00000001 init_done
0000a074 l     O .data	00000008 ta_sessions
00000000 l    df *ABS*	00000000 utee_syscalls_a32.o
00000000 l    df *ABS*	00000000 gprof_a32.o
00000000 l    df *ABS*	00000000 tee_api_arith_mpi.c
000043f0 l     F .text	00000020 api_panic
000033e0 l     F .text	00000020 mpi_panic
00003400 l     F .text	00000024 get_mpi
00003424 l     F .text	00000010 mpi_is_odd
00003434 l     F .text	00000016 rng_read
0000344a l     F .text	0000001c put_mpi
00003466 l     F .text	0000045a mpi_egcd
000038c0 l     F .text	00000044 get_const_mpi
00003904 l     F .text	00000088 bigint_binary
0000a0c4 l     O .bss	00002000 data.6740
00003b94 l     F .text	000000e8 bigint_binary_mod
00008197 l     O .rodata	00000009 __func__.7008
000081a0 l     O .rodata	0000000e __func__.6769
000081ae l     O .rodata	0000000e __func__.6868
000081bc l     O .rodata	00000012 __func__.6741
000081ce l     O .rodata	0000000f __func__.6779
000081dd l     O .rodata	0000001f __func__.6797
000081fc l     O .rodata	00000019 __func__.6804
00008215 l     O .rodata	00000012 __func__.6879
00008227 l     O .rodata	00000015 __func__.6834
0000823c l     O .rodata	0000000e __func__.6906
0000824a l     O .rodata	0000000e __func__.6934
00008258 l     O .rodata	0000000e __func__.6940
00008266 l     O .rodata	00000011 __func__.6969
00008277 l     O .rodata	00000018 __func__.6985
0000828f l     O .rodata	0000001d __func__.7065
000082ac l     O .rodata	00000019 __func__.7115
000082c5 l     O .rodata	00000015 __func__.7129
00000000 l    df *ABS*	00000000 bignum.c
00004410 l     F .text	00000038 mpi_get_digit
00004448 l     F .text	0000005c mpi_sub_hlp
000044a4 l     F .text	0000049a mpi_mul_hlp
0000493e l     F .text	00000048 mbedtls_mpi_mod_int.part.3
000059b4 l     F .text	0000006e mpi_write_hlp
00005b50 l     F .text	00000050 mpi_check_small_factors
0000624a l     F .text	00000216 mpi_miller_rabin
00007be4 l     O .rodata	000002a0 small_prime
00007e84 l     O .rodata	00000024 gcd_pairs
00000000 l    df *ABS*	00000000 bget_malloc.c
00006bec l     F .text	00000030 raw_malloc_return_hook.isra.3
00006c1c l     F .text	000000d8 create_free_block.constprop.11
000087ee l     O .rodata	00000012 __func__.5866
00008800 l     O .rodata	00000005 __func__.5722
00008805 l     O .rodata	00000006 __func__.5737
0000880b l     O .rodata	00000005 __func__.5754
00008810 l     O .rodata	00000006 __func__.5746
00008816 l     O .rodata	00000006 __func__.5763
0000881c l     O .rodata	00000007 __func__.5773
00008823 l     O .rodata	0000000d __func__.5902
00008830 l     O .rodata	0000000c __func__.5876
0000883c l     O .rodata	0000000b __func__.5887
00008847 l     O .rodata	00000010 __func__.5954
00008857 l     O .rodata	0000000e __func__.5908
00008865 l     O .rodata	00000013 __func__.5814
0000c0c8 l     O .bss	00000038 mstats
0000c100 l     O .bss	00000004 malloc_pool_len
0000c104 l     O .bss	00000004 malloc_pool
0000a07c l     O .data	0000001c malloc_poolset
00000000 l    df *ABS*	00000000 mempool.c
00008c80 l     O .rodata	00000013 __func__.5630
00008c93 l     O .rodata	0000000e __func__.5639
00000000 l    df *ABS*	00000000 assert.c
00000000 l    df *ABS*	00000000 aeabi_unwind.c
00000000 l    df *ABS*	00000000 memchr.c
00000000 l    df *ABS*	00000000 strlen.c
00000000 l    df *ABS*	00000000 arm32_aeabi_ldivmod.c
00000000 l    df *ABS*	00000000 tee_api_panic.c
00000000 l    df *ABS*	00000000 snprintf.c
00000000 l    df *ABS*	00000000 memcmp.c
00000000 l    df *ABS*	00000000 memcpy.c
00000000 l    df *ABS*	00000000 memmove.c
00000000 l    df *ABS*	00000000 memset.c
00000000 l    df *ABS*	00000000 buf_compare_ct.c
00000000 l    df *ABS*	00000000 
00009608 l     O *ABS*	00000000 _DYNAMIC
000094b4 l     O *ABS*	00000000 _GLOBAL_OFFSET_TABLE_
00007b88 l     F .text	00000010 __utee_log_from_thumb
00007b98 l     F .text	00000010 __utee_check_access_rights_from_thumb
00007ba8 l     F .text	00000010 __utee_cache_operation_from_thumb
00007bb8 l     F .text	00000010 __utee_panic_from_thumb
00000cb0 g     F .text	00000022 putchar
0000121c g     F .text	00000070 TEE_PopulateTransientObject
00004302 g     F .text	00000004 TEE_BigIntConvertToFMM
00004048 g     F .text	00000008 TEE_BigIntSquareMod
00003c7c g     F .text	000000f4 TEE_BigIntShiftRight
000032b8 g     F .text	00000018 utee_storage_obj_create
00004a18 g     F .text	000000a8 mbedtls_mpi_grow
000079cc g     F .text	000000e8 __l_divmod
00002f38 g     F .text	00000014 utee_return
00002154 g     F .text	00000030 TEE_DigestUpdate
00000f98 g     F .text	00000004 TEE_Realloc
00001fbc g     F .text	000000f4 TEE_SetOperationKey2
00000c52 g     F .text	0000003a printf
00002f4c g     F .text	00000014 utee_log
0000128c g     F .text	00000022 TEE_InitRefAttribute
00000db6 g     F .text	00000066 TEE_InvokeTACommand
00004994 g     F .text	00000024 mbedtls_mpi_init_mempool
00004e92 g     F .text	00000046 mbedtls_mpi_write_binary
00002734 g     F .text	00000118 TEE_AEEncryptFinal
00000be0 g     F .text	0000000e vsnprintk
00005300 g     F .text	00000030 mbedtls_mpi_sub_int
00007b18 g     F .text	00000032 memmove
00007ab8 g     F .text	0000001e snprintf
00003b6e g     F .text	00000026 TEE_BigIntCmpS32
000012ae g     F .text	00000022 TEE_InitValueAttribute
00004ac0 g     F .text	000000cc mbedtls_mpi_shrink
00007924 g     F .text	00000002 __aeabi_unwind_cpp_pr0
00003dbc g     F .text	0000001c TEE_BigIntAdd
00002f8c g     F .text	00000014 utee_get_property_name_to_index
00007bdc g     O .rodata	00000004 ta_heap_size
000011ec g     F .text	00000030 TEE_ResetTransientObject
00003070 g     F .text	00000018 utee_cryp_state_alloc
00003240 g     F .text	00000018 utee_authenc_enc_final
00005426 g     F .text	0000012c mbedtls_mpi_read_string
000021f4 g     F .text	00000056 TEE_CipherInit
00003df4 g     F .text	00000058 TEE_BigIntNeg
00000020 g       .text	00000000 __text_start
000015b0 g     F .text	0000002c TEE_StartPersistentObjectEnumerator
00004f68 g     F .text	0000007c mbedtls_mpi_shift_r
00007798 g     F .text	0000004c malloc_buffer_overlaps_heap
00004010 g     F .text	0000001c TEE_BigIntSubMod
0000678a g     F .text	00000136 mbedtls_mpi_gen_prime
00004d3a g     F .text	00000020 mbedtls_mpi_get_bit
00004e2c g     F .text	00000066 mbedtls_mpi_read_binary
000025b0 g     F .text	00000070 TEE_AEInit
000002b0 g     F .text	0000013c trace_printf
00005bc8 g     F .text	000000c4 mbedtls_mpi_montmul
00007b02 g     F .text	00000016 memcpy
0000309c g     F .text	00000014 utee_cryp_state_free
00004306 g     F .text	0000004a TEE_BigIntConvertFromFMM
00007ab4 g     F .text	00000004 TEE_Panic
00000c20 g     F .text	00000018 __aeabi_uldivmod
000020b0 g     F .text	000000a4 TEE_CopyOperation
00000c8c g     F .text	00000024 puts
00004350 g     F .text	000000a0 TEE_BigIntComputeFMM
0000720c g     F .text	00000020 malloc_get_stats
0000311c g     F .text	00000018 utee_cipher_final
00000f38 g     F .text	00000016 TEE_GetREETime
00001550 g     F .text	00000038 TEE_AllocatePersistentObjectEnumerator
0000a004 g     O .data	0000006c ta_props
00002954 g     F .text	000000bc TEE_AsymmetricEncrypt
0000722c g     F .text	00000038 malloc
00003184 g     F .text	00000014 utee_cryp_obj_close
00007ad6 g     F .text	0000000e vsnprintf
00001368 g     F .text	0000006c TEE_GenerateKey
0000a000 g     O .data	00000004 trace_level
00003b38 g     F .text	00000036 TEE_BigIntCmp
00007bc8 g     O .rodata	00000004 ta_num_props
0000707c g     F .text	0000007c bgetr
00003228 g     F .text	00000018 utee_authenc_update_payload
000078b8 g     F .text	0000002e mempool_free
0000224a g     F .text	000000e6 TEE_CipherUpdate
00003a50 g     F .text	00000058 TEE_BigIntConvertToOctetString
00001e36 g     F .text	000000b6 TEE_GetOperationInfoMultiple
000033c0 g     F .text	00000014 utee_cache_operation
00004dde g     F .text	00000042 mbedtls_mpi_bitlen
000031fc g     F .text	00000018 utee_authenc_init
00003d70 g     F .text	0000002a TEE_BigIntGetBit
00007be0 g     O .rodata	00000003 trace_ext_prefix
00006e28 g     F .text	0000005c bgetz
00000e88 g     F .text	0000000c TEE_GetInstanceData
00000eb6 g     F .text	0000001e TEE_Wait
00003370 g     F .text	00000014 utee_storage_obj_write
00005330 g     F .text	000000d8 mbedtls_mpi_mul_mpi
00007928 g     F .text	00000002 __aeabi_unwind_cpp_pr2
00000fa6 g     F .text	00000006 TEE_CacheFlush
00000024 g     F .text	00000002 TA_DestroyEntryPoint
00004986 g     F .text	0000000e mbedtls_mpi_init
00004dac g     F .text	00000032 mbedtls_mpi_lsb
000078e8 g     F .text	00000028 _assert_log
000042fe g     F .text	00000004 TEE_BigIntFMMContextSizeInU32
00002548 g     F .text	00000068 TEE_MACCompareFinal
0000150a g     F .text	00000046 TEE_RenamePersistentObject
00002184 g     F .text	00000070 TEE_DigestDoFinal
0000398c g     F .text	00000044 _TEE_MathAPI_Init
00005240 g     F .text	00000046 mbedtls_mpi_add_mpi
00003348 g     F .text	00000014 utee_storage_next_enum
0000c108 g     O .bss	00008000 ta_heap
00004050 g     F .text	000000a4 TEE_BigIntInvMod
00000048 g     F .text	00000014 TA_CloseSessionEntryPoint
00002a10 g     F .text	000000c0 TEE_AsymmetricDecrypt
000013d4 g     F .text	00000064 TEE_OpenPersistentObject
00005286 g     F .text	0000004a mbedtls_mpi_sub_mpi
00002f60 g     F .text	00000014 __utee_panic
00003088 g     F .text	00000014 utee_cryp_state_copy
0000005c g     F .text	000001d4 TA_InvokeCommandEntryPoint
00007828 g     F .text	0000006c mempool_alloc
00003170 g     F .text	00000014 utee_cryp_obj_alloc
0000305c g     F .text	00000014 utee_set_ta_time
0000315c g     F .text	00000014 utee_cryp_obj_get_attr
00007894 g     F .text	00000024 mempool_calloc
00001338 g     F .text	00000030 TEE_CopyObjectAttributes
00007274 g     F .text	00000048 calloc
00000f4e g     F .text	0000004a TEE_Malloc
00003020 g     F .text	00000014 utee_mask_cancellation
00003198 g     F .text	00000014 utee_cryp_obj_reset
00000e70 g     F .text	0000000a TEE_CheckMemoryAccessRights
00014108 g       .bss	00000000 __gprof_buf_end
00007956 g     F .text	00000076 __ul_divmod
00004d02 g     F .text	00000038 mbedtls_mpi_lset
00001630 g     F .text	00000040 TEE_ReadObjectData
00001084 g     F .text	00000070 TEE_GetObjectBufferAttribute
00000026 g     F .text	00000022 TA_OpenSessionEntryPoint
00003334 g     F .text	00000014 utee_storage_start_enum
000018b8 g     F .text	00000026 TEE_FreeOperation
000032e4 g     F .text	00000014 utee_storage_obj_rename
0000a0a0 g     O .bss	00000004 ta_param_types
000058e8 g     F .text	0000002e mbedtls_mpi_div_int
00000fb4 g     F .text	00000038 __utee_from_attr
000042c0 g     F .text	00000030 TEE_BigIntIsProbablePrime
00005408 g     F .text	0000001e mbedtls_mpi_mul_int
000014d0 g     F .text	00000024 TEE_CloseAndDeletePersistentObject1
00005cb0 g     F .text	00000454 mbedtls_mpi_exp_mod
00004c10 g     F .text	0000006c mbedtls_mpi_safe_cond_assign
00002f74 g     F .text	00000018 utee_get_property
0000284c g     F .text	00000108 TEE_AEDecryptFinal
000039d0 g     F .text	00000040 TEE_BigIntInit
00000e94 g     F .text	00000004 TEE_MemMove
00003a10 g     F .text	00000040 TEE_BigIntConvertFromOctetString
0000a070 g     O .data	00000004 _ref__utee_mcount
00004fe4 g     F .text	00000068 mbedtls_mpi_cmp_abs
0000243c g     F .text	00000056 TEE_MACInit
00002ad0 g     F .text	000000b4 TEE_AsymmetricSignDigest
0000792a g     F .text	0000001c memchr
00000e38 g     F .text	0000001c TEE_UnmaskCancellation
00000fec g     F .text	0000002c TEE_GetObjectInfo
000068c0 g     F .text	0000032c mbedtls_mpi_self_test
000032d0 g     F .text	00000014 utee_storage_obj_del
00002666 g     F .text	000000ce TEE_AEUpdate
00003398 g     F .text	00000014 utee_storage_obj_seek
000011bc g     F .text	00000030 TEE_FreeTransientObject
000050de g     F .text	00000030 mbedtls_mpi_cmp_int
000030c4 g     F .text	00000014 utee_hash_update
00002cfc g     F .text	00000018 rand
000033d4  w    F .text	0000000c __utee_mcount
00001e14 g     F .text	00000022 TEE_GetOperationInfo
00003fa4 g     F .text	00000050 TEE_BigIntMod
0000597a g     F .text	0000003a mbedtls_mpi_mod_int
00002fb8 g     F .text	00000014 utee_close_ta_session
00003ef6 g     F .text	000000ae TEE_BigIntDiv
00004b8c g     F .text	00000056 mbedtls_mpi_copy
000071f8 g     F .text	00000014 malloc_reset_stats
00003104 g     F .text	00000018 utee_cipher_update
00001038 g     F .text	00000020 TEE_RestrictObjectUsage1
000072bc g     F .text	00000038 realloc
00004be2 g     F .text	0000002e mbedtls_mpi_swap
000077e4 g     F .text	00000044 mempool_alloc_pool
00003288 g     F .text	00000018 utee_asymm_verify
00003e4c g     F .text	000000a4 TEE_BigIntMul
00001eec g     F .text	00000040 TEE_ResetOperation
00004ed8 g     F .text	00000090 mbedtls_mpi_shift_l
0000504c g     F .text	00000092 mbedtls_mpi_cmp_mpi
00000e9c g     F .text	00000004 TEE_MemFill
00007ae4 g     F .text	0000001e memcmp
000075c4 g     F .text	000000f8 malloc_add_pool
00002492 g     F .text	0000004e TEE_MACUpdate
0000029c g     F .text	00000014 trace_get_level
0000510e g     F .text	000000b8 mbedtls_mpi_add_abs
000031e8 g     F .text	00000014 utee_cryp_random_number_generate
00001058 g     F .text	0000002c TEE_RestrictObjectUsage
000042f6 g     F .text	00000008 TEE_BigIntFMMSizeInU32
000042f0 g     F .text	00000004 TEE_BigIntInitFMM
00003270 g     F .text	00000018 utee_asymm_operate
00001178 g     F .text	00000014 TEE_CloseObject
00002d98 g     F .text	0000018c __utee_entry
00007bc8 g       .text	00000000 __text_end
000040f4 g     F .text	0000007c TEE_BigIntRelativePrime
00005916 g     F .text	00000064 mbedtls_mpi_mod_mpi
000070f8 g     F .text	0000009c bpool
00000e1c g     F .text	0000001c TEE_GetCancellationFlag
00006104 g     F .text	00000112 mbedtls_mpi_gcd
00000f10 g     F .text	00000028 TEE_SetTAPersistentTime
00007b4a g     F .text	00000010 memset
00000ed4 g     F .text	0000003c TEE_GetTAPersistentTime
000003ec g     F .text	000000f8 dhex_dump
00001438 g     F .text	00000098 TEE_CreatePersistentObject
00000e54 g     F .text	0000001c TEE_MaskCancellation
00002620 g     F .text	00000046 TEE_AEUpdateAAD
0000335c g     F .text	00000014 utee_storage_obj_read
000016b0 g     F .text	00000038 TEE_TruncateObjectData
000031ac g     F .text	00000014 utee_cryp_obj_populate
00001018 g     F .text	00000020 TEE_GetObjectInfo1
0000027e g     F .text	0000001e trace_set_level
00003134 g     F .text	00000014 utee_cryp_obj_get_info
000010f4 g     F .text	00000084 TEE_GetObjectValueAttribute
00001f2c g     F .text	00000090 TEE_SetOperationKey
000032f8 g     F .text	00000014 utee_storage_alloc_enum
00003320 g     F .text	00000014 utee_storage_reset_enum
00003384 g     F .text	00000014 utee_storage_obj_trunc
00003ae0 g     F .text	00000058 TEE_BigIntConvertToS32
00003dd8 g     F .text	0000001c TEE_BigIntSub
00002fe4 g     F .text	00000014 utee_get_cancellation_flag
000030b0 g     F .text	00000014 utee_hash_init
00007920 g     F .text	00000004 tahead_get_trace_level
00000cd4 g     F .text	0000004e __utee_from_param
000016e8 g     F .text	0000007c TEE_SeekObjectData
00000d22 g     F .text	0000003c __utee_to_param
00005c8c g     F .text	00000024 mbedtls_mpi_montred
000072f4 g     F .text	000002d0 memalign
00002330 g     F .text	0000010c TEE_CipherDoFinal
00003aa8 g     F .text	00000038 TEE_BigIntConvertFromS32
000052d0 g     F .text	00000030 mbedtls_mpi_add_int
00003148 g     F .text	00000014 utee_cryp_obj_restrict_usage
000076bc g     F .text	000000dc malloc_buffer_is_within_alloced
000031c0 g     F .text	00000014 utee_cryp_obj_copy
000042f4 g     F .text	00000002 TEE_BigIntInitFMMContext
000031d4 g     F .text	00000014 utee_cryp_derive_key
00003258 g     F .text	00000018 utee_authenc_dec_final
00001670 g     F .text	00000040 TEE_WriteObjectData
0000159c g     F .text	00000014 TEE_ResetPersistentObjectEnumerator
00003ef0 g     F .text	00000006 TEE_BigIntSquare
00000020 g     F .text	00000004 TA_CreateEntryPoint
00005ba0 g     F .text	00000028 mbedtls_mpi_montg_init
00000bee g     F .text	0000001a snprintk
00003d9a g     F .text	00000022 TEE_BigIntGetBitCount
0000402c g     F .text	0000001c TEE_BigIntMulMod
00006460 g     F .text	000002ce mbedtls_mpi_inv_mod
00002c30 g     F .text	000000ba TEE_DeriveKey
0000a0a4 g     O .bss	00000020 ta_params
00005552 g     F .text	00000396 mbedtls_mpi_div_mpi
00004e20 g     F .text	0000000c mbedtls_mpi_size
00006cf4 g     F .text	00000134 bget
0000118c g     F .text	00000030 TEE_AllocateTransientObject
00004d5a g     F .text	00000052 mbedtls_mpi_set_bit
000049b8 g     F .text	00000012 mbedtls_mpi_init_static
00000f9c g     F .text	00000004 TEE_Free
0000672e g     F .text	0000005c mbedtls_mpi_is_prime
00000fac g     F .text	00000006 TEE_CacheInvalidate
000030f0 g     F .text	00000014 utee_cipher_init
00007910 g     F .text	00000010 _assert_break
00003ff4 g     F .text	0000001c TEE_BigIntAddMod
0000330c g     F .text	00000014 utee_storage_free_enum
00003214 g     F .text	00000014 utee_authenc_update_aad
000018de g     F .text	00000536 TEE_AllocateOperation
00002cea g     F .text	00000012 TEE_GenerateRandom
00000e98 g     F .text	00000004 TEE_MemCompare
000004e4 g     F .text	000006fc __vsnprintf
00001588 g     F .text	00000014 TEE_FreePersistentObjectEnumerator
00002f24 g     F .text	00000014 utee_panic
00000d5e g     F .text	00000044 TEE_OpenTASession
00000c38 g     F .text	00000014 trace_ext_puts
00000c4c g     F .text	00000006 trace_ext_get_thread_id
000014f4 g     F .text	00000016 TEE_CloseAndDeletePersistentObject
000049ca g     F .text	0000004e mbedtls_mpi_free
00000fa0 g     F .text	00000006 TEE_CacheClean
00002fa0 g     F .text	00000018 utee_open_ta_session
00007b5a g     F .text	0000002c buf_compare_ct
00004c7c g     F .text	00000086 mbedtls_mpi_safe_cond_swap
000012d0 g     F .text	00000068 TEE_CopyObjectAttributes1
000030d8 g     F .text	00000018 utee_hash_final
00007946 g     F .text	00000010 strlen
00004170 g     F .text	00000150 TEE_BigIntComputeExtendedGcd
00007926 g     F .text	00000002 __aeabi_unwind_cpp_pr1
000032a0 g     F .text	00000018 utee_storage_obj_open
00002fcc g     F .text	00000018 utee_invoke_ta_command
00003034 g     F .text	00000014 utee_wait
00000ea0 g     F .text	00000016 TEE_GetSystemTime
00000000 g     O .ta_head	00000020 ta_head
00006e84 g     F .text	000001f8 brel
000051c6 g     F .text	0000007a mbedtls_mpi_sub_abs
00003048 g     F .text	00000014 utee_get_time
00006216 g     F .text	00000034 mbedtls_mpi_fill_random
00000e7a g     F .text	0000000e TEE_SetInstanceData
0000300c g     F .text	00000014 utee_unmask_cancellation
00000c08 g     F .text	00000018 __aeabi_ldivmod
00002ff8 g     F .text	00000014 utee_check_access_rights
00005a22 g     F .text	0000012e mbedtls_mpi_write_string
000015dc g     F .text	00000054 TEE_GetNextPersistentObject
000033ac g     F .text	00000014 utee_cryp_obj_generate_key
00000da2 g     F .text	00000014 TEE_CloseTASession
00002b84 g     F .text	000000ac TEE_AsymmetricVerifyDigest
00014108 g       .bss	00000000 __gprof_buf_start
00007264 g     F .text	00000010 free
00007194 g     F .text	00000064 bstats
000024e0 g     F .text	00000068 TEE_MACComputeFinal
0000c0c4 g     O .bss	00000004 mbedtls_mpi_mempool



Disassembly of section .text:

00000020 <TA_CreateEntryPoint>:
TA_CreateEntryPoint():
/home/hsk/Desktop/devel/tee-tpm-hyp/optee_examples/acipher/ta/acipher_ta.c:114
      20:	2000      	movs	r0, #0
      22:	4770      	bx	lr

00000024 <TA_DestroyEntryPoint>:
TA_DestroyEntryPoint():
/home/hsk/Desktop/devel/tee-tpm-hyp/optee_examples/acipher/ta/acipher_ta.c:119
      24:	4770      	bx	lr

00000026 <TA_OpenSessionEntryPoint>:
TA_OpenSessionEntryPoint():
/home/hsk/Desktop/devel/tee-tpm-hyp/optee_examples/acipher/ta/acipher_ta.c:124
      26:	b510      	push	{r4, lr}
/home/hsk/Desktop/devel/tee-tpm-hyp/optee_examples/acipher/ta/acipher_ta.c:130
      28:	2100      	movs	r1, #0
      2a:	2004      	movs	r0, #4
/home/hsk/Desktop/devel/tee-tpm-hyp/optee_examples/acipher/ta/acipher_ta.c:124
      2c:	4614      	mov	r4, r2
/home/hsk/Desktop/devel/tee-tpm-hyp/optee_examples/acipher/ta/acipher_ta.c:130
      2e:	f000 ff8e 	bl	f4e <TEE_Malloc>
/home/hsk/Desktop/devel/tee-tpm-hyp/optee_examples/acipher/ta/acipher_ta.c:131
      32:	b120      	cbz	r0, 3e <TA_OpenSessionEntryPoint+0x18>
/home/hsk/Desktop/devel/tee-tpm-hyp/optee_examples/acipher/ta/acipher_ta.c:134
      34:	2300      	movs	r3, #0
      36:	6003      	str	r3, [r0, #0]
/home/hsk/Desktop/devel/tee-tpm-hyp/optee_examples/acipher/ta/acipher_ta.c:136
      38:	6020      	str	r0, [r4, #0]
/home/hsk/Desktop/devel/tee-tpm-hyp/optee_examples/acipher/ta/acipher_ta.c:138
      3a:	4618      	mov	r0, r3
/home/hsk/Desktop/devel/tee-tpm-hyp/optee_examples/acipher/ta/acipher_ta.c:139
      3c:	bd10      	pop	{r4, pc}
/home/hsk/Desktop/devel/tee-tpm-hyp/optee_examples/acipher/ta/acipher_ta.c:132
      3e:	4801      	ldr	r0, [pc, #4]	; (44 <TA_OpenSessionEntryPoint+0x1e>)
      40:	e7fc      	b.n	3c <TA_OpenSessionEntryPoint+0x16>
      42:	bf00      	nop
      44:	ffff000c 	.word	0xffff000c

00000048 <TA_CloseSessionEntryPoint>:
TA_CloseSessionEntryPoint():
/home/hsk/Desktop/devel/tee-tpm-hyp/optee_examples/acipher/ta/acipher_ta.c:142
      48:	b510      	push	{r4, lr}
      4a:	4604      	mov	r4, r0
/home/hsk/Desktop/devel/tee-tpm-hyp/optee_examples/acipher/ta/acipher_ta.c:145
      4c:	6800      	ldr	r0, [r0, #0]
      4e:	f001 f8b5 	bl	11bc <TEE_FreeTransientObject>
/home/hsk/Desktop/devel/tee-tpm-hyp/optee_examples/acipher/ta/acipher_ta.c:146
      52:	4620      	mov	r0, r4
/home/hsk/Desktop/devel/tee-tpm-hyp/optee_examples/acipher/ta/acipher_ta.c:147
      54:	e8bd 4010 	ldmia.w	sp!, {r4, lr}
/home/hsk/Desktop/devel/tee-tpm-hyp/optee_examples/acipher/ta/acipher_ta.c:146
      58:	f000 bfa0 	b.w	f9c <TEE_Free>

0000005c <TA_InvokeCommandEntryPoint>:
TA_InvokeCommandEntryPoint():
/home/hsk/Desktop/devel/tee-tpm-hyp/optee_examples/acipher/ta/acipher_ta.c:152
      5c:	e92d 4ff0 	stmdb	sp!, {r4, r5, r6, r7, r8, r9, sl, fp, lr}
      60:	4607      	mov	r7, r0
      62:	4690      	mov	r8, r2
      64:	b08f      	sub	sp, #60	; 0x3c
      66:	461e      	mov	r6, r3
/home/hsk/Desktop/devel/tee-tpm-hyp/optee_examples/acipher/ta/acipher_ta.c:153
      68:	460d      	mov	r5, r1
      6a:	b179      	cbz	r1, 8c <TA_InvokeCommandEntryPoint+0x30>
      6c:	2901      	cmp	r1, #1
      6e:	d048      	beq.n	102 <TA_InvokeCommandEntryPoint+0xa6>
/home/hsk/Desktop/devel/tee-tpm-hyp/optee_examples/acipher/ta/acipher_ta.c:159
      70:	4b60      	ldr	r3, [pc, #384]	; (1f4 <TA_InvokeCommandEntryPoint+0x198>)
      72:	4861      	ldr	r0, [pc, #388]	; (1f8 <TA_InvokeCommandEntryPoint+0x19c>)
      74:	447b      	add	r3, pc
      76:	9300      	str	r3, [sp, #0]
      78:	4478      	add	r0, pc
      7a:	2301      	movs	r3, #1
      7c:	9101      	str	r1, [sp, #4]
      7e:	461a      	mov	r2, r3
      80:	219f      	movs	r1, #159	; 0x9f
      82:	3014      	adds	r0, #20
      84:	f000 f914 	bl	2b0 <trace_printf>
/home/hsk/Desktop/devel/tee-tpm-hyp/optee_examples/acipher/ta/acipher_ta.c:160
      88:	4c56      	ldr	r4, [pc, #344]	; (1e4 <TA_InvokeCommandEntryPoint+0x188>)
      8a:	e030      	b.n	ee <TA_InvokeCommandEntryPoint+0x92>
cmd_gen_key():
/home/hsk/Desktop/devel/tee-tpm-hyp/optee_examples/acipher/ta/acipher_ta.c:28
      8c:	2a01      	cmp	r2, #1
      8e:	f040 80a5 	bne.w	1dc <TA_InvokeCommandEntryPoint+0x180>
/home/hsk/Desktop/devel/tee-tpm-hyp/optee_examples/acipher/ta/acipher_ta.c:31
      92:	681d      	ldr	r5, [r3, #0]
/home/hsk/Desktop/devel/tee-tpm-hyp/optee_examples/acipher/ta/acipher_ta.c:33
      94:	aa07      	add	r2, sp, #28
      96:	4e54      	ldr	r6, [pc, #336]	; (1e8 <TA_InvokeCommandEntryPoint+0x18c>)
      98:	4629      	mov	r1, r5
      9a:	4630      	mov	r0, r6
      9c:	f001 f876 	bl	118c <TEE_AllocateTransientObject>
/home/hsk/Desktop/devel/tee-tpm-hyp/optee_examples/acipher/ta/acipher_ta.c:34
      a0:	4604      	mov	r4, r0
      a2:	b168      	cbz	r0, c0 <TA_InvokeCommandEntryPoint+0x64>
/home/hsk/Desktop/devel/tee-tpm-hyp/optee_examples/acipher/ta/acipher_ta.c:35
      a4:	9003      	str	r0, [sp, #12]
      a6:	4642      	mov	r2, r8
      a8:	4b54      	ldr	r3, [pc, #336]	; (1fc <TA_InvokeCommandEntryPoint+0x1a0>)
      aa:	2123      	movs	r1, #35	; 0x23
      ac:	4854      	ldr	r0, [pc, #336]	; (200 <TA_InvokeCommandEntryPoint+0x1a4>)
      ae:	447b      	add	r3, pc
      b0:	9300      	str	r3, [sp, #0]
      b2:	4478      	add	r0, pc
      b4:	4643      	mov	r3, r8
      b6:	9502      	str	r5, [sp, #8]
      b8:	9601      	str	r6, [sp, #4]
cmd_enc():
/home/hsk/Desktop/devel/tee-tpm-hyp/optee_examples/acipher/ta/acipher_ta.c:87
      ba:	f000 f8f9 	bl	2b0 <trace_printf>
      be:	e016      	b.n	ee <TA_InvokeCommandEntryPoint+0x92>
cmd_gen_key():
/home/hsk/Desktop/devel/tee-tpm-hyp/optee_examples/acipher/ta/acipher_ta.c:39
      c0:	4603      	mov	r3, r0
      c2:	4602      	mov	r2, r0
      c4:	4629      	mov	r1, r5
      c6:	9807      	ldr	r0, [sp, #28]
      c8:	f001 f94e 	bl	1368 <TEE_GenerateKey>
/home/hsk/Desktop/devel/tee-tpm-hyp/optee_examples/acipher/ta/acipher_ta.c:40
      cc:	4604      	mov	r4, r0
      ce:	b190      	cbz	r0, f6 <TA_InvokeCommandEntryPoint+0x9a>
/home/hsk/Desktop/devel/tee-tpm-hyp/optee_examples/acipher/ta/acipher_ta.c:41
      d0:	9002      	str	r0, [sp, #8]
      d2:	4642      	mov	r2, r8
      d4:	4b4b      	ldr	r3, [pc, #300]	; (204 <TA_InvokeCommandEntryPoint+0x1a8>)
      d6:	212a      	movs	r1, #42	; 0x2a
      d8:	484b      	ldr	r0, [pc, #300]	; (208 <TA_InvokeCommandEntryPoint+0x1ac>)
      da:	447b      	add	r3, pc
      dc:	9501      	str	r5, [sp, #4]
      de:	9300      	str	r3, [sp, #0]
      e0:	4478      	add	r0, pc
      e2:	4643      	mov	r3, r8
      e4:	f000 f8e4 	bl	2b0 <trace_printf>
/home/hsk/Desktop/devel/tee-tpm-hyp/optee_examples/acipher/ta/acipher_ta.c:43
      e8:	9807      	ldr	r0, [sp, #28]
      ea:	f001 f867 	bl	11bc <TEE_FreeTransientObject>
TA_InvokeCommandEntryPoint():
/home/hsk/Desktop/devel/tee-tpm-hyp/optee_examples/acipher/ta/acipher_ta.c:162
      ee:	4620      	mov	r0, r4
      f0:	b00f      	add	sp, #60	; 0x3c
      f2:	e8bd 8ff0 	ldmia.w	sp!, {r4, r5, r6, r7, r8, r9, sl, fp, pc}
cmd_gen_key():
/home/hsk/Desktop/devel/tee-tpm-hyp/optee_examples/acipher/ta/acipher_ta.c:47
      f6:	6838      	ldr	r0, [r7, #0]
      f8:	f001 f860 	bl	11bc <TEE_FreeTransientObject>
/home/hsk/Desktop/devel/tee-tpm-hyp/optee_examples/acipher/ta/acipher_ta.c:48
      fc:	9b07      	ldr	r3, [sp, #28]
      fe:	603b      	str	r3, [r7, #0]
     100:	e7f5      	b.n	ee <TA_InvokeCommandEntryPoint+0x92>
cmd_enc():
/home/hsk/Desktop/devel/tee-tpm-hyp/optee_examples/acipher/ta/acipher_ta.c:68
     102:	2a65      	cmp	r2, #101	; 0x65
     104:	d16a      	bne.n	1dc <TA_InvokeCommandEntryPoint+0x180>
/home/hsk/Desktop/devel/tee-tpm-hyp/optee_examples/acipher/ta/acipher_ta.c:70
     106:	6800      	ldr	r0, [r0, #0]
     108:	2800      	cmp	r0, #0
     10a:	d069      	beq.n	1e0 <TA_InvokeCommandEntryPoint+0x184>
/home/hsk/Desktop/devel/tee-tpm-hyp/optee_examples/acipher/ta/acipher_ta.c:73
     10c:	a907      	add	r1, sp, #28
     10e:	f000 ff83 	bl	1018 <TEE_GetObjectInfo1>
/home/hsk/Desktop/devel/tee-tpm-hyp/optee_examples/acipher/ta/acipher_ta.c:74
     112:	4604      	mov	r4, r0
     114:	b160      	cbz	r0, 130 <TA_InvokeCommandEntryPoint+0xd4>
/home/hsk/Desktop/devel/tee-tpm-hyp/optee_examples/acipher/ta/acipher_ta.c:75
     116:	9001      	str	r0, [sp, #4]
     118:	462a      	mov	r2, r5
     11a:	483c      	ldr	r0, [pc, #240]	; (20c <TA_InvokeCommandEntryPoint+0x1b0>)
     11c:	214b      	movs	r1, #75	; 0x4b
     11e:	4b3c      	ldr	r3, [pc, #240]	; (210 <TA_InvokeCommandEntryPoint+0x1b4>)
     120:	4478      	add	r0, pc
     122:	447b      	add	r3, pc
     124:	300c      	adds	r0, #12
     126:	9300      	str	r3, [sp, #0]
     128:	462b      	mov	r3, r5
     12a:	f000 f8c1 	bl	2b0 <trace_printf>
     12e:	e7de      	b.n	ee <TA_InvokeCommandEntryPoint+0x92>
/home/hsk/Desktop/devel/tee-tpm-hyp/optee_examples/acipher/ta/acipher_ta.c:84
     130:	f8df 90e0 	ldr.w	r9, [pc, #224]	; 214 <TA_InvokeCommandEntryPoint+0x1b8>
     134:	4602      	mov	r2, r0
/home/hsk/Desktop/devel/tee-tpm-hyp/optee_examples/acipher/ta/acipher_ta.c:82
     136:	68f3      	ldr	r3, [r6, #12]
/home/hsk/Desktop/devel/tee-tpm-hyp/optee_examples/acipher/ta/acipher_ta.c:84
     138:	a806      	add	r0, sp, #24
/home/hsk/Desktop/devel/tee-tpm-hyp/optee_examples/acipher/ta/acipher_ta.c:82
     13a:	9305      	str	r3, [sp, #20]
/home/hsk/Desktop/devel/tee-tpm-hyp/optee_examples/acipher/ta/acipher_ta.c:84
     13c:	4649      	mov	r1, r9
     13e:	9b08      	ldr	r3, [sp, #32]
/home/hsk/Desktop/devel/tee-tpm-hyp/optee_examples/acipher/ta/acipher_ta.c:79
     140:	f8d6 a000 	ldr.w	sl, [r6]
/home/hsk/Desktop/devel/tee-tpm-hyp/optee_examples/acipher/ta/acipher_ta.c:80
     144:	f8d6 8004 	ldr.w	r8, [r6, #4]
/home/hsk/Desktop/devel/tee-tpm-hyp/optee_examples/acipher/ta/acipher_ta.c:81
     148:	f8d6 b008 	ldr.w	fp, [r6, #8]
/home/hsk/Desktop/devel/tee-tpm-hyp/optee_examples/acipher/ta/acipher_ta.c:84
     14c:	f001 fbc7 	bl	18de <TEE_AllocateOperation>
/home/hsk/Desktop/devel/tee-tpm-hyp/optee_examples/acipher/ta/acipher_ta.c:86
     150:	4604      	mov	r4, r0
     152:	b170      	cbz	r0, 172 <TA_InvokeCommandEntryPoint+0x116>
/home/hsk/Desktop/devel/tee-tpm-hyp/optee_examples/acipher/ta/acipher_ta.c:87
     154:	9b08      	ldr	r3, [sp, #32]
     156:	462a      	mov	r2, r5
     158:	9003      	str	r0, [sp, #12]
     15a:	2157      	movs	r1, #87	; 0x57
     15c:	482e      	ldr	r0, [pc, #184]	; (218 <TA_InvokeCommandEntryPoint+0x1bc>)
     15e:	9302      	str	r3, [sp, #8]
     160:	4b2e      	ldr	r3, [pc, #184]	; (21c <TA_InvokeCommandEntryPoint+0x1c0>)
     162:	4478      	add	r0, pc
     164:	f8cd 9004 	str.w	r9, [sp, #4]
     168:	300c      	adds	r0, #12
     16a:	447b      	add	r3, pc
     16c:	9300      	str	r3, [sp, #0]
     16e:	462b      	mov	r3, r5
     170:	e7a3      	b.n	ba <TA_InvokeCommandEntryPoint+0x5e>
/home/hsk/Desktop/devel/tee-tpm-hyp/optee_examples/acipher/ta/acipher_ta.c:91
     172:	6839      	ldr	r1, [r7, #0]
     174:	9806      	ldr	r0, [sp, #24]
     176:	f001 fed9 	bl	1f2c <TEE_SetOperationKey>
/home/hsk/Desktop/devel/tee-tpm-hyp/optee_examples/acipher/ta/acipher_ta.c:92
     17a:	4604      	mov	r4, r0
     17c:	b178      	cbz	r0, 19e <TA_InvokeCommandEntryPoint+0x142>
/home/hsk/Desktop/devel/tee-tpm-hyp/optee_examples/acipher/ta/acipher_ta.c:93
     17e:	9001      	str	r0, [sp, #4]
     180:	462a      	mov	r2, r5
     182:	4827      	ldr	r0, [pc, #156]	; (220 <TA_InvokeCommandEntryPoint+0x1c4>)
     184:	215d      	movs	r1, #93	; 0x5d
     186:	4b27      	ldr	r3, [pc, #156]	; (224 <TA_InvokeCommandEntryPoint+0x1c8>)
     188:	4478      	add	r0, pc
     18a:	447b      	add	r3, pc
     18c:	300c      	adds	r0, #12
     18e:	9300      	str	r3, [sp, #0]
     190:	462b      	mov	r3, r5
     192:	f000 f88d 	bl	2b0 <trace_printf>
/home/hsk/Desktop/devel/tee-tpm-hyp/optee_examples/acipher/ta/acipher_ta.c:105
     196:	9806      	ldr	r0, [sp, #24]
     198:	f001 fb8e 	bl	18b8 <TEE_FreeOperation>
     19c:	e7a7      	b.n	ee <TA_InvokeCommandEntryPoint+0x92>
/home/hsk/Desktop/devel/tee-tpm-hyp/optee_examples/acipher/ta/acipher_ta.c:97
     19e:	ab05      	add	r3, sp, #20
     1a0:	4602      	mov	r2, r0
     1a2:	9302      	str	r3, [sp, #8]
     1a4:	4601      	mov	r1, r0
     1a6:	e9cd 8b00 	strd	r8, fp, [sp]
     1aa:	4653      	mov	r3, sl
     1ac:	9806      	ldr	r0, [sp, #24]
     1ae:	f002 fbd1 	bl	2954 <TEE_AsymmetricEncrypt>
/home/hsk/Desktop/devel/tee-tpm-hyp/optee_examples/acipher/ta/acipher_ta.c:99
     1b2:	4604      	mov	r4, r0
     1b4:	b178      	cbz	r0, 1d6 <TA_InvokeCommandEntryPoint+0x17a>
/home/hsk/Desktop/devel/tee-tpm-hyp/optee_examples/acipher/ta/acipher_ta.c:100
     1b6:	9003      	str	r0, [sp, #12]
     1b8:	462a      	mov	r2, r5
     1ba:	481b      	ldr	r0, [pc, #108]	; (228 <TA_InvokeCommandEntryPoint+0x1cc>)
     1bc:	2164      	movs	r1, #100	; 0x64
     1be:	68f3      	ldr	r3, [r6, #12]
     1c0:	9302      	str	r3, [sp, #8]
     1c2:	4478      	add	r0, pc
     1c4:	4b19      	ldr	r3, [pc, #100]	; (22c <TA_InvokeCommandEntryPoint+0x1d0>)
     1c6:	300c      	adds	r0, #12
     1c8:	f8cd 8004 	str.w	r8, [sp, #4]
     1cc:	447b      	add	r3, pc
     1ce:	9300      	str	r3, [sp, #0]
     1d0:	462b      	mov	r3, r5
     1d2:	f000 f86d 	bl	2b0 <trace_printf>
/home/hsk/Desktop/devel/tee-tpm-hyp/optee_examples/acipher/ta/acipher_ta.c:102
     1d6:	9b05      	ldr	r3, [sp, #20]
     1d8:	60f3      	str	r3, [r6, #12]
     1da:	e7dc      	b.n	196 <TA_InvokeCommandEntryPoint+0x13a>
/home/hsk/Desktop/devel/tee-tpm-hyp/optee_examples/acipher/ta/acipher_ta.c:69
     1dc:	4c03      	ldr	r4, [pc, #12]	; (1ec <TA_InvokeCommandEntryPoint+0x190>)
     1de:	e786      	b.n	ee <TA_InvokeCommandEntryPoint+0x92>
/home/hsk/Desktop/devel/tee-tpm-hyp/optee_examples/acipher/ta/acipher_ta.c:71
     1e0:	4c03      	ldr	r4, [pc, #12]	; (1f0 <TA_InvokeCommandEntryPoint+0x194>)
TA_InvokeCommandEntryPoint():
/home/hsk/Desktop/devel/tee-tpm-hyp/optee_examples/acipher/ta/acipher_ta.c:157
     1e2:	e784      	b.n	ee <TA_InvokeCommandEntryPoint+0x92>
     1e4:	ffff000a 	.word	0xffff000a
     1e8:	a1000030 	.word	0xa1000030
     1ec:	ffff0006 	.word	0xffff0006
     1f0:	ffff0007 	.word	0xffff0007
     1f4:	00007f2c 	.word	0x00007f2c
     1f8:	00007e2c 	.word	0x00007e2c
     1fc:	00007e25 	.word	0x00007e25
     200:	00007df2 	.word	0x00007df2
     204:	00007e23 	.word	0x00007e23
     208:	00007dc4 	.word	0x00007dc4
     20c:	00007d84 	.word	0x00007d84
     210:	00007df4 	.word	0x00007df4
     214:	60000130 	.word	0x60000130
     218:	00007d42 	.word	0x00007d42
     21c:	00007dc4 	.word	0x00007dc4
     220:	00007d1c 	.word	0x00007d1c
     224:	00007dda 	.word	0x00007dda
     228:	00007ce2 	.word	0x00007ce2
     22c:	00007db1 	.word	0x00007db1

00000230 <append>:
append():
/home/hsk/Desktop/devel/tee-tpm-hyp/optee_os/lib/libutils/ext/trace.c:198
     230:	b40e      	push	{r1, r2, r3}
/home/hsk/Desktop/devel/tee-tpm-hyp/optee_os/lib/libutils/ext/trace.c:203
     232:	f8d0 3100 	ldr.w	r3, [r0, #256]	; 0x100
/home/hsk/Desktop/devel/tee-tpm-hyp/optee_os/lib/libutils/ext/trace.c:198
     236:	b533      	push	{r0, r1, r4, r5, lr}
     238:	4604      	mov	r4, r0
/home/hsk/Desktop/devel/tee-tpm-hyp/optee_os/lib/libutils/ext/trace.c:203
     23a:	b90b      	cbnz	r3, 240 <append+0x10>
/home/hsk/Desktop/devel/tee-tpm-hyp/optee_os/lib/libutils/ext/trace.c:204
     23c:	f8c4 0100 	str.w	r0, [r4, #256]	; 0x100
/home/hsk/Desktop/devel/tee-tpm-hyp/optee_os/lib/libutils/ext/trace.c:205
     240:	f8d4 0100 	ldr.w	r0, [r4, #256]	; 0x100
/home/hsk/Desktop/devel/tee-tpm-hyp/optee_os/lib/libutils/ext/trace.c:206
     244:	ab06      	add	r3, sp, #24
/home/hsk/Desktop/devel/tee-tpm-hyp/optee_os/lib/libutils/ext/trace.c:207
     246:	9a05      	ldr	r2, [sp, #20]
/home/hsk/Desktop/devel/tee-tpm-hyp/optee_os/lib/libutils/ext/trace.c:205
     248:	1b05      	subs	r5, r0, r4
/home/hsk/Desktop/devel/tee-tpm-hyp/optee_os/lib/libutils/ext/trace.c:206
     24a:	9301      	str	r3, [sp, #4]
/home/hsk/Desktop/devel/tee-tpm-hyp/optee_os/lib/libutils/ext/trace.c:205
     24c:	f5c5 7580 	rsb	r5, r5, #256	; 0x100
/home/hsk/Desktop/devel/tee-tpm-hyp/optee_os/lib/libutils/ext/trace.c:207
     250:	4629      	mov	r1, r5
     252:	f000 fcc5 	bl	be0 <vsnprintk>
/home/hsk/Desktop/devel/tee-tpm-hyp/optee_os/lib/libutils/ext/trace.c:209
     256:	2800      	cmp	r0, #0
     258:	db0f      	blt.n	27a <append+0x4a>
/home/hsk/Desktop/devel/tee-tpm-hyp/optee_os/lib/libutils/ext/trace.c:213
     25a:	4285      	cmp	r5, r0
     25c:	dd0d      	ble.n	27a <append+0x4a>
/home/hsk/Desktop/devel/tee-tpm-hyp/optee_os/lib/libutils/ext/trace.c:217
     25e:	4285      	cmp	r5, r0
     260:	bfa8      	it	ge
     262:	4605      	movge	r5, r0
     264:	f8d4 0100 	ldr.w	r0, [r4, #256]	; 0x100
     268:	4405      	add	r5, r0
/home/hsk/Desktop/devel/tee-tpm-hyp/optee_os/lib/libutils/ext/trace.c:218
     26a:	2001      	movs	r0, #1
/home/hsk/Desktop/devel/tee-tpm-hyp/optee_os/lib/libutils/ext/trace.c:217
     26c:	f8c4 5100 	str.w	r5, [r4, #256]	; 0x100
/home/hsk/Desktop/devel/tee-tpm-hyp/optee_os/lib/libutils/ext/trace.c:219
     270:	b002      	add	sp, #8
     272:	e8bd 4030 	ldmia.w	sp!, {r4, r5, lr}
     276:	b003      	add	sp, #12
     278:	4770      	bx	lr
/home/hsk/Desktop/devel/tee-tpm-hyp/optee_os/lib/libutils/ext/trace.c:211
     27a:	2000      	movs	r0, #0
     27c:	e7f8      	b.n	270 <append+0x40>

0000027e <trace_set_level>:
trace_set_level():
/home/hsk/Desktop/devel/tee-tpm-hyp/optee_os/lib/libutils/ext/trace.c:25
     27e:	4b05      	ldr	r3, [pc, #20]	; (294 <trace_set_level+0x16>)
/home/hsk/Desktop/devel/tee-tpm-hyp/optee_os/lib/libutils/ext/trace.c:26
     280:	2804      	cmp	r0, #4
     282:	4a05      	ldr	r2, [pc, #20]	; (298 <trace_set_level+0x1a>)
/home/hsk/Desktop/devel/tee-tpm-hyp/optee_os/lib/libutils/ext/trace.c:25
     284:	447b      	add	r3, pc
     286:	589b      	ldr	r3, [r3, r2]
/home/hsk/Desktop/devel/tee-tpm-hyp/optee_os/lib/libutils/ext/trace.c:26
     288:	d801      	bhi.n	28e <trace_set_level+0x10>
/home/hsk/Desktop/devel/tee-tpm-hyp/optee_os/lib/libutils/ext/trace.c:27
     28a:	6018      	str	r0, [r3, #0]
     28c:	4770      	bx	lr
/home/hsk/Desktop/devel/tee-tpm-hyp/optee_os/lib/libutils/ext/trace.c:29
     28e:	2204      	movs	r2, #4
     290:	601a      	str	r2, [r3, #0]
/home/hsk/Desktop/devel/tee-tpm-hyp/optee_os/lib/libutils/ext/trace.c:30
     292:	4770      	bx	lr
     294:	0000922c 	.word	0x0000922c
     298:	00000010 	.word	0x00000010

0000029c <trace_get_level>:
trace_get_level():
/home/hsk/Desktop/devel/tee-tpm-hyp/optee_os/lib/libutils/ext/trace.c:33
     29c:	4b02      	ldr	r3, [pc, #8]	; (2a8 <trace_get_level+0xc>)
/home/hsk/Desktop/devel/tee-tpm-hyp/optee_os/lib/libutils/ext/trace.c:34
     29e:	4a03      	ldr	r2, [pc, #12]	; (2ac <trace_get_level+0x10>)
/home/hsk/Desktop/devel/tee-tpm-hyp/optee_os/lib/libutils/ext/trace.c:33
     2a0:	447b      	add	r3, pc
/home/hsk/Desktop/devel/tee-tpm-hyp/optee_os/lib/libutils/ext/trace.c:34
     2a2:	589b      	ldr	r3, [r3, r2]
/home/hsk/Desktop/devel/tee-tpm-hyp/optee_os/lib/libutils/ext/trace.c:35
     2a4:	6818      	ldr	r0, [r3, #0]
     2a6:	4770      	bx	lr
     2a8:	00009210 	.word	0x00009210
     2ac:	00000010 	.word	0x00000010

000002b0 <trace_printf>:
trace_printf():
/home/hsk/Desktop/devel/tee-tpm-hyp/optee_os/lib/libutils/ext/trace.c:97
     2b0:	e92d 47f0 	stmdb	sp!, {r4, r5, r6, r7, r8, r9, sl, lr}
     2b4:	4607      	mov	r7, r0
     2b6:	f8df 910c 	ldr.w	r9, [pc, #268]	; 3c4 <trace_printf+0x114>
     2ba:	b0c6      	sub	sp, #280	; 0x118
     2bc:	4688      	mov	r8, r1
     2be:	44f9      	add	r9, pc
     2c0:	4614      	mov	r4, r2
/home/hsk/Desktop/devel/tee-tpm-hyp/optee_os/lib/libutils/ext/trace.c:103
     2c2:	469a      	mov	sl, r3
     2c4:	2b00      	cmp	r3, #0
     2c6:	d06a      	beq.n	39e <trace_printf+0xee>
/home/hsk/Desktop/devel/tee-tpm-hyp/optee_os/lib/libutils/ext/trace.c:103 (discriminator 1)
     2c8:	4b3f      	ldr	r3, [pc, #252]	; (3c8 <trace_printf+0x118>)
     2ca:	f859 3003 	ldr.w	r3, [r9, r3]
     2ce:	681b      	ldr	r3, [r3, #0]
     2d0:	4293      	cmp	r3, r2
     2d2:	db61      	blt.n	398 <trace_printf+0xe8>
trace_level_to_string():
/home/hsk/Desktop/devel/tee-tpm-hyp/optee_os/lib/libutils/ext/trace.c:47
     2d4:	4613      	mov	r3, r2
     2d6:	2a05      	cmp	r2, #5
/home/hsk/Desktop/devel/tee-tpm-hyp/optee_os/lib/libutils/ext/trace.c:55
     2d8:	4a3c      	ldr	r2, [pc, #240]	; (3cc <trace_printf+0x11c>)
/home/hsk/Desktop/devel/tee-tpm-hyp/optee_os/lib/libutils/ext/trace.c:47
     2da:	bf28      	it	cs
     2dc:	2300      	movcs	r3, #0
/home/hsk/Desktop/devel/tee-tpm-hyp/optee_os/lib/libutils/ext/trace.c:55
     2de:	447a      	add	r2, pc
     2e0:	5cd3      	ldrb	r3, [r2, r3]
trace_printf():
/home/hsk/Desktop/devel/tee-tpm-hyp/optee_os/lib/libutils/ext/trace.c:107
     2e2:	4a3b      	ldr	r2, [pc, #236]	; (3d0 <trace_printf+0x120>)
     2e4:	ad06      	add	r5, sp, #24
     2e6:	f44f 7180 	mov.w	r1, #256	; 0x100
     2ea:	4628      	mov	r0, r5
     2ec:	447a      	add	r2, pc
     2ee:	f000 fc7e 	bl	bee <snprintk>
/home/hsk/Desktop/devel/tee-tpm-hyp/optee_os/lib/libutils/ext/trace.c:109
     2f2:	1e06      	subs	r6, r0, #0
     2f4:	db50      	blt.n	398 <trace_printf+0xe8>
/home/hsk/Desktop/devel/tee-tpm-hyp/optee_os/lib/libutils/ext/trace.c:114
     2f6:	4b37      	ldr	r3, [pc, #220]	; (3d4 <trace_printf+0x124>)
     2f8:	f5c6 7180 	rsb	r1, r6, #256	; 0x100
     2fc:	4a36      	ldr	r2, [pc, #216]	; (3d8 <trace_printf+0x128>)
     2fe:	19a8      	adds	r0, r5, r6
     300:	447a      	add	r2, pc
     302:	f859 3003 	ldr.w	r3, [r9, r3]
     306:	9303      	str	r3, [sp, #12]
     308:	f000 fc71 	bl	bee <snprintk>
/home/hsk/Desktop/devel/tee-tpm-hyp/optee_os/lib/libutils/ext/trace.c:116
     30c:	2800      	cmp	r0, #0
     30e:	db43      	blt.n	398 <trace_printf+0xe8>
/home/hsk/Desktop/devel/tee-tpm-hyp/optee_os/lib/libutils/ext/trace.c:118
     310:	4406      	add	r6, r0
/home/hsk/Desktop/devel/tee-tpm-hyp/optee_os/lib/libutils/ext/trace.c:120
     312:	f1ba 0f00 	cmp.w	sl, #0
     316:	d04b      	beq.n	3b0 <trace_printf+0x100>
/home/hsk/Desktop/devel/tee-tpm-hyp/optee_os/lib/libutils/ext/trace.c:120 (discriminator 1)
     318:	231a      	movs	r3, #26
     31a:	fa23 f404 	lsr.w	r4, r3, r4
     31e:	07e3      	lsls	r3, r4, #31
     320:	d546      	bpl.n	3b0 <trace_printf+0x100>
print_thread_id():
/home/hsk/Desktop/devel/tee-tpm-hyp/optee_os/lib/libutils/ext/trace.c:65
     322:	f000 fc93 	bl	c4c <trace_ext_get_thread_id>
trace_printf():
/home/hsk/Desktop/devel/tee-tpm-hyp/optee_os/lib/libutils/ext/trace.c:122
     326:	19ac      	adds	r4, r5, r6
     328:	f5c6 7980 	rsb	r9, r6, #256	; 0x100
print_thread_id():
/home/hsk/Desktop/devel/tee-tpm-hyp/optee_os/lib/libutils/ext/trace.c:67
     32c:	2800      	cmp	r0, #0
     32e:	db38      	blt.n	3a2 <trace_printf+0xf2>
/home/hsk/Desktop/devel/tee-tpm-hyp/optee_os/lib/libutils/ext/trace.c:68
     330:	4a2a      	ldr	r2, [pc, #168]	; (3dc <trace_printf+0x12c>)
     332:	2301      	movs	r3, #1
     334:	9000      	str	r0, [sp, #0]
     336:	447a      	add	r2, pc
/home/hsk/Desktop/devel/tee-tpm-hyp/optee_os/lib/libutils/ext/trace.c:70
     338:	4649      	mov	r1, r9
     33a:	4620      	mov	r0, r4
     33c:	f000 fc57 	bl	bee <snprintk>
trace_printf():
/home/hsk/Desktop/devel/tee-tpm-hyp/optee_os/lib/libutils/ext/trace.c:129
     340:	2800      	cmp	r0, #0
     342:	db29      	blt.n	398 <trace_printf+0xe8>
/home/hsk/Desktop/devel/tee-tpm-hyp/optee_os/lib/libutils/ext/trace.c:131
     344:	1984      	adds	r4, r0, r6
/home/hsk/Desktop/devel/tee-tpm-hyp/optee_os/lib/libutils/ext/trace.c:133
     346:	b167      	cbz	r7, 362 <trace_printf+0xb2>
/home/hsk/Desktop/devel/tee-tpm-hyp/optee_os/lib/libutils/ext/trace.c:134
     348:	4a25      	ldr	r2, [pc, #148]	; (3e0 <trace_printf+0x130>)
     34a:	463b      	mov	r3, r7
     34c:	f8cd 8000 	str.w	r8, [sp]
     350:	f5c4 7180 	rsb	r1, r4, #256	; 0x100
     354:	447a      	add	r2, pc
     356:	1928      	adds	r0, r5, r4
     358:	f000 fc49 	bl	bee <snprintk>
/home/hsk/Desktop/devel/tee-tpm-hyp/optee_os/lib/libutils/ext/trace.c:136
     35c:	2800      	cmp	r0, #0
     35e:	db1b      	blt.n	398 <trace_printf+0xe8>
/home/hsk/Desktop/devel/tee-tpm-hyp/optee_os/lib/libutils/ext/trace.c:138
     360:	4404      	add	r4, r0
/home/hsk/Desktop/devel/tee-tpm-hyp/optee_os/lib/libutils/ext/trace.c:148
     362:	ab4f      	add	r3, sp, #316	; 0x13c
/home/hsk/Desktop/devel/tee-tpm-hyp/optee_os/lib/libutils/ext/trace.c:149
     364:	f5c4 7180 	rsb	r1, r4, #256	; 0x100
     368:	1928      	adds	r0, r5, r4
     36a:	9a4e      	ldr	r2, [sp, #312]	; 0x138
/home/hsk/Desktop/devel/tee-tpm-hyp/optee_os/lib/libutils/ext/trace.c:148
     36c:	9305      	str	r3, [sp, #20]
/home/hsk/Desktop/devel/tee-tpm-hyp/optee_os/lib/libutils/ext/trace.c:149
     36e:	f000 fc37 	bl	be0 <vsnprintk>
/home/hsk/Desktop/devel/tee-tpm-hyp/optee_os/lib/libutils/ext/trace.c:151
     372:	2800      	cmp	r0, #0
/home/hsk/Desktop/devel/tee-tpm-hyp/optee_os/lib/libutils/ext/trace.c:157
     374:	f04f 030a 	mov.w	r3, #10
/home/hsk/Desktop/devel/tee-tpm-hyp/optee_os/lib/libutils/ext/trace.c:152
     378:	bfc8      	it	gt
     37a:	1824      	addgt	r4, r4, r0
     37c:	2cfe      	cmp	r4, #254	; 0xfe
     37e:	bf28      	it	cs
     380:	24fe      	movcs	r4, #254	; 0xfe
/home/hsk/Desktop/devel/tee-tpm-hyp/optee_os/lib/libutils/ext/trace.c:157
     382:	552b      	strb	r3, [r5, r4]
/home/hsk/Desktop/devel/tee-tpm-hyp/optee_os/lib/libutils/ext/trace.c:158
     384:	b114      	cbz	r4, 38c <trace_printf+0xdc>
/home/hsk/Desktop/devel/tee-tpm-hyp/optee_os/lib/libutils/ext/trace.c:158 (discriminator 1)
     386:	5d2b      	ldrb	r3, [r5, r4]
     388:	2b0a      	cmp	r3, #10
     38a:	d019      	beq.n	3c0 <trace_printf+0x110>
/home/hsk/Desktop/devel/tee-tpm-hyp/optee_os/lib/libutils/ext/trace.c:161
     38c:	442c      	add	r4, r5
/home/hsk/Desktop/devel/tee-tpm-hyp/optee_os/lib/libutils/ext/trace.c:163
     38e:	4628      	mov	r0, r5
/home/hsk/Desktop/devel/tee-tpm-hyp/optee_os/lib/libutils/ext/trace.c:161
     390:	2300      	movs	r3, #0
     392:	70a3      	strb	r3, [r4, #2]
/home/hsk/Desktop/devel/tee-tpm-hyp/optee_os/lib/libutils/ext/trace.c:163
     394:	f000 fc50 	bl	c38 <trace_ext_puts>
/home/hsk/Desktop/devel/tee-tpm-hyp/optee_os/lib/libutils/ext/trace.c:164
     398:	b046      	add	sp, #280	; 0x118
     39a:	e8bd 87f0 	ldmia.w	sp!, {r4, r5, r6, r7, r8, r9, sl, pc}
trace_level_to_string():
/home/hsk/Desktop/devel/tee-tpm-hyp/optee_os/lib/libutils/ext/trace.c:50
     39e:	234d      	movs	r3, #77	; 0x4d
     3a0:	e79f      	b.n	2e2 <trace_printf+0x32>
print_thread_id():
/home/hsk/Desktop/devel/tee-tpm-hyp/optee_os/lib/libutils/ext/trace.c:70
     3a2:	4b10      	ldr	r3, [pc, #64]	; (3e4 <trace_printf+0x134>)
     3a4:	4a10      	ldr	r2, [pc, #64]	; (3e8 <trace_printf+0x138>)
     3a6:	447b      	add	r3, pc
     3a8:	9300      	str	r3, [sp, #0]
     3aa:	447a      	add	r2, pc
     3ac:	2301      	movs	r3, #1
     3ae:	e7c3      	b.n	338 <trace_printf+0x88>
trace_printf():
/home/hsk/Desktop/devel/tee-tpm-hyp/optee_os/lib/libutils/ext/trace.c:142
     3b0:	2efe      	cmp	r6, #254	; 0xfe
     3b2:	d8f1      	bhi.n	398 <trace_printf+0xe8>
/home/hsk/Desktop/devel/tee-tpm-hyp/optee_os/lib/libutils/ext/trace.c:144
     3b4:	1c74      	adds	r4, r6, #1
     3b6:	2320      	movs	r3, #32
     3b8:	55ab      	strb	r3, [r5, r6]
/home/hsk/Desktop/devel/tee-tpm-hyp/optee_os/lib/libutils/ext/trace.c:145
     3ba:	2300      	movs	r3, #0
     3bc:	552b      	strb	r3, [r5, r4]
     3be:	e7d0      	b.n	362 <trace_printf+0xb2>
/home/hsk/Desktop/devel/tee-tpm-hyp/optee_os/lib/libutils/ext/trace.c:159
     3c0:	3c01      	subs	r4, #1
     3c2:	e7df      	b.n	384 <trace_printf+0xd4>
     3c4:	000091f2 	.word	0x000091f2
     3c8:	00000010 	.word	0x00000010
     3cc:	00007dd6 	.word	0x00007dd6
     3d0:	00007dd7 	.word	0x00007dd7
     3d4:	00000018 	.word	0x00000018
     3d8:	00007dc7 	.word	0x00007dc7
     3dc:	00007d95 	.word	0x00007d95
     3e0:	00007d82 	.word	0x00007d82
     3e4:	00008443 	.word	0x00008443
     3e8:	00007d27 	.word	0x00007d27

000003ec <dhex_dump>:
dhex_dump():
/home/hsk/Desktop/devel/tee-tpm-hyp/optee_os/lib/libutils/ext/trace.c:225
     3ec:	e92d 4ff0 	stmdb	sp!, {r4, r5, r6, r7, r8, r9, sl, fp, lr}
     3f0:	4617      	mov	r7, r2
     3f2:	4a33      	ldr	r2, [pc, #204]	; (4c0 <dhex_dump+0xd4>)
     3f4:	4689      	mov	r9, r1
/home/hsk/Desktop/devel/tee-tpm-hyp/optee_os/lib/libutils/ext/trace.c:231
     3f6:	4933      	ldr	r1, [pc, #204]	; (4c4 <dhex_dump+0xd8>)
/home/hsk/Desktop/devel/tee-tpm-hyp/optee_os/lib/libutils/ext/trace.c:225
     3f8:	447a      	add	r2, pc
     3fa:	b0c7      	sub	sp, #284	; 0x11c
     3fc:	4680      	mov	r8, r0
/home/hsk/Desktop/devel/tee-tpm-hyp/optee_os/lib/libutils/ext/trace.c:231
     3fe:	5852      	ldr	r2, [r2, r1]
     400:	6812      	ldr	r2, [r2, #0]
     402:	42ba      	cmp	r2, r7
     404:	db1d      	blt.n	442 <dhex_dump+0x56>
     406:	461e      	mov	r6, r3
/home/hsk/Desktop/devel/tee-tpm-hyp/optee_os/lib/libutils/ext/trace.c:240
     408:	4b2f      	ldr	r3, [pc, #188]	; (4c8 <dhex_dump+0xdc>)
/home/hsk/Desktop/devel/tee-tpm-hyp/optee_os/lib/libutils/ext/trace.c:232
     40a:	ac05      	add	r4, sp, #20
/home/hsk/Desktop/devel/tee-tpm-hyp/optee_os/lib/libutils/ext/trace.c:235
     40c:	f8df b0bc 	ldr.w	fp, [pc, #188]	; 4cc <dhex_dump+0xe0>
/home/hsk/Desktop/devel/tee-tpm-hyp/optee_os/lib/libutils/ext/trace.c:240
     410:	447b      	add	r3, pc
     412:	9302      	str	r3, [sp, #8]
/home/hsk/Desktop/devel/tee-tpm-hyp/optee_os/lib/libutils/ext/trace.c:248
     414:	4b2e      	ldr	r3, [pc, #184]	; (4d0 <dhex_dump+0xe4>)
/home/hsk/Desktop/devel/tee-tpm-hyp/optee_os/lib/libutils/ext/trace.c:235
     416:	44fb      	add	fp, pc
/home/hsk/Desktop/devel/tee-tpm-hyp/optee_os/lib/libutils/ext/trace.c:232
     418:	2500      	movs	r5, #0
     41a:	f8c4 5100 	str.w	r5, [r4, #256]	; 0x100
/home/hsk/Desktop/devel/tee-tpm-hyp/optee_os/lib/libutils/ext/trace.c:248
     41e:	447b      	add	r3, pc
     420:	9303      	str	r3, [sp, #12]
/home/hsk/Desktop/devel/tee-tpm-hyp/optee_os/lib/libutils/ext/trace.c:233 (discriminator 1)
     422:	9b50      	ldr	r3, [sp, #320]	; 0x140
     424:	429d      	cmp	r5, r3
     426:	db0f      	blt.n	448 <dhex_dump+0x5c>
/home/hsk/Desktop/devel/tee-tpm-hyp/optee_os/lib/libutils/ext/trace.c:253
     428:	f8d4 3100 	ldr.w	r3, [r4, #256]	; 0x100
     42c:	b14b      	cbz	r3, 442 <dhex_dump+0x56>
/home/hsk/Desktop/devel/tee-tpm-hyp/optee_os/lib/libutils/ext/trace.c:255
     42e:	4b29      	ldr	r3, [pc, #164]	; (4d4 <dhex_dump+0xe8>)
     430:	463a      	mov	r2, r7
     432:	9401      	str	r4, [sp, #4]
     434:	4649      	mov	r1, r9
     436:	447b      	add	r3, pc
     438:	4640      	mov	r0, r8
     43a:	9300      	str	r3, [sp, #0]
     43c:	2301      	movs	r3, #1
     43e:	f7ff ff37 	bl	2b0 <trace_printf>
/home/hsk/Desktop/devel/tee-tpm-hyp/optee_os/lib/libutils/ext/trace.c:263
     442:	b047      	add	sp, #284	; 0x11c
     444:	e8bd 8ff0 	ldmia.w	sp!, {r4, r5, r6, r7, r8, r9, sl, fp, pc}
/home/hsk/Desktop/devel/tee-tpm-hyp/optee_os/lib/libutils/ext/trace.c:234
     448:	f015 0a0f 	ands.w	sl, r5, #15
     44c:	d013      	beq.n	476 <dhex_dump+0x8a>
/home/hsk/Desktop/devel/tee-tpm-hyp/optee_os/lib/libutils/ext/trace.c:240
     44e:	f816 2b01 	ldrb.w	r2, [r6], #1
     452:	4620      	mov	r0, r4
     454:	9902      	ldr	r1, [sp, #8]
     456:	f7ff feeb 	bl	230 <append>
/home/hsk/Desktop/devel/tee-tpm-hyp/optee_os/lib/libutils/ext/trace.c:241
     45a:	b9a8      	cbnz	r0, 488 <dhex_dump+0x9c>
/home/hsk/Desktop/devel/tee-tpm-hyp/optee_os/lib/libutils/ext/trace.c:262
     45c:	481e      	ldr	r0, [pc, #120]	; (4d8 <dhex_dump+0xec>)
     45e:	2203      	movs	r2, #3
     460:	4b1e      	ldr	r3, [pc, #120]	; (4dc <dhex_dump+0xf0>)
     462:	f44f 7183 	mov.w	r1, #262	; 0x106
     466:	4478      	add	r0, pc
     468:	447b      	add	r3, pc
     46a:	3005      	adds	r0, #5
     46c:	9300      	str	r3, [sp, #0]
     46e:	2301      	movs	r3, #1
     470:	f7ff ff1e 	bl	2b0 <trace_printf>
     474:	e7e5      	b.n	442 <dhex_dump+0x56>
/home/hsk/Desktop/devel/tee-tpm-hyp/optee_os/lib/libutils/ext/trace.c:235
     476:	4633      	mov	r3, r6
     478:	2208      	movs	r2, #8
     47a:	4659      	mov	r1, fp
     47c:	4620      	mov	r0, r4
     47e:	f7ff fed7 	bl	230 <append>
/home/hsk/Desktop/devel/tee-tpm-hyp/optee_os/lib/libutils/ext/trace.c:237
     482:	2800      	cmp	r0, #0
     484:	d1e3      	bne.n	44e <dhex_dump+0x62>
     486:	e7e9      	b.n	45c <dhex_dump+0x70>
/home/hsk/Desktop/devel/tee-tpm-hyp/optee_os/lib/libutils/ext/trace.c:243
     488:	f1ba 0f07 	cmp.w	sl, #7
     48c:	d108      	bne.n	4a0 <dhex_dump+0xb4>
/home/hsk/Desktop/devel/tee-tpm-hyp/optee_os/lib/libutils/ext/trace.c:244
     48e:	4914      	ldr	r1, [pc, #80]	; (4e0 <dhex_dump+0xf4>)
     490:	4620      	mov	r0, r4
     492:	4479      	add	r1, pc
     494:	f7ff fecc 	bl	230 <append>
/home/hsk/Desktop/devel/tee-tpm-hyp/optee_os/lib/libutils/ext/trace.c:245
     498:	2800      	cmp	r0, #0
     49a:	d0df      	beq.n	45c <dhex_dump+0x70>
/home/hsk/Desktop/devel/tee-tpm-hyp/optee_os/lib/libutils/ext/trace.c:233 (discriminator 2)
     49c:	3501      	adds	r5, #1
     49e:	e7c0      	b.n	422 <dhex_dump+0x36>
/home/hsk/Desktop/devel/tee-tpm-hyp/optee_os/lib/libutils/ext/trace.c:247
     4a0:	f1ba 0f0f 	cmp.w	sl, #15
     4a4:	d1fa      	bne.n	49c <dhex_dump+0xb0>
/home/hsk/Desktop/devel/tee-tpm-hyp/optee_os/lib/libutils/ext/trace.c:248
     4a6:	9b03      	ldr	r3, [sp, #12]
     4a8:	463a      	mov	r2, r7
     4aa:	9300      	str	r3, [sp, #0]
     4ac:	4649      	mov	r1, r9
     4ae:	2301      	movs	r3, #1
     4b0:	9401      	str	r4, [sp, #4]
     4b2:	4640      	mov	r0, r8
     4b4:	f7ff fefc 	bl	2b0 <trace_printf>
/home/hsk/Desktop/devel/tee-tpm-hyp/optee_os/lib/libutils/ext/trace.c:250
     4b8:	2300      	movs	r3, #0
     4ba:	f8c4 3100 	str.w	r3, [r4, #256]	; 0x100
     4be:	e7ed      	b.n	49c <dhex_dump+0xb0>
     4c0:	000090b8 	.word	0x000090b8
     4c4:	00000010 	.word	0x00000010
     4c8:	00007ccd 	.word	0x00007ccd
     4cc:	00007ccd 	.word	0x00007ccd
     4d0:	00007ccd 	.word	0x00007ccd
     4d4:	00007cb5 	.word	0x00007cb5
     4d8:	00007c4e 	.word	0x00007c4e
     4dc:	00007c86 	.word	0x00007c86
     4e0:	00007c57 	.word	0x00007c57

000004e4 <__vsnprintf>:
__vsnprintf():
/home/hsk/Desktop/devel/tee-tpm-hyp/optee_os/lib/libutils/ext/snprintk.c:137
     4e4:	e92d 4ff0 	stmdb	sp!, {r4, r5, r6, r7, r8, r9, sl, fp, lr}
/home/hsk/Desktop/devel/tee-tpm-hyp/optee_os/lib/libutils/ext/snprintk.c:141
     4e8:	4607      	mov	r7, r0
     4ea:	469b      	mov	fp, r3
/home/hsk/Desktop/devel/tee-tpm-hyp/optee_os/lib/libutils/ext/snprintk.c:137
     4ec:	b09f      	sub	sp, #124	; 0x7c
kprintf():
/home/hsk/Desktop/devel/tee-tpm-hyp/optee_os/lib/libutils/ext/snprintk.c:269
     4ee:	2300      	movs	r3, #0
__vsnprintf():
/home/hsk/Desktop/devel/tee-tpm-hyp/optee_os/lib/libutils/ext/snprintk.c:137
     4f0:	920b      	str	r2, [sp, #44]	; 0x2c
     4f2:	f89d 20a0 	ldrb.w	r2, [sp, #160]	; 0xa0
     4f6:	9213      	str	r2, [sp, #76]	; 0x4c
/home/hsk/Desktop/devel/tee-tpm-hyp/optee_os/lib/libutils/ext/snprintk.c:141
     4f8:	4602      	mov	r2, r0
     4fa:	440a      	add	r2, r1
/home/hsk/Desktop/devel/tee-tpm-hyp/optee_os/lib/libutils/ext/snprintk.c:137
     4fc:	9010      	str	r0, [sp, #64]	; 0x40
     4fe:	9112      	str	r1, [sp, #72]	; 0x48
/home/hsk/Desktop/devel/tee-tpm-hyp/optee_os/lib/libutils/ext/snprintk.c:141
     500:	920e      	str	r2, [sp, #56]	; 0x38
kprintf():
/home/hsk/Desktop/devel/tee-tpm-hyp/optee_os/lib/libutils/ext/snprintk.c:269
     502:	930f      	str	r3, [sp, #60]	; 0x3c
/home/hsk/Desktop/devel/tee-tpm-hyp/optee_os/lib/libutils/ext/snprintk.c:267
     504:	930c      	str	r3, [sp, #48]	; 0x30
/home/hsk/Desktop/devel/tee-tpm-hyp/optee_os/lib/libutils/ext/snprintk.c:275
     506:	9b0b      	ldr	r3, [sp, #44]	; 0x2c
     508:	781b      	ldrb	r3, [r3, #0]
     50a:	2b25      	cmp	r3, #37	; 0x25
     50c:	d021      	beq.n	552 <__vsnprintf+0x6e>
     50e:	b99b      	cbnz	r3, 538 <__vsnprintf+0x54>
__vsnprintf():
/home/hsk/Desktop/devel/tee-tpm-hyp/optee_os/lib/libutils/ext/snprintk.c:143
     510:	9b10      	ldr	r3, [sp, #64]	; 0x40
     512:	b16b      	cbz	r3, 530 <__vsnprintf+0x4c>
/home/hsk/Desktop/devel/tee-tpm-hyp/optee_os/lib/libutils/ext/snprintk.c:143 (discriminator 1)
     514:	9b12      	ldr	r3, [sp, #72]	; 0x48
     516:	b15b      	cbz	r3, 530 <__vsnprintf+0x4c>
/home/hsk/Desktop/devel/tee-tpm-hyp/optee_os/lib/libutils/ext/snprintk.c:145
     518:	9b0c      	ldr	r3, [sp, #48]	; 0x30
     51a:	9a12      	ldr	r2, [sp, #72]	; 0x48
     51c:	4293      	cmp	r3, r2
     51e:	f04f 0300 	mov.w	r3, #0
/home/hsk/Desktop/devel/tee-tpm-hyp/optee_os/lib/libutils/ext/snprintk.c:146
     522:	9a10      	ldr	r2, [sp, #64]	; 0x40
/home/hsk/Desktop/devel/tee-tpm-hyp/optee_os/lib/libutils/ext/snprintk.c:145
     524:	f0c0 8341 	bcc.w	baa <__vsnprintf+0x6c6>
/home/hsk/Desktop/devel/tee-tpm-hyp/optee_os/lib/libutils/ext/snprintk.c:146
     528:	9912      	ldr	r1, [sp, #72]	; 0x48
     52a:	440a      	add	r2, r1
     52c:	f802 3c01 	strb.w	r3, [r2, #-1]
/home/hsk/Desktop/devel/tee-tpm-hyp/optee_os/lib/libutils/ext/snprintk.c:151
     530:	980c      	ldr	r0, [sp, #48]	; 0x30
     532:	b01f      	add	sp, #124	; 0x7c
     534:	e8bd 8ff0 	ldmia.w	sp!, {r4, r5, r6, r7, r8, r9, sl, fp, pc}
kprintf():
/home/hsk/Desktop/devel/tee-tpm-hyp/optee_os/lib/libutils/ext/snprintk.c:276
     538:	9a0c      	ldr	r2, [sp, #48]	; 0x30
     53a:	3201      	adds	r2, #1
     53c:	920c      	str	r2, [sp, #48]	; 0x30
/home/hsk/Desktop/devel/tee-tpm-hyp/optee_os/lib/libutils/ext/snprintk.c:277
     53e:	b127      	cbz	r7, 54a <__vsnprintf+0x66>
     540:	9a0e      	ldr	r2, [sp, #56]	; 0x38
     542:	42ba      	cmp	r2, r7
     544:	d901      	bls.n	54a <__vsnprintf+0x66>
     546:	703b      	strb	r3, [r7, #0]
     548:	3701      	adds	r7, #1
/home/hsk/Desktop/devel/tee-tpm-hyp/optee_os/lib/libutils/ext/snprintk.c:275
     54a:	9b0b      	ldr	r3, [sp, #44]	; 0x2c
     54c:	3301      	adds	r3, #1
     54e:	930b      	str	r3, [sp, #44]	; 0x2c
     550:	e7d9      	b.n	506 <__vsnprintf+0x22>
/home/hsk/Desktop/devel/tee-tpm-hyp/optee_os/lib/libutils/ext/snprintk.c:282
     552:	9b0b      	ldr	r3, [sp, #44]	; 0x2c
/home/hsk/Desktop/devel/tee-tpm-hyp/optee_os/lib/libutils/ext/snprintk.c:288
     554:	f04f 0900 	mov.w	r9, #0
/home/hsk/Desktop/devel/tee-tpm-hyp/optee_os/lib/libutils/ext/snprintk.c:284
     558:	464e      	mov	r6, r9
/home/hsk/Desktop/devel/tee-tpm-hyp/optee_os/lib/libutils/ext/snprintk.c:287
     55a:	f04f 32ff 	mov.w	r2, #4294967295	; 0xffffffff
/home/hsk/Desktop/devel/tee-tpm-hyp/optee_os/lib/libutils/ext/snprintk.c:282
     55e:	3301      	adds	r3, #1
     560:	930b      	str	r3, [sp, #44]	; 0x2c
     562:	465b      	mov	r3, fp
/home/hsk/Desktop/devel/tee-tpm-hyp/optee_os/lib/libutils/ext/snprintk.c:287
     564:	920a      	str	r2, [sp, #40]	; 0x28
/home/hsk/Desktop/devel/tee-tpm-hyp/optee_os/lib/libutils/ext/snprintk.c:286
     566:	f8cd 9034 	str.w	r9, [sp, #52]	; 0x34
/home/hsk/Desktop/devel/tee-tpm-hyp/optee_os/lib/libutils/ext/snprintk.c:290
     56a:	9a0b      	ldr	r2, [sp, #44]	; 0x2c
     56c:	3201      	adds	r2, #1
     56e:	f812 8c01 	ldrb.w	r8, [r2, #-1]
/home/hsk/Desktop/devel/tee-tpm-hyp/optee_os/lib/libutils/ext/snprintk.c:319
     572:	920b      	str	r2, [sp, #44]	; 0x2c
/home/hsk/Desktop/devel/tee-tpm-hyp/optee_os/lib/libutils/ext/snprintk.c:291
     574:	f1b8 0f63 	cmp.w	r8, #99	; 0x63
     578:	f000 8166 	beq.w	848 <__vsnprintf+0x364>
     57c:	dc61      	bgt.n	642 <__vsnprintf+0x15e>
     57e:	f1b8 0f30 	cmp.w	r8, #48	; 0x30
     582:	f000 814b 	beq.w	81c <__vsnprintf+0x338>
     586:	dc25      	bgt.n	5d4 <__vsnprintf+0xf0>
     588:	f1b8 0f2a 	cmp.w	r8, #42	; 0x2a
     58c:	f000 811c 	beq.w	7c8 <__vsnprintf+0x2e4>
     590:	dc13      	bgt.n	5ba <__vsnprintf+0xd6>
     592:	f1b8 0f20 	cmp.w	r8, #32
     596:	f000 810d 	beq.w	7b4 <__vsnprintf+0x2d0>
     59a:	f1b8 0f23 	cmp.w	r8, #35	; 0x23
     59e:	f000 8110 	beq.w	7c2 <__vsnprintf+0x2de>
/home/hsk/Desktop/devel/tee-tpm-hyp/optee_os/lib/libutils/ext/snprintk.c:541
     5a2:	f1b8 0f00 	cmp.w	r8, #0
     5a6:	d0b3      	beq.n	510 <__vsnprintf+0x2c>
/home/hsk/Desktop/devel/tee-tpm-hyp/optee_os/lib/libutils/ext/snprintk.c:545
     5a8:	f10d 0a78 	add.w	sl, sp, #120	; 0x78
     5ac:	469b      	mov	fp, r3
/home/hsk/Desktop/devel/tee-tpm-hyp/optee_os/lib/libutils/ext/snprintk.c:546
     5ae:	2301      	movs	r3, #1
/home/hsk/Desktop/devel/tee-tpm-hyp/optee_os/lib/libutils/ext/snprintk.c:545
     5b0:	f80a 8d28 	strb.w	r8, [sl, #-40]!
     5b4:	e090      	b.n	6d8 <__vsnprintf+0x1f4>
/home/hsk/Desktop/devel/tee-tpm-hyp/optee_os/lib/libutils/ext/snprintk.c:311
     5b6:	4613      	mov	r3, r2
     5b8:	e7d7      	b.n	56a <__vsnprintf+0x86>
/home/hsk/Desktop/devel/tee-tpm-hyp/optee_os/lib/libutils/ext/snprintk.c:291
     5ba:	f1b8 0f2d 	cmp.w	r8, #45	; 0x2d
     5be:	f000 810c 	beq.w	7da <__vsnprintf+0x2f6>
     5c2:	f1b8 0f2e 	cmp.w	r8, #46	; 0x2e
     5c6:	f000 810b 	beq.w	7e0 <__vsnprintf+0x2fc>
     5ca:	f1b8 0f2b 	cmp.w	r8, #43	; 0x2b
     5ce:	d1e8      	bne.n	5a2 <__vsnprintf+0xbe>
/home/hsk/Desktop/devel/tee-tpm-hyp/optee_os/lib/libutils/ext/snprintk.c:319
     5d0:	46c1      	mov	r9, r8
     5d2:	e7ca      	b.n	56a <__vsnprintf+0x86>
/home/hsk/Desktop/devel/tee-tpm-hyp/optee_os/lib/libutils/ext/snprintk.c:291
     5d4:	f1b8 0f44 	cmp.w	r8, #68	; 0x44
     5d8:	f000 818a 	beq.w	8f0 <__vsnprintf+0x40c>
     5dc:	dc13      	bgt.n	606 <__vsnprintf+0x122>
     5de:	f1b8 0f39 	cmp.w	r8, #57	; 0x39
     5e2:	dcde      	bgt.n	5a2 <__vsnprintf+0xbe>
     5e4:	9a0b      	ldr	r2, [sp, #44]	; 0x2c
/home/hsk/Desktop/devel/tee-tpm-hyp/optee_os/lib/libutils/ext/snprintk.c:344
     5e6:	2100      	movs	r1, #0
     5e8:	910d      	str	r1, [sp, #52]	; 0x34
/home/hsk/Desktop/devel/tee-tpm-hyp/optee_os/lib/libutils/ext/snprintk.c:346
     5ea:	990d      	ldr	r1, [sp, #52]	; 0x34
     5ec:	f1a8 0830 	sub.w	r8, r8, #48	; 0x30
     5f0:	200a      	movs	r0, #10
     5f2:	fb00 8101 	mla	r1, r0, r1, r8
/home/hsk/Desktop/devel/tee-tpm-hyp/optee_os/lib/libutils/ext/snprintk.c:347
     5f6:	f812 8b01 	ldrb.w	r8, [r2], #1
/home/hsk/Desktop/devel/tee-tpm-hyp/optee_os/lib/libutils/ext/snprintk.c:346
     5fa:	910d      	str	r1, [sp, #52]	; 0x34
/home/hsk/Desktop/devel/tee-tpm-hyp/optee_os/lib/libutils/ext/snprintk.c:348
     5fc:	f1a8 0130 	sub.w	r1, r8, #48	; 0x30
     600:	2909      	cmp	r1, #9
     602:	d9f2      	bls.n	5ea <__vsnprintf+0x106>
     604:	e7b5      	b.n	572 <__vsnprintf+0x8e>
/home/hsk/Desktop/devel/tee-tpm-hyp/optee_os/lib/libutils/ext/snprintk.c:291
     606:	f1b8 0f55 	cmp.w	r8, #85	; 0x55
     60a:	f000 8228 	beq.w	a5e <__vsnprintf+0x57a>
     60e:	f1b8 0f58 	cmp.w	r8, #88	; 0x58
     612:	d07d      	beq.n	710 <__vsnprintf+0x22c>
     614:	f1b8 0f4f 	cmp.w	r8, #79	; 0x4f
     618:	d1c3      	bne.n	5a2 <__vsnprintf+0xbe>
/home/hsk/Desktop/devel/tee-tpm-hyp/optee_os/lib/libutils/ext/snprintk.c:408
     61a:	f046 0610 	orr.w	r6, r6, #16
/home/hsk/Desktop/devel/tee-tpm-hyp/optee_os/lib/libutils/ext/snprintk.c:411
     61e:	0632      	lsls	r2, r6, #24
     620:	f140 81b2 	bpl.w	988 <__vsnprintf+0x4a4>
     624:	3307      	adds	r3, #7
     626:	f023 0307 	bic.w	r3, r3, #7
     62a:	f103 0b08 	add.w	fp, r3, #8
     62e:	e9d3 4500 	ldrd	r4, r5, [r3]
/home/hsk/Desktop/devel/tee-tpm-hyp/optee_os/lib/libutils/ext/snprintk.c:488
     632:	f04f 0900 	mov.w	r9, #0
     636:	9b0a      	ldr	r3, [sp, #40]	; 0x28
     638:	3301      	adds	r3, #1
     63a:	f000 8098 	beq.w	76e <__vsnprintf+0x28a>
     63e:	464b      	mov	r3, r9
     640:	e084      	b.n	74c <__vsnprintf+0x268>
/home/hsk/Desktop/devel/tee-tpm-hyp/optee_os/lib/libutils/ext/snprintk.c:291
     642:	f1b8 0f6f 	cmp.w	r8, #111	; 0x6f
     646:	d0ea      	beq.n	61e <__vsnprintf+0x13a>
     648:	dc1c      	bgt.n	684 <__vsnprintf+0x1a0>
     64a:	f1b8 0f69 	cmp.w	r8, #105	; 0x69
     64e:	f000 8151 	beq.w	8f4 <__vsnprintf+0x410>
     652:	dc09      	bgt.n	668 <__vsnprintf+0x184>
     654:	f1b8 0f64 	cmp.w	r8, #100	; 0x64
     658:	f000 814c 	beq.w	8f4 <__vsnprintf+0x410>
     65c:	f1b8 0f68 	cmp.w	r8, #104	; 0x68
     660:	d19f      	bne.n	5a2 <__vsnprintf+0xbe>
/home/hsk/Desktop/devel/tee-tpm-hyp/optee_os/lib/libutils/ext/snprintk.c:352
     662:	f046 0640 	orr.w	r6, r6, #64	; 0x40
     666:	e780      	b.n	56a <__vsnprintf+0x86>
/home/hsk/Desktop/devel/tee-tpm-hyp/optee_os/lib/libutils/ext/snprintk.c:291
     668:	f1b8 0f6c 	cmp.w	r8, #108	; 0x6c
     66c:	f000 80d9 	beq.w	822 <__vsnprintf+0x33e>
     670:	f1b8 0f6e 	cmp.w	r8, #110	; 0x6e
     674:	f000 816d 	beq.w	952 <__vsnprintf+0x46e>
     678:	f1b8 0f6a 	cmp.w	r8, #106	; 0x6a
     67c:	d191      	bne.n	5a2 <__vsnprintf+0xbe>
/home/hsk/Desktop/devel/tee-tpm-hyp/optee_os/lib/libutils/ext/snprintk.c:355
     67e:	f046 0680 	orr.w	r6, r6, #128	; 0x80
     682:	e772      	b.n	56a <__vsnprintf+0x86>
/home/hsk/Desktop/devel/tee-tpm-hyp/optee_os/lib/libutils/ext/snprintk.c:291
     684:	f1b8 0f74 	cmp.w	r8, #116	; 0x74
     688:	f000 80d8 	beq.w	83c <__vsnprintf+0x358>
     68c:	dc26      	bgt.n	6dc <__vsnprintf+0x1f8>
     68e:	f1b8 0f71 	cmp.w	r8, #113	; 0x71
     692:	f000 80cd 	beq.w	830 <__vsnprintf+0x34c>
     696:	f2c0 818b 	blt.w	9b0 <__vsnprintf+0x4cc>
     69a:	f1b8 0f73 	cmp.w	r8, #115	; 0x73
     69e:	d180      	bne.n	5a2 <__vsnprintf+0xbe>
/home/hsk/Desktop/devel/tee-tpm-hyp/optee_os/lib/libutils/ext/snprintk.c:442
     6a0:	f8d3 a000 	ldr.w	sl, [r3]
     6a4:	f103 0b04 	add.w	fp, r3, #4
     6a8:	f1ba 0f00 	cmp.w	sl, #0
     6ac:	d102      	bne.n	6b4 <__vsnprintf+0x1d0>
/home/hsk/Desktop/devel/tee-tpm-hyp/optee_os/lib/libutils/ext/snprintk.c:444
     6ae:	f8df a51c 	ldr.w	sl, [pc, #1308]	; bcc <__vsnprintf+0x6e8>
     6b2:	44fa      	add	sl, pc
/home/hsk/Desktop/devel/tee-tpm-hyp/optee_os/lib/libutils/ext/snprintk.c:445
     6b4:	9b0a      	ldr	r3, [sp, #40]	; 0x28
     6b6:	1c5d      	adds	r5, r3, #1
     6b8:	f000 81cd 	beq.w	a56 <__vsnprintf+0x572>
/home/hsk/Desktop/devel/tee-tpm-hyp/optee_os/lib/libutils/ext/snprintk.c:451
     6bc:	461a      	mov	r2, r3
     6be:	2100      	movs	r1, #0
     6c0:	4650      	mov	r0, sl
     6c2:	f007 f932 	bl	792a <memchr>
/home/hsk/Desktop/devel/tee-tpm-hyp/optee_os/lib/libutils/ext/snprintk.c:453
     6c6:	2800      	cmp	r0, #0
     6c8:	f000 81a2 	beq.w	a10 <__vsnprintf+0x52c>
     6cc:	9b0a      	ldr	r3, [sp, #40]	; 0x28
/home/hsk/Desktop/devel/tee-tpm-hyp/optee_os/lib/libutils/ext/snprintk.c:454
     6ce:	eba0 000a 	sub.w	r0, r0, sl
     6d2:	4283      	cmp	r3, r0
     6d4:	bfa8      	it	ge
     6d6:	4603      	movge	r3, r0
/home/hsk/Desktop/devel/tee-tpm-hyp/optee_os/lib/libutils/ext/snprintk.c:546
     6d8:	930a      	str	r3, [sp, #40]	; 0x28
     6da:	e198      	b.n	a0e <__vsnprintf+0x52a>
/home/hsk/Desktop/devel/tee-tpm-hyp/optee_os/lib/libutils/ext/snprintk.c:291
     6dc:	f1b8 0f78 	cmp.w	r8, #120	; 0x78
     6e0:	f000 81de 	beq.w	aa0 <__vsnprintf+0x5bc>
     6e4:	f1b8 0f7a 	cmp.w	r8, #122	; 0x7a
     6e8:	f000 80ab 	beq.w	842 <__vsnprintf+0x35e>
     6ec:	f1b8 0f75 	cmp.w	r8, #117	; 0x75
     6f0:	f47f af57 	bne.w	5a2 <__vsnprintf+0xbe>
/home/hsk/Desktop/devel/tee-tpm-hyp/optee_os/lib/libutils/ext/snprintk.c:467
     6f4:	f016 0280 	ands.w	r2, r6, #128	; 0x80
     6f8:	f000 81b4 	beq.w	a64 <__vsnprintf+0x580>
     6fc:	3307      	adds	r3, #7
     6fe:	f023 0307 	bic.w	r3, r3, #7
     702:	f103 0b08 	add.w	fp, r3, #8
     706:	e9d3 4500 	ldrd	r4, r5, [r3]
/home/hsk/Desktop/devel/tee-tpm-hyp/optee_os/lib/libutils/ext/snprintk.c:482
     70a:	f04f 0900 	mov.w	r9, #0
     70e:	e103      	b.n	918 <__vsnprintf+0x434>
/home/hsk/Desktop/devel/tee-tpm-hyp/optee_os/lib/libutils/ext/snprintk.c:471
     710:	f8df 24bc 	ldr.w	r2, [pc, #1212]	; bd0 <__vsnprintf+0x6ec>
     714:	447a      	add	r2, pc
/home/hsk/Desktop/devel/tee-tpm-hyp/optee_os/lib/libutils/ext/snprintk.c:474
     716:	920f      	str	r2, [sp, #60]	; 0x3c
/home/hsk/Desktop/devel/tee-tpm-hyp/optee_os/lib/libutils/ext/snprintk.c:475
     718:	0634      	lsls	r4, r6, #24
     71a:	f140 81c5 	bpl.w	aa8 <__vsnprintf+0x5c4>
     71e:	3307      	adds	r3, #7
     720:	f023 0307 	bic.w	r3, r3, #7
     724:	f103 0b08 	add.w	fp, r3, #8
     728:	e9d3 4500 	ldrd	r4, r5, [r3]
/home/hsk/Desktop/devel/tee-tpm-hyp/optee_os/lib/libutils/ext/snprintk.c:478
     72c:	07f0      	lsls	r0, r6, #31
     72e:	f140 817a 	bpl.w	a26 <__vsnprintf+0x542>
     732:	ea54 0305 	orrs.w	r3, r4, r5
     736:	f000 8241 	beq.w	bbc <__vsnprintf+0x6d8>
/home/hsk/Desktop/devel/tee-tpm-hyp/optee_os/lib/libutils/ext/snprintk.c:488
     73a:	9b0a      	ldr	r3, [sp, #40]	; 0x28
/home/hsk/Desktop/devel/tee-tpm-hyp/optee_os/lib/libutils/ext/snprintk.c:479
     73c:	f046 0602 	orr.w	r6, r6, #2
/home/hsk/Desktop/devel/tee-tpm-hyp/optee_os/lib/libutils/ext/snprintk.c:488
     740:	3301      	adds	r3, #1
     742:	f000 823e 	beq.w	bc2 <__vsnprintf+0x6de>
     746:	f04f 0900 	mov.w	r9, #0
     74a:	2302      	movs	r3, #2
/home/hsk/Desktop/devel/tee-tpm-hyp/optee_os/lib/libutils/ext/snprintk.c:489
     74c:	f426 6680 	bic.w	r6, r6, #1024	; 0x400
/home/hsk/Desktop/devel/tee-tpm-hyp/optee_os/lib/libutils/ext/snprintk.c:497
     750:	ea54 0205 	orrs.w	r2, r4, r5
     754:	d105      	bne.n	762 <__vsnprintf+0x27e>
     756:	9a0a      	ldr	r2, [sp, #40]	; 0x28
     758:	2a00      	cmp	r2, #0
     75a:	f000 81dc 	beq.w	b16 <__vsnprintf+0x632>
     75e:	2400      	movs	r4, #0
     760:	2500      	movs	r5, #0
/home/hsk/Desktop/devel/tee-tpm-hyp/optee_os/lib/libutils/ext/snprintk.c:503
     762:	2b01      	cmp	r3, #1
     764:	f000 80dc 	beq.w	920 <__vsnprintf+0x43c>
     768:	2b02      	cmp	r3, #2
     76a:	f000 8162 	beq.w	a32 <__vsnprintf+0x54e>
/home/hsk/Desktop/devel/tee-tpm-hyp/optee_os/lib/libutils/ext/snprintk.c:504
     76e:	f10d 0375 	add.w	r3, sp, #117	; 0x75
/home/hsk/Desktop/devel/tee-tpm-hyp/optee_os/lib/libutils/ext/snprintk.c:507
     772:	08e1      	lsrs	r1, r4, #3
     774:	08e8      	lsrs	r0, r5, #3
     776:	ea41 7145 	orr.w	r1, r1, r5, lsl #29
/home/hsk/Desktop/devel/tee-tpm-hyp/optee_os/lib/libutils/ext/snprintk.c:506
     77a:	f004 0207 	and.w	r2, r4, #7
/home/hsk/Desktop/devel/tee-tpm-hyp/optee_os/lib/libutils/ext/snprintk.c:507
     77e:	4605      	mov	r5, r0
     780:	460c      	mov	r4, r1
/home/hsk/Desktop/devel/tee-tpm-hyp/optee_os/lib/libutils/ext/snprintk.c:506
     782:	3230      	adds	r2, #48	; 0x30
     784:	f103 3aff 	add.w	sl, r3, #4294967295	; 0xffffffff
     788:	f803 2c01 	strb.w	r2, [r3, #-1]
/home/hsk/Desktop/devel/tee-tpm-hyp/optee_os/lib/libutils/ext/snprintk.c:508
     78c:	ea54 0105 	orrs.w	r1, r4, r5
     790:	f040 81a0 	bne.w	ad4 <__vsnprintf+0x5f0>
/home/hsk/Desktop/devel/tee-tpm-hyp/optee_os/lib/libutils/ext/snprintk.c:510
     794:	07f1      	lsls	r1, r6, #31
     796:	d506      	bpl.n	7a6 <__vsnprintf+0x2c2>
     798:	2a30      	cmp	r2, #48	; 0x30
     79a:	d004      	beq.n	7a6 <__vsnprintf+0x2c2>
/home/hsk/Desktop/devel/tee-tpm-hyp/optee_os/lib/libutils/ext/snprintk.c:511
     79c:	2230      	movs	r2, #48	; 0x30
     79e:	f80a 2c01 	strb.w	r2, [sl, #-1]
     7a2:	f1a3 0a02 	sub.w	sl, r3, #2
/home/hsk/Desktop/devel/tee-tpm-hyp/optee_os/lib/libutils/ext/snprintk.c:537
     7a6:	f10d 0375 	add.w	r3, sp, #117	; 0x75
     7aa:	980a      	ldr	r0, [sp, #40]	; 0x28
     7ac:	eba3 030a 	sub.w	r3, r3, sl
     7b0:	930a      	str	r3, [sp, #40]	; 0x28
     7b2:	e055      	b.n	860 <__vsnprintf+0x37c>
/home/hsk/Desktop/devel/tee-tpm-hyp/optee_os/lib/libutils/ext/snprintk.c:299
     7b4:	f1b9 0f00 	cmp.w	r9, #0
     7b8:	f04f 0220 	mov.w	r2, #32
     7bc:	bf08      	it	eq
     7be:	4691      	moveq	r9, r2
     7c0:	e6d3      	b.n	56a <__vsnprintf+0x86>
/home/hsk/Desktop/devel/tee-tpm-hyp/optee_os/lib/libutils/ext/snprintk.c:302
     7c2:	f046 0601 	orr.w	r6, r6, #1
     7c6:	e6d0      	b.n	56a <__vsnprintf+0x86>
/home/hsk/Desktop/devel/tee-tpm-hyp/optee_os/lib/libutils/ext/snprintk.c:311
     7c8:	1d1a      	adds	r2, r3, #4
     7ca:	681b      	ldr	r3, [r3, #0]
     7cc:	930d      	str	r3, [sp, #52]	; 0x34
     7ce:	2b00      	cmp	r3, #0
     7d0:	f6bf aef1 	bge.w	5b6 <__vsnprintf+0xd2>
/home/hsk/Desktop/devel/tee-tpm-hyp/optee_os/lib/libutils/ext/snprintk.c:313
     7d4:	425b      	negs	r3, r3
     7d6:	930d      	str	r3, [sp, #52]	; 0x34
/home/hsk/Desktop/devel/tee-tpm-hyp/optee_os/lib/libutils/ext/snprintk.c:311
     7d8:	4613      	mov	r3, r2
/home/hsk/Desktop/devel/tee-tpm-hyp/optee_os/lib/libutils/ext/snprintk.c:316
     7da:	f046 0604 	orr.w	r6, r6, #4
     7de:	e6c4      	b.n	56a <__vsnprintf+0x86>
/home/hsk/Desktop/devel/tee-tpm-hyp/optee_os/lib/libutils/ext/snprintk.c:322
     7e0:	990b      	ldr	r1, [sp, #44]	; 0x2c
     7e2:	9a0b      	ldr	r2, [sp, #44]	; 0x2c
     7e4:	f891 8000 	ldrb.w	r8, [r1]
     7e8:	3201      	adds	r2, #1
     7ea:	f1b8 0f2a 	cmp.w	r8, #42	; 0x2a
     7ee:	d112      	bne.n	816 <__vsnprintf+0x332>
/home/hsk/Desktop/devel/tee-tpm-hyp/optee_os/lib/libutils/ext/snprintk.c:324
     7f0:	6819      	ldr	r1, [r3, #0]
/home/hsk/Desktop/devel/tee-tpm-hyp/optee_os/lib/libutils/ext/snprintk.c:323
     7f2:	3304      	adds	r3, #4
/home/hsk/Desktop/devel/tee-tpm-hyp/optee_os/lib/libutils/ext/snprintk.c:322
     7f4:	920b      	str	r2, [sp, #44]	; 0x2c
/home/hsk/Desktop/devel/tee-tpm-hyp/optee_os/lib/libutils/ext/snprintk.c:324
     7f6:	ea41 71e1 	orr.w	r1, r1, r1, asr #31
     7fa:	910a      	str	r1, [sp, #40]	; 0x28
     7fc:	e6b5      	b.n	56a <__vsnprintf+0x86>
/home/hsk/Desktop/devel/tee-tpm-hyp/optee_os/lib/libutils/ext/snprintk.c:329
     7fe:	980a      	ldr	r0, [sp, #40]	; 0x28
     800:	240a      	movs	r4, #10
/home/hsk/Desktop/devel/tee-tpm-hyp/optee_os/lib/libutils/ext/snprintk.c:330
     802:	f812 8b01 	ldrb.w	r8, [r2], #1
/home/hsk/Desktop/devel/tee-tpm-hyp/optee_os/lib/libutils/ext/snprintk.c:329
     806:	fb04 1100 	mla	r1, r4, r0, r1
     80a:	910a      	str	r1, [sp, #40]	; 0x28
/home/hsk/Desktop/devel/tee-tpm-hyp/optee_os/lib/libutils/ext/snprintk.c:328
     80c:	f1a8 0130 	sub.w	r1, r8, #48	; 0x30
     810:	2909      	cmp	r1, #9
     812:	d9f4      	bls.n	7fe <__vsnprintf+0x31a>
     814:	e6ad      	b.n	572 <__vsnprintf+0x8e>
/home/hsk/Desktop/devel/tee-tpm-hyp/optee_os/lib/libutils/ext/snprintk.c:327
     816:	2100      	movs	r1, #0
     818:	910a      	str	r1, [sp, #40]	; 0x28
     81a:	e7f7      	b.n	80c <__vsnprintf+0x328>
/home/hsk/Desktop/devel/tee-tpm-hyp/optee_os/lib/libutils/ext/snprintk.c:340
     81c:	f446 6680 	orr.w	r6, r6, #1024	; 0x400
     820:	e6a3      	b.n	56a <__vsnprintf+0x86>
/home/hsk/Desktop/devel/tee-tpm-hyp/optee_os/lib/libutils/ext/snprintk.c:358
     822:	9a0b      	ldr	r2, [sp, #44]	; 0x2c
     824:	7812      	ldrb	r2, [r2, #0]
     826:	2a6c      	cmp	r2, #108	; 0x6c
     828:	d105      	bne.n	836 <__vsnprintf+0x352>
     82a:	9a0b      	ldr	r2, [sp, #44]	; 0x2c
     82c:	3201      	adds	r2, #1
     82e:	920b      	str	r2, [sp, #44]	; 0x2c
/home/hsk/Desktop/devel/tee-tpm-hyp/optee_os/lib/libutils/ext/snprintk.c:366
     830:	f046 0620 	orr.w	r6, r6, #32
     834:	e699      	b.n	56a <__vsnprintf+0x86>
/home/hsk/Desktop/devel/tee-tpm-hyp/optee_os/lib/libutils/ext/snprintk.c:362
     836:	f046 0610 	orr.w	r6, r6, #16
     83a:	e696      	b.n	56a <__vsnprintf+0x86>
/home/hsk/Desktop/devel/tee-tpm-hyp/optee_os/lib/libutils/ext/snprintk.c:369
     83c:	f446 7680 	orr.w	r6, r6, #256	; 0x100
     840:	e693      	b.n	56a <__vsnprintf+0x86>
/home/hsk/Desktop/devel/tee-tpm-hyp/optee_os/lib/libutils/ext/snprintk.c:372
     842:	f446 7600 	orr.w	r6, r6, #512	; 0x200
     846:	e690      	b.n	56a <__vsnprintf+0x86>
/home/hsk/Desktop/devel/tee-tpm-hyp/optee_os/lib/libutils/ext/snprintk.c:375
     848:	f10d 0a78 	add.w	sl, sp, #120	; 0x78
/home/hsk/Desktop/devel/tee-tpm-hyp/optee_os/lib/libutils/ext/snprintk.c:285
     84c:	f04f 0900 	mov.w	r9, #0
/home/hsk/Desktop/devel/tee-tpm-hyp/optee_os/lib/libutils/ext/snprintk.c:375
     850:	f103 0b04 	add.w	fp, r3, #4
/home/hsk/Desktop/devel/tee-tpm-hyp/optee_os/lib/libutils/ext/snprintk.c:377
     854:	4648      	mov	r0, r9
/home/hsk/Desktop/devel/tee-tpm-hyp/optee_os/lib/libutils/ext/snprintk.c:375
     856:	681b      	ldr	r3, [r3, #0]
     858:	f80a 3d28 	strb.w	r3, [sl, #-40]!
/home/hsk/Desktop/devel/tee-tpm-hyp/optee_os/lib/libutils/ext/snprintk.c:376
     85c:	2301      	movs	r3, #1
     85e:	930a      	str	r3, [sp, #40]	; 0x28
/home/hsk/Desktop/devel/tee-tpm-hyp/optee_os/lib/libutils/ext/snprintk.c:565
     860:	9b0a      	ldr	r3, [sp, #40]	; 0x28
     862:	4283      	cmp	r3, r0
     864:	bfb8      	it	lt
     866:	4603      	movlt	r3, r0
/home/hsk/Desktop/devel/tee-tpm-hyp/optee_os/lib/libutils/ext/snprintk.c:566
     868:	f1b9 0f00 	cmp.w	r9, #0
     86c:	f000 8156 	beq.w	b1c <__vsnprintf+0x638>
/home/hsk/Desktop/devel/tee-tpm-hyp/optee_os/lib/libutils/ext/snprintk.c:567
     870:	3301      	adds	r3, #1
/home/hsk/Desktop/devel/tee-tpm-hyp/optee_os/lib/libutils/ext/snprintk.c:572
     872:	9a0d      	ldr	r2, [sp, #52]	; 0x34
     874:	990c      	ldr	r1, [sp, #48]	; 0x30
     876:	429a      	cmp	r2, r3
     878:	bfb8      	it	lt
     87a:	461a      	movlt	r2, r3
     87c:	4411      	add	r1, r2
/home/hsk/Desktop/devel/tee-tpm-hyp/optee_os/lib/libutils/ext/snprintk.c:575
     87e:	f240 4204 	movw	r2, #1028	; 0x404
/home/hsk/Desktop/devel/tee-tpm-hyp/optee_os/lib/libutils/ext/snprintk.c:572
     882:	910c      	str	r1, [sp, #48]	; 0x30
/home/hsk/Desktop/devel/tee-tpm-hyp/optee_os/lib/libutils/ext/snprintk.c:575
     884:	ea16 0102 	ands.w	r1, r6, r2
     888:	d105      	bne.n	896 <__vsnprintf+0x3b2>
/home/hsk/Desktop/devel/tee-tpm-hyp/optee_os/lib/libutils/ext/snprintk.c:576
     88a:	9a0d      	ldr	r2, [sp, #52]	; 0x34
/home/hsk/Desktop/devel/tee-tpm-hyp/optee_os/lib/libutils/ext/snprintk.c:578
     88c:	2420      	movs	r4, #32
/home/hsk/Desktop/devel/tee-tpm-hyp/optee_os/lib/libutils/ext/snprintk.c:576
     88e:	1ad2      	subs	r2, r2, r3
/home/hsk/Desktop/devel/tee-tpm-hyp/optee_os/lib/libutils/ext/snprintk.c:577
     890:	2a00      	cmp	r2, #0
     892:	f300 8147 	bgt.w	b24 <__vsnprintf+0x640>
/home/hsk/Desktop/devel/tee-tpm-hyp/optee_os/lib/libutils/ext/snprintk.c:582
     896:	f1b9 0f00 	cmp.w	r9, #0
     89a:	f000 8153 	beq.w	b44 <__vsnprintf+0x660>
/home/hsk/Desktop/devel/tee-tpm-hyp/optee_os/lib/libutils/ext/snprintk.c:583
     89e:	2f00      	cmp	r7, #0
     8a0:	f040 8148 	bne.w	b34 <__vsnprintf+0x650>
/home/hsk/Desktop/devel/tee-tpm-hyp/optee_os/lib/libutils/ext/snprintk.c:586
     8a4:	2700      	movs	r7, #0
/home/hsk/Desktop/devel/tee-tpm-hyp/optee_os/lib/libutils/ext/snprintk.c:590
     8a6:	f5b1 6f80 	cmp.w	r1, #1024	; 0x400
     8aa:	d105      	bne.n	8b8 <__vsnprintf+0x3d4>
/home/hsk/Desktop/devel/tee-tpm-hyp/optee_os/lib/libutils/ext/snprintk.c:591
     8ac:	9a0d      	ldr	r2, [sp, #52]	; 0x34
/home/hsk/Desktop/devel/tee-tpm-hyp/optee_os/lib/libutils/ext/snprintk.c:593
     8ae:	2130      	movs	r1, #48	; 0x30
/home/hsk/Desktop/devel/tee-tpm-hyp/optee_os/lib/libutils/ext/snprintk.c:591
     8b0:	1ad2      	subs	r2, r2, r3
/home/hsk/Desktop/devel/tee-tpm-hyp/optee_os/lib/libutils/ext/snprintk.c:592
     8b2:	2a00      	cmp	r2, #0
     8b4:	f300 815e 	bgt.w	b74 <__vsnprintf+0x690>
/home/hsk/Desktop/devel/tee-tpm-hyp/optee_os/lib/libutils/ext/snprintk.c:597
     8b8:	9a0a      	ldr	r2, [sp, #40]	; 0x28
     8ba:	1a80      	subs	r0, r0, r2
/home/hsk/Desktop/devel/tee-tpm-hyp/optee_os/lib/libutils/ext/snprintk.c:599
     8bc:	2230      	movs	r2, #48	; 0x30
/home/hsk/Desktop/devel/tee-tpm-hyp/optee_os/lib/libutils/ext/snprintk.c:598
     8be:	2800      	cmp	r0, #0
     8c0:	f300 8160 	bgt.w	b84 <__vsnprintf+0x6a0>
     8c4:	2200      	movs	r2, #0
/home/hsk/Desktop/devel/tee-tpm-hyp/optee_os/lib/libutils/ext/snprintk.c:602
     8c6:	990a      	ldr	r1, [sp, #40]	; 0x28
     8c8:	428a      	cmp	r2, r1
     8ca:	f040 8163 	bne.w	b94 <__vsnprintf+0x6b0>
/home/hsk/Desktop/devel/tee-tpm-hyp/optee_os/lib/libutils/ext/snprintk.c:605
     8ce:	0772      	lsls	r2, r6, #29
     8d0:	f57f ae19 	bpl.w	506 <__vsnprintf+0x22>
/home/hsk/Desktop/devel/tee-tpm-hyp/optee_os/lib/libutils/ext/snprintk.c:606
     8d4:	9a0d      	ldr	r2, [sp, #52]	; 0x34
     8d6:	1ad3      	subs	r3, r2, r3
/home/hsk/Desktop/devel/tee-tpm-hyp/optee_os/lib/libutils/ext/snprintk.c:608
     8d8:	2220      	movs	r2, #32
/home/hsk/Desktop/devel/tee-tpm-hyp/optee_os/lib/libutils/ext/snprintk.c:607
     8da:	2b00      	cmp	r3, #0
     8dc:	f77f ae13 	ble.w	506 <__vsnprintf+0x22>
/home/hsk/Desktop/devel/tee-tpm-hyp/optee_os/lib/libutils/ext/snprintk.c:608
     8e0:	b127      	cbz	r7, 8ec <__vsnprintf+0x408>
     8e2:	990e      	ldr	r1, [sp, #56]	; 0x38
     8e4:	42b9      	cmp	r1, r7
     8e6:	d901      	bls.n	8ec <__vsnprintf+0x408>
     8e8:	703a      	strb	r2, [r7, #0]
     8ea:	3701      	adds	r7, #1
     8ec:	3b01      	subs	r3, #1
     8ee:	e7f4      	b.n	8da <__vsnprintf+0x3f6>
/home/hsk/Desktop/devel/tee-tpm-hyp/optee_os/lib/libutils/ext/snprintk.c:380
     8f0:	f046 0610 	orr.w	r6, r6, #16
/home/hsk/Desktop/devel/tee-tpm-hyp/optee_os/lib/libutils/ext/snprintk.c:384
     8f4:	0631      	lsls	r1, r6, #24
     8f6:	d517      	bpl.n	928 <__vsnprintf+0x444>
     8f8:	3307      	adds	r3, #7
     8fa:	f023 0307 	bic.w	r3, r3, #7
     8fe:	f103 0b08 	add.w	fp, r3, #8
     902:	e9d3 4500 	ldrd	r4, r5, [r3]
/home/hsk/Desktop/devel/tee-tpm-hyp/optee_os/lib/libutils/ext/snprintk.c:385
     906:	2c00      	cmp	r4, #0
     908:	f175 0300 	sbcs.w	r3, r5, #0
     90c:	da04      	bge.n	918 <__vsnprintf+0x434>
/home/hsk/Desktop/devel/tee-tpm-hyp/optee_os/lib/libutils/ext/snprintk.c:386
     90e:	4264      	negs	r4, r4
/home/hsk/Desktop/devel/tee-tpm-hyp/optee_os/lib/libutils/ext/snprintk.c:387
     910:	f04f 092d 	mov.w	r9, #45	; 0x2d
/home/hsk/Desktop/devel/tee-tpm-hyp/optee_os/lib/libutils/ext/snprintk.c:386
     914:	eb65 0545 	sbc.w	r5, r5, r5, lsl #1
/home/hsk/Desktop/devel/tee-tpm-hyp/optee_os/lib/libutils/ext/snprintk.c:488
     918:	9b0a      	ldr	r3, [sp, #40]	; 0x28
     91a:	3301      	adds	r3, #1
     91c:	f040 80d8 	bne.w	ad0 <__vsnprintf+0x5ec>
/home/hsk/Desktop/devel/tee-tpm-hyp/optee_os/lib/libutils/ext/snprintk.c:508
     920:	f10d 0375 	add.w	r3, sp, #117	; 0x75
     924:	9311      	str	r3, [sp, #68]	; 0x44
     926:	e0eb      	b.n	b00 <__vsnprintf+0x61c>
/home/hsk/Desktop/devel/tee-tpm-hyp/optee_os/lib/libutils/ext/snprintk.c:384
     928:	05f2      	lsls	r2, r6, #23
     92a:	d504      	bpl.n	936 <__vsnprintf+0x452>
     92c:	f103 0b04 	add.w	fp, r3, #4
     930:	681c      	ldr	r4, [r3, #0]
     932:	17e5      	asrs	r5, r4, #31
     934:	e7e7      	b.n	906 <__vsnprintf+0x422>
     936:	05b5      	lsls	r5, r6, #22
     938:	d4f8      	bmi.n	92c <__vsnprintf+0x448>
     93a:	06b4      	lsls	r4, r6, #26
     93c:	d4dc      	bmi.n	8f8 <__vsnprintf+0x414>
     93e:	f103 0b04 	add.w	fp, r3, #4
     942:	06f0      	lsls	r0, r6, #27
     944:	d4f4      	bmi.n	930 <__vsnprintf+0x44c>
     946:	f016 0f40 	tst.w	r6, #64	; 0x40
     94a:	681c      	ldr	r4, [r3, #0]
     94c:	d0f1      	beq.n	932 <__vsnprintf+0x44e>
     94e:	b224      	sxth	r4, r4
     950:	e7ef      	b.n	932 <__vsnprintf+0x44e>
     952:	469b      	mov	fp, r3
/home/hsk/Desktop/devel/tee-tpm-hyp/optee_os/lib/libutils/ext/snprintk.c:392
     954:	0631      	lsls	r1, r6, #24
     956:	f85b 3b04 	ldr.w	r3, [fp], #4
     95a:	d505      	bpl.n	968 <__vsnprintf+0x484>
/home/hsk/Desktop/devel/tee-tpm-hyp/optee_os/lib/libutils/ext/snprintk.c:399
     95c:	9a0c      	ldr	r2, [sp, #48]	; 0x30
     95e:	4610      	mov	r0, r2
     960:	17d1      	asrs	r1, r2, #31
     962:	e9c3 0100 	strd	r0, r1, [r3]
     966:	e5ce      	b.n	506 <__vsnprintf+0x22>
/home/hsk/Desktop/devel/tee-tpm-hyp/optee_os/lib/libutils/ext/snprintk.c:394
     968:	05f2      	lsls	r2, r6, #23
     96a:	d502      	bpl.n	972 <__vsnprintf+0x48e>
/home/hsk/Desktop/devel/tee-tpm-hyp/optee_os/lib/libutils/ext/snprintk.c:405
     96c:	9a0c      	ldr	r2, [sp, #48]	; 0x30
     96e:	601a      	str	r2, [r3, #0]
     970:	e5c9      	b.n	506 <__vsnprintf+0x22>
/home/hsk/Desktop/devel/tee-tpm-hyp/optee_os/lib/libutils/ext/snprintk.c:396
     972:	05b5      	lsls	r5, r6, #22
     974:	d4fa      	bmi.n	96c <__vsnprintf+0x488>
/home/hsk/Desktop/devel/tee-tpm-hyp/optee_os/lib/libutils/ext/snprintk.c:398
     976:	06b4      	lsls	r4, r6, #26
     978:	d4f0      	bmi.n	95c <__vsnprintf+0x478>
/home/hsk/Desktop/devel/tee-tpm-hyp/optee_os/lib/libutils/ext/snprintk.c:400
     97a:	06f0      	lsls	r0, r6, #27
     97c:	d4f6      	bmi.n	96c <__vsnprintf+0x488>
/home/hsk/Desktop/devel/tee-tpm-hyp/optee_os/lib/libutils/ext/snprintk.c:402
     97e:	0671      	lsls	r1, r6, #25
     980:	d5f4      	bpl.n	96c <__vsnprintf+0x488>
/home/hsk/Desktop/devel/tee-tpm-hyp/optee_os/lib/libutils/ext/snprintk.c:403
     982:	9a0c      	ldr	r2, [sp, #48]	; 0x30
     984:	801a      	strh	r2, [r3, #0]
     986:	e5be      	b.n	506 <__vsnprintf+0x22>
/home/hsk/Desktop/devel/tee-tpm-hyp/optee_os/lib/libutils/ext/snprintk.c:411
     988:	05f5      	lsls	r5, r6, #23
     98a:	d503      	bpl.n	994 <__vsnprintf+0x4b0>
     98c:	f103 0b04 	add.w	fp, r3, #4
     990:	681c      	ldr	r4, [r3, #0]
     992:	e00b      	b.n	9ac <__vsnprintf+0x4c8>
     994:	05b4      	lsls	r4, r6, #22
     996:	d4f9      	bmi.n	98c <__vsnprintf+0x4a8>
     998:	06b0      	lsls	r0, r6, #26
     99a:	f53f ae43 	bmi.w	624 <__vsnprintf+0x140>
     99e:	f103 0b04 	add.w	fp, r3, #4
     9a2:	06f1      	lsls	r1, r6, #27
     9a4:	d4f4      	bmi.n	990 <__vsnprintf+0x4ac>
     9a6:	0672      	lsls	r2, r6, #25
     9a8:	d5f2      	bpl.n	990 <__vsnprintf+0x4ac>
     9aa:	881c      	ldrh	r4, [r3, #0]
     9ac:	2500      	movs	r5, #0
     9ae:	e640      	b.n	632 <__vsnprintf+0x14e>
     9b0:	469b      	mov	fp, r3
/home/hsk/Desktop/devel/tee-tpm-hyp/optee_os/lib/libutils/ext/snprintk.c:415
     9b2:	9b13      	ldr	r3, [sp, #76]	; 0x4c
     9b4:	f85b 4b04 	ldr.w	r4, [fp], #4
     9b8:	2b00      	cmp	r3, #0
     9ba:	d02b      	beq.n	a14 <__vsnprintf+0x530>
     9bc:	9b0b      	ldr	r3, [sp, #44]	; 0x2c
     9be:	781b      	ldrb	r3, [r3, #0]
     9c0:	2b55      	cmp	r3, #85	; 0x55
     9c2:	d127      	bne.n	a14 <__vsnprintf+0x530>
     9c4:	9b0b      	ldr	r3, [sp, #44]	; 0x2c
     9c6:	785b      	ldrb	r3, [r3, #1]
     9c8:	2b6c      	cmp	r3, #108	; 0x6c
     9ca:	d123      	bne.n	a14 <__vsnprintf+0x530>
/home/hsk/Desktop/devel/tee-tpm-hyp/optee_os/lib/libutils/ext/snprintk.c:420
     9cc:	9b0b      	ldr	r3, [sp, #44]	; 0x2c
uuid2str():
/home/hsk/Desktop/devel/tee-tpm-hyp/optee_os/lib/libutils/ext/snprintk.c:223
     9ce:	f10d 0a50 	add.w	sl, sp, #80	; 0x50
     9d2:	4a80      	ldr	r2, [pc, #512]	; (bd4 <__vsnprintf+0x6f0>)
     9d4:	2125      	movs	r1, #37	; 0x25
kprintf():
/home/hsk/Desktop/devel/tee-tpm-hyp/optee_os/lib/libutils/ext/snprintk.c:420
     9d6:	3302      	adds	r3, #2
     9d8:	930b      	str	r3, [sp, #44]	; 0x2c
uuid2str():
/home/hsk/Desktop/devel/tee-tpm-hyp/optee_os/lib/libutils/ext/snprintk.c:223
     9da:	7be3      	ldrb	r3, [r4, #15]
     9dc:	447a      	add	r2, pc
     9de:	9309      	str	r3, [sp, #36]	; 0x24
     9e0:	4650      	mov	r0, sl
     9e2:	7ba3      	ldrb	r3, [r4, #14]
     9e4:	9308      	str	r3, [sp, #32]
     9e6:	7b63      	ldrb	r3, [r4, #13]
     9e8:	9307      	str	r3, [sp, #28]
     9ea:	7b23      	ldrb	r3, [r4, #12]
     9ec:	9306      	str	r3, [sp, #24]
     9ee:	7ae3      	ldrb	r3, [r4, #11]
     9f0:	9305      	str	r3, [sp, #20]
     9f2:	7aa3      	ldrb	r3, [r4, #10]
     9f4:	9304      	str	r3, [sp, #16]
     9f6:	7a63      	ldrb	r3, [r4, #9]
     9f8:	9303      	str	r3, [sp, #12]
     9fa:	7a23      	ldrb	r3, [r4, #8]
     9fc:	9302      	str	r3, [sp, #8]
     9fe:	88e3      	ldrh	r3, [r4, #6]
     a00:	9301      	str	r3, [sp, #4]
     a02:	88a3      	ldrh	r3, [r4, #4]
     a04:	9300      	str	r3, [sp, #0]
     a06:	6823      	ldr	r3, [r4, #0]
     a08:	f000 f8f1 	bl	bee <snprintk>
kprintf():
/home/hsk/Desktop/devel/tee-tpm-hyp/optee_os/lib/libutils/ext/snprintk.c:460
     a0c:	900a      	str	r0, [sp, #40]	; 0x28
/home/hsk/Desktop/devel/tee-tpm-hyp/optee_os/lib/libutils/ext/snprintk.c:285
     a0e:	2000      	movs	r0, #0
/home/hsk/Desktop/devel/tee-tpm-hyp/optee_os/lib/libutils/ext/snprintk.c:461
     a10:	4681      	mov	r9, r0
     a12:	e725      	b.n	860 <__vsnprintf+0x37c>
/home/hsk/Desktop/devel/tee-tpm-hyp/optee_os/lib/libutils/ext/snprintk.c:437
     a14:	4b70      	ldr	r3, [pc, #448]	; (bd8 <__vsnprintf+0x6f4>)
/home/hsk/Desktop/devel/tee-tpm-hyp/optee_os/lib/libutils/ext/snprintk.c:435
     a16:	2500      	movs	r5, #0
/home/hsk/Desktop/devel/tee-tpm-hyp/optee_os/lib/libutils/ext/snprintk.c:438
     a18:	f046 0602 	orr.w	r6, r6, #2
/home/hsk/Desktop/devel/tee-tpm-hyp/optee_os/lib/libutils/ext/snprintk.c:439
     a1c:	f04f 0878 	mov.w	r8, #120	; 0x78
/home/hsk/Desktop/devel/tee-tpm-hyp/optee_os/lib/libutils/ext/snprintk.c:437
     a20:	447b      	add	r3, pc
     a22:	3311      	adds	r3, #17
     a24:	930f      	str	r3, [sp, #60]	; 0x3c
/home/hsk/Desktop/devel/tee-tpm-hyp/optee_os/lib/libutils/ext/snprintk.c:488
     a26:	9b0a      	ldr	r3, [sp, #40]	; 0x28
     a28:	3301      	adds	r3, #1
     a2a:	f47f ae8c 	bne.w	746 <__vsnprintf+0x262>
     a2e:	f04f 0900 	mov.w	r9, #0
/home/hsk/Desktop/devel/tee-tpm-hyp/optee_os/lib/libutils/ext/snprintk.c:523
     a32:	f10d 0a75 	add.w	sl, sp, #117	; 0x75
/home/hsk/Desktop/devel/tee-tpm-hyp/optee_os/lib/libutils/ext/snprintk.c:525
     a36:	f004 030f 	and.w	r3, r4, #15
     a3a:	9a0f      	ldr	r2, [sp, #60]	; 0x3c
     a3c:	5cd3      	ldrb	r3, [r2, r3]
/home/hsk/Desktop/devel/tee-tpm-hyp/optee_os/lib/libutils/ext/snprintk.c:526
     a3e:	092a      	lsrs	r2, r5, #4
/home/hsk/Desktop/devel/tee-tpm-hyp/optee_os/lib/libutils/ext/snprintk.c:525
     a40:	f80a 3d01 	strb.w	r3, [sl, #-1]!
/home/hsk/Desktop/devel/tee-tpm-hyp/optee_os/lib/libutils/ext/snprintk.c:526
     a44:	0923      	lsrs	r3, r4, #4
     a46:	ea43 7305 	orr.w	r3, r3, r5, lsl #28
     a4a:	4615      	mov	r5, r2
     a4c:	461c      	mov	r4, r3
/home/hsk/Desktop/devel/tee-tpm-hyp/optee_os/lib/libutils/ext/snprintk.c:527
     a4e:	ea54 0305 	orrs.w	r3, r4, r5
     a52:	d1f0      	bne.n	a36 <__vsnprintf+0x552>
     a54:	e6a7      	b.n	7a6 <__vsnprintf+0x2c2>
/home/hsk/Desktop/devel/tee-tpm-hyp/optee_os/lib/libutils/ext/snprintk.c:460
     a56:	4650      	mov	r0, sl
     a58:	f006 ff75 	bl	7946 <strlen>
     a5c:	e7d6      	b.n	a0c <__vsnprintf+0x528>
/home/hsk/Desktop/devel/tee-tpm-hyp/optee_os/lib/libutils/ext/snprintk.c:464
     a5e:	f046 0610 	orr.w	r6, r6, #16
     a62:	e647      	b.n	6f4 <__vsnprintf+0x210>
/home/hsk/Desktop/devel/tee-tpm-hyp/optee_os/lib/libutils/ext/snprintk.c:467
     a64:	f416 7980 	ands.w	r9, r6, #256	; 0x100
     a68:	d004      	beq.n	a74 <__vsnprintf+0x590>
     a6a:	681c      	ldr	r4, [r3, #0]
     a6c:	f103 0b04 	add.w	fp, r3, #4
     a70:	2500      	movs	r5, #0
     a72:	e64a      	b.n	70a <__vsnprintf+0x226>
     a74:	f416 7200 	ands.w	r2, r6, #512	; 0x200
     a78:	d004      	beq.n	a84 <__vsnprintf+0x5a0>
     a7a:	f103 0b04 	add.w	fp, r3, #4
     a7e:	681c      	ldr	r4, [r3, #0]
     a80:	2500      	movs	r5, #0
     a82:	e749      	b.n	918 <__vsnprintf+0x434>
     a84:	f016 0920 	ands.w	r9, r6, #32
     a88:	f47f ae38 	bne.w	6fc <__vsnprintf+0x218>
     a8c:	f103 0b04 	add.w	fp, r3, #4
     a90:	f016 0210 	ands.w	r2, r6, #16
     a94:	d1f3      	bne.n	a7e <__vsnprintf+0x59a>
     a96:	f016 0940 	ands.w	r9, r6, #64	; 0x40
     a9a:	d0f0      	beq.n	a7e <__vsnprintf+0x59a>
     a9c:	881c      	ldrh	r4, [r3, #0]
     a9e:	e7e7      	b.n	a70 <__vsnprintf+0x58c>
/home/hsk/Desktop/devel/tee-tpm-hyp/optee_os/lib/libutils/ext/snprintk.c:474
     aa0:	4a4e      	ldr	r2, [pc, #312]	; (bdc <__vsnprintf+0x6f8>)
     aa2:	447a      	add	r2, pc
     aa4:	3211      	adds	r2, #17
     aa6:	e636      	b.n	716 <__vsnprintf+0x232>
/home/hsk/Desktop/devel/tee-tpm-hyp/optee_os/lib/libutils/ext/snprintk.c:475
     aa8:	05f0      	lsls	r0, r6, #23
     aaa:	d503      	bpl.n	ab4 <__vsnprintf+0x5d0>
     aac:	f103 0b04 	add.w	fp, r3, #4
     ab0:	681c      	ldr	r4, [r3, #0]
     ab2:	e00b      	b.n	acc <__vsnprintf+0x5e8>
     ab4:	05b1      	lsls	r1, r6, #22
     ab6:	d4f9      	bmi.n	aac <__vsnprintf+0x5c8>
     ab8:	06b2      	lsls	r2, r6, #26
     aba:	f53f ae30 	bmi.w	71e <__vsnprintf+0x23a>
     abe:	f103 0b04 	add.w	fp, r3, #4
     ac2:	06f5      	lsls	r5, r6, #27
     ac4:	d4f4      	bmi.n	ab0 <__vsnprintf+0x5cc>
     ac6:	0674      	lsls	r4, r6, #25
     ac8:	d5f2      	bpl.n	ab0 <__vsnprintf+0x5cc>
     aca:	881c      	ldrh	r4, [r3, #0]
     acc:	2500      	movs	r5, #0
     ace:	e62d      	b.n	72c <__vsnprintf+0x248>
/home/hsk/Desktop/devel/tee-tpm-hyp/optee_os/lib/libutils/ext/snprintk.c:488
     ad0:	2301      	movs	r3, #1
     ad2:	e63b      	b.n	74c <__vsnprintf+0x268>
/home/hsk/Desktop/devel/tee-tpm-hyp/optee_os/lib/libutils/ext/snprintk.c:508
     ad4:	4653      	mov	r3, sl
     ad6:	e64c      	b.n	772 <__vsnprintf+0x28e>
/home/hsk/Desktop/devel/tee-tpm-hyp/optee_os/lib/libutils/ext/snprintk.c:517
     ad8:	4620      	mov	r0, r4
     ada:	4629      	mov	r1, r5
     adc:	220a      	movs	r2, #10
     ade:	2300      	movs	r3, #0
     ae0:	f000 e89e 	blx	c20 <__aeabi_uldivmod>
     ae4:	9b11      	ldr	r3, [sp, #68]	; 0x44
     ae6:	3230      	adds	r2, #48	; 0x30
/home/hsk/Desktop/devel/tee-tpm-hyp/optee_os/lib/libutils/ext/snprintk.c:518
     ae8:	4620      	mov	r0, r4
     aea:	4629      	mov	r1, r5
/home/hsk/Desktop/devel/tee-tpm-hyp/optee_os/lib/libutils/ext/snprintk.c:517
     aec:	f803 2c01 	strb.w	r2, [r3, #-1]
/home/hsk/Desktop/devel/tee-tpm-hyp/optee_os/lib/libutils/ext/snprintk.c:518
     af0:	220a      	movs	r2, #10
     af2:	2300      	movs	r3, #0
     af4:	f000 e894 	blx	c20 <__aeabi_uldivmod>
     af8:	4604      	mov	r4, r0
     afa:	460d      	mov	r5, r1
     afc:	f8cd a044 	str.w	sl, [sp, #68]	; 0x44
     b00:	9b11      	ldr	r3, [sp, #68]	; 0x44
/home/hsk/Desktop/devel/tee-tpm-hyp/optee_os/lib/libutils/ext/snprintk.c:516
     b02:	2d00      	cmp	r5, #0
     b04:	bf08      	it	eq
     b06:	2c0a      	cmpeq	r4, #10
     b08:	f103 3aff 	add.w	sl, r3, #4294967295	; 0xffffffff
     b0c:	d2e4      	bcs.n	ad8 <__vsnprintf+0x5f4>
/home/hsk/Desktop/devel/tee-tpm-hyp/optee_os/lib/libutils/ext/snprintk.c:520
     b0e:	3430      	adds	r4, #48	; 0x30
     b10:	f803 4c01 	strb.w	r4, [r3, #-1]
     b14:	e647      	b.n	7a6 <__vsnprintf+0x2c2>
/home/hsk/Desktop/devel/tee-tpm-hyp/optee_os/lib/libutils/ext/snprintk.c:496
     b16:	f10d 0a75 	add.w	sl, sp, #117	; 0x75
     b1a:	e644      	b.n	7a6 <__vsnprintf+0x2c2>
/home/hsk/Desktop/devel/tee-tpm-hyp/optee_os/lib/libutils/ext/snprintk.c:568
     b1c:	07b5      	lsls	r5, r6, #30
/home/hsk/Desktop/devel/tee-tpm-hyp/optee_os/lib/libutils/ext/snprintk.c:569
     b1e:	bf48      	it	mi
     b20:	3302      	addmi	r3, #2
     b22:	e6a6      	b.n	872 <__vsnprintf+0x38e>
/home/hsk/Desktop/devel/tee-tpm-hyp/optee_os/lib/libutils/ext/snprintk.c:578
     b24:	b127      	cbz	r7, b30 <__vsnprintf+0x64c>
     b26:	9d0e      	ldr	r5, [sp, #56]	; 0x38
     b28:	42bd      	cmp	r5, r7
     b2a:	d901      	bls.n	b30 <__vsnprintf+0x64c>
     b2c:	703c      	strb	r4, [r7, #0]
     b2e:	3701      	adds	r7, #1
     b30:	3a01      	subs	r2, #1
     b32:	e6ad      	b.n	890 <__vsnprintf+0x3ac>
/home/hsk/Desktop/devel/tee-tpm-hyp/optee_os/lib/libutils/ext/snprintk.c:583
     b34:	9a0e      	ldr	r2, [sp, #56]	; 0x38
     b36:	42ba      	cmp	r2, r7
     b38:	f67f aeb5 	bls.w	8a6 <__vsnprintf+0x3c2>
     b3c:	f887 9000 	strb.w	r9, [r7]
     b40:	3701      	adds	r7, #1
     b42:	e6b0      	b.n	8a6 <__vsnprintf+0x3c2>
/home/hsk/Desktop/devel/tee-tpm-hyp/optee_os/lib/libutils/ext/snprintk.c:584
     b44:	07b4      	lsls	r4, r6, #30
     b46:	f57f aeae 	bpl.w	8a6 <__vsnprintf+0x3c2>
/home/hsk/Desktop/devel/tee-tpm-hyp/optee_os/lib/libutils/ext/snprintk.c:585
     b4a:	2f00      	cmp	r7, #0
     b4c:	f43f aeaa 	beq.w	8a4 <__vsnprintf+0x3c0>
     b50:	9a0e      	ldr	r2, [sp, #56]	; 0x38
     b52:	42ba      	cmp	r2, r7
     b54:	f67f aea7 	bls.w	8a6 <__vsnprintf+0x3c2>
     b58:	2230      	movs	r2, #48	; 0x30
     b5a:	703a      	strb	r2, [r7, #0]
/home/hsk/Desktop/devel/tee-tpm-hyp/optee_os/lib/libutils/ext/snprintk.c:586
     b5c:	1c7a      	adds	r2, r7, #1
     b5e:	f43f aea1 	beq.w	8a4 <__vsnprintf+0x3c0>
     b62:	9c0e      	ldr	r4, [sp, #56]	; 0x38
     b64:	4294      	cmp	r4, r2
     b66:	d903      	bls.n	b70 <__vsnprintf+0x68c>
     b68:	f887 8001 	strb.w	r8, [r7, #1]
     b6c:	3702      	adds	r7, #2
     b6e:	e69a      	b.n	8a6 <__vsnprintf+0x3c2>
     b70:	4617      	mov	r7, r2
     b72:	e698      	b.n	8a6 <__vsnprintf+0x3c2>
/home/hsk/Desktop/devel/tee-tpm-hyp/optee_os/lib/libutils/ext/snprintk.c:593
     b74:	b127      	cbz	r7, b80 <__vsnprintf+0x69c>
     b76:	9c0e      	ldr	r4, [sp, #56]	; 0x38
     b78:	42bc      	cmp	r4, r7
     b7a:	d901      	bls.n	b80 <__vsnprintf+0x69c>
     b7c:	7039      	strb	r1, [r7, #0]
     b7e:	3701      	adds	r7, #1
     b80:	3a01      	subs	r2, #1
     b82:	e696      	b.n	8b2 <__vsnprintf+0x3ce>
/home/hsk/Desktop/devel/tee-tpm-hyp/optee_os/lib/libutils/ext/snprintk.c:599
     b84:	b127      	cbz	r7, b90 <__vsnprintf+0x6ac>
     b86:	990e      	ldr	r1, [sp, #56]	; 0x38
     b88:	42b9      	cmp	r1, r7
     b8a:	d901      	bls.n	b90 <__vsnprintf+0x6ac>
     b8c:	703a      	strb	r2, [r7, #0]
     b8e:	3701      	adds	r7, #1
     b90:	3801      	subs	r0, #1
     b92:	e694      	b.n	8be <__vsnprintf+0x3da>
/home/hsk/Desktop/devel/tee-tpm-hyp/optee_os/lib/libutils/ext/snprintk.c:603
     b94:	b13f      	cbz	r7, ba6 <__vsnprintf+0x6c2>
     b96:	990e      	ldr	r1, [sp, #56]	; 0x38
     b98:	42b9      	cmp	r1, r7
     b9a:	d904      	bls.n	ba6 <__vsnprintf+0x6c2>
     b9c:	f81a 1002 	ldrb.w	r1, [sl, r2]
     ba0:	3701      	adds	r7, #1
     ba2:	f807 1c01 	strb.w	r1, [r7, #-1]
     ba6:	3201      	adds	r2, #1
     ba8:	e68d      	b.n	8c6 <__vsnprintf+0x3e2>
__vsnprintf():
/home/hsk/Desktop/devel/tee-tpm-hyp/optee_os/lib/libutils/ext/snprintk.c:148
     baa:	990c      	ldr	r1, [sp, #48]	; 0x30
     bac:	5453      	strb	r3, [r2, r1]
/home/hsk/Desktop/devel/tee-tpm-hyp/optee_os/lib/libutils/ext/snprintk.c:150
     bae:	e4bf      	b.n	530 <__vsnprintf+0x4c>
kprintf():
/home/hsk/Desktop/devel/tee-tpm-hyp/optee_os/lib/libutils/ext/snprintk.c:489
     bb0:	f426 6680 	bic.w	r6, r6, #1024	; 0x400
/home/hsk/Desktop/devel/tee-tpm-hyp/optee_os/lib/libutils/ext/snprintk.c:482
     bb4:	f04f 0900 	mov.w	r9, #0
/home/hsk/Desktop/devel/tee-tpm-hyp/optee_os/lib/libutils/ext/snprintk.c:476
     bb8:	2302      	movs	r3, #2
     bba:	e5cc      	b.n	756 <__vsnprintf+0x272>
/home/hsk/Desktop/devel/tee-tpm-hyp/optee_os/lib/libutils/ext/snprintk.c:488
     bbc:	9b0a      	ldr	r3, [sp, #40]	; 0x28
     bbe:	3301      	adds	r3, #1
     bc0:	d1f6      	bne.n	bb0 <__vsnprintf+0x6cc>
     bc2:	f04f 33ff 	mov.w	r3, #4294967295	; 0xffffffff
     bc6:	930a      	str	r3, [sp, #40]	; 0x28
     bc8:	e731      	b.n	a2e <__vsnprintf+0x54a>
     bca:	bf00      	nop
     bcc:	00007a6d 	.word	0x00007a6d
     bd0:	000079e9 	.word	0x000079e9
     bd4:	0000774a 	.word	0x0000774a
     bd8:	000076dd 	.word	0x000076dd
     bdc:	0000765b 	.word	0x0000765b

00000be0 <vsnprintk>:
vsnprintk():
/home/hsk/Desktop/devel/tee-tpm-hyp/optee_os/lib/libutils/ext/snprintk.c:129
     be0:	b513      	push	{r0, r1, r4, lr}
/home/hsk/Desktop/devel/tee-tpm-hyp/optee_os/lib/libutils/ext/snprintk.c:130
     be2:	2401      	movs	r4, #1
     be4:	9400      	str	r4, [sp, #0]
     be6:	f7ff fc7d 	bl	4e4 <__vsnprintf>
/home/hsk/Desktop/devel/tee-tpm-hyp/optee_os/lib/libutils/ext/snprintk.c:131
     bea:	b002      	add	sp, #8
     bec:	bd10      	pop	{r4, pc}

00000bee <snprintk>:
snprintk():
/home/hsk/Desktop/devel/tee-tpm-hyp/optee_os/lib/libutils/ext/snprintk.c:112
     bee:	b40c      	push	{r2, r3}
     bf0:	b507      	push	{r0, r1, r2, lr}
     bf2:	ab04      	add	r3, sp, #16
     bf4:	f853 2b04 	ldr.w	r2, [r3], #4
/home/hsk/Desktop/devel/tee-tpm-hyp/optee_os/lib/libutils/ext/snprintk.c:116
     bf8:	9301      	str	r3, [sp, #4]
/home/hsk/Desktop/devel/tee-tpm-hyp/optee_os/lib/libutils/ext/snprintk.c:117
     bfa:	f7ff fff1 	bl	be0 <vsnprintk>
/home/hsk/Desktop/devel/tee-tpm-hyp/optee_os/lib/libutils/ext/snprintk.c:121
     bfe:	b003      	add	sp, #12
     c00:	f85d eb04 	ldr.w	lr, [sp], #4
     c04:	b002      	add	sp, #8
     c06:	4770      	bx	lr

00000c08 <__aeabi_ldivmod>:
__aeabi_ldivmod():
/home/hsk/Desktop/devel/tee-tpm-hyp/optee_os/lib/libutils/isoc/arch/arm/arm32_aeabi_ldivmod_a32.S:24
     c08:	e92d5000 	push	{ip, lr}
/home/hsk/Desktop/devel/tee-tpm-hyp/optee_os/lib/libutils/isoc/arch/arm/arm32_aeabi_ldivmod_a32.S:26
     c0c:	e92d000f 	push	{r0, r1, r2, r3}
/home/hsk/Desktop/devel/tee-tpm-hyp/optee_os/lib/libutils/isoc/arch/arm/arm32_aeabi_ldivmod_a32.S:28
     c10:	e1a0000d 	mov	r0, sp
/home/hsk/Desktop/devel/tee-tpm-hyp/optee_os/lib/libutils/isoc/arch/arm/arm32_aeabi_ldivmod_a32.S:29
     c14:	fa001b6c 	blx	79cc <__l_divmod>
/home/hsk/Desktop/devel/tee-tpm-hyp/optee_os/lib/libutils/isoc/arch/arm/arm32_aeabi_ldivmod_a32.S:30
     c18:	e8bd000f 	pop	{r0, r1, r2, r3}
/home/hsk/Desktop/devel/tee-tpm-hyp/optee_os/lib/libutils/isoc/arch/arm/arm32_aeabi_ldivmod_a32.S:31
     c1c:	e8bd9000 	pop	{ip, pc}

00000c20 <__aeabi_uldivmod>:
__aeabi_uldivmod():
/home/hsk/Desktop/devel/tee-tpm-hyp/optee_os/lib/libutils/isoc/arch/arm/arm32_aeabi_ldivmod_a32.S:42
     c20:	e92d5000 	push	{ip, lr}
/home/hsk/Desktop/devel/tee-tpm-hyp/optee_os/lib/libutils/isoc/arch/arm/arm32_aeabi_ldivmod_a32.S:44
     c24:	e92d000f 	push	{r0, r1, r2, r3}
/home/hsk/Desktop/devel/tee-tpm-hyp/optee_os/lib/libutils/isoc/arch/arm/arm32_aeabi_ldivmod_a32.S:46
     c28:	e1a0000d 	mov	r0, sp
/home/hsk/Desktop/devel/tee-tpm-hyp/optee_os/lib/libutils/isoc/arch/arm/arm32_aeabi_ldivmod_a32.S:47
     c2c:	fb001b48 	blx	7956 <__ul_divmod>
/home/hsk/Desktop/devel/tee-tpm-hyp/optee_os/lib/libutils/isoc/arch/arm/arm32_aeabi_ldivmod_a32.S:48
     c30:	e8bd000f 	pop	{r0, r1, r2, r3}
/home/hsk/Desktop/devel/tee-tpm-hyp/optee_os/lib/libutils/isoc/arch/arm/arm32_aeabi_ldivmod_a32.S:49
     c34:	e8bd9000 	pop	{ip, pc}

00000c38 <trace_ext_puts>:
trace_ext_puts():
/home/hsk/Desktop/devel/tee-tpm-hyp/optee_os/lib/libutee/trace_ext.c:17
     c38:	b510      	push	{r4, lr}
     c3a:	4604      	mov	r4, r0
/home/hsk/Desktop/devel/tee-tpm-hyp/optee_os/lib/libutee/trace_ext.c:18
     c3c:	f006 fe83 	bl	7946 <strlen>
     c40:	4601      	mov	r1, r0
     c42:	4620      	mov	r0, r4
/home/hsk/Desktop/devel/tee-tpm-hyp/optee_os/lib/libutee/trace_ext.c:19
     c44:	e8bd 4010 	ldmia.w	sp!, {r4, lr}
/home/hsk/Desktop/devel/tee-tpm-hyp/optee_os/lib/libutee/trace_ext.c:18
     c48:	f006 bf9e 	b.w	7b88 <__utee_log_from_thumb>

00000c4c <trace_ext_get_thread_id>:
trace_ext_get_thread_id():
/home/hsk/Desktop/devel/tee-tpm-hyp/optee_os/lib/libutee/trace_ext.c:24
     c4c:	f04f 30ff 	mov.w	r0, #4294967295	; 0xffffffff
     c50:	4770      	bx	lr

00000c52 <printf>:
printf():
/home/hsk/Desktop/devel/tee-tpm-hyp/optee_os/lib/libutee/trace_ext.c:32
     c52:	b40f      	push	{r0, r1, r2, r3}
     c54:	b530      	push	{r4, r5, lr}
     c56:	b0c3      	sub	sp, #268	; 0x10c
/home/hsk/Desktop/devel/tee-tpm-hyp/optee_os/lib/libutee/trace_ext.c:37
     c58:	f7ff fb20 	bl	29c <trace_get_level>
     c5c:	2800      	cmp	r0, #0
     c5e:	dd13      	ble.n	c88 <printf+0x36>
/home/hsk/Desktop/devel/tee-tpm-hyp/optee_os/lib/libutee/trace_ext.c:41
     c60:	ad02      	add	r5, sp, #8
/home/hsk/Desktop/devel/tee-tpm-hyp/optee_os/lib/libutee/trace_ext.c:40
     c62:	ab47      	add	r3, sp, #284	; 0x11c
/home/hsk/Desktop/devel/tee-tpm-hyp/optee_os/lib/libutee/trace_ext.c:41
     c64:	9a46      	ldr	r2, [sp, #280]	; 0x118
     c66:	f44f 7180 	mov.w	r1, #256	; 0x100
     c6a:	4628      	mov	r0, r5
/home/hsk/Desktop/devel/tee-tpm-hyp/optee_os/lib/libutee/trace_ext.c:40
     c6c:	9301      	str	r3, [sp, #4]
/home/hsk/Desktop/devel/tee-tpm-hyp/optee_os/lib/libutee/trace_ext.c:41
     c6e:	f006 ff32 	bl	7ad6 <vsnprintf>
/home/hsk/Desktop/devel/tee-tpm-hyp/optee_os/lib/libutee/trace_ext.c:44
     c72:	1e04      	subs	r4, r0, #0
     c74:	db02      	blt.n	c7c <printf+0x2a>
/home/hsk/Desktop/devel/tee-tpm-hyp/optee_os/lib/libutee/trace_ext.c:47
     c76:	4628      	mov	r0, r5
     c78:	f7ff ffde 	bl	c38 <trace_ext_puts>
/home/hsk/Desktop/devel/tee-tpm-hyp/optee_os/lib/libutee/trace_ext.c:50
     c7c:	4620      	mov	r0, r4
     c7e:	b043      	add	sp, #268	; 0x10c
     c80:	e8bd 4030 	ldmia.w	sp!, {r4, r5, lr}
     c84:	b004      	add	sp, #16
     c86:	4770      	bx	lr
/home/hsk/Desktop/devel/tee-tpm-hyp/optee_os/lib/libutee/trace_ext.c:38
     c88:	2400      	movs	r4, #0
     c8a:	e7f7      	b.n	c7c <printf+0x2a>

00000c8c <puts>:
puts():
/home/hsk/Desktop/devel/tee-tpm-hyp/optee_os/lib/libutee/trace_ext.c:53
     c8c:	b510      	push	{r4, lr}
     c8e:	4604      	mov	r4, r0
/home/hsk/Desktop/devel/tee-tpm-hyp/optee_os/lib/libutee/trace_ext.c:54
     c90:	f7ff fb04 	bl	29c <trace_get_level>
     c94:	2800      	cmp	r0, #0
     c96:	dd06      	ble.n	ca6 <puts+0x1a>
/home/hsk/Desktop/devel/tee-tpm-hyp/optee_os/lib/libutee/trace_ext.c:55
     c98:	4620      	mov	r0, r4
     c9a:	f7ff ffcd 	bl	c38 <trace_ext_puts>
/home/hsk/Desktop/devel/tee-tpm-hyp/optee_os/lib/libutee/trace_ext.c:56
     c9e:	4803      	ldr	r0, [pc, #12]	; (cac <puts+0x20>)
     ca0:	4478      	add	r0, pc
     ca2:	f7ff ffc9 	bl	c38 <trace_ext_puts>
/home/hsk/Desktop/devel/tee-tpm-hyp/optee_os/lib/libutee/trace_ext.c:59
     ca6:	2001      	movs	r0, #1
     ca8:	bd10      	pop	{r4, pc}
     caa:	bf00      	nop
     cac:	00007b48 	.word	0x00007b48

00000cb0 <putchar>:
putchar():
/home/hsk/Desktop/devel/tee-tpm-hyp/optee_os/lib/libutee/trace_ext.c:62
     cb0:	b513      	push	{r0, r1, r4, lr}
/home/hsk/Desktop/devel/tee-tpm-hyp/optee_os/lib/libutee/trace_ext.c:63
     cb2:	2300      	movs	r3, #0
/home/hsk/Desktop/devel/tee-tpm-hyp/optee_os/lib/libutee/trace_ext.c:62
     cb4:	4604      	mov	r4, r0
/home/hsk/Desktop/devel/tee-tpm-hyp/optee_os/lib/libutee/trace_ext.c:63
     cb6:	f88d 0004 	strb.w	r0, [sp, #4]
     cba:	f88d 3005 	strb.w	r3, [sp, #5]
/home/hsk/Desktop/devel/tee-tpm-hyp/optee_os/lib/libutee/trace_ext.c:65
     cbe:	f7ff faed 	bl	29c <trace_get_level>
     cc2:	2800      	cmp	r0, #0
     cc4:	dd02      	ble.n	ccc <putchar+0x1c>
/home/hsk/Desktop/devel/tee-tpm-hyp/optee_os/lib/libutee/trace_ext.c:66
     cc6:	a801      	add	r0, sp, #4
     cc8:	f7ff ffb6 	bl	c38 <trace_ext_puts>
/home/hsk/Desktop/devel/tee-tpm-hyp/optee_os/lib/libutee/trace_ext.c:73
     ccc:	b2e0      	uxtb	r0, r4
     cce:	b002      	add	sp, #8
     cd0:	bd10      	pop	{r4, pc}
     cd2:	bf00      	nop

00000cd4 <__utee_from_param>:
__utee_from_param():
/home/hsk/Desktop/devel/tee-tpm-hyp/optee_os/lib/libutee/tee_api.c:23
     cd4:	2300      	movs	r3, #0
/home/hsk/Desktop/devel/tee-tpm-hyp/optee_os/lib/libutee/tee_api.c:20
     cd6:	b5f0      	push	{r4, r5, r6, r7, lr}
/home/hsk/Desktop/devel/tee-tpm-hyp/optee_os/lib/libutee/tee_api.c:39
     cd8:	2600      	movs	r6, #0
     cda:	2700      	movs	r7, #0
/home/hsk/Desktop/devel/tee-tpm-hyp/optee_os/lib/libutee/tee_api.c:35
     cdc:	461d      	mov	r5, r3
/home/hsk/Desktop/devel/tee-tpm-hyp/optee_os/lib/libutee/tee_api.c:23
     cde:	e9c0 1300 	strd	r1, r3, [r0]
/home/hsk/Desktop/devel/tee-tpm-hyp/optee_os/lib/libutee/tee_api.c:25
     ce2:	fa21 f403 	lsr.w	r4, r1, r3
     ce6:	f004 040f 	and.w	r4, r4, #15
     cea:	3c01      	subs	r4, #1
     cec:	2c06      	cmp	r4, #6
     cee:	d813      	bhi.n	d18 <__utee_from_param+0x44>
     cf0:	e8df f004 	tbb	[pc, r4]
     cf4:	12040404 	.word	0x12040404
     cf8:	0404      	.short	0x0404
     cfa:	04          	.byte	0x04
     cfb:	00          	.byte	0x00
/home/hsk/Desktop/devel/tee-tpm-hyp/optee_os/lib/libutee/tee_api.c:35
     cfc:	f852 4013 	ldr.w	r4, [r2, r3, lsl #1]
     d00:	e9c0 4502 	strd	r4, r5, [r0, #8]
/home/hsk/Desktop/devel/tee-tpm-hyp/optee_os/lib/libutee/tee_api.c:36
     d04:	eb02 0443 	add.w	r4, r2, r3, lsl #1
     d08:	6864      	ldr	r4, [r4, #4]
     d0a:	e9c0 4504 	strd	r4, r5, [r0, #16]
     d0e:	3304      	adds	r3, #4
     d10:	3010      	adds	r0, #16
/home/hsk/Desktop/devel/tee-tpm-hyp/optee_os/lib/libutee/tee_api.c:24 (discriminator 2)
     d12:	2b10      	cmp	r3, #16
     d14:	d1e5      	bne.n	ce2 <__utee_from_param+0xe>
/home/hsk/Desktop/devel/tee-tpm-hyp/optee_os/lib/libutee/tee_api.c:44
     d16:	bdf0      	pop	{r4, r5, r6, r7, pc}
/home/hsk/Desktop/devel/tee-tpm-hyp/optee_os/lib/libutee/tee_api.c:39
     d18:	e9c0 6702 	strd	r6, r7, [r0, #8]
/home/hsk/Desktop/devel/tee-tpm-hyp/optee_os/lib/libutee/tee_api.c:40
     d1c:	e9c0 6704 	strd	r6, r7, [r0, #16]
/home/hsk/Desktop/devel/tee-tpm-hyp/optee_os/lib/libutee/tee_api.c:41
     d20:	e7f5      	b.n	d0e <__utee_from_param+0x3a>

00000d22 <__utee_to_param>:
__utee_to_param():
/home/hsk/Desktop/devel/tee-tpm-hyp/optee_os/lib/libutee/tee_api.c:48
     d22:	b5f0      	push	{r4, r5, r6, r7, lr}
/home/hsk/Desktop/devel/tee-tpm-hyp/optee_os/lib/libutee/tee_api.c:50
     d24:	2300      	movs	r3, #0
     d26:	6815      	ldr	r5, [r2, #0]
/home/hsk/Desktop/devel/tee-tpm-hyp/optee_os/lib/libutee/tee_api.c:56
     d28:	fa25 f403 	lsr.w	r4, r5, r3
/home/hsk/Desktop/devel/tee-tpm-hyp/optee_os/lib/libutee/tee_api.c:53
     d2c:	6897      	ldr	r7, [r2, #8]
/home/hsk/Desktop/devel/tee-tpm-hyp/optee_os/lib/libutee/tee_api.c:56
     d2e:	f004 040f 	and.w	r4, r4, #15
/home/hsk/Desktop/devel/tee-tpm-hyp/optee_os/lib/libutee/tee_api.c:54
     d32:	6916      	ldr	r6, [r2, #16]
/home/hsk/Desktop/devel/tee-tpm-hyp/optee_os/lib/libutee/tee_api.c:56
     d34:	3c01      	subs	r4, #1
     d36:	2c06      	cmp	r4, #6
     d38:	d80a      	bhi.n	d50 <__utee_to_param+0x2e>
     d3a:	e8df f004 	tbb	[pc, r4]
     d3e:	0404      	.short	0x0404
     d40:	04040904 	.word	0x04040904
     d44:	04          	.byte	0x04
     d45:	00          	.byte	0x00
/home/hsk/Desktop/devel/tee-tpm-hyp/optee_os/lib/libutee/tee_api.c:67
     d46:	eb00 0443 	add.w	r4, r0, r3, lsl #1
/home/hsk/Desktop/devel/tee-tpm-hyp/optee_os/lib/libutee/tee_api.c:66
     d4a:	f840 7013 	str.w	r7, [r0, r3, lsl #1]
/home/hsk/Desktop/devel/tee-tpm-hyp/optee_os/lib/libutee/tee_api.c:67
     d4e:	6066      	str	r6, [r4, #4]
     d50:	3304      	adds	r3, #4
     d52:	3210      	adds	r2, #16
/home/hsk/Desktop/devel/tee-tpm-hyp/optee_os/lib/libutee/tee_api.c:52 (discriminator 2)
     d54:	2b10      	cmp	r3, #16
     d56:	d1e7      	bne.n	d28 <__utee_to_param+0x6>
/home/hsk/Desktop/devel/tee-tpm-hyp/optee_os/lib/libutee/tee_api.c:74
     d58:	b101      	cbz	r1, d5c <__utee_to_param+0x3a>
/home/hsk/Desktop/devel/tee-tpm-hyp/optee_os/lib/libutee/tee_api.c:75
     d5a:	600d      	str	r5, [r1, #0]
/home/hsk/Desktop/devel/tee-tpm-hyp/optee_os/lib/libutee/tee_api.c:76
     d5c:	bdf0      	pop	{r4, r5, r6, r7, pc}

00000d5e <TEE_OpenTASession>:
TEE_OpenTASession():
/home/hsk/Desktop/devel/tee-tpm-hyp/optee_os/lib/libutee/tee_api.c:84
     d5e:	b5f0      	push	{r4, r5, r6, r7, lr}
     d60:	4605      	mov	r5, r0
     d62:	460f      	mov	r7, r1
     d64:	b097      	sub	sp, #92	; 0x5c
     d66:	4611      	mov	r1, r2
/home/hsk/Desktop/devel/tee-tpm-hyp/optee_os/lib/libutee/tee_api.c:89
     d68:	ac04      	add	r4, sp, #16
     d6a:	461a      	mov	r2, r3
     d6c:	4620      	mov	r0, r4
/home/hsk/Desktop/devel/tee-tpm-hyp/optee_os/lib/libutee/tee_api.c:84
     d6e:	461e      	mov	r6, r3
/home/hsk/Desktop/devel/tee-tpm-hyp/optee_os/lib/libutee/tee_api.c:89
     d70:	f7ff ffb0 	bl	cd4 <__utee_from_param>
/home/hsk/Desktop/devel/tee-tpm-hyp/optee_os/lib/libutee/tee_api.c:90
     d74:	9b1d      	ldr	r3, [sp, #116]	; 0x74
     d76:	9300      	str	r3, [sp, #0]
     d78:	4622      	mov	r2, r4
     d7a:	4639      	mov	r1, r7
     d7c:	4628      	mov	r0, r5
     d7e:	ab03      	add	r3, sp, #12
     d80:	f002 e90e 	blx	2fa0 <utee_open_ta_session>
/home/hsk/Desktop/devel/tee-tpm-hyp/optee_os/lib/libutee/tee_api.c:92
     d84:	4622      	mov	r2, r4
/home/hsk/Desktop/devel/tee-tpm-hyp/optee_os/lib/libutee/tee_api.c:90
     d86:	4605      	mov	r5, r0
/home/hsk/Desktop/devel/tee-tpm-hyp/optee_os/lib/libutee/tee_api.c:92
     d88:	2100      	movs	r1, #0
     d8a:	4630      	mov	r0, r6
     d8c:	f7ff ffc9 	bl	d22 <__utee_to_param>
/home/hsk/Desktop/devel/tee-tpm-hyp/optee_os/lib/libutee/tee_api.c:98
     d90:	b10d      	cbz	r5, d96 <TEE_OpenTASession+0x38>
/home/hsk/Desktop/devel/tee-tpm-hyp/optee_os/lib/libutee/tee_api.c:99
     d92:	2300      	movs	r3, #0
     d94:	9303      	str	r3, [sp, #12]
/home/hsk/Desktop/devel/tee-tpm-hyp/optee_os/lib/libutee/tee_api.c:101
     d96:	9b1c      	ldr	r3, [sp, #112]	; 0x70
/home/hsk/Desktop/devel/tee-tpm-hyp/optee_os/lib/libutee/tee_api.c:103
     d98:	4628      	mov	r0, r5
/home/hsk/Desktop/devel/tee-tpm-hyp/optee_os/lib/libutee/tee_api.c:101
     d9a:	9a03      	ldr	r2, [sp, #12]
     d9c:	601a      	str	r2, [r3, #0]
/home/hsk/Desktop/devel/tee-tpm-hyp/optee_os/lib/libutee/tee_api.c:103
     d9e:	b017      	add	sp, #92	; 0x5c
     da0:	bdf0      	pop	{r4, r5, r6, r7, pc}

00000da2 <TEE_CloseTASession>:
TEE_CloseTASession():
/home/hsk/Desktop/devel/tee-tpm-hyp/optee_os/lib/libutee/tee_api.c:106
     da2:	b508      	push	{r3, lr}
/home/hsk/Desktop/devel/tee-tpm-hyp/optee_os/lib/libutee/tee_api.c:107
     da4:	b130      	cbz	r0, db4 <TEE_CloseTASession+0x12>
/home/hsk/Desktop/devel/tee-tpm-hyp/optee_os/lib/libutee/tee_api.c:108
     da6:	f002 e908 	blx	2fb8 <utee_close_ta_session>
/home/hsk/Desktop/devel/tee-tpm-hyp/optee_os/lib/libutee/tee_api.c:110
     daa:	b118      	cbz	r0, db4 <TEE_CloseTASession+0x12>
/home/hsk/Desktop/devel/tee-tpm-hyp/optee_os/lib/libutee/tee_api.c:113
     dac:	e8bd 4008 	ldmia.w	sp!, {r3, lr}
/home/hsk/Desktop/devel/tee-tpm-hyp/optee_os/lib/libutee/tee_api.c:111
     db0:	f006 be80 	b.w	7ab4 <TEE_Panic>
/home/hsk/Desktop/devel/tee-tpm-hyp/optee_os/lib/libutee/tee_api.c:113
     db4:	bd08      	pop	{r3, pc}

00000db6 <TEE_InvokeTACommand>:
TEE_InvokeTACommand():
/home/hsk/Desktop/devel/tee-tpm-hyp/optee_os/lib/libutee/tee_api.c:120
     db6:	e92d 41f0 	stmdb	sp!, {r4, r5, r6, r7, r8, lr}
     dba:	4604      	mov	r4, r0
     dbc:	460f      	mov	r7, r1
     dbe:	b096      	sub	sp, #88	; 0x58
/home/hsk/Desktop/devel/tee-tpm-hyp/optee_os/lib/libutee/tee_api.c:125
     dc0:	4619      	mov	r1, r3
     dc2:	ad04      	add	r5, sp, #16
/home/hsk/Desktop/devel/tee-tpm-hyp/optee_os/lib/libutee/tee_api.c:120
     dc4:	4690      	mov	r8, r2
/home/hsk/Desktop/devel/tee-tpm-hyp/optee_os/lib/libutee/tee_api.c:125
     dc6:	4628      	mov	r0, r5
/home/hsk/Desktop/devel/tee-tpm-hyp/optee_os/lib/libutee/tee_api.c:120
     dc8:	9e1d      	ldr	r6, [sp, #116]	; 0x74
/home/hsk/Desktop/devel/tee-tpm-hyp/optee_os/lib/libutee/tee_api.c:125
     dca:	9a1c      	ldr	r2, [sp, #112]	; 0x70
     dcc:	f7ff ff82 	bl	cd4 <__utee_from_param>
/home/hsk/Desktop/devel/tee-tpm-hyp/optee_os/lib/libutee/tee_api.c:126
     dd0:	ab03      	add	r3, sp, #12
     dd2:	4642      	mov	r2, r8
     dd4:	9300      	str	r3, [sp, #0]
     dd6:	4639      	mov	r1, r7
     dd8:	462b      	mov	r3, r5
     dda:	4620      	mov	r0, r4
     ddc:	f002 e8f6 	blx	2fcc <utee_invoke_ta_command>
/home/hsk/Desktop/devel/tee-tpm-hyp/optee_os/lib/libutee/tee_api.c:129
     de0:	462a      	mov	r2, r5
/home/hsk/Desktop/devel/tee-tpm-hyp/optee_os/lib/libutee/tee_api.c:126
     de2:	4604      	mov	r4, r0
/home/hsk/Desktop/devel/tee-tpm-hyp/optee_os/lib/libutee/tee_api.c:129
     de4:	2100      	movs	r1, #0
     de6:	981c      	ldr	r0, [sp, #112]	; 0x70
     de8:	f7ff ff9b 	bl	d22 <__utee_to_param>
     dec:	9b03      	ldr	r3, [sp, #12]
/home/hsk/Desktop/devel/tee-tpm-hyp/optee_os/lib/libutee/tee_api.c:131
     dee:	b106      	cbz	r6, df2 <TEE_InvokeTACommand+0x3c>
/home/hsk/Desktop/devel/tee-tpm-hyp/optee_os/lib/libutee/tee_api.c:132
     df0:	6033      	str	r3, [r6, #0]
/home/hsk/Desktop/devel/tee-tpm-hyp/optee_os/lib/libutee/tee_api.c:134
     df2:	2b04      	cmp	r3, #4
     df4:	d009      	beq.n	e0a <TEE_InvokeTACommand+0x54>
/home/hsk/Desktop/devel/tee-tpm-hyp/optee_os/lib/libutee/tee_api.c:137
     df6:	b144      	cbz	r4, e0a <TEE_InvokeTACommand+0x54>
/home/hsk/Desktop/devel/tee-tpm-hyp/optee_os/lib/libutee/tee_api.c:137 (discriminator 1)
     df8:	4b06      	ldr	r3, [pc, #24]	; (e14 <TEE_InvokeTACommand+0x5e>)
     dfa:	429c      	cmp	r4, r3
     dfc:	d005      	beq.n	e0a <TEE_InvokeTACommand+0x54>
/home/hsk/Desktop/devel/tee-tpm-hyp/optee_os/lib/libutee/tee_api.c:138
     dfe:	4b06      	ldr	r3, [pc, #24]	; (e18 <TEE_InvokeTACommand+0x62>)
     e00:	429c      	cmp	r4, r3
     e02:	d002      	beq.n	e0a <TEE_InvokeTACommand+0x54>
/home/hsk/Desktop/devel/tee-tpm-hyp/optee_os/lib/libutee/tee_api.c:140
     e04:	4620      	mov	r0, r4
     e06:	f006 fe55 	bl	7ab4 <TEE_Panic>
/home/hsk/Desktop/devel/tee-tpm-hyp/optee_os/lib/libutee/tee_api.c:143
     e0a:	4620      	mov	r0, r4
     e0c:	b016      	add	sp, #88	; 0x58
     e0e:	e8bd 81f0 	ldmia.w	sp!, {r4, r5, r6, r7, r8, pc}
     e12:	bf00      	nop
     e14:	ffff000c 	.word	0xffff000c
     e18:	ffff3024 	.word	0xffff3024

00000e1c <TEE_GetCancellationFlag>:
TEE_GetCancellationFlag():
/home/hsk/Desktop/devel/tee-tpm-hyp/optee_os/lib/libutee/tee_api.c:148
     e1c:	b507      	push	{r0, r1, r2, lr}
/home/hsk/Desktop/devel/tee-tpm-hyp/optee_os/lib/libutee/tee_api.c:150
     e1e:	a801      	add	r0, sp, #4
     e20:	f002 e8e0 	blx	2fe4 <utee_get_cancellation_flag>
/home/hsk/Desktop/devel/tee-tpm-hyp/optee_os/lib/libutee/tee_api.c:152
     e24:	b108      	cbz	r0, e2a <TEE_GetCancellationFlag+0xe>
/home/hsk/Desktop/devel/tee-tpm-hyp/optee_os/lib/libutee/tee_api.c:153
     e26:	2300      	movs	r3, #0
     e28:	9301      	str	r3, [sp, #4]
/home/hsk/Desktop/devel/tee-tpm-hyp/optee_os/lib/libutee/tee_api.c:155
     e2a:	9801      	ldr	r0, [sp, #4]
     e2c:	3000      	adds	r0, #0
     e2e:	bf18      	it	ne
     e30:	2001      	movne	r0, #1
     e32:	b003      	add	sp, #12
     e34:	f85d fb04 	ldr.w	pc, [sp], #4

00000e38 <TEE_UnmaskCancellation>:
TEE_UnmaskCancellation():
/home/hsk/Desktop/devel/tee-tpm-hyp/optee_os/lib/libutee/tee_api.c:158
     e38:	b507      	push	{r0, r1, r2, lr}
/home/hsk/Desktop/devel/tee-tpm-hyp/optee_os/lib/libutee/tee_api.c:160
     e3a:	a801      	add	r0, sp, #4
     e3c:	f002 e8e6 	blx	300c <utee_unmask_cancellation>
/home/hsk/Desktop/devel/tee-tpm-hyp/optee_os/lib/libutee/tee_api.c:162
     e40:	b108      	cbz	r0, e46 <TEE_UnmaskCancellation+0xe>
/home/hsk/Desktop/devel/tee-tpm-hyp/optee_os/lib/libutee/tee_api.c:163
     e42:	f006 fe37 	bl	7ab4 <TEE_Panic>
/home/hsk/Desktop/devel/tee-tpm-hyp/optee_os/lib/libutee/tee_api.c:165
     e46:	9801      	ldr	r0, [sp, #4]
     e48:	3000      	adds	r0, #0
     e4a:	bf18      	it	ne
     e4c:	2001      	movne	r0, #1
     e4e:	b003      	add	sp, #12
     e50:	f85d fb04 	ldr.w	pc, [sp], #4

00000e54 <TEE_MaskCancellation>:
TEE_MaskCancellation():
/home/hsk/Desktop/devel/tee-tpm-hyp/optee_os/lib/libutee/tee_api.c:168
     e54:	b507      	push	{r0, r1, r2, lr}
/home/hsk/Desktop/devel/tee-tpm-hyp/optee_os/lib/libutee/tee_api.c:170
     e56:	a801      	add	r0, sp, #4
     e58:	f002 e8e2 	blx	3020 <utee_mask_cancellation>
/home/hsk/Desktop/devel/tee-tpm-hyp/optee_os/lib/libutee/tee_api.c:172
     e5c:	b108      	cbz	r0, e62 <TEE_MaskCancellation+0xe>
/home/hsk/Desktop/devel/tee-tpm-hyp/optee_os/lib/libutee/tee_api.c:173
     e5e:	f006 fe29 	bl	7ab4 <TEE_Panic>
/home/hsk/Desktop/devel/tee-tpm-hyp/optee_os/lib/libutee/tee_api.c:175
     e62:	9801      	ldr	r0, [sp, #4]
     e64:	3000      	adds	r0, #0
     e66:	bf18      	it	ne
     e68:	2001      	movne	r0, #1
     e6a:	b003      	add	sp, #12
     e6c:	f85d fb04 	ldr.w	pc, [sp], #4

00000e70 <TEE_CheckMemoryAccessRights>:
TEE_CheckMemoryAccessRights():
/home/hsk/Desktop/devel/tee-tpm-hyp/optee_os/lib/libutee/tee_api.c:184
     e70:	b10a      	cbz	r2, e76 <TEE_CheckMemoryAccessRights+0x6>
/home/hsk/Desktop/devel/tee-tpm-hyp/optee_os/lib/libutee/tee_api.c:188
     e72:	f006 be91 	b.w	7b98 <__utee_check_access_rights_from_thumb>
/home/hsk/Desktop/devel/tee-tpm-hyp/optee_os/lib/libutee/tee_api.c:200
     e76:	4610      	mov	r0, r2
     e78:	4770      	bx	lr

00000e7a <TEE_SetInstanceData>:
TEE_SetInstanceData():
/home/hsk/Desktop/devel/tee-tpm-hyp/optee_os/lib/libutee/tee_api.c:204
     e7a:	4b02      	ldr	r3, [pc, #8]	; (e84 <TEE_SetInstanceData+0xa>)
     e7c:	447b      	add	r3, pc
     e7e:	6018      	str	r0, [r3, #0]
/home/hsk/Desktop/devel/tee-tpm-hyp/optee_os/lib/libutee/tee_api.c:205
     e80:	4770      	bx	lr
     e82:	bf00      	nop
     e84:	00009218 	.word	0x00009218

00000e88 <TEE_GetInstanceData>:
TEE_GetInstanceData():
/home/hsk/Desktop/devel/tee-tpm-hyp/optee_os/lib/libutee/tee_api.c:210
     e88:	4b01      	ldr	r3, [pc, #4]	; (e90 <TEE_GetInstanceData+0x8>)
     e8a:	447b      	add	r3, pc
     e8c:	6818      	ldr	r0, [r3, #0]
     e8e:	4770      	bx	lr
     e90:	0000920a 	.word	0x0000920a

00000e94 <TEE_MemMove>:
TEE_MemMove():
/home/hsk/Desktop/devel/tee-tpm-hyp/optee_os/lib/libutee/tee_api.c:214
     e94:	f006 be40 	b.w	7b18 <memmove>

00000e98 <TEE_MemCompare>:
TEE_MemCompare():
/home/hsk/Desktop/devel/tee-tpm-hyp/optee_os/lib/libutee/tee_api.c:219
     e98:	f006 be24 	b.w	7ae4 <memcmp>

00000e9c <TEE_MemFill>:
TEE_MemFill():
/home/hsk/Desktop/devel/tee-tpm-hyp/optee_os/lib/libutee/tee_api.c:224
     e9c:	f006 be55 	b.w	7b4a <memset>

00000ea0 <TEE_GetSystemTime>:
TEE_GetSystemTime():
/home/hsk/Desktop/devel/tee-tpm-hyp/optee_os/lib/libutee/tee_api.c:230
     ea0:	b508      	push	{r3, lr}
/home/hsk/Desktop/devel/tee-tpm-hyp/optee_os/lib/libutee/tee_api.c:231
     ea2:	4601      	mov	r1, r0
     ea4:	2000      	movs	r0, #0
     ea6:	f002 e8d0 	blx	3048 <utee_get_time>
/home/hsk/Desktop/devel/tee-tpm-hyp/optee_os/lib/libutee/tee_api.c:233
     eaa:	b118      	cbz	r0, eb4 <TEE_GetSystemTime+0x14>
/home/hsk/Desktop/devel/tee-tpm-hyp/optee_os/lib/libutee/tee_api.c:235
     eac:	e8bd 4008 	ldmia.w	sp!, {r3, lr}
/home/hsk/Desktop/devel/tee-tpm-hyp/optee_os/lib/libutee/tee_api.c:234
     eb0:	f006 be00 	b.w	7ab4 <TEE_Panic>
/home/hsk/Desktop/devel/tee-tpm-hyp/optee_os/lib/libutee/tee_api.c:235
     eb4:	bd08      	pop	{r3, pc}

00000eb6 <TEE_Wait>:
TEE_Wait():
/home/hsk/Desktop/devel/tee-tpm-hyp/optee_os/lib/libutee/tee_api.c:238
     eb6:	b510      	push	{r4, lr}
/home/hsk/Desktop/devel/tee-tpm-hyp/optee_os/lib/libutee/tee_api.c:239
     eb8:	f002 e8bc 	blx	3034 <utee_wait>
/home/hsk/Desktop/devel/tee-tpm-hyp/optee_os/lib/libutee/tee_api.c:241
     ebc:	4604      	mov	r4, r0
     ebe:	b120      	cbz	r0, eca <TEE_Wait+0x14>
/home/hsk/Desktop/devel/tee-tpm-hyp/optee_os/lib/libutee/tee_api.c:241 (discriminator 1)
     ec0:	4b03      	ldr	r3, [pc, #12]	; (ed0 <TEE_Wait+0x1a>)
     ec2:	4298      	cmp	r0, r3
     ec4:	d001      	beq.n	eca <TEE_Wait+0x14>
/home/hsk/Desktop/devel/tee-tpm-hyp/optee_os/lib/libutee/tee_api.c:242
     ec6:	f006 fdf5 	bl	7ab4 <TEE_Panic>
/home/hsk/Desktop/devel/tee-tpm-hyp/optee_os/lib/libutee/tee_api.c:245
     eca:	4620      	mov	r0, r4
     ecc:	bd10      	pop	{r4, pc}
     ece:	bf00      	nop
     ed0:	ffff0002 	.word	0xffff0002

00000ed4 <TEE_GetTAPersistentTime>:
TEE_GetTAPersistentTime():
/home/hsk/Desktop/devel/tee-tpm-hyp/optee_os/lib/libutee/tee_api.c:248
     ed4:	b538      	push	{r3, r4, r5, lr}
/home/hsk/Desktop/devel/tee-tpm-hyp/optee_os/lib/libutee/tee_api.c:251
     ed6:	4601      	mov	r1, r0
/home/hsk/Desktop/devel/tee-tpm-hyp/optee_os/lib/libutee/tee_api.c:248
     ed8:	4605      	mov	r5, r0
/home/hsk/Desktop/devel/tee-tpm-hyp/optee_os/lib/libutee/tee_api.c:251
     eda:	2001      	movs	r0, #1
     edc:	f002 e8b4 	blx	3048 <utee_get_time>
/home/hsk/Desktop/devel/tee-tpm-hyp/optee_os/lib/libutee/tee_api.c:253
     ee0:	4604      	mov	r4, r0
     ee2:	b170      	cbz	r0, f02 <TEE_GetTAPersistentTime+0x2e>
/home/hsk/Desktop/devel/tee-tpm-hyp/optee_os/lib/libutee/tee_api.c:253 (discriminator 1)
     ee4:	4b08      	ldr	r3, [pc, #32]	; (f08 <TEE_GetTAPersistentTime+0x34>)
     ee6:	4298      	cmp	r0, r3
     ee8:	d00b      	beq.n	f02 <TEE_GetTAPersistentTime+0x2e>
/home/hsk/Desktop/devel/tee-tpm-hyp/optee_os/lib/libutee/tee_api.c:254
     eea:	2300      	movs	r3, #0
     eec:	602b      	str	r3, [r5, #0]
/home/hsk/Desktop/devel/tee-tpm-hyp/optee_os/lib/libutee/tee_api.c:255
     eee:	606b      	str	r3, [r5, #4]
/home/hsk/Desktop/devel/tee-tpm-hyp/optee_os/lib/libutee/tee_api.c:258
     ef0:	f500 4330 	add.w	r3, r0, #45056	; 0xb000
     ef4:	2b01      	cmp	r3, #1
     ef6:	d904      	bls.n	f02 <TEE_GetTAPersistentTime+0x2e>
/home/hsk/Desktop/devel/tee-tpm-hyp/optee_os/lib/libutee/tee_api.c:261
     ef8:	4b04      	ldr	r3, [pc, #16]	; (f0c <TEE_GetTAPersistentTime+0x38>)
     efa:	4298      	cmp	r0, r3
     efc:	d001      	beq.n	f02 <TEE_GetTAPersistentTime+0x2e>
/home/hsk/Desktop/devel/tee-tpm-hyp/optee_os/lib/libutee/tee_api.c:263
     efe:	f006 fdd9 	bl	7ab4 <TEE_Panic>
/home/hsk/Desktop/devel/tee-tpm-hyp/optee_os/lib/libutee/tee_api.c:266
     f02:	4620      	mov	r0, r4
     f04:	bd38      	pop	{r3, r4, r5, pc}
     f06:	bf00      	nop
     f08:	ffff300f 	.word	0xffff300f
     f0c:	ffff000c 	.word	0xffff000c

00000f10 <TEE_SetTAPersistentTime>:
TEE_SetTAPersistentTime():
/home/hsk/Desktop/devel/tee-tpm-hyp/optee_os/lib/libutee/tee_api.c:269
     f10:	b510      	push	{r4, lr}
/home/hsk/Desktop/devel/tee-tpm-hyp/optee_os/lib/libutee/tee_api.c:272
     f12:	f002 e8a4 	blx	305c <utee_set_ta_time>
/home/hsk/Desktop/devel/tee-tpm-hyp/optee_os/lib/libutee/tee_api.c:274
     f16:	4604      	mov	r4, r0
     f18:	b138      	cbz	r0, f2a <TEE_SetTAPersistentTime+0x1a>
/home/hsk/Desktop/devel/tee-tpm-hyp/optee_os/lib/libutee/tee_api.c:274 (discriminator 1)
     f1a:	4b05      	ldr	r3, [pc, #20]	; (f30 <TEE_SetTAPersistentTime+0x20>)
     f1c:	4298      	cmp	r0, r3
     f1e:	d004      	beq.n	f2a <TEE_SetTAPersistentTime+0x1a>
/home/hsk/Desktop/devel/tee-tpm-hyp/optee_os/lib/libutee/tee_api.c:275
     f20:	4b04      	ldr	r3, [pc, #16]	; (f34 <TEE_SetTAPersistentTime+0x24>)
     f22:	4298      	cmp	r0, r3
     f24:	d001      	beq.n	f2a <TEE_SetTAPersistentTime+0x1a>
/home/hsk/Desktop/devel/tee-tpm-hyp/optee_os/lib/libutee/tee_api.c:277
     f26:	f006 fdc5 	bl	7ab4 <TEE_Panic>
/home/hsk/Desktop/devel/tee-tpm-hyp/optee_os/lib/libutee/tee_api.c:280
     f2a:	4620      	mov	r0, r4
     f2c:	bd10      	pop	{r4, pc}
     f2e:	bf00      	nop
     f30:	ffff000c 	.word	0xffff000c
     f34:	ffff3041 	.word	0xffff3041

00000f38 <TEE_GetREETime>:
TEE_GetREETime():
/home/hsk/Desktop/devel/tee-tpm-hyp/optee_os/lib/libutee/tee_api.c:283
     f38:	b508      	push	{r3, lr}
/home/hsk/Desktop/devel/tee-tpm-hyp/optee_os/lib/libutee/tee_api.c:284
     f3a:	4601      	mov	r1, r0
     f3c:	2002      	movs	r0, #2
     f3e:	f002 e884 	blx	3048 <utee_get_time>
/home/hsk/Desktop/devel/tee-tpm-hyp/optee_os/lib/libutee/tee_api.c:286
     f42:	b118      	cbz	r0, f4c <TEE_GetREETime+0x14>
/home/hsk/Desktop/devel/tee-tpm-hyp/optee_os/lib/libutee/tee_api.c:288
     f44:	e8bd 4008 	ldmia.w	sp!, {r3, lr}
/home/hsk/Desktop/devel/tee-tpm-hyp/optee_os/lib/libutee/tee_api.c:287
     f48:	f006 bdb4 	b.w	7ab4 <TEE_Panic>
/home/hsk/Desktop/devel/tee-tpm-hyp/optee_os/lib/libutee/tee_api.c:288
     f4c:	bd08      	pop	{r3, pc}

00000f4e <TEE_Malloc>:
TEE_Malloc():
/home/hsk/Desktop/devel/tee-tpm-hyp/optee_os/lib/libutee/tee_api.c:291
     f4e:	b507      	push	{r0, r1, r2, lr}
/home/hsk/Desktop/devel/tee-tpm-hyp/optee_os/lib/libutee/tee_api.c:292
     f50:	b931      	cbnz	r1, f60 <TEE_Malloc+0x12>
/home/hsk/Desktop/devel/tee-tpm-hyp/optee_os/lib/libutee/tee_api.c:293
     f52:	4601      	mov	r1, r0
     f54:	2001      	movs	r0, #1
/home/hsk/Desktop/devel/tee-tpm-hyp/optee_os/lib/libutee/tee_api.c:300
     f56:	b003      	add	sp, #12
     f58:	f85d eb04 	ldr.w	lr, [sp], #4
/home/hsk/Desktop/devel/tee-tpm-hyp/optee_os/lib/libutee/tee_api.c:293
     f5c:	f006 b98a 	b.w	7274 <calloc>
/home/hsk/Desktop/devel/tee-tpm-hyp/optee_os/lib/libutee/tee_api.c:294
     f60:	f1b1 4f00 	cmp.w	r1, #2147483648	; 0x80000000
     f64:	d104      	bne.n	f70 <TEE_Malloc+0x22>
/home/hsk/Desktop/devel/tee-tpm-hyp/optee_os/lib/libutee/tee_api.c:300
     f66:	b003      	add	sp, #12
     f68:	f85d eb04 	ldr.w	lr, [sp], #4
/home/hsk/Desktop/devel/tee-tpm-hyp/optee_os/lib/libutee/tee_api.c:295
     f6c:	f006 b95e 	b.w	722c <malloc>
/home/hsk/Desktop/devel/tee-tpm-hyp/optee_os/lib/libutee/tee_api.c:297
     f70:	4b07      	ldr	r3, [pc, #28]	; (f90 <TEE_Malloc+0x42>)
     f72:	4808      	ldr	r0, [pc, #32]	; (f94 <TEE_Malloc+0x46>)
     f74:	447b      	add	r3, pc
     f76:	9300      	str	r3, [sp, #0]
     f78:	2301      	movs	r3, #1
     f7a:	9101      	str	r1, [sp, #4]
     f7c:	461a      	mov	r2, r3
     f7e:	f240 1129 	movw	r1, #297	; 0x129
     f82:	4478      	add	r0, pc
     f84:	f7ff f994 	bl	2b0 <trace_printf>
/home/hsk/Desktop/devel/tee-tpm-hyp/optee_os/lib/libutee/tee_api.c:300
     f88:	2000      	movs	r0, #0
     f8a:	b003      	add	sp, #12
     f8c:	f85d fb04 	ldr.w	pc, [sp], #4
     f90:	000071ee 	.word	0x000071ee
     f94:	000071d5 	.word	0x000071d5

00000f98 <TEE_Realloc>:
TEE_Realloc():
/home/hsk/Desktop/devel/tee-tpm-hyp/optee_os/lib/libutee/tee_api.c:304
     f98:	f006 b990 	b.w	72bc <realloc>

00000f9c <TEE_Free>:
TEE_Free():
/home/hsk/Desktop/devel/tee-tpm-hyp/optee_os/lib/libutee/tee_api.c:309
     f9c:	f006 b962 	b.w	7264 <free>

00000fa0 <TEE_CacheClean>:
TEE_CacheClean():
/home/hsk/Desktop/devel/tee-tpm-hyp/optee_os/lib/libutee/tee_api.c:315
     fa0:	2200      	movs	r2, #0
     fa2:	f006 be01 	b.w	7ba8 <__utee_cache_operation_from_thumb>

00000fa6 <TEE_CacheFlush>:
TEE_CacheFlush():
/home/hsk/Desktop/devel/tee-tpm-hyp/optee_os/lib/libutee/tee_api.c:319
     fa6:	2201      	movs	r2, #1
     fa8:	f006 bdfe 	b.w	7ba8 <__utee_cache_operation_from_thumb>

00000fac <TEE_CacheInvalidate>:
TEE_CacheInvalidate():
/home/hsk/Desktop/devel/tee-tpm-hyp/optee_os/lib/libutee/tee_api.c:324
     fac:	2202      	movs	r2, #2
     fae:	f006 bdfb 	b.w	7ba8 <__utee_cache_operation_from_thumb>
     fb2:	bf00      	nop

00000fb4 <__utee_from_attr>:
__utee_from_attr():
/home/hsk/Desktop/devel/tee-tpm-hyp/optee_os/lib/libutee/tee_api_objects.c:19
     fb4:	2318      	movs	r3, #24
     fb6:	b570      	push	{r4, r5, r6, lr}
     fb8:	2400      	movs	r4, #0
     fba:	fb03 0202 	mla	r2, r3, r2, r0
/home/hsk/Desktop/devel/tee-tpm-hyp/optee_os/lib/libutee/tee_api_objects.c:22 (discriminator 1)
     fbe:	4290      	cmp	r0, r2
     fc0:	d100      	bne.n	fc4 <__utee_from_attr+0x10>
/home/hsk/Desktop/devel/tee-tpm-hyp/optee_os/lib/libutee/tee_api_objects.c:32
     fc2:	bd70      	pop	{r4, r5, r6, pc}
/home/hsk/Desktop/devel/tee-tpm-hyp/optee_os/lib/libutee/tee_api_objects.c:23
     fc4:	680b      	ldr	r3, [r1, #0]
     fc6:	6103      	str	r3, [r0, #16]
/home/hsk/Desktop/devel/tee-tpm-hyp/optee_os/lib/libutee/tee_api_objects.c:24
     fc8:	f013 5300 	ands.w	r3, r3, #536870912	; 0x20000000
     fcc:	688d      	ldr	r5, [r1, #8]
     fce:	d007      	beq.n	fe0 <__utee_from_attr+0x2c>
/home/hsk/Desktop/devel/tee-tpm-hyp/optee_os/lib/libutee/tee_api_objects.c:25
     fd0:	684b      	ldr	r3, [r1, #4]
     fd2:	e9c0 3400 	strd	r3, r4, [r0]
/home/hsk/Desktop/devel/tee-tpm-hyp/optee_os/lib/libutee/tee_api_objects.c:26
     fd6:	e9c0 5402 	strd	r5, r4, [r0, #8]
     fda:	310c      	adds	r1, #12
     fdc:	3018      	adds	r0, #24
     fde:	e7ee      	b.n	fbe <__utee_from_attr+0xa>
/home/hsk/Desktop/devel/tee-tpm-hyp/optee_os/lib/libutee/tee_api_objects.c:28
     fe0:	684e      	ldr	r6, [r1, #4]
     fe2:	e9c0 6300 	strd	r6, r3, [r0]
/home/hsk/Desktop/devel/tee-tpm-hyp/optee_os/lib/libutee/tee_api_objects.c:29
     fe6:	e9c0 5302 	strd	r5, r3, [r0, #8]
     fea:	e7f6      	b.n	fda <__utee_from_attr+0x26>

00000fec <TEE_GetObjectInfo>:
TEE_GetObjectInfo():
/home/hsk/Desktop/devel/tee-tpm-hyp/optee_os/lib/libutee/tee_api_objects.c:42
     fec:	b510      	push	{r4, lr}
     fee:	460c      	mov	r4, r1
/home/hsk/Desktop/devel/tee-tpm-hyp/optee_os/lib/libutee/tee_api_objects.c:45
     ff0:	f002 e8a0 	blx	3134 <utee_cryp_obj_get_info>
/home/hsk/Desktop/devel/tee-tpm-hyp/optee_os/lib/libutee/tee_api_objects.c:47
     ff4:	b108      	cbz	r0, ffa <TEE_GetObjectInfo+0xe>
/home/hsk/Desktop/devel/tee-tpm-hyp/optee_os/lib/libutee/tee_api_objects.c:48
     ff6:	f006 fd5d 	bl	7ab4 <TEE_Panic>
/home/hsk/Desktop/devel/tee-tpm-hyp/optee_os/lib/libutee/tee_api_objects.c:50
     ffa:	6822      	ldr	r2, [r4, #0]
     ffc:	4b05      	ldr	r3, [pc, #20]	; (1014 <TEE_GetObjectInfo+0x28>)
     ffe:	429a      	cmp	r2, r3
    1000:	d106      	bne.n	1010 <TEE_GetObjectInfo+0x24>
/home/hsk/Desktop/devel/tee-tpm-hyp/optee_os/lib/libutee/tee_api_objects.c:51
    1002:	2300      	movs	r3, #0
    1004:	6063      	str	r3, [r4, #4]
/home/hsk/Desktop/devel/tee-tpm-hyp/optee_os/lib/libutee/tee_api_objects.c:52
    1006:	60a3      	str	r3, [r4, #8]
/home/hsk/Desktop/devel/tee-tpm-hyp/optee_os/lib/libutee/tee_api_objects.c:53
    1008:	60e3      	str	r3, [r4, #12]
/home/hsk/Desktop/devel/tee-tpm-hyp/optee_os/lib/libutee/tee_api_objects.c:54
    100a:	6123      	str	r3, [r4, #16]
/home/hsk/Desktop/devel/tee-tpm-hyp/optee_os/lib/libutee/tee_api_objects.c:55
    100c:	6163      	str	r3, [r4, #20]
/home/hsk/Desktop/devel/tee-tpm-hyp/optee_os/lib/libutee/tee_api_objects.c:56
    100e:	61a3      	str	r3, [r4, #24]
/home/hsk/Desktop/devel/tee-tpm-hyp/optee_os/lib/libutee/tee_api_objects.c:58
    1010:	bd10      	pop	{r4, pc}
    1012:	bf00      	nop
    1014:	a00000be 	.word	0xa00000be

00001018 <TEE_GetObjectInfo1>:
TEE_GetObjectInfo1():
/home/hsk/Desktop/devel/tee-tpm-hyp/optee_os/lib/libutee/tee_api_objects.c:61
    1018:	b510      	push	{r4, lr}
/home/hsk/Desktop/devel/tee-tpm-hyp/optee_os/lib/libutee/tee_api_objects.c:64
    101a:	f002 e88c 	blx	3134 <utee_cryp_obj_get_info>
/home/hsk/Desktop/devel/tee-tpm-hyp/optee_os/lib/libutee/tee_api_objects.c:66
    101e:	4604      	mov	r4, r0
    1020:	b130      	cbz	r0, 1030 <TEE_GetObjectInfo1+0x18>
/home/hsk/Desktop/devel/tee-tpm-hyp/optee_os/lib/libutee/tee_api_objects.c:66 (discriminator 1)
    1022:	4b04      	ldr	r3, [pc, #16]	; (1034 <TEE_GetObjectInfo1+0x1c>)
    1024:	f020 0202 	bic.w	r2, r0, #2
    1028:	429a      	cmp	r2, r3
    102a:	d001      	beq.n	1030 <TEE_GetObjectInfo1+0x18>
/home/hsk/Desktop/devel/tee-tpm-hyp/optee_os/lib/libutee/tee_api_objects.c:69
    102c:	f006 fd42 	bl	7ab4 <TEE_Panic>
/home/hsk/Desktop/devel/tee-tpm-hyp/optee_os/lib/libutee/tee_api_objects.c:72
    1030:	4620      	mov	r0, r4
    1032:	bd10      	pop	{r4, pc}
    1034:	f0100001 	.word	0xf0100001

00001038 <TEE_RestrictObjectUsage1>:
TEE_RestrictObjectUsage1():
/home/hsk/Desktop/devel/tee-tpm-hyp/optee_os/lib/libutee/tee_api_objects.c:96
    1038:	b510      	push	{r4, lr}
/home/hsk/Desktop/devel/tee-tpm-hyp/optee_os/lib/libutee/tee_api_objects.c:99
    103a:	f002 e886 	blx	3148 <utee_cryp_obj_restrict_usage>
/home/hsk/Desktop/devel/tee-tpm-hyp/optee_os/lib/libutee/tee_api_objects.c:101
    103e:	4604      	mov	r4, r0
    1040:	b130      	cbz	r0, 1050 <TEE_RestrictObjectUsage1+0x18>
/home/hsk/Desktop/devel/tee-tpm-hyp/optee_os/lib/libutee/tee_api_objects.c:101 (discriminator 1)
    1042:	4b04      	ldr	r3, [pc, #16]	; (1054 <TEE_RestrictObjectUsage1+0x1c>)
    1044:	f020 0202 	bic.w	r2, r0, #2
    1048:	429a      	cmp	r2, r3
    104a:	d001      	beq.n	1050 <TEE_RestrictObjectUsage1+0x18>
/home/hsk/Desktop/devel/tee-tpm-hyp/optee_os/lib/libutee/tee_api_objects.c:104
    104c:	f006 fd32 	bl	7ab4 <TEE_Panic>
/home/hsk/Desktop/devel/tee-tpm-hyp/optee_os/lib/libutee/tee_api_objects.c:107
    1050:	4620      	mov	r0, r4
    1052:	bd10      	pop	{r4, pc}
    1054:	f0100001 	.word	0xf0100001

00001058 <TEE_RestrictObjectUsage>:
TEE_RestrictObjectUsage():
/home/hsk/Desktop/devel/tee-tpm-hyp/optee_os/lib/libutee/tee_api_objects.c:81
    1058:	b530      	push	{r4, r5, lr}
    105a:	460d      	mov	r5, r1
    105c:	4604      	mov	r4, r0
    105e:	b089      	sub	sp, #36	; 0x24
/home/hsk/Desktop/devel/tee-tpm-hyp/optee_os/lib/libutee/tee_api_objects.c:85
    1060:	a901      	add	r1, sp, #4
    1062:	f002 e868 	blx	3134 <utee_cryp_obj_get_info>
/home/hsk/Desktop/devel/tee-tpm-hyp/optee_os/lib/libutee/tee_api_objects.c:86
    1066:	4b06      	ldr	r3, [pc, #24]	; (1080 <TEE_RestrictObjectUsage+0x28>)
    1068:	9a01      	ldr	r2, [sp, #4]
    106a:	429a      	cmp	r2, r3
    106c:	d006      	beq.n	107c <TEE_RestrictObjectUsage+0x24>
/home/hsk/Desktop/devel/tee-tpm-hyp/optee_os/lib/libutee/tee_api_objects.c:89
    106e:	4629      	mov	r1, r5
    1070:	4620      	mov	r0, r4
    1072:	f7ff ffe1 	bl	1038 <TEE_RestrictObjectUsage1>
/home/hsk/Desktop/devel/tee-tpm-hyp/optee_os/lib/libutee/tee_api_objects.c:91
    1076:	b108      	cbz	r0, 107c <TEE_RestrictObjectUsage+0x24>
/home/hsk/Desktop/devel/tee-tpm-hyp/optee_os/lib/libutee/tee_api_objects.c:92
    1078:	f006 fd1c 	bl	7ab4 <TEE_Panic>
/home/hsk/Desktop/devel/tee-tpm-hyp/optee_os/lib/libutee/tee_api_objects.c:93
    107c:	b009      	add	sp, #36	; 0x24
    107e:	bd30      	pop	{r4, r5, pc}
    1080:	a00000be 	.word	0xa00000be

00001084 <TEE_GetObjectBufferAttribute>:
TEE_GetObjectBufferAttribute():
/home/hsk/Desktop/devel/tee-tpm-hyp/optee_os/lib/libutee/tee_api_objects.c:112
    1084:	e92d 41f0 	stmdb	sp!, {r4, r5, r6, r7, r8, lr}
    1088:	460e      	mov	r6, r1
    108a:	4607      	mov	r7, r0
    108c:	b08a      	sub	sp, #40	; 0x28
    108e:	4690      	mov	r8, r2
/home/hsk/Desktop/devel/tee-tpm-hyp/optee_os/lib/libutee/tee_api_objects.c:117
    1090:	a903      	add	r1, sp, #12
/home/hsk/Desktop/devel/tee-tpm-hyp/optee_os/lib/libutee/tee_api_objects.c:112
    1092:	461d      	mov	r5, r3
/home/hsk/Desktop/devel/tee-tpm-hyp/optee_os/lib/libutee/tee_api_objects.c:117
    1094:	f002 e84e 	blx	3134 <utee_cryp_obj_get_info>
/home/hsk/Desktop/devel/tee-tpm-hyp/optee_os/lib/libutee/tee_api_objects.c:118
    1098:	4604      	mov	r4, r0
    109a:	b970      	cbnz	r0, 10ba <TEE_GetObjectBufferAttribute+0x36>
/home/hsk/Desktop/devel/tee-tpm-hyp/optee_os/lib/libutee/tee_api_objects.c:122
    109c:	00b3      	lsls	r3, r6, #2
    109e:	d422      	bmi.n	10e6 <TEE_GetObjectBufferAttribute+0x62>
/home/hsk/Desktop/devel/tee-tpm-hyp/optee_os/lib/libutee/tee_api_objects.c:127
    10a0:	682b      	ldr	r3, [r5, #0]
/home/hsk/Desktop/devel/tee-tpm-hyp/optee_os/lib/libutee/tee_api_objects.c:128
    10a2:	4642      	mov	r2, r8
/home/hsk/Desktop/devel/tee-tpm-hyp/optee_os/lib/libutee/tee_api_objects.c:127
    10a4:	e9cd 3000 	strd	r3, r0, [sp]
/home/hsk/Desktop/devel/tee-tpm-hyp/optee_os/lib/libutee/tee_api_objects.c:128
    10a8:	4631      	mov	r1, r6
    10aa:	466b      	mov	r3, sp
    10ac:	4638      	mov	r0, r7
    10ae:	f002 e856 	blx	315c <utee_cryp_obj_get_attr>
/home/hsk/Desktop/devel/tee-tpm-hyp/optee_os/lib/libutee/tee_api_objects.c:130
    10b2:	9b00      	ldr	r3, [sp, #0]
    10b4:	602b      	str	r3, [r5, #0]
/home/hsk/Desktop/devel/tee-tpm-hyp/optee_os/lib/libutee/tee_api_objects.c:133
    10b6:	4604      	mov	r4, r0
    10b8:	b188      	cbz	r0, 10de <TEE_GetObjectBufferAttribute+0x5a>
/home/hsk/Desktop/devel/tee-tpm-hyp/optee_os/lib/libutee/tee_api_objects.c:133 (discriminator 1)
    10ba:	4b0c      	ldr	r3, [pc, #48]	; (10ec <TEE_GetObjectBufferAttribute+0x68>)
    10bc:	429c      	cmp	r4, r3
    10be:	d00e      	beq.n	10de <TEE_GetObjectBufferAttribute+0x5a>
/home/hsk/Desktop/devel/tee-tpm-hyp/optee_os/lib/libutee/tee_api_objects.c:134
    10c0:	3308      	adds	r3, #8
    10c2:	429c      	cmp	r4, r3
    10c4:	d00b      	beq.n	10de <TEE_GetObjectBufferAttribute+0x5a>
/home/hsk/Desktop/devel/tee-tpm-hyp/optee_os/lib/libutee/tee_api_objects.c:135
    10c6:	f1a3 637e 	sub.w	r3, r3, #266338304	; 0xfe00000
    10ca:	f1a3 130f 	sub.w	r3, r3, #983055	; 0xf000f
    10ce:	429c      	cmp	r4, r3
    10d0:	d005      	beq.n	10de <TEE_GetObjectBufferAttribute+0x5a>
/home/hsk/Desktop/devel/tee-tpm-hyp/optee_os/lib/libutee/tee_api_objects.c:136
    10d2:	3302      	adds	r3, #2
    10d4:	429c      	cmp	r4, r3
    10d6:	d002      	beq.n	10de <TEE_GetObjectBufferAttribute+0x5a>
/home/hsk/Desktop/devel/tee-tpm-hyp/optee_os/lib/libutee/tee_api_objects.c:138
    10d8:	4620      	mov	r0, r4
    10da:	f006 fceb 	bl	7ab4 <TEE_Panic>
/home/hsk/Desktop/devel/tee-tpm-hyp/optee_os/lib/libutee/tee_api_objects.c:141
    10de:	4620      	mov	r0, r4
    10e0:	b00a      	add	sp, #40	; 0x28
    10e2:	e8bd 81f0 	ldmia.w	sp!, {r4, r5, r6, r7, r8, pc}
/home/hsk/Desktop/devel/tee-tpm-hyp/optee_os/lib/libutee/tee_api_objects.c:123
    10e6:	4c02      	ldr	r4, [pc, #8]	; (10f0 <TEE_GetObjectBufferAttribute+0x6c>)
    10e8:	e7f6      	b.n	10d8 <TEE_GetObjectBufferAttribute+0x54>
    10ea:	bf00      	nop
    10ec:	ffff0008 	.word	0xffff0008
    10f0:	ffff0006 	.word	0xffff0006

000010f4 <TEE_GetObjectValueAttribute>:
TEE_GetObjectValueAttribute():
/home/hsk/Desktop/devel/tee-tpm-hyp/optee_os/lib/libutee/tee_api_objects.c:146
    10f4:	e92d 41f0 	stmdb	sp!, {r4, r5, r6, r7, r8, lr}
    10f8:	460f      	mov	r7, r1
    10fa:	4680      	mov	r8, r0
    10fc:	b08c      	sub	sp, #48	; 0x30
    10fe:	4616      	mov	r6, r2
/home/hsk/Desktop/devel/tee-tpm-hyp/optee_os/lib/libutee/tee_api_objects.c:152
    1100:	a905      	add	r1, sp, #20
/home/hsk/Desktop/devel/tee-tpm-hyp/optee_os/lib/libutee/tee_api_objects.c:150
    1102:	2208      	movs	r2, #8
/home/hsk/Desktop/devel/tee-tpm-hyp/optee_os/lib/libutee/tee_api_objects.c:146
    1104:	461d      	mov	r5, r3
/home/hsk/Desktop/devel/tee-tpm-hyp/optee_os/lib/libutee/tee_api_objects.c:150
    1106:	2300      	movs	r3, #0
    1108:	e9cd 2300 	strd	r2, r3, [sp]
/home/hsk/Desktop/devel/tee-tpm-hyp/optee_os/lib/libutee/tee_api_objects.c:152
    110c:	f002 e812 	blx	3134 <utee_cryp_obj_get_info>
/home/hsk/Desktop/devel/tee-tpm-hyp/optee_os/lib/libutee/tee_api_objects.c:153
    1110:	4604      	mov	r4, r0
    1112:	b948      	cbnz	r0, 1128 <TEE_GetObjectValueAttribute+0x34>
/home/hsk/Desktop/devel/tee-tpm-hyp/optee_os/lib/libutee/tee_api_objects.c:157
    1114:	00bb      	lsls	r3, r7, #2
    1116:	d527      	bpl.n	1168 <TEE_GetObjectValueAttribute+0x74>
/home/hsk/Desktop/devel/tee-tpm-hyp/optee_os/lib/libutee/tee_api_objects.c:162
    1118:	466b      	mov	r3, sp
    111a:	aa03      	add	r2, sp, #12
    111c:	4639      	mov	r1, r7
    111e:	4640      	mov	r0, r8
    1120:	f002 e81c 	blx	315c <utee_cryp_obj_get_attr>
/home/hsk/Desktop/devel/tee-tpm-hyp/optee_os/lib/libutee/tee_api_objects.c:166
    1124:	4604      	mov	r4, r0
    1126:	b158      	cbz	r0, 1140 <TEE_GetObjectValueAttribute+0x4c>
/home/hsk/Desktop/devel/tee-tpm-hyp/optee_os/lib/libutee/tee_api_objects.c:166 (discriminator 1)
    1128:	4b10      	ldr	r3, [pc, #64]	; (116c <TEE_GetObjectValueAttribute+0x78>)
    112a:	429c      	cmp	r4, r3
    112c:	d008      	beq.n	1140 <TEE_GetObjectValueAttribute+0x4c>
/home/hsk/Desktop/devel/tee-tpm-hyp/optee_os/lib/libutee/tee_api_objects.c:167
    112e:	4b10      	ldr	r3, [pc, #64]	; (1170 <TEE_GetObjectValueAttribute+0x7c>)
    1130:	429c      	cmp	r4, r3
    1132:	d005      	beq.n	1140 <TEE_GetObjectValueAttribute+0x4c>
/home/hsk/Desktop/devel/tee-tpm-hyp/optee_os/lib/libutee/tee_api_objects.c:168
    1134:	3302      	adds	r3, #2
    1136:	429c      	cmp	r4, r3
    1138:	d002      	beq.n	1140 <TEE_GetObjectValueAttribute+0x4c>
/home/hsk/Desktop/devel/tee-tpm-hyp/optee_os/lib/libutee/tee_api_objects.c:170
    113a:	4620      	mov	r0, r4
    113c:	f006 fcba 	bl	7ab4 <TEE_Panic>
/home/hsk/Desktop/devel/tee-tpm-hyp/optee_os/lib/libutee/tee_api_objects.c:172
    1140:	e9dd 2300 	ldrd	r2, r3, [sp]
    1144:	2b00      	cmp	r3, #0
    1146:	bf08      	it	eq
    1148:	2a08      	cmpeq	r2, #8
    114a:	d002      	beq.n	1152 <TEE_GetObjectValueAttribute+0x5e>
/home/hsk/Desktop/devel/tee-tpm-hyp/optee_os/lib/libutee/tee_api_objects.c:173
    114c:	2000      	movs	r0, #0
    114e:	f006 fcb1 	bl	7ab4 <TEE_Panic>
/home/hsk/Desktop/devel/tee-tpm-hyp/optee_os/lib/libutee/tee_api_objects.c:175
    1152:	b92c      	cbnz	r4, 1160 <TEE_GetObjectValueAttribute+0x6c>
/home/hsk/Desktop/devel/tee-tpm-hyp/optee_os/lib/libutee/tee_api_objects.c:176
    1154:	b10e      	cbz	r6, 115a <TEE_GetObjectValueAttribute+0x66>
/home/hsk/Desktop/devel/tee-tpm-hyp/optee_os/lib/libutee/tee_api_objects.c:177
    1156:	9b03      	ldr	r3, [sp, #12]
    1158:	6033      	str	r3, [r6, #0]
/home/hsk/Desktop/devel/tee-tpm-hyp/optee_os/lib/libutee/tee_api_objects.c:178
    115a:	b10d      	cbz	r5, 1160 <TEE_GetObjectValueAttribute+0x6c>
/home/hsk/Desktop/devel/tee-tpm-hyp/optee_os/lib/libutee/tee_api_objects.c:179
    115c:	9b04      	ldr	r3, [sp, #16]
    115e:	602b      	str	r3, [r5, #0]
/home/hsk/Desktop/devel/tee-tpm-hyp/optee_os/lib/libutee/tee_api_objects.c:183
    1160:	4620      	mov	r0, r4
    1162:	b00c      	add	sp, #48	; 0x30
    1164:	e8bd 81f0 	ldmia.w	sp!, {r4, r5, r6, r7, r8, pc}
/home/hsk/Desktop/devel/tee-tpm-hyp/optee_os/lib/libutee/tee_api_objects.c:158
    1168:	4c02      	ldr	r4, [pc, #8]	; (1174 <TEE_GetObjectValueAttribute+0x80>)
    116a:	e7e6      	b.n	113a <TEE_GetObjectValueAttribute+0x46>
    116c:	ffff0008 	.word	0xffff0008
    1170:	f0100001 	.word	0xf0100001
    1174:	ffff0006 	.word	0xffff0006

00001178 <TEE_CloseObject>:
TEE_CloseObject():
/home/hsk/Desktop/devel/tee-tpm-hyp/optee_os/lib/libutee/tee_api_objects.c:186
    1178:	b508      	push	{r3, lr}
/home/hsk/Desktop/devel/tee-tpm-hyp/optee_os/lib/libutee/tee_api_objects.c:189
    117a:	b130      	cbz	r0, 118a <TEE_CloseObject+0x12>
/home/hsk/Desktop/devel/tee-tpm-hyp/optee_os/lib/libutee/tee_api_objects.c:192
    117c:	f002 e802 	blx	3184 <utee_cryp_obj_close>
/home/hsk/Desktop/devel/tee-tpm-hyp/optee_os/lib/libutee/tee_api_objects.c:193
    1180:	b118      	cbz	r0, 118a <TEE_CloseObject+0x12>
/home/hsk/Desktop/devel/tee-tpm-hyp/optee_os/lib/libutee/tee_api_objects.c:195
    1182:	e8bd 4008 	ldmia.w	sp!, {r3, lr}
/home/hsk/Desktop/devel/tee-tpm-hyp/optee_os/lib/libutee/tee_api_objects.c:194
    1186:	f006 bc95 	b.w	7ab4 <TEE_Panic>
/home/hsk/Desktop/devel/tee-tpm-hyp/optee_os/lib/libutee/tee_api_objects.c:195
    118a:	bd08      	pop	{r3, pc}

0000118c <TEE_AllocateTransientObject>:
TEE_AllocateTransientObject():
/home/hsk/Desktop/devel/tee-tpm-hyp/optee_os/lib/libutee/tee_api_objects.c:202
    118c:	b537      	push	{r0, r1, r2, r4, r5, lr}
    118e:	4615      	mov	r5, r2
/home/hsk/Desktop/devel/tee-tpm-hyp/optee_os/lib/libutee/tee_api_objects.c:206
    1190:	aa01      	add	r2, sp, #4
    1192:	f001 efee 	blx	3170 <utee_cryp_obj_alloc>
/home/hsk/Desktop/devel/tee-tpm-hyp/optee_os/lib/libutee/tee_api_objects.c:208
    1196:	4604      	mov	r4, r0
    1198:	b150      	cbz	r0, 11b0 <TEE_AllocateTransientObject+0x24>
/home/hsk/Desktop/devel/tee-tpm-hyp/optee_os/lib/libutee/tee_api_objects.c:208 (discriminator 1)
    119a:	4b07      	ldr	r3, [pc, #28]	; (11b8 <TEE_AllocateTransientObject+0x2c>)
    119c:	4298      	cmp	r0, r3
    119e:	d004      	beq.n	11aa <TEE_AllocateTransientObject+0x1e>
/home/hsk/Desktop/devel/tee-tpm-hyp/optee_os/lib/libutee/tee_api_objects.c:209
    11a0:	3b02      	subs	r3, #2
    11a2:	4298      	cmp	r0, r3
    11a4:	d001      	beq.n	11aa <TEE_AllocateTransientObject+0x1e>
/home/hsk/Desktop/devel/tee-tpm-hyp/optee_os/lib/libutee/tee_api_objects.c:211
    11a6:	f006 fc85 	bl	7ab4 <TEE_Panic>
/home/hsk/Desktop/devel/tee-tpm-hyp/optee_os/lib/libutee/tee_api_objects.c:217
    11aa:	4620      	mov	r0, r4
    11ac:	b003      	add	sp, #12
    11ae:	bd30      	pop	{r4, r5, pc}
/home/hsk/Desktop/devel/tee-tpm-hyp/optee_os/lib/libutee/tee_api_objects.c:214
    11b0:	9b01      	ldr	r3, [sp, #4]
    11b2:	602b      	str	r3, [r5, #0]
    11b4:	e7f9      	b.n	11aa <TEE_AllocateTransientObject+0x1e>
    11b6:	bf00      	nop
    11b8:	ffff000c 	.word	0xffff000c

000011bc <TEE_FreeTransientObject>:
TEE_FreeTransientObject():
/home/hsk/Desktop/devel/tee-tpm-hyp/optee_os/lib/libutee/tee_api_objects.c:220
    11bc:	b510      	push	{r4, lr}
/home/hsk/Desktop/devel/tee-tpm-hyp/optee_os/lib/libutee/tee_api_objects.c:224
    11be:	4604      	mov	r4, r0
/home/hsk/Desktop/devel/tee-tpm-hyp/optee_os/lib/libutee/tee_api_objects.c:220
    11c0:	b088      	sub	sp, #32
/home/hsk/Desktop/devel/tee-tpm-hyp/optee_os/lib/libutee/tee_api_objects.c:224
    11c2:	b188      	cbz	r0, 11e8 <TEE_FreeTransientObject+0x2c>
/home/hsk/Desktop/devel/tee-tpm-hyp/optee_os/lib/libutee/tee_api_objects.c:227
    11c4:	a901      	add	r1, sp, #4
    11c6:	f001 efb6 	blx	3134 <utee_cryp_obj_get_info>
/home/hsk/Desktop/devel/tee-tpm-hyp/optee_os/lib/libutee/tee_api_objects.c:228
    11ca:	b108      	cbz	r0, 11d0 <TEE_FreeTransientObject+0x14>
/home/hsk/Desktop/devel/tee-tpm-hyp/optee_os/lib/libutee/tee_api_objects.c:229
    11cc:	f006 fc72 	bl	7ab4 <TEE_Panic>
/home/hsk/Desktop/devel/tee-tpm-hyp/optee_os/lib/libutee/tee_api_objects.c:231
    11d0:	9b07      	ldr	r3, [sp, #28]
    11d2:	03db      	lsls	r3, r3, #15
    11d4:	d502      	bpl.n	11dc <TEE_FreeTransientObject+0x20>
/home/hsk/Desktop/devel/tee-tpm-hyp/optee_os/lib/libutee/tee_api_objects.c:232
    11d6:	2000      	movs	r0, #0
    11d8:	f006 fc6c 	bl	7ab4 <TEE_Panic>
/home/hsk/Desktop/devel/tee-tpm-hyp/optee_os/lib/libutee/tee_api_objects.c:234
    11dc:	4620      	mov	r0, r4
    11de:	f001 efd2 	blx	3184 <utee_cryp_obj_close>
/home/hsk/Desktop/devel/tee-tpm-hyp/optee_os/lib/libutee/tee_api_objects.c:235
    11e2:	b108      	cbz	r0, 11e8 <TEE_FreeTransientObject+0x2c>
/home/hsk/Desktop/devel/tee-tpm-hyp/optee_os/lib/libutee/tee_api_objects.c:236
    11e4:	f006 fc66 	bl	7ab4 <TEE_Panic>
/home/hsk/Desktop/devel/tee-tpm-hyp/optee_os/lib/libutee/tee_api_objects.c:237
    11e8:	b008      	add	sp, #32
    11ea:	bd10      	pop	{r4, pc}

000011ec <TEE_ResetTransientObject>:
TEE_ResetTransientObject():
/home/hsk/Desktop/devel/tee-tpm-hyp/optee_os/lib/libutee/tee_api_objects.c:240
    11ec:	b510      	push	{r4, lr}
/home/hsk/Desktop/devel/tee-tpm-hyp/optee_os/lib/libutee/tee_api_objects.c:244
    11ee:	4604      	mov	r4, r0
/home/hsk/Desktop/devel/tee-tpm-hyp/optee_os/lib/libutee/tee_api_objects.c:240
    11f0:	b088      	sub	sp, #32
/home/hsk/Desktop/devel/tee-tpm-hyp/optee_os/lib/libutee/tee_api_objects.c:244
    11f2:	b188      	cbz	r0, 1218 <TEE_ResetTransientObject+0x2c>
/home/hsk/Desktop/devel/tee-tpm-hyp/optee_os/lib/libutee/tee_api_objects.c:247
    11f4:	a901      	add	r1, sp, #4
    11f6:	f001 ef9e 	blx	3134 <utee_cryp_obj_get_info>
/home/hsk/Desktop/devel/tee-tpm-hyp/optee_os/lib/libutee/tee_api_objects.c:248
    11fa:	b108      	cbz	r0, 1200 <TEE_ResetTransientObject+0x14>
/home/hsk/Desktop/devel/tee-tpm-hyp/optee_os/lib/libutee/tee_api_objects.c:249
    11fc:	f006 fc5a 	bl	7ab4 <TEE_Panic>
/home/hsk/Desktop/devel/tee-tpm-hyp/optee_os/lib/libutee/tee_api_objects.c:251
    1200:	9b07      	ldr	r3, [sp, #28]
    1202:	03db      	lsls	r3, r3, #15
    1204:	d502      	bpl.n	120c <TEE_ResetTransientObject+0x20>
/home/hsk/Desktop/devel/tee-tpm-hyp/optee_os/lib/libutee/tee_api_objects.c:252
    1206:	2000      	movs	r0, #0
    1208:	f006 fc54 	bl	7ab4 <TEE_Panic>
/home/hsk/Desktop/devel/tee-tpm-hyp/optee_os/lib/libutee/tee_api_objects.c:254
    120c:	4620      	mov	r0, r4
    120e:	f001 efc4 	blx	3198 <utee_cryp_obj_reset>
/home/hsk/Desktop/devel/tee-tpm-hyp/optee_os/lib/libutee/tee_api_objects.c:255
    1212:	b108      	cbz	r0, 1218 <TEE_ResetTransientObject+0x2c>
/home/hsk/Desktop/devel/tee-tpm-hyp/optee_os/lib/libutee/tee_api_objects.c:256
    1214:	f006 fc4e 	bl	7ab4 <TEE_Panic>
/home/hsk/Desktop/devel/tee-tpm-hyp/optee_os/lib/libutee/tee_api_objects.c:257
    1218:	b008      	add	sp, #32
    121a:	bd10      	pop	{r4, pc}

0000121c <TEE_PopulateTransientObject>:
TEE_PopulateTransientObject():
/home/hsk/Desktop/devel/tee-tpm-hyp/optee_os/lib/libutee/tee_api_objects.c:265
    121c:	2318      	movs	r3, #24
/home/hsk/Desktop/devel/tee-tpm-hyp/optee_os/lib/libutee/tee_api_objects.c:262
    121e:	e92d 41f0 	stmdb	sp!, {r4, r5, r6, r7, r8, lr}
    1222:	4688      	mov	r8, r1
    1224:	b088      	sub	sp, #32
/home/hsk/Desktop/devel/tee-tpm-hyp/optee_os/lib/libutee/tee_api_objects.c:265
    1226:	4353      	muls	r3, r2
/home/hsk/Desktop/devel/tee-tpm-hyp/optee_os/lib/libutee/tee_api_objects.c:262
    1228:	af00      	add	r7, sp, #0
/home/hsk/Desktop/devel/tee-tpm-hyp/optee_os/lib/libutee/tee_api_objects.c:267
    122a:	1d39      	adds	r1, r7, #4
/home/hsk/Desktop/devel/tee-tpm-hyp/optee_os/lib/libutee/tee_api_objects.c:262
    122c:	4606      	mov	r6, r0
/home/hsk/Desktop/devel/tee-tpm-hyp/optee_os/lib/libutee/tee_api_objects.c:265
    122e:	3308      	adds	r3, #8
/home/hsk/Desktop/devel/tee-tpm-hyp/optee_os/lib/libutee/tee_api_objects.c:262
    1230:	4614      	mov	r4, r2
/home/hsk/Desktop/devel/tee-tpm-hyp/optee_os/lib/libutee/tee_api_objects.c:265
    1232:	ebad 0d03 	sub.w	sp, sp, r3
    1236:	466d      	mov	r5, sp
/home/hsk/Desktop/devel/tee-tpm-hyp/optee_os/lib/libutee/tee_api_objects.c:267
    1238:	f001 ef7c 	blx	3134 <utee_cryp_obj_get_info>
/home/hsk/Desktop/devel/tee-tpm-hyp/optee_os/lib/libutee/tee_api_objects.c:268
    123c:	b108      	cbz	r0, 1242 <TEE_PopulateTransientObject+0x26>
/home/hsk/Desktop/devel/tee-tpm-hyp/optee_os/lib/libutee/tee_api_objects.c:269
    123e:	f006 fc39 	bl	7ab4 <TEE_Panic>
/home/hsk/Desktop/devel/tee-tpm-hyp/optee_os/lib/libutee/tee_api_objects.c:272
    1242:	69fb      	ldr	r3, [r7, #28]
    1244:	03da      	lsls	r2, r3, #15
    1246:	d502      	bpl.n	124e <TEE_PopulateTransientObject+0x32>
/home/hsk/Desktop/devel/tee-tpm-hyp/optee_os/lib/libutee/tee_api_objects.c:273
    1248:	2000      	movs	r0, #0
    124a:	f006 fc33 	bl	7ab4 <TEE_Panic>
/home/hsk/Desktop/devel/tee-tpm-hyp/optee_os/lib/libutee/tee_api_objects.c:276
    124e:	69fb      	ldr	r3, [r7, #28]
    1250:	039b      	lsls	r3, r3, #14
    1252:	d502      	bpl.n	125a <TEE_PopulateTransientObject+0x3e>
/home/hsk/Desktop/devel/tee-tpm-hyp/optee_os/lib/libutee/tee_api_objects.c:277
    1254:	2000      	movs	r0, #0
    1256:	f006 fc2d 	bl	7ab4 <TEE_Panic>
/home/hsk/Desktop/devel/tee-tpm-hyp/optee_os/lib/libutee/tee_api_objects.c:279
    125a:	4622      	mov	r2, r4
    125c:	4641      	mov	r1, r8
    125e:	4628      	mov	r0, r5
    1260:	f7ff fea8 	bl	fb4 <__utee_from_attr>
/home/hsk/Desktop/devel/tee-tpm-hyp/optee_os/lib/libutee/tee_api_objects.c:280
    1264:	4622      	mov	r2, r4
    1266:	4629      	mov	r1, r5
    1268:	4630      	mov	r0, r6
    126a:	f001 efa0 	blx	31ac <utee_cryp_obj_populate>
/home/hsk/Desktop/devel/tee-tpm-hyp/optee_os/lib/libutee/tee_api_objects.c:281
    126e:	4604      	mov	r4, r0
    1270:	b120      	cbz	r0, 127c <TEE_PopulateTransientObject+0x60>
/home/hsk/Desktop/devel/tee-tpm-hyp/optee_os/lib/libutee/tee_api_objects.c:281 (discriminator 1)
    1272:	4b05      	ldr	r3, [pc, #20]	; (1288 <TEE_PopulateTransientObject+0x6c>)
    1274:	4298      	cmp	r0, r3
    1276:	d001      	beq.n	127c <TEE_PopulateTransientObject+0x60>
/home/hsk/Desktop/devel/tee-tpm-hyp/optee_os/lib/libutee/tee_api_objects.c:282
    1278:	f006 fc1c 	bl	7ab4 <TEE_Panic>
/home/hsk/Desktop/devel/tee-tpm-hyp/optee_os/lib/libutee/tee_api_objects.c:284
    127c:	4620      	mov	r0, r4
    127e:	3720      	adds	r7, #32
    1280:	46bd      	mov	sp, r7
    1282:	e8bd 81f0 	ldmia.w	sp!, {r4, r5, r6, r7, r8, pc}
    1286:	bf00      	nop
    1288:	ffff0006 	.word	0xffff0006

0000128c <TEE_InitRefAttribute>:
TEE_InitRefAttribute():
/home/hsk/Desktop/devel/tee-tpm-hyp/optee_os/lib/libutee/tee_api_objects.c:288
    128c:	b5f8      	push	{r3, r4, r5, r6, r7, lr}
    128e:	460d      	mov	r5, r1
    1290:	4617      	mov	r7, r2
    1292:	461e      	mov	r6, r3
/home/hsk/Desktop/devel/tee-tpm-hyp/optee_os/lib/libutee/tee_api_objects.c:289
    1294:	4604      	mov	r4, r0
    1296:	b908      	cbnz	r0, 129c <TEE_InitRefAttribute+0x10>
/home/hsk/Desktop/devel/tee-tpm-hyp/optee_os/lib/libutee/tee_api_objects.c:290
    1298:	f006 fc0c 	bl	7ab4 <TEE_Panic>
/home/hsk/Desktop/devel/tee-tpm-hyp/optee_os/lib/libutee/tee_api_objects.c:291
    129c:	00ab      	lsls	r3, r5, #2
    129e:	d502      	bpl.n	12a6 <TEE_InitRefAttribute+0x1a>
/home/hsk/Desktop/devel/tee-tpm-hyp/optee_os/lib/libutee/tee_api_objects.c:292
    12a0:	2000      	movs	r0, #0
    12a2:	f006 fc07 	bl	7ab4 <TEE_Panic>
/home/hsk/Desktop/devel/tee-tpm-hyp/optee_os/lib/libutee/tee_api_objects.c:294
    12a6:	e9c4 5700 	strd	r5, r7, [r4]
/home/hsk/Desktop/devel/tee-tpm-hyp/optee_os/lib/libutee/tee_api_objects.c:295
    12aa:	60a6      	str	r6, [r4, #8]
/home/hsk/Desktop/devel/tee-tpm-hyp/optee_os/lib/libutee/tee_api_objects.c:296
    12ac:	bdf8      	pop	{r3, r4, r5, r6, r7, pc}

000012ae <TEE_InitValueAttribute>:
TEE_InitValueAttribute():
/home/hsk/Desktop/devel/tee-tpm-hyp/optee_os/lib/libutee/tee_api_objects.c:300
    12ae:	b5f8      	push	{r3, r4, r5, r6, r7, lr}
    12b0:	460d      	mov	r5, r1
    12b2:	4617      	mov	r7, r2
    12b4:	461e      	mov	r6, r3
/home/hsk/Desktop/devel/tee-tpm-hyp/optee_os/lib/libutee/tee_api_objects.c:301
    12b6:	4604      	mov	r4, r0
    12b8:	b908      	cbnz	r0, 12be <TEE_InitValueAttribute+0x10>
/home/hsk/Desktop/devel/tee-tpm-hyp/optee_os/lib/libutee/tee_api_objects.c:302
    12ba:	f006 fbfb 	bl	7ab4 <TEE_Panic>
/home/hsk/Desktop/devel/tee-tpm-hyp/optee_os/lib/libutee/tee_api_objects.c:303
    12be:	f015 5000 	ands.w	r0, r5, #536870912	; 0x20000000
    12c2:	d101      	bne.n	12c8 <TEE_InitValueAttribute+0x1a>
/home/hsk/Desktop/devel/tee-tpm-hyp/optee_os/lib/libutee/tee_api_objects.c:304
    12c4:	f006 fbf6 	bl	7ab4 <TEE_Panic>
/home/hsk/Desktop/devel/tee-tpm-hyp/optee_os/lib/libutee/tee_api_objects.c:306
    12c8:	e9c4 5700 	strd	r5, r7, [r4]
/home/hsk/Desktop/devel/tee-tpm-hyp/optee_os/lib/libutee/tee_api_objects.c:307
    12cc:	60a6      	str	r6, [r4, #8]
/home/hsk/Desktop/devel/tee-tpm-hyp/optee_os/lib/libutee/tee_api_objects.c:308
    12ce:	bdf8      	pop	{r3, r4, r5, r6, r7, pc}

000012d0 <TEE_CopyObjectAttributes1>:
TEE_CopyObjectAttributes1():
/home/hsk/Desktop/devel/tee-tpm-hyp/optee_os/lib/libutee/tee_api_objects.c:333
    12d0:	b570      	push	{r4, r5, r6, lr}
    12d2:	460d      	mov	r5, r1
    12d4:	4606      	mov	r6, r0
    12d6:	b08e      	sub	sp, #56	; 0x38
/home/hsk/Desktop/devel/tee-tpm-hyp/optee_os/lib/libutee/tee_api_objects.c:338
    12d8:	4669      	mov	r1, sp
    12da:	f001 ef2c 	blx	3134 <utee_cryp_obj_get_info>
/home/hsk/Desktop/devel/tee-tpm-hyp/optee_os/lib/libutee/tee_api_objects.c:339
    12de:	4604      	mov	r4, r0
    12e0:	b9e0      	cbnz	r0, 131c <TEE_CopyObjectAttributes1+0x4c>
/home/hsk/Desktop/devel/tee-tpm-hyp/optee_os/lib/libutee/tee_api_objects.c:342
    12e2:	a907      	add	r1, sp, #28
    12e4:	4628      	mov	r0, r5
    12e6:	f001 ef26 	blx	3134 <utee_cryp_obj_get_info>
/home/hsk/Desktop/devel/tee-tpm-hyp/optee_os/lib/libutee/tee_api_objects.c:343
    12ea:	4604      	mov	r4, r0
    12ec:	b9b0      	cbnz	r0, 131c <TEE_CopyObjectAttributes1+0x4c>
/home/hsk/Desktop/devel/tee-tpm-hyp/optee_os/lib/libutee/tee_api_objects.c:346
    12ee:	9b0d      	ldr	r3, [sp, #52]	; 0x34
    12f0:	0399      	lsls	r1, r3, #14
    12f2:	d401      	bmi.n	12f8 <TEE_CopyObjectAttributes1+0x28>
/home/hsk/Desktop/devel/tee-tpm-hyp/optee_os/lib/libutee/tee_api_objects.c:347
    12f4:	f006 fbde 	bl	7ab4 <TEE_Panic>
/home/hsk/Desktop/devel/tee-tpm-hyp/optee_os/lib/libutee/tee_api_objects.c:349
    12f8:	9b06      	ldr	r3, [sp, #24]
    12fa:	03da      	lsls	r2, r3, #15
    12fc:	d502      	bpl.n	1304 <TEE_CopyObjectAttributes1+0x34>
/home/hsk/Desktop/devel/tee-tpm-hyp/optee_os/lib/libutee/tee_api_objects.c:350
    12fe:	2000      	movs	r0, #0
    1300:	f006 fbd8 	bl	7ab4 <TEE_Panic>
/home/hsk/Desktop/devel/tee-tpm-hyp/optee_os/lib/libutee/tee_api_objects.c:352
    1304:	9b06      	ldr	r3, [sp, #24]
    1306:	039b      	lsls	r3, r3, #14
    1308:	d502      	bpl.n	1310 <TEE_CopyObjectAttributes1+0x40>
/home/hsk/Desktop/devel/tee-tpm-hyp/optee_os/lib/libutee/tee_api_objects.c:353
    130a:	2000      	movs	r0, #0
    130c:	f006 fbd2 	bl	7ab4 <TEE_Panic>
/home/hsk/Desktop/devel/tee-tpm-hyp/optee_os/lib/libutee/tee_api_objects.c:355
    1310:	4629      	mov	r1, r5
    1312:	4630      	mov	r0, r6
    1314:	f001 ef54 	blx	31c0 <utee_cryp_obj_copy>
/home/hsk/Desktop/devel/tee-tpm-hyp/optee_os/lib/libutee/tee_api_objects.c:359
    1318:	4604      	mov	r4, r0
    131a:	b140      	cbz	r0, 132e <TEE_CopyObjectAttributes1+0x5e>
/home/hsk/Desktop/devel/tee-tpm-hyp/optee_os/lib/libutee/tee_api_objects.c:359 (discriminator 1)
    131c:	4b05      	ldr	r3, [pc, #20]	; (1334 <TEE_CopyObjectAttributes1+0x64>)
    131e:	429c      	cmp	r4, r3
    1320:	d005      	beq.n	132e <TEE_CopyObjectAttributes1+0x5e>
/home/hsk/Desktop/devel/tee-tpm-hyp/optee_os/lib/libutee/tee_api_objects.c:360
    1322:	3302      	adds	r3, #2
    1324:	429c      	cmp	r4, r3
    1326:	d002      	beq.n	132e <TEE_CopyObjectAttributes1+0x5e>
/home/hsk/Desktop/devel/tee-tpm-hyp/optee_os/lib/libutee/tee_api_objects.c:362
    1328:	4620      	mov	r0, r4
    132a:	f006 fbc3 	bl	7ab4 <TEE_Panic>
/home/hsk/Desktop/devel/tee-tpm-hyp/optee_os/lib/libutee/tee_api_objects.c:365
    132e:	4620      	mov	r0, r4
    1330:	b00e      	add	sp, #56	; 0x38
    1332:	bd70      	pop	{r4, r5, r6, pc}
    1334:	f0100001 	.word	0xf0100001

00001338 <TEE_CopyObjectAttributes>:
TEE_CopyObjectAttributes():
/home/hsk/Desktop/devel/tee-tpm-hyp/optee_os/lib/libutee/tee_api_objects.c:318
    1338:	b530      	push	{r4, r5, lr}
    133a:	460c      	mov	r4, r1
    133c:	4605      	mov	r5, r0
    133e:	b089      	sub	sp, #36	; 0x24
/home/hsk/Desktop/devel/tee-tpm-hyp/optee_os/lib/libutee/tee_api_objects.c:322
    1340:	4620      	mov	r0, r4
    1342:	a901      	add	r1, sp, #4
    1344:	f001 eef6 	blx	3134 <utee_cryp_obj_get_info>
/home/hsk/Desktop/devel/tee-tpm-hyp/optee_os/lib/libutee/tee_api_objects.c:323
    1348:	4b06      	ldr	r3, [pc, #24]	; (1364 <TEE_CopyObjectAttributes+0x2c>)
    134a:	9a01      	ldr	r2, [sp, #4]
    134c:	429a      	cmp	r2, r3
    134e:	d006      	beq.n	135e <TEE_CopyObjectAttributes+0x26>
/home/hsk/Desktop/devel/tee-tpm-hyp/optee_os/lib/libutee/tee_api_objects.c:326
    1350:	4621      	mov	r1, r4
    1352:	4628      	mov	r0, r5
    1354:	f7ff ffbc 	bl	12d0 <TEE_CopyObjectAttributes1>
/home/hsk/Desktop/devel/tee-tpm-hyp/optee_os/lib/libutee/tee_api_objects.c:327
    1358:	b108      	cbz	r0, 135e <TEE_CopyObjectAttributes+0x26>
/home/hsk/Desktop/devel/tee-tpm-hyp/optee_os/lib/libutee/tee_api_objects.c:328
    135a:	f006 fbab 	bl	7ab4 <TEE_Panic>
/home/hsk/Desktop/devel/tee-tpm-hyp/optee_os/lib/libutee/tee_api_objects.c:329
    135e:	b009      	add	sp, #36	; 0x24
    1360:	bd30      	pop	{r4, r5, pc}
    1362:	bf00      	nop
    1364:	a00000be 	.word	0xa00000be

00001368 <TEE_GenerateKey>:
TEE_GenerateKey():
/home/hsk/Desktop/devel/tee-tpm-hyp/optee_os/lib/libutee/tee_api_objects.c:369
    1368:	e92d 41f0 	stmdb	sp!, {r4, r5, r6, r7, r8, lr}
    136c:	461c      	mov	r4, r3
/home/hsk/Desktop/devel/tee-tpm-hyp/optee_os/lib/libutee/tee_api_objects.c:371
    136e:	2318      	movs	r3, #24
/home/hsk/Desktop/devel/tee-tpm-hyp/optee_os/lib/libutee/tee_api_objects.c:369
    1370:	b082      	sub	sp, #8
    1372:	af02      	add	r7, sp, #8
    1374:	4605      	mov	r5, r0
/home/hsk/Desktop/devel/tee-tpm-hyp/optee_os/lib/libutee/tee_api_objects.c:371
    1376:	4363      	muls	r3, r4
/home/hsk/Desktop/devel/tee-tpm-hyp/optee_os/lib/libutee/tee_api_objects.c:369
    1378:	4688      	mov	r8, r1
    137a:	4611      	mov	r1, r2
/home/hsk/Desktop/devel/tee-tpm-hyp/optee_os/lib/libutee/tee_api_objects.c:373
    137c:	4622      	mov	r2, r4
/home/hsk/Desktop/devel/tee-tpm-hyp/optee_os/lib/libutee/tee_api_objects.c:371
    137e:	3308      	adds	r3, #8
    1380:	ebad 0d03 	sub.w	sp, sp, r3
    1384:	ae02      	add	r6, sp, #8
/home/hsk/Desktop/devel/tee-tpm-hyp/optee_os/lib/libutee/tee_api_objects.c:373
    1386:	4630      	mov	r0, r6
    1388:	f7ff fe14 	bl	fb4 <__utee_from_attr>
/home/hsk/Desktop/devel/tee-tpm-hyp/optee_os/lib/libutee/tee_api_objects.c:374
    138c:	4b0f      	ldr	r3, [pc, #60]	; (13cc <TEE_GenerateKey+0x64>)
    138e:	4810      	ldr	r0, [pc, #64]	; (13d0 <TEE_GenerateKey+0x68>)
    1390:	2203      	movs	r2, #3
    1392:	447b      	add	r3, pc
    1394:	f44f 71bb 	mov.w	r1, #374	; 0x176
    1398:	9300      	str	r3, [sp, #0]
    139a:	4478      	add	r0, pc
    139c:	2301      	movs	r3, #1
    139e:	9501      	str	r5, [sp, #4]
    13a0:	f7fe ff86 	bl	2b0 <trace_printf>
/home/hsk/Desktop/devel/tee-tpm-hyp/optee_os/lib/libutee/tee_api_objects.c:375
    13a4:	4623      	mov	r3, r4
    13a6:	4632      	mov	r2, r6
    13a8:	4641      	mov	r1, r8
    13aa:	4628      	mov	r0, r5
    13ac:	f001 effe 	blx	33ac <utee_cryp_obj_generate_key>
/home/hsk/Desktop/devel/tee-tpm-hyp/optee_os/lib/libutee/tee_api_objects.c:378
    13b0:	4604      	mov	r4, r0
    13b2:	b120      	cbz	r0, 13be <TEE_GenerateKey+0x56>
/home/hsk/Desktop/devel/tee-tpm-hyp/optee_os/lib/libutee/tee_api_objects.c:378 (discriminator 1)
    13b4:	4b04      	ldr	r3, [pc, #16]	; (13c8 <TEE_GenerateKey+0x60>)
    13b6:	4298      	cmp	r0, r3
    13b8:	d001      	beq.n	13be <TEE_GenerateKey+0x56>
/home/hsk/Desktop/devel/tee-tpm-hyp/optee_os/lib/libutee/tee_api_objects.c:379
    13ba:	f006 fb7b 	bl	7ab4 <TEE_Panic>
/home/hsk/Desktop/devel/tee-tpm-hyp/optee_os/lib/libutee/tee_api_objects.c:382
    13be:	4620      	mov	r0, r4
    13c0:	46bd      	mov	sp, r7
    13c2:	e8bd 81f0 	ldmia.w	sp!, {r4, r5, r6, r7, r8, pc}
    13c6:	bf00      	nop
    13c8:	ffff0006 	.word	0xffff0006
    13cc:	00006df1 	.word	0x00006df1
    13d0:	00006dd9 	.word	0x00006dd9

000013d4 <TEE_OpenPersistentObject>:
TEE_OpenPersistentObject():
/home/hsk/Desktop/devel/tee-tpm-hyp/optee_os/lib/libutee/tee_api_objects.c:389
    13d4:	b530      	push	{r4, r5, lr}
    13d6:	b085      	sub	sp, #20
    13d8:	9d08      	ldr	r5, [sp, #32]
/home/hsk/Desktop/devel/tee-tpm-hyp/optee_os/lib/libutee/tee_api_objects.c:393
    13da:	b919      	cbnz	r1, 13e4 <TEE_OpenPersistentObject+0x10>
/home/hsk/Desktop/devel/tee-tpm-hyp/optee_os/lib/libutee/tee_api_objects.c:394
    13dc:	4c12      	ldr	r4, [pc, #72]	; (1428 <TEE_OpenPersistentObject+0x54>)
/home/hsk/Desktop/devel/tee-tpm-hyp/optee_os/lib/libutee/tee_api_objects.c:423
    13de:	4620      	mov	r0, r4
    13e0:	b005      	add	sp, #20
    13e2:	bd30      	pop	{r4, r5, pc}
/home/hsk/Desktop/devel/tee-tpm-hyp/optee_os/lib/libutee/tee_api_objects.c:398
    13e4:	2a40      	cmp	r2, #64	; 0x40
    13e6:	d809      	bhi.n	13fc <TEE_OpenPersistentObject+0x28>
/home/hsk/Desktop/devel/tee-tpm-hyp/optee_os/lib/libutee/tee_api_objects.c:403
    13e8:	b145      	cbz	r5, 13fc <TEE_OpenPersistentObject+0x28>
/home/hsk/Desktop/devel/tee-tpm-hyp/optee_os/lib/libutee/tee_api_objects.c:408
    13ea:	ac03      	add	r4, sp, #12
    13ec:	9400      	str	r4, [sp, #0]
    13ee:	f001 ef58 	blx	32a0 <utee_storage_obj_open>
/home/hsk/Desktop/devel/tee-tpm-hyp/optee_os/lib/libutee/tee_api_objects.c:410
    13f2:	4604      	mov	r4, r0
    13f4:	b920      	cbnz	r0, 1400 <TEE_OpenPersistentObject+0x2c>
/home/hsk/Desktop/devel/tee-tpm-hyp/optee_os/lib/libutee/tee_api_objects.c:411
    13f6:	9b03      	ldr	r3, [sp, #12]
    13f8:	602b      	str	r3, [r5, #0]
    13fa:	e7f0      	b.n	13de <TEE_OpenPersistentObject+0xa>
    13fc:	4c0b      	ldr	r4, [pc, #44]	; (142c <TEE_OpenPersistentObject+0x58>)
    13fe:	e00e      	b.n	141e <TEE_OpenPersistentObject+0x4a>
/home/hsk/Desktop/devel/tee-tpm-hyp/optee_os/lib/libutee/tee_api_objects.c:414
    1400:	4b09      	ldr	r3, [pc, #36]	; (1428 <TEE_OpenPersistentObject+0x54>)
    1402:	4298      	cmp	r0, r3
    1404:	d0ea      	beq.n	13dc <TEE_OpenPersistentObject+0x8>
/home/hsk/Desktop/devel/tee-tpm-hyp/optee_os/lib/libutee/tee_api_objects.c:415
    1406:	4b0a      	ldr	r3, [pc, #40]	; (1430 <TEE_OpenPersistentObject+0x5c>)
    1408:	429c      	cmp	r4, r3
    140a:	d0e8      	beq.n	13de <TEE_OpenPersistentObject+0xa>
/home/hsk/Desktop/devel/tee-tpm-hyp/optee_os/lib/libutee/tee_api_objects.c:416
    140c:	3309      	adds	r3, #9
    140e:	429c      	cmp	r4, r3
    1410:	d0e5      	beq.n	13de <TEE_OpenPersistentObject+0xa>
/home/hsk/Desktop/devel/tee-tpm-hyp/optee_os/lib/libutee/tee_api_objects.c:417
    1412:	4b08      	ldr	r3, [pc, #32]	; (1434 <TEE_OpenPersistentObject+0x60>)
    1414:	429c      	cmp	r4, r3
    1416:	d0e2      	beq.n	13de <TEE_OpenPersistentObject+0xa>
/home/hsk/Desktop/devel/tee-tpm-hyp/optee_os/lib/libutee/tee_api_objects.c:418
    1418:	3302      	adds	r3, #2
    141a:	429c      	cmp	r4, r3
    141c:	d0df      	beq.n	13de <TEE_OpenPersistentObject+0xa>
/home/hsk/Desktop/devel/tee-tpm-hyp/optee_os/lib/libutee/tee_api_objects.c:420
    141e:	4620      	mov	r0, r4
    1420:	f006 fb48 	bl	7ab4 <TEE_Panic>
/home/hsk/Desktop/devel/tee-tpm-hyp/optee_os/lib/libutee/tee_api_objects.c:422
    1424:	e7db      	b.n	13de <TEE_OpenPersistentObject+0xa>
    1426:	bf00      	nop
    1428:	ffff0008 	.word	0xffff0008
    142c:	ffff0006 	.word	0xffff0006
    1430:	ffff0003 	.word	0xffff0003
    1434:	f0100001 	.word	0xf0100001

00001438 <TEE_CreatePersistentObject>:
TEE_CreatePersistentObject():
/home/hsk/Desktop/devel/tee-tpm-hyp/optee_os/lib/libutee/tee_api_objects.c:431
    1438:	b570      	push	{r4, r5, r6, lr}
    143a:	b086      	sub	sp, #24
    143c:	9c0d      	ldr	r4, [sp, #52]	; 0x34
/home/hsk/Desktop/devel/tee-tpm-hyp/optee_os/lib/libutee/tee_api_objects.c:435
    143e:	2900      	cmp	r1, #0
    1440:	d033      	beq.n	14aa <TEE_CreatePersistentObject+0x72>
/home/hsk/Desktop/devel/tee-tpm-hyp/optee_os/lib/libutee/tee_api_objects.c:440
    1442:	2a40      	cmp	r2, #64	; 0x40
    1444:	d835      	bhi.n	14b2 <TEE_CreatePersistentObject+0x7a>
/home/hsk/Desktop/devel/tee-tpm-hyp/optee_os/lib/libutee/tee_api_objects.c:445
    1446:	ad05      	add	r5, sp, #20
    1448:	9503      	str	r5, [sp, #12]
    144a:	9d0c      	ldr	r5, [sp, #48]	; 0x30
    144c:	9502      	str	r5, [sp, #8]
    144e:	9d0b      	ldr	r5, [sp, #44]	; 0x2c
    1450:	9501      	str	r5, [sp, #4]
    1452:	9d0a      	ldr	r5, [sp, #40]	; 0x28
    1454:	9500      	str	r5, [sp, #0]
    1456:	f001 ef30 	blx	32b8 <utee_storage_obj_create>
/home/hsk/Desktop/devel/tee-tpm-hyp/optee_os/lib/libutee/tee_api_objects.c:448
    145a:	b970      	cbnz	r0, 147a <TEE_CreatePersistentObject+0x42>
    145c:	9b05      	ldr	r3, [sp, #20]
/home/hsk/Desktop/devel/tee-tpm-hyp/optee_os/lib/libutee/tee_api_objects.c:449
    145e:	b114      	cbz	r4, 1466 <TEE_CreatePersistentObject+0x2e>
/home/hsk/Desktop/devel/tee-tpm-hyp/optee_os/lib/libutee/tee_api_objects.c:450
    1460:	6023      	str	r3, [r4, #0]
/home/hsk/Desktop/devel/tee-tpm-hyp/optee_os/lib/libutee/tee_api_objects.c:469
    1462:	b006      	add	sp, #24
    1464:	bd70      	pop	{r4, r5, r6, pc}
/home/hsk/Desktop/devel/tee-tpm-hyp/optee_os/lib/libutee/tee_api_objects.c:452
    1466:	4618      	mov	r0, r3
    1468:	f001 ee8c 	blx	3184 <utee_cryp_obj_close>
/home/hsk/Desktop/devel/tee-tpm-hyp/optee_os/lib/libutee/tee_api_objects.c:453
    146c:	2800      	cmp	r0, #0
    146e:	d0f8      	beq.n	1462 <TEE_CreatePersistentObject+0x2a>
/home/hsk/Desktop/devel/tee-tpm-hyp/optee_os/lib/libutee/tee_api_objects.c:459
    1470:	4b12      	ldr	r3, [pc, #72]	; (14bc <TEE_CreatePersistentObject+0x84>)
    1472:	4298      	cmp	r0, r3
    1474:	d106      	bne.n	1484 <TEE_CreatePersistentObject+0x4c>
/home/hsk/Desktop/devel/tee-tpm-hyp/optee_os/lib/libutee/tee_api_objects.c:458
    1476:	4811      	ldr	r0, [pc, #68]	; (14bc <TEE_CreatePersistentObject+0x84>)
    1478:	e7f3      	b.n	1462 <TEE_CreatePersistentObject+0x2a>
/home/hsk/Desktop/devel/tee-tpm-hyp/optee_os/lib/libutee/tee_api_objects.c:457
    147a:	2c00      	cmp	r4, #0
    147c:	d0f8      	beq.n	1470 <TEE_CreatePersistentObject+0x38>
/home/hsk/Desktop/devel/tee-tpm-hyp/optee_os/lib/libutee/tee_api_objects.c:458
    147e:	2300      	movs	r3, #0
    1480:	6023      	str	r3, [r4, #0]
    1482:	e7f5      	b.n	1470 <TEE_CreatePersistentObject+0x38>
/home/hsk/Desktop/devel/tee-tpm-hyp/optee_os/lib/libutee/tee_api_objects.c:459 (discriminator 1)
    1484:	4b0e      	ldr	r3, [pc, #56]	; (14c0 <TEE_CreatePersistentObject+0x88>)
    1486:	4298      	cmp	r0, r3
    1488:	d0eb      	beq.n	1462 <TEE_CreatePersistentObject+0x2a>
/home/hsk/Desktop/devel/tee-tpm-hyp/optee_os/lib/libutee/tee_api_objects.c:460
    148a:	3309      	adds	r3, #9
    148c:	4298      	cmp	r0, r3
    148e:	d0e8      	beq.n	1462 <TEE_CreatePersistentObject+0x2a>
/home/hsk/Desktop/devel/tee-tpm-hyp/optee_os/lib/libutee/tee_api_objects.c:461
    1490:	4b0c      	ldr	r3, [pc, #48]	; (14c4 <TEE_CreatePersistentObject+0x8c>)
    1492:	4298      	cmp	r0, r3
    1494:	d0e5      	beq.n	1462 <TEE_CreatePersistentObject+0x2a>
/home/hsk/Desktop/devel/tee-tpm-hyp/optee_os/lib/libutee/tee_api_objects.c:462
    1496:	4b0c      	ldr	r3, [pc, #48]	; (14c8 <TEE_CreatePersistentObject+0x90>)
    1498:	4298      	cmp	r0, r3
    149a:	d0e2      	beq.n	1462 <TEE_CreatePersistentObject+0x2a>
/home/hsk/Desktop/devel/tee-tpm-hyp/optee_os/lib/libutee/tee_api_objects.c:463
    149c:	3302      	adds	r3, #2
    149e:	4298      	cmp	r0, r3
    14a0:	d0df      	beq.n	1462 <TEE_CreatePersistentObject+0x2a>
/home/hsk/Desktop/devel/tee-tpm-hyp/optee_os/lib/libutee/tee_api_objects.c:466
    14a2:	f006 fb07 	bl	7ab4 <TEE_Panic>
/home/hsk/Desktop/devel/tee-tpm-hyp/optee_os/lib/libutee/tee_api_objects.c:468
    14a6:	2000      	movs	r0, #0
    14a8:	e7db      	b.n	1462 <TEE_CreatePersistentObject+0x2a>
/home/hsk/Desktop/devel/tee-tpm-hyp/optee_os/lib/libutee/tee_api_objects.c:457
    14aa:	2c00      	cmp	r4, #0
    14ac:	d0e3      	beq.n	1476 <TEE_CreatePersistentObject+0x3e>
/home/hsk/Desktop/devel/tee-tpm-hyp/optee_os/lib/libutee/tee_api_objects.c:458
    14ae:	6021      	str	r1, [r4, #0]
    14b0:	e7e1      	b.n	1476 <TEE_CreatePersistentObject+0x3e>
/home/hsk/Desktop/devel/tee-tpm-hyp/optee_os/lib/libutee/tee_api_objects.c:457
    14b2:	b10c      	cbz	r4, 14b8 <TEE_CreatePersistentObject+0x80>
/home/hsk/Desktop/devel/tee-tpm-hyp/optee_os/lib/libutee/tee_api_objects.c:458
    14b4:	2300      	movs	r3, #0
    14b6:	6023      	str	r3, [r4, #0]
/home/hsk/Desktop/devel/tee-tpm-hyp/optee_os/lib/libutee/tee_api_objects.c:441
    14b8:	4804      	ldr	r0, [pc, #16]	; (14cc <TEE_CreatePersistentObject+0x94>)
    14ba:	e7f2      	b.n	14a2 <TEE_CreatePersistentObject+0x6a>
    14bc:	ffff0008 	.word	0xffff0008
    14c0:	ffff0003 	.word	0xffff0003
    14c4:	ffff3041 	.word	0xffff3041
    14c8:	f0100001 	.word	0xf0100001
    14cc:	ffff0006 	.word	0xffff0006

000014d0 <TEE_CloseAndDeletePersistentObject1>:
TEE_CloseAndDeletePersistentObject1():
/home/hsk/Desktop/devel/tee-tpm-hyp/optee_os/lib/libutee/tee_api_objects.c:491
    14d0:	b510      	push	{r4, lr}
/home/hsk/Desktop/devel/tee-tpm-hyp/optee_os/lib/libutee/tee_api_objects.c:494
    14d2:	b150      	cbz	r0, 14ea <TEE_CloseAndDeletePersistentObject1+0x1a>
/home/hsk/Desktop/devel/tee-tpm-hyp/optee_os/lib/libutee/tee_api_objects.c:497
    14d4:	f001 eefc 	blx	32d0 <utee_storage_obj_del>
/home/hsk/Desktop/devel/tee-tpm-hyp/optee_os/lib/libutee/tee_api_objects.c:499
    14d8:	4604      	mov	r4, r0
    14da:	b120      	cbz	r0, 14e6 <TEE_CloseAndDeletePersistentObject1+0x16>
/home/hsk/Desktop/devel/tee-tpm-hyp/optee_os/lib/libutee/tee_api_objects.c:499 (discriminator 1)
    14dc:	4b04      	ldr	r3, [pc, #16]	; (14f0 <TEE_CloseAndDeletePersistentObject1+0x20>)
    14de:	4298      	cmp	r0, r3
    14e0:	d001      	beq.n	14e6 <TEE_CloseAndDeletePersistentObject1+0x16>
/home/hsk/Desktop/devel/tee-tpm-hyp/optee_os/lib/libutee/tee_api_objects.c:500
    14e2:	f006 fae7 	bl	7ab4 <TEE_Panic>
/home/hsk/Desktop/devel/tee-tpm-hyp/optee_os/lib/libutee/tee_api_objects.c:503
    14e6:	4620      	mov	r0, r4
    14e8:	bd10      	pop	{r4, pc}
/home/hsk/Desktop/devel/tee-tpm-hyp/optee_os/lib/libutee/tee_api_objects.c:495
    14ea:	4c01      	ldr	r4, [pc, #4]	; (14f0 <TEE_CloseAndDeletePersistentObject1+0x20>)
    14ec:	e7fb      	b.n	14e6 <TEE_CloseAndDeletePersistentObject1+0x16>
    14ee:	bf00      	nop
    14f0:	f0100003 	.word	0xf0100003

000014f4 <TEE_CloseAndDeletePersistentObject>:
TEE_CloseAndDeletePersistentObject():
/home/hsk/Desktop/devel/tee-tpm-hyp/optee_os/lib/libutee/tee_api_objects.c:478
    14f4:	b508      	push	{r3, lr}
/home/hsk/Desktop/devel/tee-tpm-hyp/optee_os/lib/libutee/tee_api_objects.c:481
    14f6:	b138      	cbz	r0, 1508 <TEE_CloseAndDeletePersistentObject+0x14>
/home/hsk/Desktop/devel/tee-tpm-hyp/optee_os/lib/libutee/tee_api_objects.c:484
    14f8:	f7ff ffea 	bl	14d0 <TEE_CloseAndDeletePersistentObject1>
/home/hsk/Desktop/devel/tee-tpm-hyp/optee_os/lib/libutee/tee_api_objects.c:486
    14fc:	b120      	cbz	r0, 1508 <TEE_CloseAndDeletePersistentObject+0x14>
/home/hsk/Desktop/devel/tee-tpm-hyp/optee_os/lib/libutee/tee_api_objects.c:487
    14fe:	2000      	movs	r0, #0
/home/hsk/Desktop/devel/tee-tpm-hyp/optee_os/lib/libutee/tee_api_objects.c:488
    1500:	e8bd 4008 	ldmia.w	sp!, {r3, lr}
/home/hsk/Desktop/devel/tee-tpm-hyp/optee_os/lib/libutee/tee_api_objects.c:487
    1504:	f006 bad6 	b.w	7ab4 <TEE_Panic>
/home/hsk/Desktop/devel/tee-tpm-hyp/optee_os/lib/libutee/tee_api_objects.c:488
    1508:	bd08      	pop	{r3, pc}

0000150a <TEE_RenamePersistentObject>:
TEE_RenamePersistentObject():
/home/hsk/Desktop/devel/tee-tpm-hyp/optee_os/lib/libutee/tee_api_objects.c:509
    150a:	b510      	push	{r4, lr}
/home/hsk/Desktop/devel/tee-tpm-hyp/optee_os/lib/libutee/tee_api_objects.c:512
    150c:	b1a0      	cbz	r0, 1538 <TEE_RenamePersistentObject+0x2e>
/home/hsk/Desktop/devel/tee-tpm-hyp/optee_os/lib/libutee/tee_api_objects.c:517
    150e:	b1a9      	cbz	r1, 153c <TEE_RenamePersistentObject+0x32>
/home/hsk/Desktop/devel/tee-tpm-hyp/optee_os/lib/libutee/tee_api_objects.c:522
    1510:	2a40      	cmp	r2, #64	; 0x40
    1512:	d813      	bhi.n	153c <TEE_RenamePersistentObject+0x32>
/home/hsk/Desktop/devel/tee-tpm-hyp/optee_os/lib/libutee/tee_api_objects.c:527
    1514:	f001 eee6 	blx	32e4 <utee_storage_obj_rename>
/home/hsk/Desktop/devel/tee-tpm-hyp/optee_os/lib/libutee/tee_api_objects.c:531
    1518:	4604      	mov	r4, r0
    151a:	b158      	cbz	r0, 1534 <TEE_RenamePersistentObject+0x2a>
/home/hsk/Desktop/devel/tee-tpm-hyp/optee_os/lib/libutee/tee_api_objects.c:531 (discriminator 1)
    151c:	4b08      	ldr	r3, [pc, #32]	; (1540 <TEE_RenamePersistentObject+0x36>)
    151e:	4298      	cmp	r0, r3
    1520:	d008      	beq.n	1534 <TEE_RenamePersistentObject+0x2a>
/home/hsk/Desktop/devel/tee-tpm-hyp/optee_os/lib/libutee/tee_api_objects.c:532
    1522:	4b08      	ldr	r3, [pc, #32]	; (1544 <TEE_RenamePersistentObject+0x3a>)
    1524:	4298      	cmp	r0, r3
    1526:	d005      	beq.n	1534 <TEE_RenamePersistentObject+0x2a>
/home/hsk/Desktop/devel/tee-tpm-hyp/optee_os/lib/libutee/tee_api_objects.c:533
    1528:	3302      	adds	r3, #2
    152a:	4298      	cmp	r0, r3
    152c:	d002      	beq.n	1534 <TEE_RenamePersistentObject+0x2a>
/home/hsk/Desktop/devel/tee-tpm-hyp/optee_os/lib/libutee/tee_api_objects.c:535
    152e:	4620      	mov	r0, r4
    1530:	f006 fac0 	bl	7ab4 <TEE_Panic>
/home/hsk/Desktop/devel/tee-tpm-hyp/optee_os/lib/libutee/tee_api_objects.c:538
    1534:	4620      	mov	r0, r4
    1536:	bd10      	pop	{r4, pc}
/home/hsk/Desktop/devel/tee-tpm-hyp/optee_os/lib/libutee/tee_api_objects.c:513
    1538:	4c03      	ldr	r4, [pc, #12]	; (1548 <TEE_RenamePersistentObject+0x3e>)
    153a:	e7f8      	b.n	152e <TEE_RenamePersistentObject+0x24>
/home/hsk/Desktop/devel/tee-tpm-hyp/optee_os/lib/libutee/tee_api_objects.c:518
    153c:	4c03      	ldr	r4, [pc, #12]	; (154c <TEE_RenamePersistentObject+0x42>)
    153e:	e7f6      	b.n	152e <TEE_RenamePersistentObject+0x24>
    1540:	ffff0003 	.word	0xffff0003
    1544:	f0100001 	.word	0xf0100001
    1548:	ffff0008 	.word	0xffff0008
    154c:	ffff0006 	.word	0xffff0006

00001550 <TEE_AllocatePersistentObjectEnumerator>:
TEE_AllocatePersistentObjectEnumerator():
/home/hsk/Desktop/devel/tee-tpm-hyp/optee_os/lib/libutee/tee_api_objects.c:542
    1550:	b537      	push	{r0, r1, r2, r4, r5, lr}
/home/hsk/Desktop/devel/tee-tpm-hyp/optee_os/lib/libutee/tee_api_objects.c:546
    1552:	4605      	mov	r5, r0
    1554:	b190      	cbz	r0, 157c <TEE_AllocatePersistentObjectEnumerator+0x2c>
/home/hsk/Desktop/devel/tee-tpm-hyp/optee_os/lib/libutee/tee_api_objects.c:549
    1556:	a801      	add	r0, sp, #4
    1558:	f001 eece 	blx	32f8 <utee_storage_alloc_enum>
/home/hsk/Desktop/devel/tee-tpm-hyp/optee_os/lib/libutee/tee_api_objects.c:551
    155c:	4604      	mov	r4, r0
    155e:	b108      	cbz	r0, 1564 <TEE_AllocatePersistentObjectEnumerator+0x14>
/home/hsk/Desktop/devel/tee-tpm-hyp/optee_os/lib/libutee/tee_api_objects.c:552
    1560:	2300      	movs	r3, #0
    1562:	9301      	str	r3, [sp, #4]
/home/hsk/Desktop/devel/tee-tpm-hyp/optee_os/lib/libutee/tee_api_objects.c:554
    1564:	9b01      	ldr	r3, [sp, #4]
    1566:	602b      	str	r3, [r5, #0]
/home/hsk/Desktop/devel/tee-tpm-hyp/optee_os/lib/libutee/tee_api_objects.c:556
    1568:	b12c      	cbz	r4, 1576 <TEE_AllocatePersistentObjectEnumerator+0x26>
/home/hsk/Desktop/devel/tee-tpm-hyp/optee_os/lib/libutee/tee_api_objects.c:556 (discriminator 1)
    156a:	4b05      	ldr	r3, [pc, #20]	; (1580 <TEE_AllocatePersistentObjectEnumerator+0x30>)
    156c:	429c      	cmp	r4, r3
    156e:	d002      	beq.n	1576 <TEE_AllocatePersistentObjectEnumerator+0x26>
/home/hsk/Desktop/devel/tee-tpm-hyp/optee_os/lib/libutee/tee_api_objects.c:558
    1570:	4620      	mov	r0, r4
    1572:	f006 fa9f 	bl	7ab4 <TEE_Panic>
/home/hsk/Desktop/devel/tee-tpm-hyp/optee_os/lib/libutee/tee_api_objects.c:561
    1576:	4620      	mov	r0, r4
    1578:	b003      	add	sp, #12
    157a:	bd30      	pop	{r4, r5, pc}
/home/hsk/Desktop/devel/tee-tpm-hyp/optee_os/lib/libutee/tee_api_objects.c:547
    157c:	4c01      	ldr	r4, [pc, #4]	; (1584 <TEE_AllocatePersistentObjectEnumerator+0x34>)
    157e:	e7fa      	b.n	1576 <TEE_AllocatePersistentObjectEnumerator+0x26>
    1580:	ffff0003 	.word	0xffff0003
    1584:	ffff0006 	.word	0xffff0006

00001588 <TEE_FreePersistentObjectEnumerator>:
TEE_FreePersistentObjectEnumerator():
/home/hsk/Desktop/devel/tee-tpm-hyp/optee_os/lib/libutee/tee_api_objects.c:564
    1588:	b508      	push	{r3, lr}
/home/hsk/Desktop/devel/tee-tpm-hyp/optee_os/lib/libutee/tee_api_objects.c:567
    158a:	b130      	cbz	r0, 159a <TEE_FreePersistentObjectEnumerator+0x12>
/home/hsk/Desktop/devel/tee-tpm-hyp/optee_os/lib/libutee/tee_api_objects.c:570
    158c:	f001 eebe 	blx	330c <utee_storage_free_enum>
/home/hsk/Desktop/devel/tee-tpm-hyp/optee_os/lib/libutee/tee_api_objects.c:572
    1590:	b118      	cbz	r0, 159a <TEE_FreePersistentObjectEnumerator+0x12>
/home/hsk/Desktop/devel/tee-tpm-hyp/optee_os/lib/libutee/tee_api_objects.c:574
    1592:	e8bd 4008 	ldmia.w	sp!, {r3, lr}
/home/hsk/Desktop/devel/tee-tpm-hyp/optee_os/lib/libutee/tee_api_objects.c:573
    1596:	f006 ba8d 	b.w	7ab4 <TEE_Panic>
/home/hsk/Desktop/devel/tee-tpm-hyp/optee_os/lib/libutee/tee_api_objects.c:574
    159a:	bd08      	pop	{r3, pc}

0000159c <TEE_ResetPersistentObjectEnumerator>:
TEE_ResetPersistentObjectEnumerator():
/home/hsk/Desktop/devel/tee-tpm-hyp/optee_os/lib/libutee/tee_api_objects.c:577
    159c:	b508      	push	{r3, lr}
/home/hsk/Desktop/devel/tee-tpm-hyp/optee_os/lib/libutee/tee_api_objects.c:580
    159e:	b130      	cbz	r0, 15ae <TEE_ResetPersistentObjectEnumerator+0x12>
/home/hsk/Desktop/devel/tee-tpm-hyp/optee_os/lib/libutee/tee_api_objects.c:583
    15a0:	f001 eebe 	blx	3320 <utee_storage_reset_enum>
/home/hsk/Desktop/devel/tee-tpm-hyp/optee_os/lib/libutee/tee_api_objects.c:585
    15a4:	b118      	cbz	r0, 15ae <TEE_ResetPersistentObjectEnumerator+0x12>
/home/hsk/Desktop/devel/tee-tpm-hyp/optee_os/lib/libutee/tee_api_objects.c:587
    15a6:	e8bd 4008 	ldmia.w	sp!, {r3, lr}
/home/hsk/Desktop/devel/tee-tpm-hyp/optee_os/lib/libutee/tee_api_objects.c:586
    15aa:	f006 ba83 	b.w	7ab4 <TEE_Panic>
/home/hsk/Desktop/devel/tee-tpm-hyp/optee_os/lib/libutee/tee_api_objects.c:587
    15ae:	bd08      	pop	{r3, pc}

000015b0 <TEE_StartPersistentObjectEnumerator>:
TEE_StartPersistentObjectEnumerator():
/home/hsk/Desktop/devel/tee-tpm-hyp/optee_os/lib/libutee/tee_api_objects.c:592
    15b0:	b510      	push	{r4, lr}
/home/hsk/Desktop/devel/tee-tpm-hyp/optee_os/lib/libutee/tee_api_objects.c:595
    15b2:	f001 eec0 	blx	3334 <utee_storage_start_enum>
/home/hsk/Desktop/devel/tee-tpm-hyp/optee_os/lib/libutee/tee_api_objects.c:598
    15b6:	4604      	mov	r4, r0
    15b8:	b148      	cbz	r0, 15ce <TEE_StartPersistentObjectEnumerator+0x1e>
/home/hsk/Desktop/devel/tee-tpm-hyp/optee_os/lib/libutee/tee_api_objects.c:598 (discriminator 1)
    15ba:	4b06      	ldr	r3, [pc, #24]	; (15d4 <TEE_StartPersistentObjectEnumerator+0x24>)
    15bc:	4298      	cmp	r0, r3
    15be:	d006      	beq.n	15ce <TEE_StartPersistentObjectEnumerator+0x1e>
/home/hsk/Desktop/devel/tee-tpm-hyp/optee_os/lib/libutee/tee_api_objects.c:599
    15c0:	4b05      	ldr	r3, [pc, #20]	; (15d8 <TEE_StartPersistentObjectEnumerator+0x28>)
    15c2:	f020 0202 	bic.w	r2, r0, #2
    15c6:	429a      	cmp	r2, r3
    15c8:	d001      	beq.n	15ce <TEE_StartPersistentObjectEnumerator+0x1e>
/home/hsk/Desktop/devel/tee-tpm-hyp/optee_os/lib/libutee/tee_api_objects.c:602
    15ca:	f006 fa73 	bl	7ab4 <TEE_Panic>
/home/hsk/Desktop/devel/tee-tpm-hyp/optee_os/lib/libutee/tee_api_objects.c:605
    15ce:	4620      	mov	r0, r4
    15d0:	bd10      	pop	{r4, pc}
    15d2:	bf00      	nop
    15d4:	ffff0008 	.word	0xffff0008
    15d8:	f0100001 	.word	0xf0100001

000015dc <TEE_GetNextPersistentObject>:
TEE_GetNextPersistentObject():
/home/hsk/Desktop/devel/tee-tpm-hyp/optee_os/lib/libutee/tee_api_objects.c:610
    15dc:	b510      	push	{r4, lr}
    15de:	461c      	mov	r4, r3
    15e0:	b08a      	sub	sp, #40	; 0x28
/home/hsk/Desktop/devel/tee-tpm-hyp/optee_os/lib/libutee/tee_api_objects.c:616
    15e2:	b1e2      	cbz	r2, 161e <TEE_GetNextPersistentObject+0x42>
/home/hsk/Desktop/devel/tee-tpm-hyp/optee_os/lib/libutee/tee_api_objects.c:621
    15e4:	b1db      	cbz	r3, 161e <TEE_GetNextPersistentObject+0x42>
/home/hsk/Desktop/devel/tee-tpm-hyp/optee_os/lib/libutee/tee_api_objects.c:626
    15e6:	b901      	cbnz	r1, 15ea <TEE_GetNextPersistentObject+0xe>
/home/hsk/Desktop/devel/tee-tpm-hyp/optee_os/lib/libutee/tee_api_objects.c:629
    15e8:	a903      	add	r1, sp, #12
/home/hsk/Desktop/devel/tee-tpm-hyp/optee_os/lib/libutee/tee_api_objects.c:630
    15ea:	6823      	ldr	r3, [r4, #0]
    15ec:	9300      	str	r3, [sp, #0]
    15ee:	2300      	movs	r3, #0
    15f0:	9301      	str	r3, [sp, #4]
/home/hsk/Desktop/devel/tee-tpm-hyp/optee_os/lib/libutee/tee_api_objects.c:631
    15f2:	466b      	mov	r3, sp
    15f4:	f001 eea8 	blx	3348 <utee_storage_next_enum>
/home/hsk/Desktop/devel/tee-tpm-hyp/optee_os/lib/libutee/tee_api_objects.c:633
    15f8:	9b00      	ldr	r3, [sp, #0]
    15fa:	6023      	str	r3, [r4, #0]
/home/hsk/Desktop/devel/tee-tpm-hyp/optee_os/lib/libutee/tee_api_objects.c:636
    15fc:	4604      	mov	r4, r0
    15fe:	b158      	cbz	r0, 1618 <TEE_GetNextPersistentObject+0x3c>
/home/hsk/Desktop/devel/tee-tpm-hyp/optee_os/lib/libutee/tee_api_objects.c:636 (discriminator 1)
    1600:	4b08      	ldr	r3, [pc, #32]	; (1624 <TEE_GetNextPersistentObject+0x48>)
    1602:	4298      	cmp	r0, r3
    1604:	d008      	beq.n	1618 <TEE_GetNextPersistentObject+0x3c>
/home/hsk/Desktop/devel/tee-tpm-hyp/optee_os/lib/libutee/tee_api_objects.c:637
    1606:	4b08      	ldr	r3, [pc, #32]	; (1628 <TEE_GetNextPersistentObject+0x4c>)
    1608:	4298      	cmp	r0, r3
    160a:	d005      	beq.n	1618 <TEE_GetNextPersistentObject+0x3c>
/home/hsk/Desktop/devel/tee-tpm-hyp/optee_os/lib/libutee/tee_api_objects.c:638
    160c:	3302      	adds	r3, #2
    160e:	4298      	cmp	r0, r3
    1610:	d002      	beq.n	1618 <TEE_GetNextPersistentObject+0x3c>
/home/hsk/Desktop/devel/tee-tpm-hyp/optee_os/lib/libutee/tee_api_objects.c:640
    1612:	4620      	mov	r0, r4
    1614:	f006 fa4e 	bl	7ab4 <TEE_Panic>
/home/hsk/Desktop/devel/tee-tpm-hyp/optee_os/lib/libutee/tee_api_objects.c:643
    1618:	4620      	mov	r0, r4
    161a:	b00a      	add	sp, #40	; 0x28
    161c:	bd10      	pop	{r4, pc}
    161e:	4c03      	ldr	r4, [pc, #12]	; (162c <TEE_GetNextPersistentObject+0x50>)
    1620:	e7f7      	b.n	1612 <TEE_GetNextPersistentObject+0x36>
    1622:	bf00      	nop
    1624:	ffff0008 	.word	0xffff0008
    1628:	f0100001 	.word	0xf0100001
    162c:	ffff0006 	.word	0xffff0006

00001630 <TEE_ReadObjectData>:
TEE_ReadObjectData():
/home/hsk/Desktop/devel/tee-tpm-hyp/optee_os/lib/libutee/tee_api_objects.c:649
    1630:	b513      	push	{r0, r1, r4, lr}
    1632:	461c      	mov	r4, r3
/home/hsk/Desktop/devel/tee-tpm-hyp/optee_os/lib/libutee/tee_api_objects.c:653
    1634:	b1b0      	cbz	r0, 1664 <TEE_ReadObjectData+0x34>
/home/hsk/Desktop/devel/tee-tpm-hyp/optee_os/lib/libutee/tee_api_objects.c:658
    1636:	681b      	ldr	r3, [r3, #0]
    1638:	9300      	str	r3, [sp, #0]
    163a:	2300      	movs	r3, #0
    163c:	9301      	str	r3, [sp, #4]
/home/hsk/Desktop/devel/tee-tpm-hyp/optee_os/lib/libutee/tee_api_objects.c:659
    163e:	466b      	mov	r3, sp
    1640:	f001 ee8c 	blx	335c <utee_storage_obj_read>
/home/hsk/Desktop/devel/tee-tpm-hyp/optee_os/lib/libutee/tee_api_objects.c:661
    1644:	9b00      	ldr	r3, [sp, #0]
    1646:	6023      	str	r3, [r4, #0]
/home/hsk/Desktop/devel/tee-tpm-hyp/optee_os/lib/libutee/tee_api_objects.c:664
    1648:	4604      	mov	r4, r0
    164a:	b140      	cbz	r0, 165e <TEE_ReadObjectData+0x2e>
/home/hsk/Desktop/devel/tee-tpm-hyp/optee_os/lib/libutee/tee_api_objects.c:664 (discriminator 1)
    164c:	4b06      	ldr	r3, [pc, #24]	; (1668 <TEE_ReadObjectData+0x38>)
    164e:	4298      	cmp	r0, r3
    1650:	d005      	beq.n	165e <TEE_ReadObjectData+0x2e>
/home/hsk/Desktop/devel/tee-tpm-hyp/optee_os/lib/libutee/tee_api_objects.c:665
    1652:	3302      	adds	r3, #2
    1654:	4298      	cmp	r0, r3
    1656:	d002      	beq.n	165e <TEE_ReadObjectData+0x2e>
/home/hsk/Desktop/devel/tee-tpm-hyp/optee_os/lib/libutee/tee_api_objects.c:667
    1658:	4620      	mov	r0, r4
    165a:	f006 fa2b 	bl	7ab4 <TEE_Panic>
/home/hsk/Desktop/devel/tee-tpm-hyp/optee_os/lib/libutee/tee_api_objects.c:670
    165e:	4620      	mov	r0, r4
    1660:	b002      	add	sp, #8
    1662:	bd10      	pop	{r4, pc}
/home/hsk/Desktop/devel/tee-tpm-hyp/optee_os/lib/libutee/tee_api_objects.c:654
    1664:	4c01      	ldr	r4, [pc, #4]	; (166c <TEE_ReadObjectData+0x3c>)
    1666:	e7f7      	b.n	1658 <TEE_ReadObjectData+0x28>
    1668:	f0100001 	.word	0xf0100001
    166c:	ffff0006 	.word	0xffff0006

00001670 <TEE_WriteObjectData>:
TEE_WriteObjectData():
/home/hsk/Desktop/devel/tee-tpm-hyp/optee_os/lib/libutee/tee_api_objects.c:674
    1670:	b510      	push	{r4, lr}
/home/hsk/Desktop/devel/tee-tpm-hyp/optee_os/lib/libutee/tee_api_objects.c:677
    1672:	b1a0      	cbz	r0, 169e <TEE_WriteObjectData+0x2e>
/home/hsk/Desktop/devel/tee-tpm-hyp/optee_os/lib/libutee/tee_api_objects.c:687
    1674:	f001 ee7c 	blx	3370 <utee_storage_obj_write>
/home/hsk/Desktop/devel/tee-tpm-hyp/optee_os/lib/libutee/tee_api_objects.c:690
    1678:	4604      	mov	r4, r0
    167a:	b170      	cbz	r0, 169a <TEE_WriteObjectData+0x2a>
/home/hsk/Desktop/devel/tee-tpm-hyp/optee_os/lib/libutee/tee_api_objects.c:690 (discriminator 1)
    167c:	4b09      	ldr	r3, [pc, #36]	; (16a4 <TEE_WriteObjectData+0x34>)
    167e:	4298      	cmp	r0, r3
    1680:	d00b      	beq.n	169a <TEE_WriteObjectData+0x2a>
/home/hsk/Desktop/devel/tee-tpm-hyp/optee_os/lib/libutee/tee_api_objects.c:691
    1682:	3b32      	subs	r3, #50	; 0x32
    1684:	4298      	cmp	r0, r3
    1686:	d008      	beq.n	169a <TEE_WriteObjectData+0x2a>
/home/hsk/Desktop/devel/tee-tpm-hyp/optee_os/lib/libutee/tee_api_objects.c:692
    1688:	4b07      	ldr	r3, [pc, #28]	; (16a8 <TEE_WriteObjectData+0x38>)
    168a:	4298      	cmp	r0, r3
    168c:	d005      	beq.n	169a <TEE_WriteObjectData+0x2a>
/home/hsk/Desktop/devel/tee-tpm-hyp/optee_os/lib/libutee/tee_api_objects.c:693
    168e:	3302      	adds	r3, #2
    1690:	4298      	cmp	r0, r3
    1692:	d002      	beq.n	169a <TEE_WriteObjectData+0x2a>
/home/hsk/Desktop/devel/tee-tpm-hyp/optee_os/lib/libutee/tee_api_objects.c:695
    1694:	4620      	mov	r0, r4
    1696:	f006 fa0d 	bl	7ab4 <TEE_Panic>
/home/hsk/Desktop/devel/tee-tpm-hyp/optee_os/lib/libutee/tee_api_objects.c:698
    169a:	4620      	mov	r0, r4
    169c:	bd10      	pop	{r4, pc}
/home/hsk/Desktop/devel/tee-tpm-hyp/optee_os/lib/libutee/tee_api_objects.c:678
    169e:	4c03      	ldr	r4, [pc, #12]	; (16ac <TEE_WriteObjectData+0x3c>)
    16a0:	e7f8      	b.n	1694 <TEE_WriteObjectData+0x24>
    16a2:	bf00      	nop
    16a4:	ffff3041 	.word	0xffff3041
    16a8:	f0100001 	.word	0xf0100001
    16ac:	ffff0006 	.word	0xffff0006

000016b0 <TEE_TruncateObjectData>:
TEE_TruncateObjectData():
/home/hsk/Desktop/devel/tee-tpm-hyp/optee_os/lib/libutee/tee_api_objects.c:701
    16b0:	b510      	push	{r4, lr}
/home/hsk/Desktop/devel/tee-tpm-hyp/optee_os/lib/libutee/tee_api_objects.c:704
    16b2:	b170      	cbz	r0, 16d2 <TEE_TruncateObjectData+0x22>
/home/hsk/Desktop/devel/tee-tpm-hyp/optee_os/lib/libutee/tee_api_objects.c:709
    16b4:	f001 ee66 	blx	3384 <utee_storage_obj_trunc>
/home/hsk/Desktop/devel/tee-tpm-hyp/optee_os/lib/libutee/tee_api_objects.c:712
    16b8:	4604      	mov	r4, r0
    16ba:	b140      	cbz	r0, 16ce <TEE_TruncateObjectData+0x1e>
/home/hsk/Desktop/devel/tee-tpm-hyp/optee_os/lib/libutee/tee_api_objects.c:712 (discriminator 1)
    16bc:	4b07      	ldr	r3, [pc, #28]	; (16dc <TEE_TruncateObjectData+0x2c>)
    16be:	4298      	cmp	r0, r3
    16c0:	d005      	beq.n	16ce <TEE_TruncateObjectData+0x1e>
/home/hsk/Desktop/devel/tee-tpm-hyp/optee_os/lib/libutee/tee_api_objects.c:713
    16c2:	4b07      	ldr	r3, [pc, #28]	; (16e0 <TEE_TruncateObjectData+0x30>)
    16c4:	4298      	cmp	r0, r3
    16c6:	d002      	beq.n	16ce <TEE_TruncateObjectData+0x1e>
/home/hsk/Desktop/devel/tee-tpm-hyp/optee_os/lib/libutee/tee_api_objects.c:714
    16c8:	3302      	adds	r3, #2
    16ca:	4298      	cmp	r0, r3
    16cc:	d102      	bne.n	16d4 <TEE_TruncateObjectData+0x24>
/home/hsk/Desktop/devel/tee-tpm-hyp/optee_os/lib/libutee/tee_api_objects.c:719
    16ce:	4620      	mov	r0, r4
    16d0:	bd10      	pop	{r4, pc}
/home/hsk/Desktop/devel/tee-tpm-hyp/optee_os/lib/libutee/tee_api_objects.c:705
    16d2:	4c04      	ldr	r4, [pc, #16]	; (16e4 <TEE_TruncateObjectData+0x34>)
/home/hsk/Desktop/devel/tee-tpm-hyp/optee_os/lib/libutee/tee_api_objects.c:716
    16d4:	4620      	mov	r0, r4
    16d6:	f006 f9ed 	bl	7ab4 <TEE_Panic>
/home/hsk/Desktop/devel/tee-tpm-hyp/optee_os/lib/libutee/tee_api_objects.c:718
    16da:	e7f8      	b.n	16ce <TEE_TruncateObjectData+0x1e>
    16dc:	ffff3041 	.word	0xffff3041
    16e0:	f0100001 	.word	0xf0100001
    16e4:	ffff0006 	.word	0xffff0006

000016e8 <TEE_SeekObjectData>:
TEE_SeekObjectData():
/home/hsk/Desktop/devel/tee-tpm-hyp/optee_os/lib/libutee/tee_api_objects.c:723
    16e8:	b5f0      	push	{r4, r5, r6, r7, lr}
    16ea:	460d      	mov	r5, r1
    16ec:	4616      	mov	r6, r2
    16ee:	b089      	sub	sp, #36	; 0x24
/home/hsk/Desktop/devel/tee-tpm-hyp/optee_os/lib/libutee/tee_api_objects.c:727
    16f0:	4607      	mov	r7, r0
    16f2:	b368      	cbz	r0, 1750 <TEE_SeekObjectData+0x68>
/home/hsk/Desktop/devel/tee-tpm-hyp/optee_os/lib/libutee/tee_api_objects.c:732
    16f4:	a901      	add	r1, sp, #4
    16f6:	f001 ed1e 	blx	3134 <utee_cryp_obj_get_info>
/home/hsk/Desktop/devel/tee-tpm-hyp/optee_os/lib/libutee/tee_api_objects.c:733
    16fa:	4604      	mov	r4, r0
    16fc:	b9d8      	cbnz	r0, 1736 <TEE_SeekObjectData+0x4e>
/home/hsk/Desktop/devel/tee-tpm-hyp/optee_os/lib/libutee/tee_api_objects.c:736
    16fe:	2e01      	cmp	r6, #1
    1700:	d004      	beq.n	170c <TEE_SeekObjectData+0x24>
    1702:	d310      	bcc.n	1726 <TEE_SeekObjectData+0x3e>
    1704:	2e02      	cmp	r6, #2
    1706:	d00a      	beq.n	171e <TEE_SeekObjectData+0x36>
/home/hsk/Desktop/devel/tee-tpm-hyp/optee_os/lib/libutee/tee_api_objects.c:762
    1708:	4c12      	ldr	r4, [pc, #72]	; (1754 <TEE_SeekObjectData+0x6c>)
    170a:	e01d      	b.n	1748 <TEE_SeekObjectData+0x60>
/home/hsk/Desktop/devel/tee-tpm-hyp/optee_os/lib/libutee/tee_api_objects.c:744
    170c:	2d00      	cmp	r5, #0
    170e:	dd0a      	ble.n	1726 <TEE_SeekObjectData+0x3e>
/home/hsk/Desktop/devel/tee-tpm-hyp/optee_os/lib/libutee/tee_api_objects.c:744 (discriminator 1)
    1710:	9b06      	ldr	r3, [sp, #24]
    1712:	42dd      	cmn	r5, r3
    1714:	d307      	bcc.n	1726 <TEE_SeekObjectData+0x3e>
/home/hsk/Desktop/devel/tee-tpm-hyp/optee_os/lib/libutee/tee_api_objects.c:749
    1716:	4c10      	ldr	r4, [pc, #64]	; (1758 <TEE_SeekObjectData+0x70>)
/home/hsk/Desktop/devel/tee-tpm-hyp/optee_os/lib/libutee/tee_api_objects.c:776
    1718:	4620      	mov	r0, r4
    171a:	b009      	add	sp, #36	; 0x24
    171c:	bdf0      	pop	{r4, r5, r6, r7, pc}
/home/hsk/Desktop/devel/tee-tpm-hyp/optee_os/lib/libutee/tee_api_objects.c:754
    171e:	2d00      	cmp	r5, #0
    1720:	dd01      	ble.n	1726 <TEE_SeekObjectData+0x3e>
/home/hsk/Desktop/devel/tee-tpm-hyp/optee_os/lib/libutee/tee_api_objects.c:754 (discriminator 1)
    1722:	9b05      	ldr	r3, [sp, #20]
    1724:	e7f5      	b.n	1712 <TEE_SeekObjectData+0x2a>
/home/hsk/Desktop/devel/tee-tpm-hyp/optee_os/lib/libutee/tee_api_objects.c:766
    1726:	4632      	mov	r2, r6
    1728:	4629      	mov	r1, r5
    172a:	4638      	mov	r0, r7
    172c:	f001 ee34 	blx	3398 <utee_storage_obj_seek>
/home/hsk/Desktop/devel/tee-tpm-hyp/optee_os/lib/libutee/tee_api_objects.c:769
    1730:	4604      	mov	r4, r0
    1732:	2800      	cmp	r0, #0
    1734:	d0f0      	beq.n	1718 <TEE_SeekObjectData+0x30>
/home/hsk/Desktop/devel/tee-tpm-hyp/optee_os/lib/libutee/tee_api_objects.c:769 (discriminator 1)
    1736:	4b08      	ldr	r3, [pc, #32]	; (1758 <TEE_SeekObjectData+0x70>)
    1738:	429c      	cmp	r4, r3
    173a:	d0ec      	beq.n	1716 <TEE_SeekObjectData+0x2e>
/home/hsk/Desktop/devel/tee-tpm-hyp/optee_os/lib/libutee/tee_api_objects.c:770
    173c:	4b07      	ldr	r3, [pc, #28]	; (175c <TEE_SeekObjectData+0x74>)
    173e:	429c      	cmp	r4, r3
    1740:	d0ea      	beq.n	1718 <TEE_SeekObjectData+0x30>
/home/hsk/Desktop/devel/tee-tpm-hyp/optee_os/lib/libutee/tee_api_objects.c:771
    1742:	3302      	adds	r3, #2
    1744:	429c      	cmp	r4, r3
    1746:	d0e7      	beq.n	1718 <TEE_SeekObjectData+0x30>
/home/hsk/Desktop/devel/tee-tpm-hyp/optee_os/lib/libutee/tee_api_objects.c:773
    1748:	4620      	mov	r0, r4
    174a:	f006 f9b3 	bl	7ab4 <TEE_Panic>
/home/hsk/Desktop/devel/tee-tpm-hyp/optee_os/lib/libutee/tee_api_objects.c:775
    174e:	e7e3      	b.n	1718 <TEE_SeekObjectData+0x30>
/home/hsk/Desktop/devel/tee-tpm-hyp/optee_os/lib/libutee/tee_api_objects.c:728
    1750:	4c03      	ldr	r4, [pc, #12]	; (1760 <TEE_SeekObjectData+0x78>)
    1752:	e7f9      	b.n	1748 <TEE_SeekObjectData+0x60>
    1754:	ffff0008 	.word	0xffff0008
    1758:	ffff300f 	.word	0xffff300f
    175c:	f0100001 	.word	0xf0100001
    1760:	ffff0006 	.word	0xffff0006

00001764 <tee_buffer_update>:
tee_buffer_update():
/home/hsk/Desktop/devel/tee-tpm-hyp/optee_os/lib/libutee/tee_api_operations.c:852
    1764:	e92d 4ff0 	stmdb	sp!, {r4, r5, r6, r7, r8, r9, sl, fp, lr}
    1768:	4604      	mov	r4, r0
    176a:	461d      	mov	r5, r3
    176c:	b087      	sub	sp, #28
/home/hsk/Desktop/devel/tee-tpm-hyp/optee_os/lib/libutee/tee_api_operations.c:864
    176e:	4690      	mov	r8, r2
/home/hsk/Desktop/devel/tee-tpm-hyp/optee_os/lib/libutee/tee_api_operations.c:852
    1770:	9103      	str	r1, [sp, #12]
/home/hsk/Desktop/devel/tee-tpm-hyp/optee_os/lib/libutee/tee_api_operations.c:864
    1772:	b962      	cbnz	r2, 178e <tee_buffer_update+0x2a>
/home/hsk/Desktop/devel/tee-tpm-hyp/optee_os/lib/libutee/tee_api_operations.c:865
    1774:	b93b      	cbnz	r3, 1786 <tee_buffer_update+0x22>
/home/hsk/Desktop/devel/tee-tpm-hyp/optee_os/lib/libutee/tee_api_operations.c:858
    1776:	2600      	movs	r6, #0
/home/hsk/Desktop/devel/tee-tpm-hyp/optee_os/lib/libutee/tee_api_operations.c:940
    1778:	9b11      	ldr	r3, [sp, #68]	; 0x44
    177a:	2000      	movs	r0, #0
    177c:	e9c3 6000 	strd	r6, r0, [r3]
/home/hsk/Desktop/devel/tee-tpm-hyp/optee_os/lib/libutee/tee_api_operations.c:942
    1780:	b007      	add	sp, #28
    1782:	e8bd 8ff0 	ldmia.w	sp!, {r4, r5, r6, r7, r8, r9, sl, fp, pc}
/home/hsk/Desktop/devel/tee-tpm-hyp/optee_os/lib/libutee/tee_api_operations.c:866
    1786:	4610      	mov	r0, r2
    1788:	f006 f994 	bl	7ab4 <TEE_Panic>
    178c:	e7f3      	b.n	1776 <tee_buffer_update+0x12>
/home/hsk/Desktop/devel/tee-tpm-hyp/optee_os/lib/libutee/tee_api_operations.c:870
    178e:	f890 9030 	ldrb.w	r9, [r0, #48]	; 0x30
    1792:	6b46      	ldr	r6, [r0, #52]	; 0x34
    1794:	f1b9 0f00 	cmp.w	r9, #0
    1798:	d06d      	beq.n	1876 <tee_buffer_update+0x112>
/home/hsk/Desktop/devel/tee-tpm-hyp/optee_os/lib/libutee/tee_api_operations.c:871
    179a:	ea4f 0a46 	mov.w	sl, r6, lsl #1
/home/hsk/Desktop/devel/tee-tpm-hyp/optee_os/lib/libutee/tee_api_operations.c:872
    179e:	f04f 0901 	mov.w	r9, #1
/home/hsk/Desktop/devel/tee-tpm-hyp/optee_os/lib/libutee/tee_api_operations.c:878
    17a2:	6ba0      	ldr	r0, [r4, #56]	; 0x38
/home/hsk/Desktop/devel/tee-tpm-hyp/optee_os/lib/libutee/tee_api_operations.c:857
    17a4:	9b11      	ldr	r3, [sp, #68]	; 0x44
    17a6:	f8d3 b000 	ldr.w	fp, [r3]
/home/hsk/Desktop/devel/tee-tpm-hyp/optee_os/lib/libutee/tee_api_operations.c:878
    17aa:	b1b8      	cbz	r0, 17dc <tee_buffer_update+0x78>
/home/hsk/Desktop/devel/tee-tpm-hyp/optee_os/lib/libutee/tee_api_operations.c:880
    17ac:	42b0      	cmp	r0, r6
    17ae:	d264      	bcs.n	187a <tee_buffer_update+0x116>
/home/hsk/Desktop/devel/tee-tpm-hyp/optee_os/lib/libutee/tee_api_operations.c:881
    17b0:	1a36      	subs	r6, r6, r0
/home/hsk/Desktop/devel/tee-tpm-hyp/optee_os/lib/libutee/tee_api_operations.c:884
    17b2:	6ae3      	ldr	r3, [r4, #44]	; 0x2c
/home/hsk/Desktop/devel/tee-tpm-hyp/optee_os/lib/libutee/tee_api_operations.c:883
    17b4:	42ae      	cmp	r6, r5
    17b6:	bf28      	it	cs
    17b8:	462e      	movcs	r6, r5
/home/hsk/Desktop/devel/tee-tpm-hyp/optee_os/lib/libutee/tee_api_operations.c:884
    17ba:	4641      	mov	r1, r8
    17bc:	4632      	mov	r2, r6
    17be:	4418      	add	r0, r3
    17c0:	f006 f99f 	bl	7b02 <memcpy>
/home/hsk/Desktop/devel/tee-tpm-hyp/optee_os/lib/libutee/tee_api_operations.c:885
    17c4:	6ba3      	ldr	r3, [r4, #56]	; 0x38
/home/hsk/Desktop/devel/tee-tpm-hyp/optee_os/lib/libutee/tee_api_operations.c:888
    17c6:	6b61      	ldr	r1, [r4, #52]	; 0x34
/home/hsk/Desktop/devel/tee-tpm-hyp/optee_os/lib/libutee/tee_api_operations.c:885
    17c8:	4433      	add	r3, r6
    17ca:	63a3      	str	r3, [r4, #56]	; 0x38
/home/hsk/Desktop/devel/tee-tpm-hyp/optee_os/lib/libutee/tee_api_operations.c:888
    17cc:	fbb3 f2f1 	udiv	r2, r3, r1
    17d0:	fb01 3312 	mls	r3, r1, r2, r3
    17d4:	2b00      	cmp	r3, #0
    17d6:	d1ce      	bne.n	1776 <tee_buffer_update+0x12>
/home/hsk/Desktop/devel/tee-tpm-hyp/optee_os/lib/libutee/tee_api_operations.c:886
    17d8:	44b0      	add	r8, r6
/home/hsk/Desktop/devel/tee-tpm-hyp/optee_os/lib/libutee/tee_api_operations.c:887
    17da:	1bad      	subs	r5, r5, r6
/home/hsk/Desktop/devel/tee-tpm-hyp/optee_os/lib/libutee/tee_api_operations.c:893
    17dc:	6ba6      	ldr	r6, [r4, #56]	; 0x38
/home/hsk/Desktop/devel/tee-tpm-hyp/optee_os/lib/libutee/tee_api_operations.c:857
    17de:	465a      	mov	r2, fp
    17e0:	44d1      	add	r9, sl
/home/hsk/Desktop/devel/tee-tpm-hyp/optee_os/lib/libutee/tee_api_operations.c:893
    17e2:	b32e      	cbz	r6, 1830 <tee_buffer_update+0xcc>
/home/hsk/Desktop/devel/tee-tpm-hyp/optee_os/lib/libutee/tee_api_operations.c:894 (discriminator 1)
    17e4:	1971      	adds	r1, r6, r5
/home/hsk/Desktop/devel/tee-tpm-hyp/optee_os/lib/libutee/tee_api_operations.c:893 (discriminator 1)
    17e6:	4549      	cmp	r1, r9
    17e8:	d35b      	bcc.n	18a2 <tee_buffer_update+0x13e>
/home/hsk/Desktop/devel/tee-tpm-hyp/optee_os/lib/libutee/tee_api_operations.c:895
    17ea:	6b63      	ldr	r3, [r4, #52]	; 0x34
/home/hsk/Desktop/devel/tee-tpm-hyp/optee_os/lib/libutee/tee_api_operations.c:899
    17ec:	6be0      	ldr	r0, [r4, #60]	; 0x3c
/home/hsk/Desktop/devel/tee-tpm-hyp/optee_os/lib/libutee/tee_api_operations.c:895
    17ee:	1e5f      	subs	r7, r3, #1
    17f0:	425b      	negs	r3, r3
    17f2:	eba7 070a 	sub.w	r7, r7, sl
/home/hsk/Desktop/devel/tee-tpm-hyp/optee_os/lib/libutee/tee_api_operations.c:898
    17f6:	f8cd b010 	str.w	fp, [sp, #16]
/home/hsk/Desktop/devel/tee-tpm-hyp/optee_os/lib/libutee/tee_api_operations.c:895
    17fa:	440f      	add	r7, r1
/home/hsk/Desktop/devel/tee-tpm-hyp/optee_os/lib/libutee/tee_api_operations.c:899
    17fc:	6ae1      	ldr	r1, [r4, #44]	; 0x2c
/home/hsk/Desktop/devel/tee-tpm-hyp/optee_os/lib/libutee/tee_api_operations.c:895
    17fe:	401f      	ands	r7, r3
/home/hsk/Desktop/devel/tee-tpm-hyp/optee_os/lib/libutee/tee_api_operations.c:898
    1800:	2300      	movs	r3, #0
/home/hsk/Desktop/devel/tee-tpm-hyp/optee_os/lib/libutee/tee_api_operations.c:897
    1802:	42b7      	cmp	r7, r6
/home/hsk/Desktop/devel/tee-tpm-hyp/optee_os/lib/libutee/tee_api_operations.c:898
    1804:	9305      	str	r3, [sp, #20]
/home/hsk/Desktop/devel/tee-tpm-hyp/optee_os/lib/libutee/tee_api_operations.c:897
    1806:	bf28      	it	cs
    1808:	4637      	movcs	r7, r6
/home/hsk/Desktop/devel/tee-tpm-hyp/optee_os/lib/libutee/tee_api_operations.c:899
    180a:	ab04      	add	r3, sp, #16
    180c:	463a      	mov	r2, r7
    180e:	9300      	str	r3, [sp, #0]
    1810:	9e03      	ldr	r6, [sp, #12]
    1812:	9b10      	ldr	r3, [sp, #64]	; 0x40
    1814:	47b0      	blx	r6
/home/hsk/Desktop/devel/tee-tpm-hyp/optee_os/lib/libutee/tee_api_operations.c:900
    1816:	b108      	cbz	r0, 181c <tee_buffer_update+0xb8>
/home/hsk/Desktop/devel/tee-tpm-hyp/optee_os/lib/libutee/tee_api_operations.c:901
    1818:	f006 f94c 	bl	7ab4 <TEE_Panic>
/home/hsk/Desktop/devel/tee-tpm-hyp/optee_os/lib/libutee/tee_api_operations.c:905
    181c:	6ba3      	ldr	r3, [r4, #56]	; 0x38
/home/hsk/Desktop/devel/tee-tpm-hyp/optee_os/lib/libutee/tee_api_operations.c:902
    181e:	9e04      	ldr	r6, [sp, #16]
/home/hsk/Desktop/devel/tee-tpm-hyp/optee_os/lib/libutee/tee_api_operations.c:905
    1820:	1bdb      	subs	r3, r3, r7
    1822:	63a3      	str	r3, [r4, #56]	; 0x38
/home/hsk/Desktop/devel/tee-tpm-hyp/optee_os/lib/libutee/tee_api_operations.c:906
    1824:	bb63      	cbnz	r3, 1880 <tee_buffer_update+0x11c>
/home/hsk/Desktop/devel/tee-tpm-hyp/optee_os/lib/libutee/tee_api_operations.c:902
    1826:	9b10      	ldr	r3, [sp, #64]	; 0x40
/home/hsk/Desktop/devel/tee-tpm-hyp/optee_os/lib/libutee/tee_api_operations.c:903
    1828:	ebab 0206 	sub.w	r2, fp, r6
/home/hsk/Desktop/devel/tee-tpm-hyp/optee_os/lib/libutee/tee_api_operations.c:902
    182c:	4433      	add	r3, r6
    182e:	9310      	str	r3, [sp, #64]	; 0x40
/home/hsk/Desktop/devel/tee-tpm-hyp/optee_os/lib/libutee/tee_api_operations.c:917
    1830:	454d      	cmp	r5, r9
    1832:	d32b      	bcc.n	188c <tee_buffer_update+0x128>
    1834:	6b63      	ldr	r3, [r4, #52]	; 0x34
/home/hsk/Desktop/devel/tee-tpm-hyp/optee_os/lib/libutee/tee_api_operations.c:919
    1836:	6821      	ldr	r1, [r4, #0]
    1838:	4f1e      	ldr	r7, [pc, #120]	; (18b4 <tee_buffer_update+0x150>)
    183a:	4258      	negs	r0, r3
    183c:	42b9      	cmp	r1, r7
    183e:	d132      	bne.n	18a6 <tee_buffer_update+0x142>
/home/hsk/Desktop/devel/tee-tpm-hyp/optee_os/lib/libutee/tee_api_operations.c:920
    1840:	3b01      	subs	r3, #1
    1842:	eba3 0a0a 	sub.w	sl, r3, sl
    1846:	eb0a 0105 	add.w	r1, sl, r5
    184a:	ea01 0a00 	and.w	sl, r1, r0
/home/hsk/Desktop/devel/tee-tpm-hyp/optee_os/lib/libutee/tee_api_operations.c:924
    184e:	2300      	movs	r3, #0
    1850:	9204      	str	r2, [sp, #16]
    1852:	9305      	str	r3, [sp, #20]
/home/hsk/Desktop/devel/tee-tpm-hyp/optee_os/lib/libutee/tee_api_operations.c:925
    1854:	4652      	mov	r2, sl
    1856:	ab04      	add	r3, sp, #16
    1858:	4641      	mov	r1, r8
    185a:	9300      	str	r3, [sp, #0]
    185c:	6be0      	ldr	r0, [r4, #60]	; 0x3c
    185e:	9b10      	ldr	r3, [sp, #64]	; 0x40
    1860:	9f03      	ldr	r7, [sp, #12]
    1862:	47b8      	blx	r7
/home/hsk/Desktop/devel/tee-tpm-hyp/optee_os/lib/libutee/tee_api_operations.c:926
    1864:	b108      	cbz	r0, 186a <tee_buffer_update+0x106>
/home/hsk/Desktop/devel/tee-tpm-hyp/optee_os/lib/libutee/tee_api_operations.c:927
    1866:	f006 f925 	bl	7ab4 <TEE_Panic>
/home/hsk/Desktop/devel/tee-tpm-hyp/optee_os/lib/libutee/tee_api_operations.c:932
    186a:	9b04      	ldr	r3, [sp, #16]
/home/hsk/Desktop/devel/tee-tpm-hyp/optee_os/lib/libutee/tee_api_operations.c:928
    186c:	44d0      	add	r8, sl
/home/hsk/Desktop/devel/tee-tpm-hyp/optee_os/lib/libutee/tee_api_operations.c:929
    186e:	eba5 050a 	sub.w	r5, r5, sl
/home/hsk/Desktop/devel/tee-tpm-hyp/optee_os/lib/libutee/tee_api_operations.c:932
    1872:	441e      	add	r6, r3
    1874:	e00a      	b.n	188c <tee_buffer_update+0x128>
    1876:	46b2      	mov	sl, r6
    1878:	e793      	b.n	17a2 <tee_buffer_update+0x3e>
/home/hsk/Desktop/devel/tee-tpm-hyp/optee_os/lib/libutee/tee_api_operations.c:883
    187a:	ebaa 0600 	sub.w	r6, sl, r0
    187e:	e798      	b.n	17b2 <tee_buffer_update+0x4e>
/home/hsk/Desktop/devel/tee-tpm-hyp/optee_os/lib/libutee/tee_api_operations.c:910
    1880:	6ae0      	ldr	r0, [r4, #44]	; 0x2c
    1882:	ebaa 0207 	sub.w	r2, sl, r7
    1886:	19c1      	adds	r1, r0, r7
    1888:	f006 f93b 	bl	7b02 <memcpy>
/home/hsk/Desktop/devel/tee-tpm-hyp/optee_os/lib/libutee/tee_api_operations.c:936
    188c:	6ba3      	ldr	r3, [r4, #56]	; 0x38
    188e:	462a      	mov	r2, r5
    1890:	6ae0      	ldr	r0, [r4, #44]	; 0x2c
    1892:	4641      	mov	r1, r8
    1894:	4418      	add	r0, r3
    1896:	f006 f934 	bl	7b02 <memcpy>
/home/hsk/Desktop/devel/tee-tpm-hyp/optee_os/lib/libutee/tee_api_operations.c:937
    189a:	6ba3      	ldr	r3, [r4, #56]	; 0x38
    189c:	441d      	add	r5, r3
    189e:	63a5      	str	r5, [r4, #56]	; 0x38
    18a0:	e76a      	b.n	1778 <tee_buffer_update+0x14>
/home/hsk/Desktop/devel/tee-tpm-hyp/optee_os/lib/libutee/tee_api_operations.c:858
    18a2:	2600      	movs	r6, #0
    18a4:	e7c4      	b.n	1830 <tee_buffer_update+0xcc>
/home/hsk/Desktop/devel/tee-tpm-hyp/optee_os/lib/libutee/tee_api_operations.c:922
    18a6:	eba3 0a0a 	sub.w	sl, r3, sl
    18aa:	44aa      	add	sl, r5
    18ac:	ea0a 0a00 	and.w	sl, sl, r0
    18b0:	e7cd      	b.n	184e <tee_buffer_update+0xea>
    18b2:	bf00      	nop
    18b4:	10000310 	.word	0x10000310

000018b8 <TEE_FreeOperation>:
TEE_FreeOperation():
/home/hsk/Desktop/devel/tee-tpm-hyp/optee_os/lib/libutee/tee_api_operations.c:351
    18b8:	b510      	push	{r4, lr}
/home/hsk/Desktop/devel/tee-tpm-hyp/optee_os/lib/libutee/tee_api_operations.c:354
    18ba:	4604      	mov	r4, r0
    18bc:	b908      	cbnz	r0, 18c2 <TEE_FreeOperation+0xa>
/home/hsk/Desktop/devel/tee-tpm-hyp/optee_os/lib/libutee/tee_api_operations.c:355
    18be:	f006 f8f9 	bl	7ab4 <TEE_Panic>
/home/hsk/Desktop/devel/tee-tpm-hyp/optee_os/lib/libutee/tee_api_operations.c:362
    18c2:	6be0      	ldr	r0, [r4, #60]	; 0x3c
    18c4:	f001 ebea 	blx	309c <utee_cryp_state_free>
/home/hsk/Desktop/devel/tee-tpm-hyp/optee_os/lib/libutee/tee_api_operations.c:363
    18c8:	b108      	cbz	r0, 18ce <TEE_FreeOperation+0x16>
/home/hsk/Desktop/devel/tee-tpm-hyp/optee_os/lib/libutee/tee_api_operations.c:364
    18ca:	f006 f8f3 	bl	7ab4 <TEE_Panic>
/home/hsk/Desktop/devel/tee-tpm-hyp/optee_os/lib/libutee/tee_api_operations.c:366
    18ce:	6ae0      	ldr	r0, [r4, #44]	; 0x2c
    18d0:	f7ff fb64 	bl	f9c <TEE_Free>
/home/hsk/Desktop/devel/tee-tpm-hyp/optee_os/lib/libutee/tee_api_operations.c:367
    18d4:	4620      	mov	r0, r4
/home/hsk/Desktop/devel/tee-tpm-hyp/optee_os/lib/libutee/tee_api_operations.c:368
    18d6:	e8bd 4010 	ldmia.w	sp!, {r4, lr}
/home/hsk/Desktop/devel/tee-tpm-hyp/optee_os/lib/libutee/tee_api_operations.c:367
    18da:	f7ff bb5f 	b.w	f9c <TEE_Free>

000018de <TEE_AllocateOperation>:
TEE_AllocateOperation():
/home/hsk/Desktop/devel/tee-tpm-hyp/optee_os/lib/libutee/tee_api_operations.c:37
    18de:	e92d 4ff0 	stmdb	sp!, {r4, r5, r6, r7, r8, r9, sl, fp, lr}
    18e2:	460c      	mov	r4, r1
    18e4:	4617      	mov	r7, r2
    18e6:	b087      	sub	sp, #28
    18e8:	4699      	mov	r9, r3
/home/hsk/Desktop/devel/tee-tpm-hyp/optee_os/lib/libutee/tee_api_operations.c:46
    18ea:	9003      	str	r0, [sp, #12]
    18ec:	b908      	cbnz	r0, 18f2 <TEE_AllocateOperation+0x14>
/home/hsk/Desktop/devel/tee-tpm-hyp/optee_os/lib/libutee/tee_api_operations.c:47
    18ee:	f006 f8e1 	bl	7ab4 <TEE_Panic>
/home/hsk/Desktop/devel/tee-tpm-hyp/optee_os/lib/libutee/tee_api_operations.c:49
    18f2:	4bb6      	ldr	r3, [pc, #728]	; (1bcc <TEE_AllocateOperation+0x2ee>)
    18f4:	429c      	cmp	r4, r3
    18f6:	f000 81c0 	beq.w	1c7a <TEE_AllocateOperation+0x39c>
/home/hsk/Desktop/devel/tee-tpm-hyp/optee_os/lib/libutee/tee_api_operations.c:53
    18fa:	4bb5      	ldr	r3, [pc, #724]	; (1bd0 <TEE_AllocateOperation+0x2f2>)
    18fc:	429c      	cmp	r4, r3
    18fe:	d068      	beq.n	19d2 <TEE_AllocateOperation+0xf4>
    1900:	d840      	bhi.n	1984 <TEE_AllocateOperation+0xa6>
    1902:	4ab4      	ldr	r2, [pc, #720]	; (1bd4 <TEE_AllocateOperation+0x2f6>)
    1904:	4294      	cmp	r4, r2
    1906:	d055      	beq.n	19b4 <TEE_AllocateOperation+0xd6>
    1908:	d82e      	bhi.n	1968 <TEE_AllocateOperation+0x8a>
    190a:	f5a2 5287 	sub.w	r2, r2, #4320	; 0x10e0
    190e:	3a10      	subs	r2, #16
    1910:	4294      	cmp	r4, r2
    1912:	d041      	beq.n	1998 <TEE_AllocateOperation+0xba>
    1914:	f502 5280 	add.w	r2, r2, #4096	; 0x1000
    1918:	4294      	cmp	r4, r2
    191a:	d05f      	beq.n	19dc <TEE_AllocateOperation+0xfe>
/home/hsk/Desktop/devel/tee-tpm-hyp/optee_os/lib/libutee/tee_api_operations.c:108
    191c:	4aae      	ldr	r2, [pc, #696]	; (1bd8 <TEE_AllocateOperation+0x2fa>)
    191e:	4294      	cmp	r4, r2
    1920:	f000 80e6 	beq.w	1af0 <TEE_AllocateOperation+0x212>
    1924:	f200 80cf 	bhi.w	1ac6 <TEE_AllocateOperation+0x1e8>
    1928:	4bac      	ldr	r3, [pc, #688]	; (1bdc <TEE_AllocateOperation+0x2fe>)
    192a:	429c      	cmp	r4, r3
    192c:	d076      	beq.n	1a1c <TEE_AllocateOperation+0x13e>
    192e:	f200 8087 	bhi.w	1a40 <TEE_AllocateOperation+0x162>
    1932:	4bab      	ldr	r3, [pc, #684]	; (1be0 <TEE_AllocateOperation+0x302>)
    1934:	429c      	cmp	r4, r3
    1936:	f000 818e 	beq.w	1c56 <TEE_AllocateOperation+0x378>
    193a:	d864      	bhi.n	1a06 <TEE_AllocateOperation+0x128>
    193c:	f46f 71ff 	mvn.w	r1, #510	; 0x1fe
    1940:	440b      	add	r3, r1
    1942:	429c      	cmp	r4, r3
    1944:	d854      	bhi.n	19f0 <TEE_AllocateOperation+0x112>
    1946:	3b01      	subs	r3, #1
    1948:	429c      	cmp	r4, r3
    194a:	d209      	bcs.n	1960 <TEE_AllocateOperation+0x82>
    194c:	f5a3 7380 	sub.w	r3, r3, #256	; 0x100
    1950:	429c      	cmp	r4, r3
    1952:	d338      	bcc.n	19c6 <TEE_AllocateOperation+0xe8>
    1954:	3301      	adds	r3, #1
    1956:	429c      	cmp	r4, r3
    1958:	d902      	bls.n	1960 <TEE_AllocateOperation+0x82>
    195a:	3302      	adds	r3, #2
    195c:	429c      	cmp	r4, r3
    195e:	d132      	bne.n	19c6 <TEE_AllocateOperation+0xe8>
    1960:	f04f 0800 	mov.w	r8, #0
/home/hsk/Desktop/devel/tee-tpm-hyp/optee_os/lib/libutee/tee_api_operations.c:44
    1964:	4646      	mov	r6, r8
    1966:	e179      	b.n	1c5c <TEE_AllocateOperation+0x37e>
/home/hsk/Desktop/devel/tee-tpm-hyp/optee_os/lib/libutee/tee_api_operations.c:53
    1968:	4a9e      	ldr	r2, [pc, #632]	; (1be4 <TEE_AllocateOperation+0x306>)
    196a:	4294      	cmp	r4, r2
    196c:	d02d      	beq.n	19ca <TEE_AllocateOperation+0xec>
    196e:	f502 6271 	add.w	r2, r2, #3856	; 0xf10
    1972:	4294      	cmp	r4, r2
    1974:	d035      	beq.n	19e2 <TEE_AllocateOperation+0x104>
    1976:	f5a2 5280 	sub.w	r2, r2, #4096	; 0x1000
    197a:	4294      	cmp	r4, r2
    197c:	d1ce      	bne.n	191c <TEE_AllocateOperation+0x3e>
/home/hsk/Desktop/devel/tee-tpm-hyp/optee_os/lib/libutee/tee_api_operations.c:87
    197e:	f5b9 7f80 	cmp.w	r9, #256	; 0x100
    1982:	e00b      	b.n	199c <TEE_AllocateOperation+0xbe>
/home/hsk/Desktop/devel/tee-tpm-hyp/optee_os/lib/libutee/tee_api_operations.c:53
    1984:	4a98      	ldr	r2, [pc, #608]	; (1be8 <TEE_AllocateOperation+0x30a>)
    1986:	4294      	cmp	r4, r2
    1988:	d028      	beq.n	19dc <TEE_AllocateOperation+0xfe>
    198a:	d809      	bhi.n	19a0 <TEE_AllocateOperation+0xc2>
    198c:	4a97      	ldr	r2, [pc, #604]	; (1bec <TEE_AllocateOperation+0x30e>)
    198e:	4294      	cmp	r4, r2
    1990:	d02a      	beq.n	19e8 <TEE_AllocateOperation+0x10a>
    1992:	4a97      	ldr	r2, [pc, #604]	; (1bf0 <TEE_AllocateOperation+0x312>)
    1994:	4294      	cmp	r4, r2
    1996:	d1c1      	bne.n	191c <TEE_AllocateOperation+0x3e>
/home/hsk/Desktop/devel/tee-tpm-hyp/optee_os/lib/libutee/tee_api_operations.c:75
    1998:	f1b9 0fc0 	cmp.w	r9, #192	; 0xc0
/home/hsk/Desktop/devel/tee-tpm-hyp/optee_os/lib/libutee/tee_api_operations.c:99
    199c:	d0be      	beq.n	191c <TEE_AllocateOperation+0x3e>
    199e:	e012      	b.n	19c6 <TEE_AllocateOperation+0xe8>
/home/hsk/Desktop/devel/tee-tpm-hyp/optee_os/lib/libutee/tee_api_operations.c:53
    19a0:	4a94      	ldr	r2, [pc, #592]	; (1bf4 <TEE_AllocateOperation+0x316>)
    19a2:	4294      	cmp	r4, r2
    19a4:	d01d      	beq.n	19e2 <TEE_AllocateOperation+0x104>
    19a6:	f502 5280 	add.w	r2, r2, #4096	; 0x1000
    19aa:	4294      	cmp	r4, r2
    19ac:	d01c      	beq.n	19e8 <TEE_AllocateOperation+0x10a>
    19ae:	f5a2 5200 	sub.w	r2, r2, #8192	; 0x2000
    19b2:	e7e2      	b.n	197a <TEE_AllocateOperation+0x9c>
/home/hsk/Desktop/devel/tee-tpm-hyp/optee_os/lib/libutee/tee_api_operations.c:55
    19b4:	f5a9 7300 	sub.w	r3, r9, #512	; 0x200
    19b8:	f5b3 7f00 	cmp.w	r3, #512	; 0x200
    19bc:	d803      	bhi.n	19c6 <TEE_AllocateOperation+0xe8>
/home/hsk/Desktop/devel/tee-tpm-hyp/optee_os/lib/libutee/tee_api_operations.c:59
    19be:	f019 0f3f 	tst.w	r9, #63	; 0x3f
    19c2:	f000 8095 	beq.w	1af0 <TEE_AllocateOperation+0x212>
/home/hsk/Desktop/devel/tee-tpm-hyp/optee_os/lib/libutee/tee_api_operations.c:56
    19c6:	4e8c      	ldr	r6, [pc, #560]	; (1bf8 <TEE_AllocateOperation+0x31a>)
    19c8:	e1ad      	b.n	1d26 <TEE_AllocateOperation+0x448>
/home/hsk/Desktop/devel/tee-tpm-hyp/optee_os/lib/libutee/tee_api_operations.c:64
    19ca:	f5b9 6f00 	cmp.w	r9, #2048	; 0x800
/home/hsk/Desktop/devel/tee-tpm-hyp/optee_os/lib/libutee/tee_api_operations.c:108
    19ce:	d1fa      	bne.n	19c6 <TEE_AllocateOperation+0xe8>
    19d0:	e08e      	b.n	1af0 <TEE_AllocateOperation+0x212>
/home/hsk/Desktop/devel/tee-tpm-hyp/optee_os/lib/libutee/tee_api_operations.c:69
    19d2:	f429 6380 	bic.w	r3, r9, #1024	; 0x400
    19d6:	f5b3 6f00 	cmp.w	r3, #2048	; 0x800
    19da:	e7f8      	b.n	19ce <TEE_AllocateOperation+0xf0>
/home/hsk/Desktop/devel/tee-tpm-hyp/optee_os/lib/libutee/tee_api_operations.c:81
    19dc:	f1b9 0fe0 	cmp.w	r9, #224	; 0xe0
    19e0:	e7dc      	b.n	199c <TEE_AllocateOperation+0xbe>
/home/hsk/Desktop/devel/tee-tpm-hyp/optee_os/lib/libutee/tee_api_operations.c:93
    19e2:	f5b9 7fc0 	cmp.w	r9, #384	; 0x180
    19e6:	e7d9      	b.n	199c <TEE_AllocateOperation+0xbe>
/home/hsk/Desktop/devel/tee-tpm-hyp/optee_os/lib/libutee/tee_api_operations.c:99
    19e8:	f240 2209 	movw	r2, #521	; 0x209
    19ec:	4591      	cmp	r9, r2
    19ee:	e7d5      	b.n	199c <TEE_AllocateOperation+0xbe>
/home/hsk/Desktop/devel/tee-tpm-hyp/optee_os/lib/libutee/tee_api_operations.c:108
    19f0:	4b82      	ldr	r3, [pc, #520]	; (1bfc <TEE_AllocateOperation+0x31e>)
    19f2:	429c      	cmp	r4, r3
    19f4:	d0b4      	beq.n	1960 <TEE_AllocateOperation+0x82>
    19f6:	33fd      	adds	r3, #253	; 0xfd
    19f8:	429c      	cmp	r4, r3
    19fa:	d1e4      	bne.n	19c6 <TEE_AllocateOperation+0xe8>
    19fc:	f04f 0800 	mov.w	r8, #0
/home/hsk/Desktop/devel/tee-tpm-hyp/optee_os/lib/libutee/tee_api_operations.c:41
    1a00:	2301      	movs	r3, #1
/home/hsk/Desktop/devel/tee-tpm-hyp/optee_os/lib/libutee/tee_api_operations.c:44
    1a02:	4646      	mov	r6, r8
    1a04:	e130      	b.n	1c68 <TEE_AllocateOperation+0x38a>
/home/hsk/Desktop/devel/tee-tpm-hyp/optee_os/lib/libutee/tee_api_operations.c:108
    1a06:	4b7e      	ldr	r3, [pc, #504]	; (1c00 <TEE_AllocateOperation+0x322>)
    1a08:	429c      	cmp	r4, r3
    1a0a:	d80f      	bhi.n	1a2c <TEE_AllocateOperation+0x14e>
    1a0c:	3b01      	subs	r3, #1
    1a0e:	429c      	cmp	r4, r3
    1a10:	d204      	bcs.n	1a1c <TEE_AllocateOperation+0x13e>
    1a12:	f104 4350 	add.w	r3, r4, #3489660928	; 0xd0000000
    1a16:	3b01      	subs	r3, #1
    1a18:	2b05      	cmp	r3, #5
    1a1a:	d8d4      	bhi.n	19c6 <TEE_AllocateOperation+0xe8>
/home/hsk/Desktop/devel/tee-tpm-hyp/optee_os/lib/libutee/tee_api_operations.c:244
    1a1c:	2f04      	cmp	r7, #4
    1a1e:	d1d2      	bne.n	19c6 <TEE_AllocateOperation+0xe8>
/home/hsk/Desktop/devel/tee-tpm-hyp/optee_os/lib/libutee/tee_api_operations.c:44
    1a20:	2600      	movs	r6, #0
/home/hsk/Desktop/devel/tee-tpm-hyp/optee_os/lib/libutee/tee_api_operations.c:246
    1a22:	2208      	movs	r2, #8
/home/hsk/Desktop/devel/tee-tpm-hyp/optee_os/lib/libutee/tee_api_operations.c:43
    1a24:	46b2      	mov	sl, r6
/home/hsk/Desktop/devel/tee-tpm-hyp/optee_os/lib/libutee/tee_api_operations.c:41
    1a26:	2301      	movs	r3, #1
    1a28:	46b0      	mov	r8, r6
    1a2a:	e13c      	b.n	1ca6 <TEE_AllocateOperation+0x3c8>
/home/hsk/Desktop/devel/tee-tpm-hyp/optee_os/lib/libutee/tee_api_operations.c:108
    1a2c:	4b75      	ldr	r3, [pc, #468]	; (1c04 <TEE_AllocateOperation+0x326>)
    1a2e:	429c      	cmp	r4, r3
    1a30:	d0f4      	beq.n	1a1c <TEE_AllocateOperation+0x13e>
    1a32:	d3c8      	bcc.n	19c6 <TEE_AllocateOperation+0xe8>
    1a34:	f104 4350 	add.w	r3, r4, #3489660928	; 0xd0000000
    1a38:	f5a3 63a2 	sub.w	r3, r3, #1296	; 0x510
    1a3c:	2b01      	cmp	r3, #1
    1a3e:	e7ec      	b.n	1a1a <TEE_AllocateOperation+0x13c>
    1a40:	4b71      	ldr	r3, [pc, #452]	; (1c08 <TEE_AllocateOperation+0x32a>)
    1a42:	429c      	cmp	r4, r3
    1a44:	d01a      	beq.n	1a7c <TEE_AllocateOperation+0x19e>
    1a46:	d822      	bhi.n	1a8e <TEE_AllocateOperation+0x1b0>
    1a48:	4b70      	ldr	r3, [pc, #448]	; (1c0c <TEE_AllocateOperation+0x32e>)
    1a4a:	429c      	cmp	r4, r3
    1a4c:	d80e      	bhi.n	1a6c <TEE_AllocateOperation+0x18e>
    1a4e:	f1b4 4fa0 	cmp.w	r4, #1342177280	; 0x50000000
    1a52:	f200 811f 	bhi.w	1c94 <TEE_AllocateOperation+0x3b6>
    1a56:	4b6e      	ldr	r3, [pc, #440]	; (1c10 <TEE_AllocateOperation+0x332>)
    1a58:	429c      	cmp	r4, r3
    1a5a:	d081      	beq.n	1960 <TEE_AllocateOperation+0x82>
    1a5c:	f503 7380 	add.w	r3, r3, #256	; 0x100
    1a60:	429c      	cmp	r4, r3
    1a62:	d0cb      	beq.n	19fc <TEE_AllocateOperation+0x11e>
    1a64:	4b6b      	ldr	r3, [pc, #428]	; (1c14 <TEE_AllocateOperation+0x336>)
    1a66:	429c      	cmp	r4, r3
    1a68:	d1ad      	bne.n	19c6 <TEE_AllocateOperation+0xe8>
    1a6a:	e7d7      	b.n	1a1c <TEE_AllocateOperation+0x13e>
    1a6c:	4b6a      	ldr	r3, [pc, #424]	; (1c18 <TEE_AllocateOperation+0x33a>)
    1a6e:	429c      	cmp	r4, r3
    1a70:	f000 8106 	beq.w	1c80 <TEE_AllocateOperation+0x3a2>
    1a74:	f503 7380 	add.w	r3, r3, #256	; 0x100
    1a78:	429c      	cmp	r4, r3
    1a7a:	d1a4      	bne.n	19c6 <TEE_AllocateOperation+0xe8>
/home/hsk/Desktop/devel/tee-tpm-hyp/optee_os/lib/libutee/tee_api_operations.c:173
    1a7c:	2f00      	cmp	r7, #0
    1a7e:	f000 815e 	beq.w	1d3e <TEE_AllocateOperation+0x460>
/home/hsk/Desktop/devel/tee-tpm-hyp/optee_os/lib/libutee/tee_api_operations.c:175
    1a82:	2f01      	cmp	r7, #1
    1a84:	d19f      	bne.n	19c6 <TEE_AllocateOperation+0xe8>
/home/hsk/Desktop/devel/tee-tpm-hyp/optee_os/lib/libutee/tee_api_operations.c:44
    1a86:	2600      	movs	r6, #0
/home/hsk/Desktop/devel/tee-tpm-hyp/optee_os/lib/libutee/tee_api_operations.c:176
    1a88:	46ba      	mov	sl, r7
/home/hsk/Desktop/devel/tee-tpm-hyp/optee_os/lib/libutee/tee_api_operations.c:177
    1a8a:	2204      	movs	r2, #4
    1a8c:	e7cb      	b.n	1a26 <TEE_AllocateOperation+0x148>
/home/hsk/Desktop/devel/tee-tpm-hyp/optee_os/lib/libutee/tee_api_operations.c:108
    1a8e:	4b63      	ldr	r3, [pc, #396]	; (1c1c <TEE_AllocateOperation+0x33e>)
    1a90:	429c      	cmp	r4, r3
    1a92:	d0f3      	beq.n	1a7c <TEE_AllocateOperation+0x19e>
    1a94:	d80a      	bhi.n	1aac <TEE_AllocateOperation+0x1ce>
    1a96:	f5a3 1300 	sub.w	r3, r3, #2097152	; 0x200000
    1a9a:	429c      	cmp	r4, r3
    1a9c:	d0ee      	beq.n	1a7c <TEE_AllocateOperation+0x19e>
    1a9e:	f503 1380 	add.w	r3, r3, #1048576	; 0x100000
    1aa2:	429c      	cmp	r4, r3
    1aa4:	d0ea      	beq.n	1a7c <TEE_AllocateOperation+0x19e>
    1aa6:	f5a3 1300 	sub.w	r3, r3, #2097152	; 0x200000
    1aaa:	e7e5      	b.n	1a78 <TEE_AllocateOperation+0x19a>
    1aac:	4b5c      	ldr	r3, [pc, #368]	; (1c20 <TEE_AllocateOperation+0x342>)
    1aae:	429c      	cmp	r4, r3
    1ab0:	d01e      	beq.n	1af0 <TEE_AllocateOperation+0x212>
    1ab2:	d802      	bhi.n	1aba <TEE_AllocateOperation+0x1dc>
    1ab4:	f2a3 73ef 	subw	r3, r3, #2031	; 0x7ef
    1ab8:	e003      	b.n	1ac2 <TEE_AllocateOperation+0x1e4>
    1aba:	4b5a      	ldr	r3, [pc, #360]	; (1c24 <TEE_AllocateOperation+0x346>)
    1abc:	429c      	cmp	r4, r3
    1abe:	d017      	beq.n	1af0 <TEE_AllocateOperation+0x212>
    1ac0:	33f0      	adds	r3, #240	; 0xf0
    1ac2:	429c      	cmp	r4, r3
    1ac4:	e783      	b.n	19ce <TEE_AllocateOperation+0xf0>
    1ac6:	4a4a      	ldr	r2, [pc, #296]	; (1bf0 <TEE_AllocateOperation+0x312>)
    1ac8:	4294      	cmp	r4, r2
    1aca:	d065      	beq.n	1b98 <TEE_AllocateOperation+0x2ba>
    1acc:	d844      	bhi.n	1b58 <TEE_AllocateOperation+0x27a>
    1ace:	4a56      	ldr	r2, [pc, #344]	; (1c28 <TEE_AllocateOperation+0x34a>)
    1ad0:	4294      	cmp	r4, r2
    1ad2:	d00d      	beq.n	1af0 <TEE_AllocateOperation+0x212>
    1ad4:	d81e      	bhi.n	1b14 <TEE_AllocateOperation+0x236>
    1ad6:	f5a2 52bf 	sub.w	r2, r2, #6112	; 0x17e0
    1ada:	3a0f      	subs	r2, #15
    1adc:	4294      	cmp	r4, r2
    1ade:	d007      	beq.n	1af0 <TEE_AllocateOperation+0x212>
    1ae0:	d810      	bhi.n	1b04 <TEE_AllocateOperation+0x226>
    1ae2:	4b40      	ldr	r3, [pc, #256]	; (1be4 <TEE_AllocateOperation+0x306>)
    1ae4:	429c      	cmp	r4, r3
    1ae6:	d003      	beq.n	1af0 <TEE_AllocateOperation+0x212>
    1ae8:	f203 63ff 	addw	r3, r3, #1791	; 0x6ff
    1aec:	429c      	cmp	r4, r3
    1aee:	d1e1      	bne.n	1ab4 <TEE_AllocateOperation+0x1d6>
/home/hsk/Desktop/devel/tee-tpm-hyp/optee_os/lib/libutee/tee_api_operations.c:157
    1af0:	2f02      	cmp	r7, #2
    1af2:	f000 811f 	beq.w	1d34 <TEE_AllocateOperation+0x456>
/home/hsk/Desktop/devel/tee-tpm-hyp/optee_os/lib/libutee/tee_api_operations.c:160
    1af6:	2f03      	cmp	r7, #3
    1af8:	f47f af65 	bne.w	19c6 <TEE_AllocateOperation+0xe8>
/home/hsk/Desktop/devel/tee-tpm-hyp/optee_os/lib/libutee/tee_api_operations.c:44
    1afc:	2600      	movs	r6, #0
/home/hsk/Desktop/devel/tee-tpm-hyp/optee_os/lib/libutee/tee_api_operations.c:161
    1afe:	2220      	movs	r2, #32
/home/hsk/Desktop/devel/tee-tpm-hyp/optee_os/lib/libutee/tee_api_operations.c:43
    1b00:	46b2      	mov	sl, r6
    1b02:	e790      	b.n	1a26 <TEE_AllocateOperation+0x148>
/home/hsk/Desktop/devel/tee-tpm-hyp/optee_os/lib/libutee/tee_api_operations.c:108
    1b04:	4a49      	ldr	r2, [pc, #292]	; (1c2c <TEE_AllocateOperation+0x34e>)
    1b06:	4294      	cmp	r4, r2
    1b08:	d0f2      	beq.n	1af0 <TEE_AllocateOperation+0x212>
    1b0a:	f602 0211 	addw	r2, r2, #2065	; 0x811
    1b0e:	4294      	cmp	r4, r2
    1b10:	d1d7      	bne.n	1ac2 <TEE_AllocateOperation+0x1e4>
    1b12:	e7ed      	b.n	1af0 <TEE_AllocateOperation+0x212>
    1b14:	4b46      	ldr	r3, [pc, #280]	; (1c30 <TEE_AllocateOperation+0x352>)
    1b16:	429c      	cmp	r4, r3
    1b18:	d0ea      	beq.n	1af0 <TEE_AllocateOperation+0x212>
    1b1a:	d810      	bhi.n	1b3e <TEE_AllocateOperation+0x260>
    1b1c:	f5a3 1300 	sub.w	r3, r3, #2097152	; 0x200000
    1b20:	f5a3 5300 	sub.w	r3, r3, #8192	; 0x2000
    1b24:	429c      	cmp	r4, r3
    1b26:	d0e3      	beq.n	1af0 <TEE_AllocateOperation+0x212>
    1b28:	f503 1380 	add.w	r3, r3, #1048576	; 0x100000
    1b2c:	f503 5380 	add.w	r3, r3, #4096	; 0x1000
    1b30:	429c      	cmp	r4, r3
    1b32:	d0dd      	beq.n	1af0 <TEE_AllocateOperation+0x212>
    1b34:	f5a3 1343 	sub.w	r3, r3, #3194880	; 0x30c000
    1b38:	f5a3 5388 	sub.w	r3, r3, #4352	; 0x1100
    1b3c:	e7c1      	b.n	1ac2 <TEE_AllocateOperation+0x1e4>
    1b3e:	4b3d      	ldr	r3, [pc, #244]	; (1c34 <TEE_AllocateOperation+0x356>)
    1b40:	429c      	cmp	r4, r3
    1b42:	d0d5      	beq.n	1af0 <TEE_AllocateOperation+0x212>
    1b44:	4b3c      	ldr	r3, [pc, #240]	; (1c38 <TEE_AllocateOperation+0x35a>)
    1b46:	429c      	cmp	r4, r3
    1b48:	d026      	beq.n	1b98 <TEE_AllocateOperation+0x2ba>
    1b4a:	f1a3 637a 	sub.w	r3, r3, #262144000	; 0xfa00000
    1b4e:	f5a3 236a 	sub.w	r3, r3, #958464	; 0xea000
    1b52:	f2a3 7302 	subw	r3, r3, #1794	; 0x702
    1b56:	e7b4      	b.n	1ac2 <TEE_AllocateOperation+0x1e4>
    1b58:	4b26      	ldr	r3, [pc, #152]	; (1bf4 <TEE_AllocateOperation+0x316>)
    1b5a:	429c      	cmp	r4, r3
    1b5c:	d01c      	beq.n	1b98 <TEE_AllocateOperation+0x2ba>
    1b5e:	d824      	bhi.n	1baa <TEE_AllocateOperation+0x2cc>
    1b60:	f5a3 53fc 	sub.w	r3, r3, #8064	; 0x1f80
    1b64:	429c      	cmp	r4, r3
    1b66:	d80b      	bhi.n	1b80 <TEE_AllocateOperation+0x2a2>
    1b68:	3b02      	subs	r3, #2
    1b6a:	429c      	cmp	r4, r3
    1b6c:	d214      	bcs.n	1b98 <TEE_AllocateOperation+0x2ba>
    1b6e:	f5a3 5380 	sub.w	r3, r3, #4096	; 0x1000
    1b72:	429c      	cmp	r4, r3
    1b74:	d010      	beq.n	1b98 <TEE_AllocateOperation+0x2ba>
    1b76:	f603 7382 	addw	r3, r3, #3970	; 0xf82
    1b7a:	429c      	cmp	r4, r3
    1b7c:	d00c      	beq.n	1b98 <TEE_AllocateOperation+0x2ba>
    1b7e:	e722      	b.n	19c6 <TEE_AllocateOperation+0xe8>
    1b80:	4b2e      	ldr	r3, [pc, #184]	; (1c3c <TEE_AllocateOperation+0x35e>)
    1b82:	429c      	cmp	r4, r3
    1b84:	d008      	beq.n	1b98 <TEE_AllocateOperation+0x2ba>
    1b86:	f4ff af1e 	bcc.w	19c6 <TEE_AllocateOperation+0xe8>
    1b8a:	f104 4300 	add.w	r3, r4, #2147483648	; 0x80000000
    1b8e:	f5a3 5343 	sub.w	r3, r3, #12480	; 0x30c0
    1b92:	2b01      	cmp	r3, #1
    1b94:	f63f af17 	bhi.w	19c6 <TEE_AllocateOperation+0xe8>
/home/hsk/Desktop/devel/tee-tpm-hyp/optee_os/lib/libutee/tee_api_operations.c:212
    1b98:	2f06      	cmp	r7, #6
    1b9a:	f47f af14 	bne.w	19c6 <TEE_AllocateOperation+0xe8>
/home/hsk/Desktop/devel/tee-tpm-hyp/optee_os/lib/libutee/tee_api_operations.c:44
    1b9e:	2600      	movs	r6, #0
/home/hsk/Desktop/devel/tee-tpm-hyp/optee_os/lib/libutee/tee_api_operations.c:214
    1ba0:	f04f 0a01 	mov.w	sl, #1
/home/hsk/Desktop/devel/tee-tpm-hyp/optee_os/lib/libutee/tee_api_operations.c:215
    1ba4:	2240      	movs	r2, #64	; 0x40
/home/hsk/Desktop/devel/tee-tpm-hyp/optee_os/lib/libutee/tee_api_operations.c:41
    1ba6:	4653      	mov	r3, sl
    1ba8:	e73e      	b.n	1a28 <TEE_AllocateOperation+0x14a>
/home/hsk/Desktop/devel/tee-tpm-hyp/optee_os/lib/libutee/tee_api_operations.c:108
    1baa:	4b25      	ldr	r3, [pc, #148]	; (1c40 <TEE_AllocateOperation+0x362>)
    1bac:	429c      	cmp	r4, r3
    1bae:	d849      	bhi.n	1c44 <TEE_AllocateOperation+0x366>
    1bb0:	3b01      	subs	r3, #1
    1bb2:	429c      	cmp	r4, r3
    1bb4:	d2f0      	bcs.n	1b98 <TEE_AllocateOperation+0x2ba>
    1bb6:	f5a3 5380 	sub.w	r3, r3, #4096	; 0x1000
    1bba:	429c      	cmp	r4, r3
    1bbc:	f4ff af03 	bcc.w	19c6 <TEE_AllocateOperation+0xe8>
    1bc0:	3301      	adds	r3, #1
    1bc2:	429c      	cmp	r4, r3
    1bc4:	d9e8      	bls.n	1b98 <TEE_AllocateOperation+0x2ba>
    1bc6:	f603 7381 	addw	r3, r3, #3969	; 0xf81
    1bca:	e7d6      	b.n	1b7a <TEE_AllocateOperation+0x29c>
    1bcc:	10000410 	.word	0x10000410
    1bd0:	70004131 	.word	0x70004131
    1bd4:	70002131 	.word	0x70002131
    1bd8:	70002830 	.word	0x70002830
    1bdc:	30000513 	.word	0x30000513
    1be0:	10000310 	.word	0x10000310
    1be4:	70003131 	.word	0x70003131
    1be8:	80002042 	.word	0x80002042
    1bec:	70005041 	.word	0x70005041
    1bf0:	80001042 	.word	0x80001042
    1bf4:	80004042 	.word	0x80004042
    1bf8:	ffff000a 	.word	0xffff000a
    1bfc:	10000113 	.word	0x10000113
    1c00:	30000111 	.word	0x30000111
    1c04:	30000113 	.word	0x30000113
    1c08:	60210230 	.word	0x60210230
    1c0c:	50000006 	.word	0x50000006
    1c10:	40000710 	.word	0x40000710
    1c14:	30000610 	.word	0x30000610
    1c18:	60000030 	.word	0x60000030
    1c1c:	60610230 	.word	0x60610230
    1c20:	70001830 	.word	0x70001830
    1c24:	70002041 	.word	0x70002041
    1c28:	70005830 	.word	0x70005830
    1c2c:	70004830 	.word	0x70004830
    1c30:	70414930 	.word	0x70414930
    1c34:	70616930 	.word	0x70616930
    1c38:	80000032 	.word	0x80000032
    1c3c:	80003042 	.word	0x80003042
    1c40:	800050c1 	.word	0x800050c1
    1c44:	4b6f      	ldr	r3, [pc, #444]	; (1e04 <TEE_AllocateOperation+0x526>)
    1c46:	429c      	cmp	r4, r3
    1c48:	f4ff aebd 	bcc.w	19c6 <TEE_AllocateOperation+0xe8>
    1c4c:	3301      	adds	r3, #1
    1c4e:	429c      	cmp	r4, r3
    1c50:	d9a2      	bls.n	1b98 <TEE_AllocateOperation+0x2ba>
    1c52:	4b6d      	ldr	r3, [pc, #436]	; (1e08 <TEE_AllocateOperation+0x52a>)
    1c54:	e735      	b.n	1ac2 <TEE_AllocateOperation+0x1e4>
    1c56:	f04f 0800 	mov.w	r8, #0
/home/hsk/Desktop/devel/tee-tpm-hyp/optee_os/lib/libutee/tee_api_operations.c:111
    1c5a:	2601      	movs	r6, #1
/home/hsk/Desktop/devel/tee-tpm-hyp/optee_os/lib/libutee/tee_api_operations.c:120
    1c5c:	b2e3      	uxtb	r3, r4
/home/hsk/Desktop/devel/tee-tpm-hyp/optee_os/lib/libutee/tee_api_operations.c:123
    1c5e:	2b10      	cmp	r3, #16
    1c60:	f04f 0310 	mov.w	r3, #16
    1c64:	bf18      	it	ne
    1c66:	2308      	movne	r3, #8
/home/hsk/Desktop/devel/tee-tpm-hyp/optee_os/lib/libutee/tee_api_operations.c:127
    1c68:	2f00      	cmp	r7, #0
    1c6a:	d060      	beq.n	1d2e <TEE_AllocateOperation+0x450>
/home/hsk/Desktop/devel/tee-tpm-hyp/optee_os/lib/libutee/tee_api_operations.c:129
    1c6c:	2f01      	cmp	r7, #1
    1c6e:	f47f aeaa 	bne.w	19c6 <TEE_AllocateOperation+0xe8>
/home/hsk/Desktop/devel/tee-tpm-hyp/optee_os/lib/libutee/tee_api_operations.c:43
    1c72:	f04f 0a00 	mov.w	sl, #0
/home/hsk/Desktop/devel/tee-tpm-hyp/optee_os/lib/libutee/tee_api_operations.c:130
    1c76:	2204      	movs	r2, #4
    1c78:	e015      	b.n	1ca6 <TEE_AllocateOperation+0x3c8>
/home/hsk/Desktop/devel/tee-tpm-hyp/optee_os/lib/libutee/tee_api_operations.c:50
    1c7a:	f44f 2800 	mov.w	r8, #524288	; 0x80000
    1c7e:	e7ec      	b.n	1c5a <TEE_AllocateOperation+0x37c>
/home/hsk/Desktop/devel/tee-tpm-hyp/optee_os/lib/libutee/tee_api_operations.c:184
    1c80:	2f00      	cmp	r7, #0
    1c82:	d062      	beq.n	1d4a <TEE_AllocateOperation+0x46c>
/home/hsk/Desktop/devel/tee-tpm-hyp/optee_os/lib/libutee/tee_api_operations.c:186
    1c84:	2f01      	cmp	r7, #1
    1c86:	f47f ae9e 	bne.w	19c6 <TEE_AllocateOperation+0xe8>
/home/hsk/Desktop/devel/tee-tpm-hyp/optee_os/lib/libutee/tee_api_operations.c:44
    1c8a:	2600      	movs	r6, #0
/home/hsk/Desktop/devel/tee-tpm-hyp/optee_os/lib/libutee/tee_api_operations.c:187
    1c8c:	f04f 0a01 	mov.w	sl, #1
/home/hsk/Desktop/devel/tee-tpm-hyp/optee_os/lib/libutee/tee_api_operations.c:188
    1c90:	2214      	movs	r2, #20
    1c92:	e788      	b.n	1ba6 <TEE_AllocateOperation+0x2c8>
/home/hsk/Desktop/devel/tee-tpm-hyp/optee_os/lib/libutee/tee_api_operations.c:224
    1c94:	2f05      	cmp	r7, #5
    1c96:	f47f ae96 	bne.w	19c6 <TEE_AllocateOperation+0xe8>
/home/hsk/Desktop/devel/tee-tpm-hyp/optee_os/lib/libutee/tee_api_operations.c:44
    1c9a:	2600      	movs	r6, #0
/home/hsk/Desktop/devel/tee-tpm-hyp/optee_os/lib/libutee/tee_api_operations.c:41
    1c9c:	2301      	movs	r3, #1
/home/hsk/Desktop/devel/tee-tpm-hyp/optee_os/lib/libutee/tee_api_operations.c:43
    1c9e:	46b2      	mov	sl, r6
/home/hsk/Desktop/devel/tee-tpm-hyp/optee_os/lib/libutee/tee_api_operations.c:228
    1ca0:	4632      	mov	r2, r6
/home/hsk/Desktop/devel/tee-tpm-hyp/optee_os/lib/libutee/tee_api_operations.c:227
    1ca2:	f44f 2880 	mov.w	r8, #262144	; 0x40000
/home/hsk/Desktop/devel/tee-tpm-hyp/optee_os/lib/libutee/tee_api_operations.c:253
    1ca6:	2100      	movs	r1, #0
    1ca8:	2044      	movs	r0, #68	; 0x44
    1caa:	9205      	str	r2, [sp, #20]
    1cac:	9304      	str	r3, [sp, #16]
    1cae:	f7ff f94e 	bl	f4e <TEE_Malloc>
/home/hsk/Desktop/devel/tee-tpm-hyp/optee_os/lib/libutee/tee_api_operations.c:254
    1cb2:	4605      	mov	r5, r0
    1cb4:	2800      	cmp	r0, #0
    1cb6:	f000 80a0 	beq.w	1dfa <TEE_AllocateOperation+0x51c>
/home/hsk/Desktop/devel/tee-tpm-hyp/optee_os/lib/libutee/tee_api_operations.c:260
    1cba:	4953      	ldr	r1, [pc, #332]	; (1e08 <TEE_AllocateOperation+0x52a>)
/home/hsk/Desktop/devel/tee-tpm-hyp/optee_os/lib/libutee/tee_api_operations.c:258
    1cbc:	ea4f 7b14 	mov.w	fp, r4, lsr #28
/home/hsk/Desktop/devel/tee-tpm-hyp/optee_os/lib/libutee/tee_api_operations.c:257
    1cc0:	6004      	str	r4, [r0, #0]
/home/hsk/Desktop/devel/tee-tpm-hyp/optee_os/lib/libutee/tee_api_operations.c:260
    1cc2:	428c      	cmp	r4, r1
    1cc4:	9b04      	ldr	r3, [sp, #16]
    1cc6:	9a05      	ldr	r2, [sp, #20]
    1cc8:	d044      	beq.n	1d54 <TEE_AllocateOperation+0x476>
/home/hsk/Desktop/devel/tee-tpm-hyp/optee_os/lib/libutee/tee_api_operations.c:258
    1cca:	f8c0 b004 	str.w	fp, [r0, #4]
/home/hsk/Desktop/devel/tee-tpm-hyp/optee_os/lib/libutee/tee_api_operations.c:263
    1cce:	60af      	str	r7, [r5, #8]
/home/hsk/Desktop/devel/tee-tpm-hyp/optee_os/lib/libutee/tee_api_operations.c:268
    1cd0:	2b01      	cmp	r3, #1
/home/hsk/Desktop/devel/tee-tpm-hyp/optee_os/lib/libutee/tee_api_operations.c:264
    1cd2:	f8c5 9010 	str.w	r9, [r5, #16]
/home/hsk/Desktop/devel/tee-tpm-hyp/optee_os/lib/libutee/tee_api_operations.c:265
    1cd6:	61aa      	str	r2, [r5, #24]
/home/hsk/Desktop/devel/tee-tpm-hyp/optee_os/lib/libutee/tee_api_operations.c:266
    1cd8:	f8c5 801c 	str.w	r8, [r5, #28]
/home/hsk/Desktop/devel/tee-tpm-hyp/optee_os/lib/libutee/tee_api_operations.c:268
    1cdc:	d13d      	bne.n	1d5a <TEE_AllocateOperation+0x47c>
/home/hsk/Desktop/devel/tee-tpm-hyp/optee_os/lib/libutee/tee_api_operations.c:281
    1cde:	636b      	str	r3, [r5, #52]	; 0x34
/home/hsk/Desktop/devel/tee-tpm-hyp/optee_os/lib/libutee/tee_api_operations.c:284
    1ce0:	f1bb 0f05 	cmp.w	fp, #5
/home/hsk/Desktop/devel/tee-tpm-hyp/optee_os/lib/libutee/tee_api_operations.c:282
    1ce4:	f885 6030 	strb.w	r6, [r5, #48]	; 0x30
/home/hsk/Desktop/devel/tee-tpm-hyp/optee_os/lib/libutee/tee_api_operations.c:284
    1ce8:	d14b      	bne.n	1d82 <TEE_AllocateOperation+0x4a4>
/home/hsk/Desktop/devel/tee-tpm-hyp/optee_os/lib/libutee/tee_api_operations.c:308
    1cea:	f105 033c 	add.w	r3, r5, #60	; 0x3c
    1cee:	9300      	str	r3, [sp, #0]
    1cf0:	4639      	mov	r1, r7
    1cf2:	4620      	mov	r0, r4
    1cf4:	6a6b      	ldr	r3, [r5, #36]	; 0x24
    1cf6:	6a2a      	ldr	r2, [r5, #32]
    1cf8:	f001 e9ba 	blx	3070 <utee_cryp_state_alloc>
/home/hsk/Desktop/devel/tee-tpm-hyp/optee_os/lib/libutee/tee_api_operations.c:310
    1cfc:	4606      	mov	r6, r0
    1cfe:	2800      	cmp	r0, #0
    1d00:	d164      	bne.n	1dcc <TEE_AllocateOperation+0x4ee>
/home/hsk/Desktop/devel/tee-tpm-hyp/optee_os/lib/libutee/tee_api_operations.c:318
    1d02:	f1bb 0f05 	cmp.w	fp, #5
    1d06:	d10a      	bne.n	1d1e <TEE_AllocateOperation+0x440>
/home/hsk/Desktop/devel/tee-tpm-hyp/optee_os/lib/libutee/tee_api_operations.c:319
    1d08:	4602      	mov	r2, r0
    1d0a:	4601      	mov	r1, r0
    1d0c:	6be8      	ldr	r0, [r5, #60]	; 0x3c
    1d0e:	f001 e9d0 	blx	30b0 <utee_hash_init>
/home/hsk/Desktop/devel/tee-tpm-hyp/optee_os/lib/libutee/tee_api_operations.c:320
    1d12:	2800      	cmp	r0, #0
    1d14:	d173      	bne.n	1dfe <TEE_AllocateOperation+0x520>
/home/hsk/Desktop/devel/tee-tpm-hyp/optee_os/lib/libutee/tee_api_operations.c:323
    1d16:	69eb      	ldr	r3, [r5, #28]
    1d18:	f443 3300 	orr.w	r3, r3, #131072	; 0x20000
    1d1c:	61eb      	str	r3, [r5, #28]
/home/hsk/Desktop/devel/tee-tpm-hyp/optee_os/lib/libutee/tee_api_operations.c:326
    1d1e:	2300      	movs	r3, #0
    1d20:	62ab      	str	r3, [r5, #40]	; 0x28
/home/hsk/Desktop/devel/tee-tpm-hyp/optee_os/lib/libutee/tee_api_operations.c:328
    1d22:	9b03      	ldr	r3, [sp, #12]
    1d24:	601d      	str	r5, [r3, #0]
/home/hsk/Desktop/devel/tee-tpm-hyp/optee_os/lib/libutee/tee_api_operations.c:348
    1d26:	4630      	mov	r0, r6
    1d28:	b007      	add	sp, #28
    1d2a:	e8bd 8ff0 	ldmia.w	sp!, {r4, r5, r6, r7, r8, r9, sl, fp, pc}
/home/hsk/Desktop/devel/tee-tpm-hyp/optee_os/lib/libutee/tee_api_operations.c:43
    1d2e:	46ba      	mov	sl, r7
/home/hsk/Desktop/devel/tee-tpm-hyp/optee_os/lib/libutee/tee_api_operations.c:128
    1d30:	2202      	movs	r2, #2
    1d32:	e7b8      	b.n	1ca6 <TEE_AllocateOperation+0x3c8>
/home/hsk/Desktop/devel/tee-tpm-hyp/optee_os/lib/libutee/tee_api_operations.c:44
    1d34:	2600      	movs	r6, #0
/home/hsk/Desktop/devel/tee-tpm-hyp/optee_os/lib/libutee/tee_api_operations.c:158
    1d36:	f04f 0a01 	mov.w	sl, #1
/home/hsk/Desktop/devel/tee-tpm-hyp/optee_os/lib/libutee/tee_api_operations.c:159
    1d3a:	2210      	movs	r2, #16
    1d3c:	e733      	b.n	1ba6 <TEE_AllocateOperation+0x2c8>
    1d3e:	46b8      	mov	r8, r7
/home/hsk/Desktop/devel/tee-tpm-hyp/optee_os/lib/libutee/tee_api_operations.c:44
    1d40:	463e      	mov	r6, r7
/home/hsk/Desktop/devel/tee-tpm-hyp/optee_os/lib/libutee/tee_api_operations.c:43
    1d42:	46ba      	mov	sl, r7
/home/hsk/Desktop/devel/tee-tpm-hyp/optee_os/lib/libutee/tee_api_operations.c:174
    1d44:	2202      	movs	r2, #2
/home/hsk/Desktop/devel/tee-tpm-hyp/optee_os/lib/libutee/tee_api_operations.c:41
    1d46:	2301      	movs	r3, #1
    1d48:	e7ad      	b.n	1ca6 <TEE_AllocateOperation+0x3c8>
    1d4a:	46b8      	mov	r8, r7
/home/hsk/Desktop/devel/tee-tpm-hyp/optee_os/lib/libutee/tee_api_operations.c:44
    1d4c:	463e      	mov	r6, r7
/home/hsk/Desktop/devel/tee-tpm-hyp/optee_os/lib/libutee/tee_api_operations.c:43
    1d4e:	46ba      	mov	sl, r7
/home/hsk/Desktop/devel/tee-tpm-hyp/optee_os/lib/libutee/tee_api_operations.c:185
    1d50:	2222      	movs	r2, #34	; 0x22
    1d52:	e7f8      	b.n	1d46 <TEE_AllocateOperation+0x468>
/home/hsk/Desktop/devel/tee-tpm-hyp/optee_os/lib/libutee/tee_api_operations.c:261
    1d54:	2107      	movs	r1, #7
    1d56:	6041      	str	r1, [r0, #4]
    1d58:	e7b9      	b.n	1cce <TEE_AllocateOperation+0x3f0>
/home/hsk/Desktop/devel/tee-tpm-hyp/optee_os/lib/libutee/tee_api_operations.c:271
    1d5a:	b186      	cbz	r6, 1d7e <TEE_AllocateOperation+0x4a0>
/home/hsk/Desktop/devel/tee-tpm-hyp/optee_os/lib/libutee/tee_api_operations.c:272
    1d5c:	0058      	lsls	r0, r3, #1
/home/hsk/Desktop/devel/tee-tpm-hyp/optee_os/lib/libutee/tee_api_operations.c:274
    1d5e:	f04f 4100 	mov.w	r1, #2147483648	; 0x80000000
    1d62:	9304      	str	r3, [sp, #16]
