
f4e750bb-1437-4fbf-8785-8d3580c34994.elf:     file format elf32-littlearm
f4e750bb-1437-4fbf-8785-8d3580c34994.elf
architecture: arm, flags 0x00000150:
HAS_SYMS, DYNAMIC, D_PAGED
start address 0x00000020

Program Header:
0x70000001 off    0x000178f0 vaddr 0x000078f0 paddr 0x000078f0 align 2**2
         filesz 0x00000560 memsz 0x00000560 flags r--
    LOAD off    0x00010000 vaddr 0x00000000 paddr 0x00000000 align 2**16
         filesz 0x00006618 memsz 0x00006618 flags r-x
    LOAD off    0x00016618 vaddr 0x00006618 paddr 0x00006618 align 2**16
         filesz 0x00001bac memsz 0x00001bac flags r--
    LOAD off    0x00019000 vaddr 0x00009000 paddr 0x00009000 align 2**16
         filesz 0x00000098 memsz 0x0000a108 flags rw-
 DYNAMIC off    0x00017f8c vaddr 0x00007f8c paddr 0x00007f8c align 2**2
         filesz 0x00000080 memsz 0x00000080 flags rw-

Dynamic Section:
  HASH                 0x0000817c
  STRTAB               0x000080dc
  SYMTAB               0x0000800c
  STRSZ                0x0000009f
  SYMENT               0x00000010
  DEBUG                0x00000000
  REL                  0x00007e84
  RELSZ                0x00000108
  RELENT               0x00000008
  FLAGS_1              0x08000000
  RELCOUNT             0x00000017
private flags = 5000400: [Version5 EABI] [hard-float ABI]

Sections:
Idx Name          Size      VMA       LMA       File off  Algn
  0 .ta_head      00000020  00000000  00000000  00010000  2**3
                  CONTENTS, ALLOC, LOAD, DATA
  1 .text         000065f8  00000020  00000020  00010020  2**3
                  CONTENTS, ALLOC, LOAD, READONLY, CODE
  2 .rodata       000011b5  00006618  00006618  00016618  2**2
                  CONTENTS, ALLOC, LOAD, READONLY, DATA
  3 .ARM.extab    000000f0  000077d0  000077d0  000177d0  2**2
                  CONTENTS, ALLOC, LOAD, READONLY, DATA
  4 .ARM.extab.text.__aeabi_ldivmod 0000000c  000078c0  000078c0  000178c0  2**2
                  CONTENTS, ALLOC, LOAD, READONLY, DATA
  5 .ARM.extab.text.__aeabi_uldivmod 0000000c  000078cc  000078cc  000178cc  2**2
                  CONTENTS, ALLOC, LOAD, READONLY, DATA
  6 .ARM.extab.text.utee_panic 0000000c  000078d8  000078d8  000178d8  2**2
                  CONTENTS, ALLOC, LOAD, READONLY, DATA
  7 .ARM.extab.text.unlikely 0000000c  000078e4  000078e4  000178e4  2**2
                  CONTENTS, ALLOC, LOAD, READONLY, DATA
  8 .ARM.exidx    00000560  000078f0  000078f0  000178f0  2**2
                  CONTENTS, ALLOC, LOAD, READONLY, DATA
  9 .got          00000034  00007e50  00007e50  00017e50  2**2
                  CONTENTS, ALLOC, LOAD, DATA
 10 .dynsym       000000d0  0000800c  0000800c  0001800c  2**2
                  CONTENTS, ALLOC, LOAD, READONLY, DATA
 11 .rel.got      00000050  00007f3c  00007f3c  00017f3c  2**2
                  CONTENTS, ALLOC, LOAD, READONLY, DATA
 12 .dynamic      00000080  00007f8c  00007f8c  00017f8c  2**2
                  CONTENTS, ALLOC, LOAD, DATA
 13 .dynstr       0000009f  000080dc  000080dc  000180dc  2**0
                  CONTENTS, ALLOC, LOAD, READONLY, DATA
 14 .hash         00000048  0000817c  0000817c  0001817c  2**2
                  CONTENTS, ALLOC, LOAD, READONLY, DATA
 15 .data         00000098  00009000  00009000  00019000  2**2
                  CONTENTS, ALLOC, LOAD, DATA
 16 .bss          0000a070  00009098  00009098  00019098  2**2
                  ALLOC
 17 .debug_info   0000f311  00000000  00000000  00019098  2**0
                  CONTENTS, READONLY, DEBUGGING
 18 .debug_abbrev 00002967  00000000  00000000  000283a9  2**0
                  CONTENTS, READONLY, DEBUGGING
 19 .debug_loc    0000e4d1  00000000  00000000  0002ad10  2**0
                  CONTENTS, READONLY, DEBUGGING
 20 .debug_aranges 00000510  00000000  00000000  000391e8  2**3
                  CONTENTS, READONLY, DEBUGGING
 21 .debug_ranges 000007c0  00000000  00000000  000396f8  2**3
                  CONTENTS, READONLY, DEBUGGING
 22 .debug_macro  0001278d  00000000  00000000  00039eb8  2**0
                  CONTENTS, READONLY, DEBUGGING
 23 .debug_line   00004a29  00000000  00000000  0004c645  2**0
                  CONTENTS, READONLY, DEBUGGING
 24 .debug_str    000116d7  00000000  00000000  0005106e  2**0
                  CONTENTS, READONLY, DEBUGGING
 25 .comment      00000074  00000000  00000000  00062745  2**0
                  CONTENTS, READONLY
 26 .ARM.attributes 00000036  00000000  00000000  000627b9  2**0
                  CONTENTS, READONLY
 27 .debug_frame  00001a5c  00000000  00000000  000627f0  2**2
                  CONTENTS, READONLY, DEBUGGING
 28 .rel.dyn      000000b8  00007e84  00007e84  00017e84  2**2
                  CONTENTS, ALLOC, LOAD, READONLY, DATA
SYMBOL TABLE:
00000000 l    d  .ta_head	00000000 .ta_head
00000020 l    d  .text	00000000 .text
00006618 l    d  .rodata	00000000 .rodata
000077d0 l    d  .ARM.extab	00000000 .ARM.extab
000078c0 l    d  .ARM.extab.text.__aeabi_ldivmod	00000000 .ARM.extab.text.__aeabi_ldivmod
000078cc l    d  .ARM.extab.text.__aeabi_uldivmod	00000000 .ARM.extab.text.__aeabi_uldivmod
000078d8 l    d  .ARM.extab.text.utee_panic	00000000 .ARM.extab.text.utee_panic
000078e4 l    d  .ARM.extab.text.unlikely	00000000 .ARM.extab.text.unlikely
000078f0 l    d  .ARM.exidx	00000000 .ARM.exidx
00007e50 l    d  .got	00000000 .got
00007f3c l    d  .rel.got	00000000 .rel.got
00007f8c l    d  .dynamic	00000000 .dynamic
0000800c l    d  .dynsym	00000000 .dynsym
000080dc l    d  .dynstr	00000000 .dynstr
0000817c l    d  .hash	00000000 .hash
00009000 l    d  .data	00000000 .data
00009098 l    d  .bss	00000000 .bss
00000000 l    d  .debug_info	00000000 .debug_info
00000000 l    d  .debug_abbrev	00000000 .debug_abbrev
00000000 l    d  .debug_loc	00000000 .debug_loc
00000000 l    d  .debug_aranges	00000000 .debug_aranges
00000000 l    d  .debug_ranges	00000000 .debug_ranges
00000000 l    d  .debug_macro	00000000 .debug_macro
00000000 l    d  .debug_line	00000000 .debug_line
00000000 l    d  .debug_str	00000000 .debug_str
00000000 l    d  .comment	00000000 .comment
00000000 l    d  .ARM.attributes	00000000 .ARM.attributes
00000000 l    d  .debug_frame	00000000 .debug_frame
00007e84 l    d  .rel.dyn	00000000 .rel.dyn
00000000 l    df *ABS*	00000000 user_ta_header.c
0000661c l     O .rodata	00000004 __compound_literal.5
00006620 l     O .rodata	00000004 __compound_literal.4
00006624 l     O .rodata	00000004 __compound_literal.3
00006628 l     O .rodata	00000001 __compound_literal.2
00006629 l     O .rodata	00000001 __compound_literal.1
0000662a l     O .rodata	00000001 __compound_literal.0
00000000 l    df *ABS*	00000000 secure_storage_ta.c
000068f8 l     O .rodata	00000012 __func__.6167
0000690a l     O .rodata	00000010 __func__.6181
0000691a l     O .rodata	0000000e __func__.6154
00006928 l     O .rodata	0000001b __func__.6207
00000000 l    df *ABS*	00000000 trace.c
0000025c l     F .text	0000004e append
00006b46 l     O .rodata	00000005 lvl_strs.5573
00006b4b l     O .rodata	0000000a __func__.5627
00000000 l    df *ABS*	00000000 snprintk.c
00006b8f l     O .rodata	00000011 HEXDIGITS
00006ba0 l     O .rodata	00000011 hexdigits
00000000 l    df *ABS*	00000000 arm32_aeabi_ldivmod_a32.o
00000000 l    df *ABS*	00000000 trace_ext.c
00000000 l    df *ABS*	00000000 tee_api.c
00006be9 l     O .rodata	0000000b __func__.6740
00009098 l     O .bss	00000004 tee_api_instance_data
00000000 l    df *ABS*	00000000 tee_api_objects.c
00006c05 l     O .rodata	00000010 __func__.6655
00000000 l    df *ABS*	00000000 user_ta_entry.c
00001790 l     F .text	0000001c ta_header_get_session
000017ac l     F .text	00000068 ta_header_remove_session
0000909c l     O .bss	00000001 init_done
00009074 l     O .data	00000008 ta_sessions
00000000 l    df *ABS*	00000000 utee_syscalls_a32.o
00000000 l    df *ABS*	00000000 gprof_a32.o
00000000 l    df *ABS*	00000000 tee_api_arith_mpi.c
00002e6c l     F .text	00000020 api_panic
00001e5c l     F .text	00000020 mpi_panic
00001e7c l     F .text	00000024 get_mpi
00001ea0 l     F .text	00000010 mpi_is_odd
00001eb0 l     F .text	00000016 rng_read
00001ec6 l     F .text	0000001c put_mpi
00001ee2 l     F .text	0000045a mpi_egcd
0000233c l     F .text	00000044 get_const_mpi
00002380 l     F .text	00000088 bigint_binary
000090c4 l     O .bss	00002000 data.6740
00002610 l     F .text	000000e8 bigint_binary_mod
00006c25 l     O .rodata	00000009 __func__.7008
00006c2e l     O .rodata	0000000e __func__.6769
00006c3c l     O .rodata	0000000e __func__.6868
00006c4a l     O .rodata	00000012 __func__.6741
00006c5c l     O .rodata	0000000f __func__.6779
00006c6b l     O .rodata	0000001f __func__.6797
00006c8a l     O .rodata	00000019 __func__.6804
00006ca3 l     O .rodata	00000012 __func__.6879
00006cb5 l     O .rodata	00000015 __func__.6834
00006cca l     O .rodata	0000000e __func__.6906
00006cd8 l     O .rodata	0000000e __func__.6934
00006ce6 l     O .rodata	0000000e __func__.6940
00006cf4 l     O .rodata	00000011 __func__.6969
00006d05 l     O .rodata	00000018 __func__.6985
00006d1d l     O .rodata	0000001d __func__.7065
00006d3a l     O .rodata	00000019 __func__.7115
00006d53 l     O .rodata	00000015 __func__.7129
00000000 l    df *ABS*	00000000 bignum.c
00002e8c l     F .text	00000038 mpi_get_digit
00002ec4 l     F .text	0000005c mpi_sub_hlp
00002f20 l     F .text	0000049a mpi_mul_hlp
000033ba l     F .text	00000048 mbedtls_mpi_mod_int.part.3
00004430 l     F .text	0000006e mpi_write_hlp
000045cc l     F .text	00000050 mpi_check_small_factors
00004cc6 l     F .text	00000216 mpi_miller_rabin
00006634 l     O .rodata	000002a0 small_prime
000068d4 l     O .rodata	00000024 gcd_pairs
00000000 l    df *ABS*	00000000 bget_malloc.c
00005668 l     F .text	00000030 raw_malloc_return_hook.isra.3
00005698 l     F .text	000000d8 create_free_block.constprop.11
0000727c l     O .rodata	00000012 __func__.5866
0000728e l     O .rodata	00000005 __func__.5722
00007293 l     O .rodata	00000006 __func__.5737
00007299 l     O .rodata	00000005 __func__.5754
0000729e l     O .rodata	00000006 __func__.5746
000072a4 l     O .rodata	00000006 __func__.5763
000072aa l     O .rodata	00000007 __func__.5773
000072b1 l     O .rodata	0000000d __func__.5902
000072be l     O .rodata	0000000c __func__.5876
000072ca l     O .rodata	0000000b __func__.5887
000072d5 l     O .rodata	00000010 __func__.5954
000072e5 l     O .rodata	0000000e __func__.5908
000072f3 l     O .rodata	00000013 __func__.5814
0000b0c8 l     O .bss	00000038 mstats
0000b100 l     O .bss	00000004 malloc_pool_len
0000b104 l     O .bss	00000004 malloc_pool
0000907c l     O .data	0000001c malloc_poolset
00000000 l    df *ABS*	00000000 mempool.c
0000770e l     O .rodata	00000013 __func__.5630
00007721 l     O .rodata	0000000e __func__.5639
00000000 l    df *ABS*	00000000 assert.c
00000000 l    df *ABS*	00000000 aeabi_unwind.c
00000000 l    df *ABS*	00000000 memchr.c
00000000 l    df *ABS*	00000000 strlen.c
00000000 l    df *ABS*	00000000 arm32_aeabi_ldivmod.c
00000000 l    df *ABS*	00000000 tee_api_panic.c
00000000 l    df *ABS*	00000000 snprintf.c
00000000 l    df *ABS*	00000000 memcmp.c
00000000 l    df *ABS*	00000000 memcpy.c
00000000 l    df *ABS*	00000000 memmove.c
00000000 l    df *ABS*	00000000 memset.c
00000000 l    df *ABS*	00000000 
00007f8c l     O *ABS*	00000000 _DYNAMIC
00007e50 l     O *ABS*	00000000 _GLOBAL_OFFSET_TABLE_
000065d8 l     F .text	00000010 __utee_log_from_thumb
000065e8 l     F .text	00000010 __utee_panic_from_thumb
000065f8 l     F .text	00000010 __utee_check_access_rights_from_thumb
00006608 l     F .text	00000010 __utee_cache_operation_from_thumb
00000cdc g     F .text	00000022 putchar
00001248 g     F .text	00000070 TEE_PopulateTransientObject
00002d7e g     F .text	00000004 TEE_BigIntConvertToFMM
00002ac4 g     F .text	00000008 TEE_BigIntSquareMod
000026f8 g     F .text	000000f4 TEE_BigIntShiftRight
00001d34 g     F .text	00000018 utee_storage_obj_create
00003494 g     F .text	000000a8 mbedtls_mpi_grow
00006448 g     F .text	000000e8 __l_divmod
000019b4 g     F .text	00000014 utee_return
00000fc4 g     F .text	00000004 TEE_Realloc
00000c7e g     F .text	0000003a printf
000019c8 g     F .text	00000014 utee_log
000012b8 g     F .text	00000022 TEE_InitRefAttribute
00000de2 g     F .text	00000066 TEE_InvokeTACommand
00003410 g     F .text	00000024 mbedtls_mpi_init_mempool
0000390e g     F .text	00000046 mbedtls_mpi_write_binary
00000c0c g     F .text	0000000e vsnprintk
00003d7c g     F .text	00000030 mbedtls_mpi_sub_int
00006594 g     F .text	00000032 memmove
00006534 g     F .text	0000001e snprintf
000025ea g     F .text	00000026 TEE_BigIntCmpS32
000012da g     F .text	00000022 TEE_InitValueAttribute
0000353c g     F .text	000000cc mbedtls_mpi_shrink
000063a0 g     F .text	00000002 __aeabi_unwind_cpp_pr0
00002838 g     F .text	0000001c TEE_BigIntAdd
00001a08 g     F .text	00000014 utee_get_property_name_to_index
0000662c g     O .rodata	00000004 ta_heap_size
00001218 g     F .text	00000030 TEE_ResetTransientObject
00001aec g     F .text	00000018 utee_cryp_state_alloc
00001cbc g     F .text	00000018 utee_authenc_enc_final
00003ea2 g     F .text	0000012c mbedtls_mpi_read_string
00002870 g     F .text	00000058 TEE_BigIntNeg
00000020 g       .text	00000000 __text_start
000015dc g     F .text	0000002c TEE_StartPersistentObjectEnumerator
000039e4 g     F .text	0000007c mbedtls_mpi_shift_r
00006214 g     F .text	0000004c malloc_buffer_overlaps_heap
00002a8c g     F .text	0000001c TEE_BigIntSubMod
00005206 g     F .text	00000136 mbedtls_mpi_gen_prime
000037b6 g     F .text	00000020 mbedtls_mpi_get_bit
000038a8 g     F .text	00000066 mbedtls_mpi_read_binary
000002dc g     F .text	0000013c trace_printf
00004644 g     F .text	000000c4 mbedtls_mpi_montmul
0000657e g     F .text	00000016 memcpy
00001b18 g     F .text	00000014 utee_cryp_state_free
00002d82 g     F .text	0000004a TEE_BigIntConvertFromFMM
00006530 g     F .text	00000004 TEE_Panic
00000c4c g     F .text	00000018 __aeabi_uldivmod
00000cb8 g     F .text	00000024 puts
00002dcc g     F .text	000000a0 TEE_BigIntComputeFMM
00005c88 g     F .text	00000020 malloc_get_stats
00001b98 g     F .text	00000018 utee_cipher_final
00000f64 g     F .text	00000016 TEE_GetREETime
0000157c g     F .text	00000038 TEE_AllocatePersistentObjectEnumerator
00009004 g     O .data	0000006c ta_props
00005ca8 g     F .text	00000038 malloc
00001c00 g     F .text	00000014 utee_cryp_obj_close
00001394 g     F .text	0000006c TEE_GenerateKey
00006552 g     F .text	0000000e vsnprintf
00009000 g     O .data	00000004 trace_level
000025b4 g     F .text	00000036 TEE_BigIntCmp
00006618 g     O .rodata	00000004 ta_num_props
00005af8 g     F .text	0000007c bgetr
00001ca4 g     F .text	00000018 utee_authenc_update_payload
00006334 g     F .text	0000002e mempool_free
000024cc g     F .text	00000058 TEE_BigIntConvertToOctetString
00001e3c g     F .text	00000014 utee_cache_operation
0000385a g     F .text	00000042 mbedtls_mpi_bitlen
00001c78 g     F .text	00000018 utee_authenc_init
000027ec g     F .text	0000002a TEE_BigIntGetBit
00006630 g     O .rodata	00000003 trace_ext_prefix
000058a4 g     F .text	0000005c bgetz
00000eb4 g     F .text	0000000c TEE_GetInstanceData
00000ee2 g     F .text	0000001e TEE_Wait
00001dec g     F .text	00000014 utee_storage_obj_write
00003dac g     F .text	000000d8 mbedtls_mpi_mul_mpi
000063a4 g     F .text	00000002 __aeabi_unwind_cpp_pr2
00000fd2 g     F .text	00000006 TEE_CacheFlush
00000024 g     F .text	00000002 TA_DestroyEntryPoint
00003402 g     F .text	0000000e mbedtls_mpi_init
00003828 g     F .text	00000032 mbedtls_mpi_lsb
00006364 g     F .text	00000028 _assert_log
00002d7a g     F .text	00000004 TEE_BigIntFMMContextSizeInU32
00001536 g     F .text	00000046 TEE_RenamePersistentObject
00002408 g     F .text	00000044 _TEE_MathAPI_Init
00003cbc g     F .text	00000046 mbedtls_mpi_add_mpi
00001dc4 g     F .text	00000014 utee_storage_next_enum
0000b108 g     O .bss	00008000 ta_heap
00002acc g     F .text	000000a4 TEE_BigIntInvMod
0000002a g     F .text	00000002 TA_CloseSessionEntryPoint
00001400 g     F .text	00000064 TEE_OpenPersistentObject
00003d02 g     F .text	0000004a mbedtls_mpi_sub_mpi
000019dc g     F .text	00000014 __utee_panic
00001b04 g     F .text	00000014 utee_cryp_state_copy
0000002c g     F .text	00000230 TA_InvokeCommandEntryPoint
000062a4 g     F .text	0000006c mempool_alloc
00001bec g     F .text	00000014 utee_cryp_obj_alloc
00001ad8 g     F .text	00000014 utee_set_ta_time
00001bd8 g     F .text	00000014 utee_cryp_obj_get_attr
00006310 g     F .text	00000024 mempool_calloc
00001364 g     F .text	00000030 TEE_CopyObjectAttributes
00005cf0 g     F .text	00000048 calloc
00000f7a g     F .text	0000004a TEE_Malloc
00001a9c g     F .text	00000014 utee_mask_cancellation
00001c14 g     F .text	00000014 utee_cryp_obj_reset
00000e9c g     F .text	0000000a TEE_CheckMemoryAccessRights
00013108 g       .bss	00000000 __gprof_buf_end
000063d2 g     F .text	00000076 __ul_divmod
0000377e g     F .text	00000038 mbedtls_mpi_lset
0000165c g     F .text	00000040 TEE_ReadObjectData
000010b0 g     F .text	00000070 TEE_GetObjectBufferAttribute
00000026 g     F .text	00000004 TA_OpenSessionEntryPoint
00001db0 g     F .text	00000014 utee_storage_start_enum
00001d60 g     F .text	00000014 utee_storage_obj_rename
000090a0 g     O .bss	00000004 ta_param_types
00004364 g     F .text	0000002e mbedtls_mpi_div_int
00000fe0 g     F .text	00000038 __utee_from_attr
00002d3c g     F .text	00000030 TEE_BigIntIsProbablePrime
00003e84 g     F .text	0000001e mbedtls_mpi_mul_int
000014fc g     F .text	00000024 TEE_CloseAndDeletePersistentObject1
0000472c g     F .text	00000454 mbedtls_mpi_exp_mod
0000368c g     F .text	0000006c mbedtls_mpi_safe_cond_assign
000019f0 g     F .text	00000018 utee_get_property
0000244c g     F .text	00000040 TEE_BigIntInit
00000ec0 g     F .text	00000004 TEE_MemMove
0000248c g     F .text	00000040 TEE_BigIntConvertFromOctetString
00009070 g     O .data	00000004 _ref__utee_mcount
00003a60 g     F .text	00000068 mbedtls_mpi_cmp_abs
000063a6 g     F .text	0000001c memchr
00000e64 g     F .text	0000001c TEE_UnmaskCancellation
00001018 g     F .text	0000002c TEE_GetObjectInfo
0000533c g     F .text	0000032c mbedtls_mpi_self_test
00001d4c g     F .text	00000014 utee_storage_obj_del
00001e14 g     F .text	00000014 utee_storage_obj_seek
000011e8 g     F .text	00000030 TEE_FreeTransientObject
00003b5a g     F .text	00000030 mbedtls_mpi_cmp_int
00001b40 g     F .text	00000014 utee_hash_update
00001e50  w    F .text	0000000c __utee_mcount
00002a20 g     F .text	00000050 TEE_BigIntMod
000043f6 g     F .text	0000003a mbedtls_mpi_mod_int
00001a34 g     F .text	00000014 utee_close_ta_session
00002972 g     F .text	000000ae TEE_BigIntDiv
00003608 g     F .text	00000056 mbedtls_mpi_copy
00005c74 g     F .text	00000014 malloc_reset_stats
00001b80 g     F .text	00000018 utee_cipher_update
00001064 g     F .text	00000020 TEE_RestrictObjectUsage1
00005d38 g     F .text	00000038 realloc
0000365e g     F .text	0000002e mbedtls_mpi_swap
00006260 g     F .text	00000044 mempool_alloc_pool
00001d04 g     F .text	00000018 utee_asymm_verify
000028c8 g     F .text	000000a4 TEE_BigIntMul
00003954 g     F .text	00000090 mbedtls_mpi_shift_l
00003ac8 g     F .text	00000092 mbedtls_mpi_cmp_mpi
00000ec8 g     F .text	00000004 TEE_MemFill
00006560 g     F .text	0000001e memcmp
00006040 g     F .text	000000f8 malloc_add_pool
000002c8 g     F .text	00000014 trace_get_level
00003b8a g     F .text	000000b8 mbedtls_mpi_add_abs
00001c64 g     F .text	00000014 utee_cryp_random_number_generate
00001084 g     F .text	0000002c TEE_RestrictObjectUsage
00002d72 g     F .text	00000008 TEE_BigIntFMMSizeInU32
00002d6c g     F .text	00000004 TEE_BigIntInitFMM
00001cec g     F .text	00000018 utee_asymm_operate
000011a4 g     F .text	00000014 TEE_CloseObject
00001814 g     F .text	0000018c __utee_entry
00006618 g       .text	00000000 __text_end
00002b70 g     F .text	0000007c TEE_BigIntRelativePrime
00004392 g     F .text	00000064 mbedtls_mpi_mod_mpi
00005b74 g     F .text	0000009c bpool
00000e48 g     F .text	0000001c TEE_GetCancellationFlag
00004b80 g     F .text	00000112 mbedtls_mpi_gcd
00000f3c g     F .text	00000028 TEE_SetTAPersistentTime
000065c6 g     F .text	00000010 memset
00000f00 g     F .text	0000003c TEE_GetTAPersistentTime
00000418 g     F .text	000000f8 dhex_dump
00001464 g     F .text	00000098 TEE_CreatePersistentObject
00000e80 g     F .text	0000001c TEE_MaskCancellation
00001dd8 g     F .text	00000014 utee_storage_obj_read
000016dc g     F .text	00000038 TEE_TruncateObjectData
00001c28 g     F .text	00000014 utee_cryp_obj_populate
00001044 g     F .text	00000020 TEE_GetObjectInfo1
000002aa g     F .text	0000001e trace_set_level
00001bb0 g     F .text	00000014 utee_cryp_obj_get_info
00001120 g     F .text	00000084 TEE_GetObjectValueAttribute
00001d74 g     F .text	00000014 utee_storage_alloc_enum
00001d9c g     F .text	00000014 utee_storage_reset_enum
00001e00 g     F .text	00000014 utee_storage_obj_trunc
0000255c g     F .text	00000058 TEE_BigIntConvertToS32
00002854 g     F .text	0000001c TEE_BigIntSub
00001a60 g     F .text	00000014 utee_get_cancellation_flag
00001b2c g     F .text	00000014 utee_hash_init
0000639c g     F .text	00000004 tahead_get_trace_level
00000d00 g     F .text	0000004e __utee_from_param
00001714 g     F .text	0000007c TEE_SeekObjectData
00000d4e g     F .text	0000003c __utee_to_param
00004708 g     F .text	00000024 mbedtls_mpi_montred
00005d70 g     F .text	000002d0 memalign
00002524 g     F .text	00000038 TEE_BigIntConvertFromS32
00003d4c g     F .text	00000030 mbedtls_mpi_add_int
00001bc4 g     F .text	00000014 utee_cryp_obj_restrict_usage
00006138 g     F .text	000000dc malloc_buffer_is_within_alloced
00001c3c g     F .text	00000014 utee_cryp_obj_copy
00002d70 g     F .text	00000002 TEE_BigIntInitFMMContext
00001c50 g     F .text	00000014 utee_cryp_derive_key
00001cd4 g     F .text	00000018 utee_authenc_dec_final
000015c8 g     F .text	00000014 TEE_ResetPersistentObjectEnumerator
0000169c g     F .text	00000040 TEE_WriteObjectData
0000296c g     F .text	00000006 TEE_BigIntSquare
00000020 g     F .text	00000004 TA_CreateEntryPoint
0000461c g     F .text	00000028 mbedtls_mpi_montg_init
00000c1a g     F .text	0000001a snprintk
00002816 g     F .text	00000022 TEE_BigIntGetBitCount
00002aa8 g     F .text	0000001c TEE_BigIntMulMod
00004edc g     F .text	000002ce mbedtls_mpi_inv_mod
000090a4 g     O .bss	00000020 ta_params
00003fce g     F .text	00000396 mbedtls_mpi_div_mpi
0000389c g     F .text	0000000c mbedtls_mpi_size
00005770 g     F .text	00000134 bget
000011b8 g     F .text	00000030 TEE_AllocateTransientObject
000037d6 g     F .text	00000052 mbedtls_mpi_set_bit
00003434 g     F .text	00000012 mbedtls_mpi_init_static
00000fc8 g     F .text	00000004 TEE_Free
000051aa g     F .text	0000005c mbedtls_mpi_is_prime
00000fd8 g     F .text	00000006 TEE_CacheInvalidate
00001b6c g     F .text	00000014 utee_cipher_init
0000638c g     F .text	00000010 _assert_break
00002a70 g     F .text	0000001c TEE_BigIntAddMod
00001d88 g     F .text	00000014 utee_storage_free_enum
00001c90 g     F .text	00000014 utee_authenc_update_aad
00000ec4 g     F .text	00000004 TEE_MemCompare
00000510 g     F .text	000006fc __vsnprintf
000015b4 g     F .text	00000014 TEE_FreePersistentObjectEnumerator
000019a0 g     F .text	00000014 utee_panic
00000d8a g     F .text	00000044 TEE_OpenTASession
00000c64 g     F .text	00000014 trace_ext_puts
00000c78 g     F .text	00000006 trace_ext_get_thread_id
00001520 g     F .text	00000016 TEE_CloseAndDeletePersistentObject
00003446 g     F .text	0000004e mbedtls_mpi_free
00000fcc g     F .text	00000006 TEE_CacheClean
00001a1c g     F .text	00000018 utee_open_ta_session
000036f8 g     F .text	00000086 mbedtls_mpi_safe_cond_swap
000012fc g     F .text	00000068 TEE_CopyObjectAttributes1
00001b54 g     F .text	00000018 utee_hash_final
000063c2 g     F .text	00000010 strlen
00002bec g     F .text	00000150 TEE_BigIntComputeExtendedGcd
000063a2 g     F .text	00000002 __aeabi_unwind_cpp_pr1
00001d1c g     F .text	00000018 utee_storage_obj_open
00001a48 g     F .text	00000018 utee_invoke_ta_command
00001ab0 g     F .text	00000014 utee_wait
00000ecc g     F .text	00000016 TEE_GetSystemTime
00000000 g     O .ta_head	00000020 ta_head
00005900 g     F .text	000001f8 brel
00003c42 g     F .text	0000007a mbedtls_mpi_sub_abs
00001ac4 g     F .text	00000014 utee_get_time
00004c92 g     F .text	00000034 mbedtls_mpi_fill_random
00000ea6 g     F .text	0000000e TEE_SetInstanceData
00001a88 g     F .text	00000014 utee_unmask_cancellation
00000c34 g     F .text	00000018 __aeabi_ldivmod
00001a74 g     F .text	00000014 utee_check_access_rights
0000449e g     F .text	0000012e mbedtls_mpi_write_string
00001608 g     F .text	00000054 TEE_GetNextPersistentObject
00001e28 g     F .text	00000014 utee_cryp_obj_generate_key
00000dce g     F .text	00000014 TEE_CloseTASession
00013108 g       .bss	00000000 __gprof_buf_start
00005ce0 g     F .text	00000010 free
00005c10 g     F .text	00000064 bstats
0000b0c4 g     O .bss	00000004 mbedtls_mpi_mempool



Disassembly of section .text:

00000020 <TA_CreateEntryPoint>:
TA_CreateEntryPoint():
/home/hsk/Desktop/devel/tee-tpm-hyp/optee_examples/secure_storage/ta/secure_storage_ta.c:222
      20:	2000      	movs	r0, #0
      22:	4770      	bx	lr

00000024 <TA_DestroyEntryPoint>:
TA_DestroyEntryPoint():
/home/hsk/Desktop/devel/tee-tpm-hyp/optee_examples/secure_storage/ta/secure_storage_ta.c:227
      24:	4770      	bx	lr

00000026 <TA_OpenSessionEntryPoint>:
TA_OpenSessionEntryPoint():
/home/hsk/Desktop/devel/tee-tpm-hyp/optee_examples/secure_storage/ta/secure_storage_ta.c:235
      26:	2000      	movs	r0, #0
      28:	4770      	bx	lr

0000002a <TA_CloseSessionEntryPoint>:
TA_CloseSessionEntryPoint():
/home/hsk/Desktop/devel/tee-tpm-hyp/optee_examples/secure_storage/ta/secure_storage_ta.c:240
      2a:	4770      	bx	lr

0000002c <TA_InvokeCommandEntryPoint>:
TA_InvokeCommandEntryPoint():
/home/hsk/Desktop/devel/tee-tpm-hyp/optee_examples/secure_storage/ta/secure_storage_ta.c:246
      2c:	e92d 41f0 	stmdb	sp!, {r4, r5, r6, r7, r8, lr}
/home/hsk/Desktop/devel/tee-tpm-hyp/optee_examples/secure_storage/ta/secure_storage_ta.c:247
      30:	2901      	cmp	r1, #1
/home/hsk/Desktop/devel/tee-tpm-hyp/optee_examples/secure_storage/ta/secure_storage_ta.c:246
      32:	460e      	mov	r6, r1
      34:	b08e      	sub	sp, #56	; 0x38
      36:	4614      	mov	r4, r2
      38:	461d      	mov	r5, r3
/home/hsk/Desktop/devel/tee-tpm-hyp/optee_examples/secure_storage/ta/secure_storage_ta.c:247
      3a:	d011      	beq.n	60 <TA_InvokeCommandEntryPoint+0x34>
      3c:	d35e      	bcc.n	fc <TA_InvokeCommandEntryPoint+0xd0>
      3e:	2902      	cmp	r1, #2
      40:	f000 80be 	beq.w	1c0 <TA_InvokeCommandEntryPoint+0x194>
/home/hsk/Desktop/devel/tee-tpm-hyp/optee_examples/secure_storage/ta/secure_storage_ta.c:255
      44:	4b77      	ldr	r3, [pc, #476]	; (224 <TA_InvokeCommandEntryPoint+0x1f8>)
      46:	4878      	ldr	r0, [pc, #480]	; (228 <TA_InvokeCommandEntryPoint+0x1fc>)
      48:	447b      	add	r3, pc
      4a:	9300      	str	r3, [sp, #0]
      4c:	4478      	add	r0, pc
      4e:	2301      	movs	r3, #1
      50:	9101      	str	r1, [sp, #4]
      52:	461a      	mov	r2, r3
      54:	21ff      	movs	r1, #255	; 0xff
      56:	3030      	adds	r0, #48	; 0x30
      58:	f000 f940 	bl	2dc <trace_printf>
/home/hsk/Desktop/devel/tee-tpm-hyp/optee_examples/secure_storage/ta/secure_storage_ta.c:256
      5c:	4c6d      	ldr	r4, [pc, #436]	; (214 <TA_InvokeCommandEntryPoint+0x1e8>)
      5e:	e02f      	b.n	c0 <TA_InvokeCommandEntryPoint+0x94>
create_raw_object():
/home/hsk/Desktop/devel/tee-tpm-hyp/optee_examples/secure_storage/ta/secure_storage_ta.c:95
      60:	2a55      	cmp	r2, #85	; 0x55
      62:	f040 80d3 	bne.w	20c <TA_InvokeCommandEntryPoint+0x1e0>
/home/hsk/Desktop/devel/tee-tpm-hyp/optee_examples/secure_storage/ta/secure_storage_ta.c:98
      66:	685c      	ldr	r4, [r3, #4]
/home/hsk/Desktop/devel/tee-tpm-hyp/optee_examples/secure_storage/ta/secure_storage_ta.c:99
      68:	2100      	movs	r1, #0
      6a:	4620      	mov	r0, r4
      6c:	f000 ff85 	bl	f7a <TEE_Malloc>
/home/hsk/Desktop/devel/tee-tpm-hyp/optee_examples/secure_storage/ta/secure_storage_ta.c:100
      70:	4607      	mov	r7, r0
      72:	2800      	cmp	r0, #0
      74:	f000 80cc 	beq.w	210 <TA_InvokeCommandEntryPoint+0x1e4>
/home/hsk/Desktop/devel/tee-tpm-hyp/optee_examples/secure_storage/ta/secure_storage_ta.c:103
      78:	4622      	mov	r2, r4
      7a:	6829      	ldr	r1, [r5, #0]
      7c:	f000 ff20 	bl	ec0 <TEE_MemMove>
/home/hsk/Desktop/devel/tee-tpm-hyp/optee_examples/secure_storage/ta/secure_storage_ta.c:105
      80:	f8d5 8008 	ldr.w	r8, [r5, #8]
/home/hsk/Desktop/devel/tee-tpm-hyp/optee_examples/secure_storage/ta/secure_storage_ta.c:116
      84:	ab07      	add	r3, sp, #28
/home/hsk/Desktop/devel/tee-tpm-hyp/optee_examples/secure_storage/ta/secure_storage_ta.c:106
      86:	68ed      	ldr	r5, [r5, #12]
/home/hsk/Desktop/devel/tee-tpm-hyp/optee_examples/secure_storage/ta/secure_storage_ta.c:116
      88:	4622      	mov	r2, r4
      8a:	9303      	str	r3, [sp, #12]
      8c:	4639      	mov	r1, r7
      8e:	2300      	movs	r3, #0
      90:	4630      	mov	r0, r6
      92:	9302      	str	r3, [sp, #8]
      94:	9301      	str	r3, [sp, #4]
      96:	9300      	str	r3, [sp, #0]
      98:	f240 4307 	movw	r3, #1031	; 0x407
      9c:	f001 f9e2 	bl	1464 <TEE_CreatePersistentObject>
/home/hsk/Desktop/devel/tee-tpm-hyp/optee_examples/secure_storage/ta/secure_storage_ta.c:122
      a0:	4604      	mov	r4, r0
      a2:	b188      	cbz	r0, c8 <TA_InvokeCommandEntryPoint+0x9c>
/home/hsk/Desktop/devel/tee-tpm-hyp/optee_examples/secure_storage/ta/secure_storage_ta.c:123
      a4:	9001      	str	r0, [sp, #4]
      a6:	4632      	mov	r2, r6
      a8:	4b60      	ldr	r3, [pc, #384]	; (22c <TA_InvokeCommandEntryPoint+0x200>)
      aa:	217b      	movs	r1, #123	; 0x7b
      ac:	4860      	ldr	r0, [pc, #384]	; (230 <TA_InvokeCommandEntryPoint+0x204>)
      ae:	447b      	add	r3, pc
      b0:	9300      	str	r3, [sp, #0]
      b2:	4478      	add	r0, pc
      b4:	4633      	mov	r3, r6
      b6:	f000 f911 	bl	2dc <trace_printf>
/home/hsk/Desktop/devel/tee-tpm-hyp/optee_examples/secure_storage/ta/secure_storage_ta.c:135
      ba:	4638      	mov	r0, r7
read_raw_object():
/home/hsk/Desktop/devel/tee-tpm-hyp/optee_examples/secure_storage/ta/secure_storage_ta.c:182
      bc:	f000 ff84 	bl	fc8 <TEE_Free>
TA_InvokeCommandEntryPoint():
/home/hsk/Desktop/devel/tee-tpm-hyp/optee_examples/secure_storage/ta/secure_storage_ta.c:258
      c0:	4620      	mov	r0, r4
      c2:	b00e      	add	sp, #56	; 0x38
      c4:	e8bd 81f0 	ldmia.w	sp!, {r4, r5, r6, r7, r8, pc}
create_raw_object():
/home/hsk/Desktop/devel/tee-tpm-hyp/optee_examples/secure_storage/ta/secure_storage_ta.c:128
      c8:	462a      	mov	r2, r5
      ca:	4641      	mov	r1, r8
      cc:	9807      	ldr	r0, [sp, #28]
      ce:	f001 fae5 	bl	169c <TEE_WriteObjectData>
/home/hsk/Desktop/devel/tee-tpm-hyp/optee_examples/secure_storage/ta/secure_storage_ta.c:129
      d2:	4604      	mov	r4, r0
      d4:	b170      	cbz	r0, f4 <TA_InvokeCommandEntryPoint+0xc8>
/home/hsk/Desktop/devel/tee-tpm-hyp/optee_examples/secure_storage/ta/secure_storage_ta.c:130
      d6:	9001      	str	r0, [sp, #4]
      d8:	4632      	mov	r2, r6
      da:	4b56      	ldr	r3, [pc, #344]	; (234 <TA_InvokeCommandEntryPoint+0x208>)
      dc:	2182      	movs	r1, #130	; 0x82
      de:	4856      	ldr	r0, [pc, #344]	; (238 <TA_InvokeCommandEntryPoint+0x20c>)
      e0:	447b      	add	r3, pc
      e2:	9300      	str	r3, [sp, #0]
      e4:	4478      	add	r0, pc
      e6:	4633      	mov	r3, r6
      e8:	f000 f8f8 	bl	2dc <trace_printf>
/home/hsk/Desktop/devel/tee-tpm-hyp/optee_examples/secure_storage/ta/secure_storage_ta.c:131
      ec:	9807      	ldr	r0, [sp, #28]
      ee:	f001 fa05 	bl	14fc <TEE_CloseAndDeletePersistentObject1>
      f2:	e7e2      	b.n	ba <TA_InvokeCommandEntryPoint+0x8e>
/home/hsk/Desktop/devel/tee-tpm-hyp/optee_examples/secure_storage/ta/secure_storage_ta.c:133
      f4:	9807      	ldr	r0, [sp, #28]
      f6:	f001 f855 	bl	11a4 <TEE_CloseObject>
      fa:	e7de      	b.n	ba <TA_InvokeCommandEntryPoint+0x8e>
read_raw_object():
/home/hsk/Desktop/devel/tee-tpm-hyp/optee_examples/secure_storage/ta/secure_storage_ta.c:158
      fc:	2a65      	cmp	r2, #101	; 0x65
      fe:	f040 8085 	bne.w	20c <TA_InvokeCommandEntryPoint+0x1e0>
/home/hsk/Desktop/devel/tee-tpm-hyp/optee_examples/secure_storage/ta/secure_storage_ta.c:161
     102:	685c      	ldr	r4, [r3, #4]
/home/hsk/Desktop/devel/tee-tpm-hyp/optee_examples/secure_storage/ta/secure_storage_ta.c:162
     104:	2100      	movs	r1, #0
     106:	4620      	mov	r0, r4
     108:	f000 ff37 	bl	f7a <TEE_Malloc>
/home/hsk/Desktop/devel/tee-tpm-hyp/optee_examples/secure_storage/ta/secure_storage_ta.c:163
     10c:	4606      	mov	r6, r0
     10e:	2800      	cmp	r0, #0
     110:	d07e      	beq.n	210 <TA_InvokeCommandEntryPoint+0x1e4>
/home/hsk/Desktop/devel/tee-tpm-hyp/optee_examples/secure_storage/ta/secure_storage_ta.c:166
     112:	4622      	mov	r2, r4
     114:	6829      	ldr	r1, [r5, #0]
     116:	f000 fed3 	bl	ec0 <TEE_MemMove>
/home/hsk/Desktop/devel/tee-tpm-hyp/optee_examples/secure_storage/ta/secure_storage_ta.c:168
     11a:	68af      	ldr	r7, [r5, #8]
/home/hsk/Desktop/devel/tee-tpm-hyp/optee_examples/secure_storage/ta/secure_storage_ta.c:169
     11c:	f8d5 800c 	ldr.w	r8, [r5, #12]
/home/hsk/Desktop/devel/tee-tpm-hyp/optee_examples/secure_storage/ta/secure_storage_ta.c:175
     120:	ab05      	add	r3, sp, #20
     122:	4622      	mov	r2, r4
     124:	9300      	str	r3, [sp, #0]
     126:	4631      	mov	r1, r6
     128:	2311      	movs	r3, #17
     12a:	2001      	movs	r0, #1
     12c:	f001 f968 	bl	1400 <TEE_OpenPersistentObject>
/home/hsk/Desktop/devel/tee-tpm-hyp/optee_examples/secure_storage/ta/secure_storage_ta.c:180
     130:	4604      	mov	r4, r0
     132:	b168      	cbz	r0, 150 <TA_InvokeCommandEntryPoint+0x124>
/home/hsk/Desktop/devel/tee-tpm-hyp/optee_examples/secure_storage/ta/secure_storage_ta.c:181
     134:	9001      	str	r0, [sp, #4]
     136:	21b5      	movs	r1, #181	; 0xb5
     138:	4b40      	ldr	r3, [pc, #256]	; (23c <TA_InvokeCommandEntryPoint+0x210>)
     13a:	4841      	ldr	r0, [pc, #260]	; (240 <TA_InvokeCommandEntryPoint+0x214>)
     13c:	447b      	add	r3, pc
     13e:	9300      	str	r3, [sp, #0]
     140:	4478      	add	r0, pc
     142:	2301      	movs	r3, #1
     144:	461a      	mov	r2, r3
     146:	3012      	adds	r0, #18
     148:	f000 f8c8 	bl	2dc <trace_printf>
/home/hsk/Desktop/devel/tee-tpm-hyp/optee_examples/secure_storage/ta/secure_storage_ta.c:182
     14c:	4630      	mov	r0, r6
     14e:	e7b5      	b.n	bc <TA_InvokeCommandEntryPoint+0x90>
/home/hsk/Desktop/devel/tee-tpm-hyp/optee_examples/secure_storage/ta/secure_storage_ta.c:186
     150:	a907      	add	r1, sp, #28
     152:	9805      	ldr	r0, [sp, #20]
     154:	f000 ff76 	bl	1044 <TEE_GetObjectInfo1>
/home/hsk/Desktop/devel/tee-tpm-hyp/optee_examples/secure_storage/ta/secure_storage_ta.c:187
     158:	4604      	mov	r4, r0
     15a:	b178      	cbz	r0, 17c <TA_InvokeCommandEntryPoint+0x150>
/home/hsk/Desktop/devel/tee-tpm-hyp/optee_examples/secure_storage/ta/secure_storage_ta.c:188
     15c:	9001      	str	r0, [sp, #4]
     15e:	21bc      	movs	r1, #188	; 0xbc
     160:	4b38      	ldr	r3, [pc, #224]	; (244 <TA_InvokeCommandEntryPoint+0x218>)
     162:	4839      	ldr	r0, [pc, #228]	; (248 <TA_InvokeCommandEntryPoint+0x21c>)
     164:	447b      	add	r3, pc
     166:	9300      	str	r3, [sp, #0]
     168:	4478      	add	r0, pc
     16a:	2301      	movs	r3, #1
     16c:	461a      	mov	r2, r3
     16e:	3012      	adds	r0, #18
     170:	f000 f8b4 	bl	2dc <trace_printf>
/home/hsk/Desktop/devel/tee-tpm-hyp/optee_examples/secure_storage/ta/secure_storage_ta.c:213
     174:	9805      	ldr	r0, [sp, #20]
     176:	f001 f815 	bl	11a4 <TEE_CloseObject>
     17a:	e7e7      	b.n	14c <TA_InvokeCommandEntryPoint+0x120>
/home/hsk/Desktop/devel/tee-tpm-hyp/optee_examples/secure_storage/ta/secure_storage_ta.c:192
     17c:	9a0b      	ldr	r2, [sp, #44]	; 0x2c
     17e:	4590      	cmp	r8, r2
     180:	d202      	bcs.n	188 <TA_InvokeCommandEntryPoint+0x15c>
/home/hsk/Desktop/devel/tee-tpm-hyp/optee_examples/secure_storage/ta/secure_storage_ta.c:197
     182:	60ea      	str	r2, [r5, #12]
/home/hsk/Desktop/devel/tee-tpm-hyp/optee_examples/secure_storage/ta/secure_storage_ta.c:198
     184:	4c24      	ldr	r4, [pc, #144]	; (218 <TA_InvokeCommandEntryPoint+0x1ec>)
     186:	e7f5      	b.n	174 <TA_InvokeCommandEntryPoint+0x148>
/home/hsk/Desktop/devel/tee-tpm-hyp/optee_examples/secure_storage/ta/secure_storage_ta.c:202
     188:	ab06      	add	r3, sp, #24
     18a:	4639      	mov	r1, r7
     18c:	9805      	ldr	r0, [sp, #20]
     18e:	f001 fa65 	bl	165c <TEE_ReadObjectData>
     192:	9b0b      	ldr	r3, [sp, #44]	; 0x2c
/home/hsk/Desktop/devel/tee-tpm-hyp/optee_examples/secure_storage/ta/secure_storage_ta.c:204
     194:	4604      	mov	r4, r0
     196:	9a06      	ldr	r2, [sp, #24]
     198:	b908      	cbnz	r0, 19e <TA_InvokeCommandEntryPoint+0x172>
     19a:	4293      	cmp	r3, r2
     19c:	d00e      	beq.n	1bc <TA_InvokeCommandEntryPoint+0x190>
/home/hsk/Desktop/devel/tee-tpm-hyp/optee_examples/secure_storage/ta/secure_storage_ta.c:205
     19e:	9303      	str	r3, [sp, #12]
     1a0:	21ce      	movs	r1, #206	; 0xce
     1a2:	4b2a      	ldr	r3, [pc, #168]	; (24c <TA_InvokeCommandEntryPoint+0x220>)
     1a4:	482a      	ldr	r0, [pc, #168]	; (250 <TA_InvokeCommandEntryPoint+0x224>)
     1a6:	447b      	add	r3, pc
     1a8:	9300      	str	r3, [sp, #0]
     1aa:	4478      	add	r0, pc
     1ac:	2301      	movs	r3, #1
     1ae:	9202      	str	r2, [sp, #8]
     1b0:	3012      	adds	r0, #18
     1b2:	9401      	str	r4, [sp, #4]
     1b4:	461a      	mov	r2, r3
     1b6:	f000 f891 	bl	2dc <trace_printf>
     1ba:	e7db      	b.n	174 <TA_InvokeCommandEntryPoint+0x148>
/home/hsk/Desktop/devel/tee-tpm-hyp/optee_examples/secure_storage/ta/secure_storage_ta.c:211
     1bc:	60eb      	str	r3, [r5, #12]
     1be:	e7d9      	b.n	174 <TA_InvokeCommandEntryPoint+0x148>
delete_object():
/home/hsk/Desktop/devel/tee-tpm-hyp/optee_examples/secure_storage/ta/secure_storage_ta.c:47
     1c0:	2a05      	cmp	r2, #5
     1c2:	d123      	bne.n	20c <TA_InvokeCommandEntryPoint+0x1e0>
/home/hsk/Desktop/devel/tee-tpm-hyp/optee_examples/secure_storage/ta/secure_storage_ta.c:50
     1c4:	685f      	ldr	r7, [r3, #4]
/home/hsk/Desktop/devel/tee-tpm-hyp/optee_examples/secure_storage/ta/secure_storage_ta.c:51
     1c6:	2100      	movs	r1, #0
     1c8:	4638      	mov	r0, r7
     1ca:	f000 fed6 	bl	f7a <TEE_Malloc>
/home/hsk/Desktop/devel/tee-tpm-hyp/optee_examples/secure_storage/ta/secure_storage_ta.c:52
     1ce:	4606      	mov	r6, r0
     1d0:	b1f0      	cbz	r0, 210 <TA_InvokeCommandEntryPoint+0x1e4>
/home/hsk/Desktop/devel/tee-tpm-hyp/optee_examples/secure_storage/ta/secure_storage_ta.c:55
     1d2:	463a      	mov	r2, r7
     1d4:	6829      	ldr	r1, [r5, #0]
     1d6:	f000 fe73 	bl	ec0 <TEE_MemMove>
/home/hsk/Desktop/devel/tee-tpm-hyp/optee_examples/secure_storage/ta/secure_storage_ta.c:60
     1da:	ab07      	add	r3, sp, #28
     1dc:	463a      	mov	r2, r7
     1de:	9300      	str	r3, [sp, #0]
     1e0:	4631      	mov	r1, r6
     1e2:	4623      	mov	r3, r4
     1e4:	2001      	movs	r0, #1
     1e6:	f001 f90b 	bl	1400 <TEE_OpenPersistentObject>
/home/hsk/Desktop/devel/tee-tpm-hyp/optee_examples/secure_storage/ta/secure_storage_ta.c:65
     1ea:	4604      	mov	r4, r0
     1ec:	b150      	cbz	r0, 204 <TA_InvokeCommandEntryPoint+0x1d8>
/home/hsk/Desktop/devel/tee-tpm-hyp/optee_examples/secure_storage/ta/secure_storage_ta.c:66
     1ee:	9001      	str	r0, [sp, #4]
     1f0:	2142      	movs	r1, #66	; 0x42
     1f2:	4b18      	ldr	r3, [pc, #96]	; (254 <TA_InvokeCommandEntryPoint+0x228>)
     1f4:	4818      	ldr	r0, [pc, #96]	; (258 <TA_InvokeCommandEntryPoint+0x22c>)
     1f6:	447b      	add	r3, pc
     1f8:	9300      	str	r3, [sp, #0]
     1fa:	4478      	add	r0, pc
     1fc:	2301      	movs	r3, #1
     1fe:	461a      	mov	r2, r3
     200:	3022      	adds	r0, #34	; 0x22
     202:	e7a1      	b.n	148 <TA_InvokeCommandEntryPoint+0x11c>
/home/hsk/Desktop/devel/tee-tpm-hyp/optee_examples/secure_storage/ta/secure_storage_ta.c:71
     204:	9807      	ldr	r0, [sp, #28]
     206:	f001 f979 	bl	14fc <TEE_CloseAndDeletePersistentObject1>
     20a:	e79f      	b.n	14c <TA_InvokeCommandEntryPoint+0x120>
/home/hsk/Desktop/devel/tee-tpm-hyp/optee_examples/secure_storage/ta/secure_storage_ta.c:48
     20c:	4c03      	ldr	r4, [pc, #12]	; (21c <TA_InvokeCommandEntryPoint+0x1f0>)
     20e:	e757      	b.n	c0 <TA_InvokeCommandEntryPoint+0x94>
/home/hsk/Desktop/devel/tee-tpm-hyp/optee_examples/secure_storage/ta/secure_storage_ta.c:53
     210:	4c03      	ldr	r4, [pc, #12]	; (220 <TA_InvokeCommandEntryPoint+0x1f4>)
TA_InvokeCommandEntryPoint():
/home/hsk/Desktop/devel/tee-tpm-hyp/optee_examples/secure_storage/ta/secure_storage_ta.c:253
     212:	e755      	b.n	c0 <TA_InvokeCommandEntryPoint+0x94>
     214:	ffff000a 	.word	0xffff000a
     218:	ffff0010 	.word	0xffff0010
     21c:	ffff0006 	.word	0xffff0006
     220:	ffff000c 	.word	0xffff000c
     224:	000069d0 	.word	0x000069d0
     228:	000068a8 	.word	0x000068a8
     22c:	00006891 	.word	0x00006891
     230:	00006842 	.word	0x00006842
     234:	00006888 	.word	0x00006888
     238:	00006810 	.word	0x00006810
     23c:	0000684e 	.word	0x0000684e
     240:	000067b4 	.word	0x000067b4
     244:	00006853 	.word	0x00006853
     248:	0000678c 	.word	0x0000678c
     24c:	00006840 	.word	0x00006840
     250:	0000674a 	.word	0x0000674a
     254:	00006794 	.word	0x00006794
     258:	000066fa 	.word	0x000066fa

0000025c <append>:
append():
/home/hsk/Desktop/devel/tee-tpm-hyp/optee_os/lib/libutils/ext/trace.c:198
     25c:	b40e      	push	{r1, r2, r3}
/home/hsk/Desktop/devel/tee-tpm-hyp/optee_os/lib/libutils/ext/trace.c:203
     25e:	f8d0 3100 	ldr.w	r3, [r0, #256]	; 0x100
/home/hsk/Desktop/devel/tee-tpm-hyp/optee_os/lib/libutils/ext/trace.c:198
     262:	b533      	push	{r0, r1, r4, r5, lr}
     264:	4604      	mov	r4, r0
/home/hsk/Desktop/devel/tee-tpm-hyp/optee_os/lib/libutils/ext/trace.c:203
     266:	b90b      	cbnz	r3, 26c <append+0x10>
/home/hsk/Desktop/devel/tee-tpm-hyp/optee_os/lib/libutils/ext/trace.c:204
     268:	f8c4 0100 	str.w	r0, [r4, #256]	; 0x100
/home/hsk/Desktop/devel/tee-tpm-hyp/optee_os/lib/libutils/ext/trace.c:205
     26c:	f8d4 0100 	ldr.w	r0, [r4, #256]	; 0x100
/home/hsk/Desktop/devel/tee-tpm-hyp/optee_os/lib/libutils/ext/trace.c:206
     270:	ab06      	add	r3, sp, #24
/home/hsk/Desktop/devel/tee-tpm-hyp/optee_os/lib/libutils/ext/trace.c:207
     272:	9a05      	ldr	r2, [sp, #20]
/home/hsk/Desktop/devel/tee-tpm-hyp/optee_os/lib/libutils/ext/trace.c:205
     274:	1b05      	subs	r5, r0, r4
/home/hsk/Desktop/devel/tee-tpm-hyp/optee_os/lib/libutils/ext/trace.c:206
     276:	9301      	str	r3, [sp, #4]
/home/hsk/Desktop/devel/tee-tpm-hyp/optee_os/lib/libutils/ext/trace.c:205
     278:	f5c5 7580 	rsb	r5, r5, #256	; 0x100
/home/hsk/Desktop/devel/tee-tpm-hyp/optee_os/lib/libutils/ext/trace.c:207
     27c:	4629      	mov	r1, r5
     27e:	f000 fcc5 	bl	c0c <vsnprintk>
/home/hsk/Desktop/devel/tee-tpm-hyp/optee_os/lib/libutils/ext/trace.c:209
     282:	2800      	cmp	r0, #0
     284:	db0f      	blt.n	2a6 <append+0x4a>
/home/hsk/Desktop/devel/tee-tpm-hyp/optee_os/lib/libutils/ext/trace.c:213
     286:	4285      	cmp	r5, r0
     288:	dd0d      	ble.n	2a6 <append+0x4a>
/home/hsk/Desktop/devel/tee-tpm-hyp/optee_os/lib/libutils/ext/trace.c:217
     28a:	4285      	cmp	r5, r0
     28c:	bfa8      	it	ge
     28e:	4605      	movge	r5, r0
     290:	f8d4 0100 	ldr.w	r0, [r4, #256]	; 0x100
     294:	4405      	add	r5, r0
/home/hsk/Desktop/devel/tee-tpm-hyp/optee_os/lib/libutils/ext/trace.c:218
     296:	2001      	movs	r0, #1
/home/hsk/Desktop/devel/tee-tpm-hyp/optee_os/lib/libutils/ext/trace.c:217
     298:	f8c4 5100 	str.w	r5, [r4, #256]	; 0x100
/home/hsk/Desktop/devel/tee-tpm-hyp/optee_os/lib/libutils/ext/trace.c:219
     29c:	b002      	add	sp, #8
     29e:	e8bd 4030 	ldmia.w	sp!, {r4, r5, lr}
     2a2:	b003      	add	sp, #12
     2a4:	4770      	bx	lr
/home/hsk/Desktop/devel/tee-tpm-hyp/optee_os/lib/libutils/ext/trace.c:211
     2a6:	2000      	movs	r0, #0
     2a8:	e7f8      	b.n	29c <append+0x40>

000002aa <trace_set_level>:
trace_set_level():
/home/hsk/Desktop/devel/tee-tpm-hyp/optee_os/lib/libutils/ext/trace.c:25
     2aa:	4b05      	ldr	r3, [pc, #20]	; (2c0 <trace_set_level+0x16>)
/home/hsk/Desktop/devel/tee-tpm-hyp/optee_os/lib/libutils/ext/trace.c:26
     2ac:	2804      	cmp	r0, #4
     2ae:	4a05      	ldr	r2, [pc, #20]	; (2c4 <trace_set_level+0x1a>)
/home/hsk/Desktop/devel/tee-tpm-hyp/optee_os/lib/libutils/ext/trace.c:25
     2b0:	447b      	add	r3, pc
     2b2:	589b      	ldr	r3, [r3, r2]
/home/hsk/Desktop/devel/tee-tpm-hyp/optee_os/lib/libutils/ext/trace.c:26
     2b4:	d801      	bhi.n	2ba <trace_set_level+0x10>
/home/hsk/Desktop/devel/tee-tpm-hyp/optee_os/lib/libutils/ext/trace.c:27
     2b6:	6018      	str	r0, [r3, #0]
     2b8:	4770      	bx	lr
/home/hsk/Desktop/devel/tee-tpm-hyp/optee_os/lib/libutils/ext/trace.c:29
     2ba:	2204      	movs	r2, #4
     2bc:	601a      	str	r2, [r3, #0]
/home/hsk/Desktop/devel/tee-tpm-hyp/optee_os/lib/libutils/ext/trace.c:30
     2be:	4770      	bx	lr
     2c0:	00007b9c 	.word	0x00007b9c
     2c4:	00000010 	.word	0x00000010

000002c8 <trace_get_level>:
trace_get_level():
/home/hsk/Desktop/devel/tee-tpm-hyp/optee_os/lib/libutils/ext/trace.c:33
     2c8:	4b02      	ldr	r3, [pc, #8]	; (2d4 <trace_get_level+0xc>)
/home/hsk/Desktop/devel/tee-tpm-hyp/optee_os/lib/libutils/ext/trace.c:34
     2ca:	4a03      	ldr	r2, [pc, #12]	; (2d8 <trace_get_level+0x10>)
/home/hsk/Desktop/devel/tee-tpm-hyp/optee_os/lib/libutils/ext/trace.c:33
     2cc:	447b      	add	r3, pc
/home/hsk/Desktop/devel/tee-tpm-hyp/optee_os/lib/libutils/ext/trace.c:34
     2ce:	589b      	ldr	r3, [r3, r2]
/home/hsk/Desktop/devel/tee-tpm-hyp/optee_os/lib/libutils/ext/trace.c:35
     2d0:	6818      	ldr	r0, [r3, #0]
     2d2:	4770      	bx	lr
     2d4:	00007b80 	.word	0x00007b80
     2d8:	00000010 	.word	0x00000010

000002dc <trace_printf>:
trace_printf():
/home/hsk/Desktop/devel/tee-tpm-hyp/optee_os/lib/libutils/ext/trace.c:97
     2dc:	e92d 47f0 	stmdb	sp!, {r4, r5, r6, r7, r8, r9, sl, lr}
     2e0:	4607      	mov	r7, r0
     2e2:	f8df 910c 	ldr.w	r9, [pc, #268]	; 3f0 <trace_printf+0x114>
     2e6:	b0c6      	sub	sp, #280	; 0x118
     2e8:	4688      	mov	r8, r1
     2ea:	44f9      	add	r9, pc
     2ec:	4614      	mov	r4, r2
/home/hsk/Desktop/devel/tee-tpm-hyp/optee_os/lib/libutils/ext/trace.c:103
     2ee:	469a      	mov	sl, r3
     2f0:	2b00      	cmp	r3, #0
     2f2:	d06a      	beq.n	3ca <trace_printf+0xee>
/home/hsk/Desktop/devel/tee-tpm-hyp/optee_os/lib/libutils/ext/trace.c:103 (discriminator 1)
     2f4:	4b3f      	ldr	r3, [pc, #252]	; (3f4 <trace_printf+0x118>)
     2f6:	f859 3003 	ldr.w	r3, [r9, r3]
     2fa:	681b      	ldr	r3, [r3, #0]
     2fc:	4293      	cmp	r3, r2
     2fe:	db61      	blt.n	3c4 <trace_printf+0xe8>
trace_level_to_string():
/home/hsk/Desktop/devel/tee-tpm-hyp/optee_os/lib/libutils/ext/trace.c:47
     300:	4613      	mov	r3, r2
     302:	2a05      	cmp	r2, #5
/home/hsk/Desktop/devel/tee-tpm-hyp/optee_os/lib/libutils/ext/trace.c:55
     304:	4a3c      	ldr	r2, [pc, #240]	; (3f8 <trace_printf+0x11c>)
/home/hsk/Desktop/devel/tee-tpm-hyp/optee_os/lib/libutils/ext/trace.c:47
     306:	bf28      	it	cs
     308:	2300      	movcs	r3, #0
/home/hsk/Desktop/devel/tee-tpm-hyp/optee_os/lib/libutils/ext/trace.c:55
     30a:	447a      	add	r2, pc
     30c:	5cd3      	ldrb	r3, [r2, r3]
trace_printf():
/home/hsk/Desktop/devel/tee-tpm-hyp/optee_os/lib/libutils/ext/trace.c:107
     30e:	4a3b      	ldr	r2, [pc, #236]	; (3fc <trace_printf+0x120>)
     310:	ad06      	add	r5, sp, #24
     312:	f44f 7180 	mov.w	r1, #256	; 0x100
     316:	4628      	mov	r0, r5
     318:	447a      	add	r2, pc
     31a:	f000 fc7e 	bl	c1a <snprintk>
/home/hsk/Desktop/devel/tee-tpm-hyp/optee_os/lib/libutils/ext/trace.c:109
     31e:	1e06      	subs	r6, r0, #0
     320:	db50      	blt.n	3c4 <trace_printf+0xe8>
/home/hsk/Desktop/devel/tee-tpm-hyp/optee_os/lib/libutils/ext/trace.c:114
     322:	4b37      	ldr	r3, [pc, #220]	; (400 <trace_printf+0x124>)
     324:	f5c6 7180 	rsb	r1, r6, #256	; 0x100
     328:	4a36      	ldr	r2, [pc, #216]	; (404 <trace_printf+0x128>)
     32a:	19a8      	adds	r0, r5, r6
     32c:	447a      	add	r2, pc
     32e:	f859 3003 	ldr.w	r3, [r9, r3]
     332:	9303      	str	r3, [sp, #12]
     334:	f000 fc71 	bl	c1a <snprintk>
/home/hsk/Desktop/devel/tee-tpm-hyp/optee_os/lib/libutils/ext/trace.c:116
     338:	2800      	cmp	r0, #0
     33a:	db43      	blt.n	3c4 <trace_printf+0xe8>
/home/hsk/Desktop/devel/tee-tpm-hyp/optee_os/lib/libutils/ext/trace.c:118
     33c:	4406      	add	r6, r0
/home/hsk/Desktop/devel/tee-tpm-hyp/optee_os/lib/libutils/ext/trace.c:120
     33e:	f1ba 0f00 	cmp.w	sl, #0
     342:	d04b      	beq.n	3dc <trace_printf+0x100>
/home/hsk/Desktop/devel/tee-tpm-hyp/optee_os/lib/libutils/ext/trace.c:120 (discriminator 1)
     344:	231a      	movs	r3, #26
     346:	fa23 f404 	lsr.w	r4, r3, r4
     34a:	07e3      	lsls	r3, r4, #31
     34c:	d546      	bpl.n	3dc <trace_printf+0x100>
print_thread_id():
/home/hsk/Desktop/devel/tee-tpm-hyp/optee_os/lib/libutils/ext/trace.c:65
     34e:	f000 fc93 	bl	c78 <trace_ext_get_thread_id>
trace_printf():
/home/hsk/Desktop/devel/tee-tpm-hyp/optee_os/lib/libutils/ext/trace.c:122
     352:	19ac      	adds	r4, r5, r6
     354:	f5c6 7980 	rsb	r9, r6, #256	; 0x100
print_thread_id():
/home/hsk/Desktop/devel/tee-tpm-hyp/optee_os/lib/libutils/ext/trace.c:67
     358:	2800      	cmp	r0, #0
     35a:	db38      	blt.n	3ce <trace_printf+0xf2>
/home/hsk/Desktop/devel/tee-tpm-hyp/optee_os/lib/libutils/ext/trace.c:68
     35c:	4a2a      	ldr	r2, [pc, #168]	; (408 <trace_printf+0x12c>)
     35e:	2301      	movs	r3, #1
     360:	9000      	str	r0, [sp, #0]
     362:	447a      	add	r2, pc
/home/hsk/Desktop/devel/tee-tpm-hyp/optee_os/lib/libutils/ext/trace.c:70
     364:	4649      	mov	r1, r9
     366:	4620      	mov	r0, r4
     368:	f000 fc57 	bl	c1a <snprintk>
trace_printf():
/home/hsk/Desktop/devel/tee-tpm-hyp/optee_os/lib/libutils/ext/trace.c:129
     36c:	2800      	cmp	r0, #0
     36e:	db29      	blt.n	3c4 <trace_printf+0xe8>
/home/hsk/Desktop/devel/tee-tpm-hyp/optee_os/lib/libutils/ext/trace.c:131
     370:	1984      	adds	r4, r0, r6
/home/hsk/Desktop/devel/tee-tpm-hyp/optee_os/lib/libutils/ext/trace.c:133
     372:	b167      	cbz	r7, 38e <trace_printf+0xb2>
/home/hsk/Desktop/devel/tee-tpm-hyp/optee_os/lib/libutils/ext/trace.c:134
     374:	4a25      	ldr	r2, [pc, #148]	; (40c <trace_printf+0x130>)
     376:	463b      	mov	r3, r7
     378:	f8cd 8000 	str.w	r8, [sp]
     37c:	f5c4 7180 	rsb	r1, r4, #256	; 0x100
     380:	447a      	add	r2, pc
     382:	1928      	adds	r0, r5, r4
     384:	f000 fc49 	bl	c1a <snprintk>
/home/hsk/Desktop/devel/tee-tpm-hyp/optee_os/lib/libutils/ext/trace.c:136
     388:	2800      	cmp	r0, #0
     38a:	db1b      	blt.n	3c4 <trace_printf+0xe8>
/home/hsk/Desktop/devel/tee-tpm-hyp/optee_os/lib/libutils/ext/trace.c:138
     38c:	4404      	add	r4, r0
/home/hsk/Desktop/devel/tee-tpm-hyp/optee_os/lib/libutils/ext/trace.c:148
     38e:	ab4f      	add	r3, sp, #316	; 0x13c
/home/hsk/Desktop/devel/tee-tpm-hyp/optee_os/lib/libutils/ext/trace.c:149
     390:	f5c4 7180 	rsb	r1, r4, #256	; 0x100
     394:	1928      	adds	r0, r5, r4
     396:	9a4e      	ldr	r2, [sp, #312]	; 0x138
/home/hsk/Desktop/devel/tee-tpm-hyp/optee_os/lib/libutils/ext/trace.c:148
     398:	9305      	str	r3, [sp, #20]
/home/hsk/Desktop/devel/tee-tpm-hyp/optee_os/lib/libutils/ext/trace.c:149
     39a:	f000 fc37 	bl	c0c <vsnprintk>
/home/hsk/Desktop/devel/tee-tpm-hyp/optee_os/lib/libutils/ext/trace.c:151
     39e:	2800      	cmp	r0, #0
/home/hsk/Desktop/devel/tee-tpm-hyp/optee_os/lib/libutils/ext/trace.c:157
     3a0:	f04f 030a 	mov.w	r3, #10
/home/hsk/Desktop/devel/tee-tpm-hyp/optee_os/lib/libutils/ext/trace.c:152
     3a4:	bfc8      	it	gt
     3a6:	1824      	addgt	r4, r4, r0
     3a8:	2cfe      	cmp	r4, #254	; 0xfe
     3aa:	bf28      	it	cs
     3ac:	24fe      	movcs	r4, #254	; 0xfe
/home/hsk/Desktop/devel/tee-tpm-hyp/optee_os/lib/libutils/ext/trace.c:157
     3ae:	552b      	strb	r3, [r5, r4]
/home/hsk/Desktop/devel/tee-tpm-hyp/optee_os/lib/libutils/ext/trace.c:158
     3b0:	b114      	cbz	r4, 3b8 <trace_printf+0xdc>
/home/hsk/Desktop/devel/tee-tpm-hyp/optee_os/lib/libutils/ext/trace.c:158 (discriminator 1)
     3b2:	5d2b      	ldrb	r3, [r5, r4]
     3b4:	2b0a      	cmp	r3, #10
     3b6:	d019      	beq.n	3ec <trace_printf+0x110>
/home/hsk/Desktop/devel/tee-tpm-hyp/optee_os/lib/libutils/ext/trace.c:161
     3b8:	442c      	add	r4, r5
/home/hsk/Desktop/devel/tee-tpm-hyp/optee_os/lib/libutils/ext/trace.c:163
     3ba:	4628      	mov	r0, r5
/home/hsk/Desktop/devel/tee-tpm-hyp/optee_os/lib/libutils/ext/trace.c:161
     3bc:	2300      	movs	r3, #0
     3be:	70a3      	strb	r3, [r4, #2]
/home/hsk/Desktop/devel/tee-tpm-hyp/optee_os/lib/libutils/ext/trace.c:163
     3c0:	f000 fc50 	bl	c64 <trace_ext_puts>
/home/hsk/Desktop/devel/tee-tpm-hyp/optee_os/lib/libutils/ext/trace.c:164
     3c4:	b046      	add	sp, #280	; 0x118
     3c6:	e8bd 87f0 	ldmia.w	sp!, {r4, r5, r6, r7, r8, r9, sl, pc}
trace_level_to_string():
/home/hsk/Desktop/devel/tee-tpm-hyp/optee_os/lib/libutils/ext/trace.c:50
     3ca:	234d      	movs	r3, #77	; 0x4d
     3cc:	e79f      	b.n	30e <trace_printf+0x32>
print_thread_id():
/home/hsk/Desktop/devel/tee-tpm-hyp/optee_os/lib/libutils/ext/trace.c:70
     3ce:	4b10      	ldr	r3, [pc, #64]	; (410 <trace_printf+0x134>)
     3d0:	4a10      	ldr	r2, [pc, #64]	; (414 <trace_printf+0x138>)
     3d2:	447b      	add	r3, pc
     3d4:	9300      	str	r3, [sp, #0]
     3d6:	447a      	add	r2, pc
     3d8:	2301      	movs	r3, #1
     3da:	e7c3      	b.n	364 <trace_printf+0x88>
trace_printf():
/home/hsk/Desktop/devel/tee-tpm-hyp/optee_os/lib/libutils/ext/trace.c:142
     3dc:	2efe      	cmp	r6, #254	; 0xfe
     3de:	d8f1      	bhi.n	3c4 <trace_printf+0xe8>
/home/hsk/Desktop/devel/tee-tpm-hyp/optee_os/lib/libutils/ext/trace.c:144
     3e0:	1c74      	adds	r4, r6, #1
     3e2:	2320      	movs	r3, #32
     3e4:	55ab      	strb	r3, [r5, r6]
/home/hsk/Desktop/devel/tee-tpm-hyp/optee_os/lib/libutils/ext/trace.c:145
     3e6:	2300      	movs	r3, #0
     3e8:	552b      	strb	r3, [r5, r4]
     3ea:	e7d0      	b.n	38e <trace_printf+0xb2>
/home/hsk/Desktop/devel/tee-tpm-hyp/optee_os/lib/libutils/ext/trace.c:159
     3ec:	3c01      	subs	r4, #1
     3ee:	e7df      	b.n	3b0 <trace_printf+0xd4>
     3f0:	00007b62 	.word	0x00007b62
     3f4:	00000010 	.word	0x00000010
     3f8:	00006838 	.word	0x00006838
     3fc:	00006839 	.word	0x00006839
     400:	00000014 	.word	0x00000014
     404:	00006829 	.word	0x00006829
     408:	000067f7 	.word	0x000067f7
     40c:	000067e4 	.word	0x000067e4
     410:	00006ea5 	.word	0x00006ea5
     414:	00006789 	.word	0x00006789

00000418 <dhex_dump>:
dhex_dump():
/home/hsk/Desktop/devel/tee-tpm-hyp/optee_os/lib/libutils/ext/trace.c:225
     418:	e92d 4ff0 	stmdb	sp!, {r4, r5, r6, r7, r8, r9, sl, fp, lr}
     41c:	4617      	mov	r7, r2
     41e:	4a33      	ldr	r2, [pc, #204]	; (4ec <dhex_dump+0xd4>)
     420:	4689      	mov	r9, r1
/home/hsk/Desktop/devel/tee-tpm-hyp/optee_os/lib/libutils/ext/trace.c:231
     422:	4933      	ldr	r1, [pc, #204]	; (4f0 <dhex_dump+0xd8>)
/home/hsk/Desktop/devel/tee-tpm-hyp/optee_os/lib/libutils/ext/trace.c:225
     424:	447a      	add	r2, pc
     426:	b0c7      	sub	sp, #284	; 0x11c
     428:	4680      	mov	r8, r0
/home/hsk/Desktop/devel/tee-tpm-hyp/optee_os/lib/libutils/ext/trace.c:231
     42a:	5852      	ldr	r2, [r2, r1]
     42c:	6812      	ldr	r2, [r2, #0]
     42e:	42ba      	cmp	r2, r7
     430:	db1d      	blt.n	46e <dhex_dump+0x56>
     432:	461e      	mov	r6, r3
/home/hsk/Desktop/devel/tee-tpm-hyp/optee_os/lib/libutils/ext/trace.c:240
     434:	4b2f      	ldr	r3, [pc, #188]	; (4f4 <dhex_dump+0xdc>)
/home/hsk/Desktop/devel/tee-tpm-hyp/optee_os/lib/libutils/ext/trace.c:232
     436:	ac05      	add	r4, sp, #20
/home/hsk/Desktop/devel/tee-tpm-hyp/optee_os/lib/libutils/ext/trace.c:235
     438:	f8df b0bc 	ldr.w	fp, [pc, #188]	; 4f8 <dhex_dump+0xe0>
/home/hsk/Desktop/devel/tee-tpm-hyp/optee_os/lib/libutils/ext/trace.c:240
     43c:	447b      	add	r3, pc
     43e:	9302      	str	r3, [sp, #8]
/home/hsk/Desktop/devel/tee-tpm-hyp/optee_os/lib/libutils/ext/trace.c:248
     440:	4b2e      	ldr	r3, [pc, #184]	; (4fc <dhex_dump+0xe4>)
/home/hsk/Desktop/devel/tee-tpm-hyp/optee_os/lib/libutils/ext/trace.c:235
     442:	44fb      	add	fp, pc
/home/hsk/Desktop/devel/tee-tpm-hyp/optee_os/lib/libutils/ext/trace.c:232
     444:	2500      	movs	r5, #0
     446:	f8c4 5100 	str.w	r5, [r4, #256]	; 0x100
/home/hsk/Desktop/devel/tee-tpm-hyp/optee_os/lib/libutils/ext/trace.c:248
     44a:	447b      	add	r3, pc
     44c:	9303      	str	r3, [sp, #12]
/home/hsk/Desktop/devel/tee-tpm-hyp/optee_os/lib/libutils/ext/trace.c:233 (discriminator 1)
     44e:	9b50      	ldr	r3, [sp, #320]	; 0x140
     450:	429d      	cmp	r5, r3
     452:	db0f      	blt.n	474 <dhex_dump+0x5c>
/home/hsk/Desktop/devel/tee-tpm-hyp/optee_os/lib/libutils/ext/trace.c:253
     454:	f8d4 3100 	ldr.w	r3, [r4, #256]	; 0x100
     458:	b14b      	cbz	r3, 46e <dhex_dump+0x56>
/home/hsk/Desktop/devel/tee-tpm-hyp/optee_os/lib/libutils/ext/trace.c:255
     45a:	4b29      	ldr	r3, [pc, #164]	; (500 <dhex_dump+0xe8>)
     45c:	463a      	mov	r2, r7
     45e:	9401      	str	r4, [sp, #4]
     460:	4649      	mov	r1, r9
     462:	447b      	add	r3, pc
     464:	4640      	mov	r0, r8
     466:	9300      	str	r3, [sp, #0]
     468:	2301      	movs	r3, #1
     46a:	f7ff ff37 	bl	2dc <trace_printf>
/home/hsk/Desktop/devel/tee-tpm-hyp/optee_os/lib/libutils/ext/trace.c:263
     46e:	b047      	add	sp, #284	; 0x11c
     470:	e8bd 8ff0 	ldmia.w	sp!, {r4, r5, r6, r7, r8, r9, sl, fp, pc}
/home/hsk/Desktop/devel/tee-tpm-hyp/optee_os/lib/libutils/ext/trace.c:234
     474:	f015 0a0f 	ands.w	sl, r5, #15
     478:	d013      	beq.n	4a2 <dhex_dump+0x8a>
/home/hsk/Desktop/devel/tee-tpm-hyp/optee_os/lib/libutils/ext/trace.c:240
     47a:	f816 2b01 	ldrb.w	r2, [r6], #1
     47e:	4620      	mov	r0, r4
     480:	9902      	ldr	r1, [sp, #8]
     482:	f7ff feeb 	bl	25c <append>
/home/hsk/Desktop/devel/tee-tpm-hyp/optee_os/lib/libutils/ext/trace.c:241
     486:	b9a8      	cbnz	r0, 4b4 <dhex_dump+0x9c>
/home/hsk/Desktop/devel/tee-tpm-hyp/optee_os/lib/libutils/ext/trace.c:262
     488:	481e      	ldr	r0, [pc, #120]	; (504 <dhex_dump+0xec>)
     48a:	2203      	movs	r2, #3
     48c:	4b1e      	ldr	r3, [pc, #120]	; (508 <dhex_dump+0xf0>)
     48e:	f44f 7183 	mov.w	r1, #262	; 0x106
     492:	4478      	add	r0, pc
     494:	447b      	add	r3, pc
     496:	3005      	adds	r0, #5
     498:	9300      	str	r3, [sp, #0]
     49a:	2301      	movs	r3, #1
     49c:	f7ff ff1e 	bl	2dc <trace_printf>
     4a0:	e7e5      	b.n	46e <dhex_dump+0x56>
/home/hsk/Desktop/devel/tee-tpm-hyp/optee_os/lib/libutils/ext/trace.c:235
     4a2:	4633      	mov	r3, r6
     4a4:	2208      	movs	r2, #8
     4a6:	4659      	mov	r1, fp
     4a8:	4620      	mov	r0, r4
     4aa:	f7ff fed7 	bl	25c <append>
/home/hsk/Desktop/devel/tee-tpm-hyp/optee_os/lib/libutils/ext/trace.c:237
     4ae:	2800      	cmp	r0, #0
     4b0:	d1e3      	bne.n	47a <dhex_dump+0x62>
     4b2:	e7e9      	b.n	488 <dhex_dump+0x70>
/home/hsk/Desktop/devel/tee-tpm-hyp/optee_os/lib/libutils/ext/trace.c:243
     4b4:	f1ba 0f07 	cmp.w	sl, #7
     4b8:	d108      	bne.n	4cc <dhex_dump+0xb4>
/home/hsk/Desktop/devel/tee-tpm-hyp/optee_os/lib/libutils/ext/trace.c:244
     4ba:	4914      	ldr	r1, [pc, #80]	; (50c <dhex_dump+0xf4>)
     4bc:	4620      	mov	r0, r4
     4be:	4479      	add	r1, pc
     4c0:	f7ff fecc 	bl	25c <append>
/home/hsk/Desktop/devel/tee-tpm-hyp/optee_os/lib/libutils/ext/trace.c:245
     4c4:	2800      	cmp	r0, #0
     4c6:	d0df      	beq.n	488 <dhex_dump+0x70>
/home/hsk/Desktop/devel/tee-tpm-hyp/optee_os/lib/libutils/ext/trace.c:233 (discriminator 2)
     4c8:	3501      	adds	r5, #1
     4ca:	e7c0      	b.n	44e <dhex_dump+0x36>
/home/hsk/Desktop/devel/tee-tpm-hyp/optee_os/lib/libutils/ext/trace.c:247
     4cc:	f1ba 0f0f 	cmp.w	sl, #15
     4d0:	d1fa      	bne.n	4c8 <dhex_dump+0xb0>
/home/hsk/Desktop/devel/tee-tpm-hyp/optee_os/lib/libutils/ext/trace.c:248
     4d2:	9b03      	ldr	r3, [sp, #12]
     4d4:	463a      	mov	r2, r7
     4d6:	9300      	str	r3, [sp, #0]
     4d8:	4649      	mov	r1, r9
     4da:	2301      	movs	r3, #1
     4dc:	9401      	str	r4, [sp, #4]
     4de:	4640      	mov	r0, r8
     4e0:	f7ff fefc 	bl	2dc <trace_printf>
/home/hsk/Desktop/devel/tee-tpm-hyp/optee_os/lib/libutils/ext/trace.c:250
     4e4:	2300      	movs	r3, #0
     4e6:	f8c4 3100 	str.w	r3, [r4, #256]	; 0x100
     4ea:	e7ed      	b.n	4c8 <dhex_dump+0xb0>
     4ec:	00007a28 	.word	0x00007a28
     4f0:	00000010 	.word	0x00000010
     4f4:	0000672f 	.word	0x0000672f
     4f8:	0000672f 	.word	0x0000672f
     4fc:	0000672f 	.word	0x0000672f
     500:	00006717 	.word	0x00006717
     504:	000066b0 	.word	0x000066b0
     508:	000066e8 	.word	0x000066e8
     50c:	000066b9 	.word	0x000066b9

00000510 <__vsnprintf>:
__vsnprintf():
/home/hsk/Desktop/devel/tee-tpm-hyp/optee_os/lib/libutils/ext/snprintk.c:137
     510:	e92d 4ff0 	stmdb	sp!, {r4, r5, r6, r7, r8, r9, sl, fp, lr}
/home/hsk/Desktop/devel/tee-tpm-hyp/optee_os/lib/libutils/ext/snprintk.c:141
     514:	4607      	mov	r7, r0
     516:	469b      	mov	fp, r3
/home/hsk/Desktop/devel/tee-tpm-hyp/optee_os/lib/libutils/ext/snprintk.c:137
     518:	b09f      	sub	sp, #124	; 0x7c
kprintf():
/home/hsk/Desktop/devel/tee-tpm-hyp/optee_os/lib/libutils/ext/snprintk.c:269
     51a:	2300      	movs	r3, #0
__vsnprintf():
/home/hsk/Desktop/devel/tee-tpm-hyp/optee_os/lib/libutils/ext/snprintk.c:137
     51c:	920b      	str	r2, [sp, #44]	; 0x2c
     51e:	f89d 20a0 	ldrb.w	r2, [sp, #160]	; 0xa0
     522:	9213      	str	r2, [sp, #76]	; 0x4c
/home/hsk/Desktop/devel/tee-tpm-hyp/optee_os/lib/libutils/ext/snprintk.c:141
     524:	4602      	mov	r2, r0
     526:	440a      	add	r2, r1
/home/hsk/Desktop/devel/tee-tpm-hyp/optee_os/lib/libutils/ext/snprintk.c:137
     528:	9010      	str	r0, [sp, #64]	; 0x40
     52a:	9112      	str	r1, [sp, #72]	; 0x48
/home/hsk/Desktop/devel/tee-tpm-hyp/optee_os/lib/libutils/ext/snprintk.c:141
     52c:	920e      	str	r2, [sp, #56]	; 0x38
kprintf():
/home/hsk/Desktop/devel/tee-tpm-hyp/optee_os/lib/libutils/ext/snprintk.c:269
     52e:	930f      	str	r3, [sp, #60]	; 0x3c
/home/hsk/Desktop/devel/tee-tpm-hyp/optee_os/lib/libutils/ext/snprintk.c:267
     530:	930c      	str	r3, [sp, #48]	; 0x30
/home/hsk/Desktop/devel/tee-tpm-hyp/optee_os/lib/libutils/ext/snprintk.c:275
     532:	9b0b      	ldr	r3, [sp, #44]	; 0x2c
     534:	781b      	ldrb	r3, [r3, #0]
     536:	2b25      	cmp	r3, #37	; 0x25
     538:	d021      	beq.n	57e <__vsnprintf+0x6e>
     53a:	b99b      	cbnz	r3, 564 <__vsnprintf+0x54>
__vsnprintf():
/home/hsk/Desktop/devel/tee-tpm-hyp/optee_os/lib/libutils/ext/snprintk.c:143
     53c:	9b10      	ldr	r3, [sp, #64]	; 0x40
     53e:	b16b      	cbz	r3, 55c <__vsnprintf+0x4c>
/home/hsk/Desktop/devel/tee-tpm-hyp/optee_os/lib/libutils/ext/snprintk.c:143 (discriminator 1)
     540:	9b12      	ldr	r3, [sp, #72]	; 0x48
     542:	b15b      	cbz	r3, 55c <__vsnprintf+0x4c>
/home/hsk/Desktop/devel/tee-tpm-hyp/optee_os/lib/libutils/ext/snprintk.c:145
     544:	9b0c      	ldr	r3, [sp, #48]	; 0x30
     546:	9a12      	ldr	r2, [sp, #72]	; 0x48
     548:	4293      	cmp	r3, r2
     54a:	f04f 0300 	mov.w	r3, #0
/home/hsk/Desktop/devel/tee-tpm-hyp/optee_os/lib/libutils/ext/snprintk.c:146
     54e:	9a10      	ldr	r2, [sp, #64]	; 0x40
/home/hsk/Desktop/devel/tee-tpm-hyp/optee_os/lib/libutils/ext/snprintk.c:145
     550:	f0c0 8341 	bcc.w	bd6 <__vsnprintf+0x6c6>
/home/hsk/Desktop/devel/tee-tpm-hyp/optee_os/lib/libutils/ext/snprintk.c:146
     554:	9912      	ldr	r1, [sp, #72]	; 0x48
     556:	440a      	add	r2, r1
     558:	f802 3c01 	strb.w	r3, [r2, #-1]
/home/hsk/Desktop/devel/tee-tpm-hyp/optee_os/lib/libutils/ext/snprintk.c:151
     55c:	980c      	ldr	r0, [sp, #48]	; 0x30
     55e:	b01f      	add	sp, #124	; 0x7c
     560:	e8bd 8ff0 	ldmia.w	sp!, {r4, r5, r6, r7, r8, r9, sl, fp, pc}
kprintf():
/home/hsk/Desktop/devel/tee-tpm-hyp/optee_os/lib/libutils/ext/snprintk.c:276
     564:	9a0c      	ldr	r2, [sp, #48]	; 0x30
     566:	3201      	adds	r2, #1
     568:	920c      	str	r2, [sp, #48]	; 0x30
/home/hsk/Desktop/devel/tee-tpm-hyp/optee_os/lib/libutils/ext/snprintk.c:277
     56a:	b127      	cbz	r7, 576 <__vsnprintf+0x66>
     56c:	9a0e      	ldr	r2, [sp, #56]	; 0x38
     56e:	42ba      	cmp	r2, r7
     570:	d901      	bls.n	576 <__vsnprintf+0x66>
     572:	703b      	strb	r3, [r7, #0]
     574:	3701      	adds	r7, #1
/home/hsk/Desktop/devel/tee-tpm-hyp/optee_os/lib/libutils/ext/snprintk.c:275
     576:	9b0b      	ldr	r3, [sp, #44]	; 0x2c
     578:	3301      	adds	r3, #1
     57a:	930b      	str	r3, [sp, #44]	; 0x2c
     57c:	e7d9      	b.n	532 <__vsnprintf+0x22>
/home/hsk/Desktop/devel/tee-tpm-hyp/optee_os/lib/libutils/ext/snprintk.c:282
     57e:	9b0b      	ldr	r3, [sp, #44]	; 0x2c
/home/hsk/Desktop/devel/tee-tpm-hyp/optee_os/lib/libutils/ext/snprintk.c:288
     580:	f04f 0900 	mov.w	r9, #0
/home/hsk/Desktop/devel/tee-tpm-hyp/optee_os/lib/libutils/ext/snprintk.c:284
     584:	464e      	mov	r6, r9
/home/hsk/Desktop/devel/tee-tpm-hyp/optee_os/lib/libutils/ext/snprintk.c:287
     586:	f04f 32ff 	mov.w	r2, #4294967295	; 0xffffffff
/home/hsk/Desktop/devel/tee-tpm-hyp/optee_os/lib/libutils/ext/snprintk.c:282
     58a:	3301      	adds	r3, #1
     58c:	930b      	str	r3, [sp, #44]	; 0x2c
     58e:	465b      	mov	r3, fp
/home/hsk/Desktop/devel/tee-tpm-hyp/optee_os/lib/libutils/ext/snprintk.c:287
     590:	920a      	str	r2, [sp, #40]	; 0x28
/home/hsk/Desktop/devel/tee-tpm-hyp/optee_os/lib/libutils/ext/snprintk.c:286
     592:	f8cd 9034 	str.w	r9, [sp, #52]	; 0x34
/home/hsk/Desktop/devel/tee-tpm-hyp/optee_os/lib/libutils/ext/snprintk.c:290
     596:	9a0b      	ldr	r2, [sp, #44]	; 0x2c
     598:	3201      	adds	r2, #1
     59a:	f812 8c01 	ldrb.w	r8, [r2, #-1]
/home/hsk/Desktop/devel/tee-tpm-hyp/optee_os/lib/libutils/ext/snprintk.c:319
     59e:	920b      	str	r2, [sp, #44]	; 0x2c
/home/hsk/Desktop/devel/tee-tpm-hyp/optee_os/lib/libutils/ext/snprintk.c:291
     5a0:	f1b8 0f63 	cmp.w	r8, #99	; 0x63
     5a4:	f000 8166 	beq.w	874 <__vsnprintf+0x364>
     5a8:	dc61      	bgt.n	66e <__vsnprintf+0x15e>
     5aa:	f1b8 0f30 	cmp.w	r8, #48	; 0x30
     5ae:	f000 814b 	beq.w	848 <__vsnprintf+0x338>
     5b2:	dc25      	bgt.n	600 <__vsnprintf+0xf0>
     5b4:	f1b8 0f2a 	cmp.w	r8, #42	; 0x2a
     5b8:	f000 811c 	beq.w	7f4 <__vsnprintf+0x2e4>
     5bc:	dc13      	bgt.n	5e6 <__vsnprintf+0xd6>
     5be:	f1b8 0f20 	cmp.w	r8, #32
     5c2:	f000 810d 	beq.w	7e0 <__vsnprintf+0x2d0>
     5c6:	f1b8 0f23 	cmp.w	r8, #35	; 0x23
     5ca:	f000 8110 	beq.w	7ee <__vsnprintf+0x2de>
/home/hsk/Desktop/devel/tee-tpm-hyp/optee_os/lib/libutils/ext/snprintk.c:541
     5ce:	f1b8 0f00 	cmp.w	r8, #0
     5d2:	d0b3      	beq.n	53c <__vsnprintf+0x2c>
/home/hsk/Desktop/devel/tee-tpm-hyp/optee_os/lib/libutils/ext/snprintk.c:545
     5d4:	f10d 0a78 	add.w	sl, sp, #120	; 0x78
     5d8:	469b      	mov	fp, r3
/home/hsk/Desktop/devel/tee-tpm-hyp/optee_os/lib/libutils/ext/snprintk.c:546
     5da:	2301      	movs	r3, #1
/home/hsk/Desktop/devel/tee-tpm-hyp/optee_os/lib/libutils/ext/snprintk.c:545
     5dc:	f80a 8d28 	strb.w	r8, [sl, #-40]!
     5e0:	e090      	b.n	704 <__vsnprintf+0x1f4>
/home/hsk/Desktop/devel/tee-tpm-hyp/optee_os/lib/libutils/ext/snprintk.c:311
     5e2:	4613      	mov	r3, r2
     5e4:	e7d7      	b.n	596 <__vsnprintf+0x86>
/home/hsk/Desktop/devel/tee-tpm-hyp/optee_os/lib/libutils/ext/snprintk.c:291
     5e6:	f1b8 0f2d 	cmp.w	r8, #45	; 0x2d
     5ea:	f000 810c 	beq.w	806 <__vsnprintf+0x2f6>
     5ee:	f1b8 0f2e 	cmp.w	r8, #46	; 0x2e
     5f2:	f000 810b 	beq.w	80c <__vsnprintf+0x2fc>
     5f6:	f1b8 0f2b 	cmp.w	r8, #43	; 0x2b
     5fa:	d1e8      	bne.n	5ce <__vsnprintf+0xbe>
/home/hsk/Desktop/devel/tee-tpm-hyp/optee_os/lib/libutils/ext/snprintk.c:319
     5fc:	46c1      	mov	r9, r8
     5fe:	e7ca      	b.n	596 <__vsnprintf+0x86>
/home/hsk/Desktop/devel/tee-tpm-hyp/optee_os/lib/libutils/ext/snprintk.c:291
     600:	f1b8 0f44 	cmp.w	r8, #68	; 0x44
     604:	f000 818a 	beq.w	91c <__vsnprintf+0x40c>
     608:	dc13      	bgt.n	632 <__vsnprintf+0x122>
     60a:	f1b8 0f39 	cmp.w	r8, #57	; 0x39
     60e:	dcde      	bgt.n	5ce <__vsnprintf+0xbe>
     610:	9a0b      	ldr	r2, [sp, #44]	; 0x2c
/home/hsk/Desktop/devel/tee-tpm-hyp/optee_os/lib/libutils/ext/snprintk.c:344
     612:	2100      	movs	r1, #0
     614:	910d      	str	r1, [sp, #52]	; 0x34
/home/hsk/Desktop/devel/tee-tpm-hyp/optee_os/lib/libutils/ext/snprintk.c:346
     616:	990d      	ldr	r1, [sp, #52]	; 0x34
     618:	f1a8 0830 	sub.w	r8, r8, #48	; 0x30
     61c:	200a      	movs	r0, #10
     61e:	fb00 8101 	mla	r1, r0, r1, r8
/home/hsk/Desktop/devel/tee-tpm-hyp/optee_os/lib/libutils/ext/snprintk.c:347
     622:	f812 8b01 	ldrb.w	r8, [r2], #1
/home/hsk/Desktop/devel/tee-tpm-hyp/optee_os/lib/libutils/ext/snprintk.c:346
     626:	910d      	str	r1, [sp, #52]	; 0x34
/home/hsk/Desktop/devel/tee-tpm-hyp/optee_os/lib/libutils/ext/snprintk.c:348
     628:	f1a8 0130 	sub.w	r1, r8, #48	; 0x30
     62c:	2909      	cmp	r1, #9
     62e:	d9f2      	bls.n	616 <__vsnprintf+0x106>
     630:	e7b5      	b.n	59e <__vsnprintf+0x8e>
/home/hsk/Desktop/devel/tee-tpm-hyp/optee_os/lib/libutils/ext/snprintk.c:291
     632:	f1b8 0f55 	cmp.w	r8, #85	; 0x55
     636:	f000 8228 	beq.w	a8a <__vsnprintf+0x57a>
     63a:	f1b8 0f58 	cmp.w	r8, #88	; 0x58
     63e:	d07d      	beq.n	73c <__vsnprintf+0x22c>
     640:	f1b8 0f4f 	cmp.w	r8, #79	; 0x4f
     644:	d1c3      	bne.n	5ce <__vsnprintf+0xbe>
/home/hsk/Desktop/devel/tee-tpm-hyp/optee_os/lib/libutils/ext/snprintk.c:408
     646:	f046 0610 	orr.w	r6, r6, #16
/home/hsk/Desktop/devel/tee-tpm-hyp/optee_os/lib/libutils/ext/snprintk.c:411
     64a:	0632      	lsls	r2, r6, #24
     64c:	f140 81b2 	bpl.w	9b4 <__vsnprintf+0x4a4>
     650:	3307      	adds	r3, #7
     652:	f023 0307 	bic.w	r3, r3, #7
     656:	f103 0b08 	add.w	fp, r3, #8
     65a:	e9d3 4500 	ldrd	r4, r5, [r3]
/home/hsk/Desktop/devel/tee-tpm-hyp/optee_os/lib/libutils/ext/snprintk.c:488
     65e:	f04f 0900 	mov.w	r9, #0
     662:	9b0a      	ldr	r3, [sp, #40]	; 0x28
     664:	3301      	adds	r3, #1
     666:	f000 8098 	beq.w	79a <__vsnprintf+0x28a>
     66a:	464b      	mov	r3, r9
     66c:	e084      	b.n	778 <__vsnprintf+0x268>
/home/hsk/Desktop/devel/tee-tpm-hyp/optee_os/lib/libutils/ext/snprintk.c:291
     66e:	f1b8 0f6f 	cmp.w	r8, #111	; 0x6f
     672:	d0ea      	beq.n	64a <__vsnprintf+0x13a>
     674:	dc1c      	bgt.n	6b0 <__vsnprintf+0x1a0>
     676:	f1b8 0f69 	cmp.w	r8, #105	; 0x69
     67a:	f000 8151 	beq.w	920 <__vsnprintf+0x410>
     67e:	dc09      	bgt.n	694 <__vsnprintf+0x184>
     680:	f1b8 0f64 	cmp.w	r8, #100	; 0x64
     684:	f000 814c 	beq.w	920 <__vsnprintf+0x410>
     688:	f1b8 0f68 	cmp.w	r8, #104	; 0x68
     68c:	d19f      	bne.n	5ce <__vsnprintf+0xbe>
/home/hsk/Desktop/devel/tee-tpm-hyp/optee_os/lib/libutils/ext/snprintk.c:352
     68e:	f046 0640 	orr.w	r6, r6, #64	; 0x40
     692:	e780      	b.n	596 <__vsnprintf+0x86>
/home/hsk/Desktop/devel/tee-tpm-hyp/optee_os/lib/libutils/ext/snprintk.c:291
     694:	f1b8 0f6c 	cmp.w	r8, #108	; 0x6c
     698:	f000 80d9 	beq.w	84e <__vsnprintf+0x33e>
     69c:	f1b8 0f6e 	cmp.w	r8, #110	; 0x6e
     6a0:	f000 816d 	beq.w	97e <__vsnprintf+0x46e>
     6a4:	f1b8 0f6a 	cmp.w	r8, #106	; 0x6a
     6a8:	d191      	bne.n	5ce <__vsnprintf+0xbe>
/home/hsk/Desktop/devel/tee-tpm-hyp/optee_os/lib/libutils/ext/snprintk.c:355
     6aa:	f046 0680 	orr.w	r6, r6, #128	; 0x80
     6ae:	e772      	b.n	596 <__vsnprintf+0x86>
/home/hsk/Desktop/devel/tee-tpm-hyp/optee_os/lib/libutils/ext/snprintk.c:291
     6b0:	f1b8 0f74 	cmp.w	r8, #116	; 0x74
     6b4:	f000 80d8 	beq.w	868 <__vsnprintf+0x358>
     6b8:	dc26      	bgt.n	708 <__vsnprintf+0x1f8>
     6ba:	f1b8 0f71 	cmp.w	r8, #113	; 0x71
     6be:	f000 80cd 	beq.w	85c <__vsnprintf+0x34c>
     6c2:	f2c0 818b 	blt.w	9dc <__vsnprintf+0x4cc>
     6c6:	f1b8 0f73 	cmp.w	r8, #115	; 0x73
     6ca:	d180      	bne.n	5ce <__vsnprintf+0xbe>
/home/hsk/Desktop/devel/tee-tpm-hyp/optee_os/lib/libutils/ext/snprintk.c:442
     6cc:	f8d3 a000 	ldr.w	sl, [r3]
     6d0:	f103 0b04 	add.w	fp, r3, #4
     6d4:	f1ba 0f00 	cmp.w	sl, #0
     6d8:	d102      	bne.n	6e0 <__vsnprintf+0x1d0>
/home/hsk/Desktop/devel/tee-tpm-hyp/optee_os/lib/libutils/ext/snprintk.c:444
     6da:	f8df a51c 	ldr.w	sl, [pc, #1308]	; bf8 <__vsnprintf+0x6e8>
     6de:	44fa      	add	sl, pc
/home/hsk/Desktop/devel/tee-tpm-hyp/optee_os/lib/libutils/ext/snprintk.c:445
     6e0:	9b0a      	ldr	r3, [sp, #40]	; 0x28
     6e2:	1c5d      	adds	r5, r3, #1
     6e4:	f000 81cd 	beq.w	a82 <__vsnprintf+0x572>
/home/hsk/Desktop/devel/tee-tpm-hyp/optee_os/lib/libutils/ext/snprintk.c:451
     6e8:	461a      	mov	r2, r3
     6ea:	2100      	movs	r1, #0
     6ec:	4650      	mov	r0, sl
     6ee:	f005 fe5a 	bl	63a6 <memchr>
/home/hsk/Desktop/devel/tee-tpm-hyp/optee_os/lib/libutils/ext/snprintk.c:453
     6f2:	2800      	cmp	r0, #0
     6f4:	f000 81a2 	beq.w	a3c <__vsnprintf+0x52c>
     6f8:	9b0a      	ldr	r3, [sp, #40]	; 0x28
/home/hsk/Desktop/devel/tee-tpm-hyp/optee_os/lib/libutils/ext/snprintk.c:454
     6fa:	eba0 000a 	sub.w	r0, r0, sl
     6fe:	4283      	cmp	r3, r0
     700:	bfa8      	it	ge
     702:	4603      	movge	r3, r0
/home/hsk/Desktop/devel/tee-tpm-hyp/optee_os/lib/libutils/ext/snprintk.c:546
     704:	930a      	str	r3, [sp, #40]	; 0x28
     706:	e198      	b.n	a3a <__vsnprintf+0x52a>
/home/hsk/Desktop/devel/tee-tpm-hyp/optee_os/lib/libutils/ext/snprintk.c:291
     708:	f1b8 0f78 	cmp.w	r8, #120	; 0x78
     70c:	f000 81de 	beq.w	acc <__vsnprintf+0x5bc>
     710:	f1b8 0f7a 	cmp.w	r8, #122	; 0x7a
     714:	f000 80ab 	beq.w	86e <__vsnprintf+0x35e>
     718:	f1b8 0f75 	cmp.w	r8, #117	; 0x75
     71c:	f47f af57 	bne.w	5ce <__vsnprintf+0xbe>
/home/hsk/Desktop/devel/tee-tpm-hyp/optee_os/lib/libutils/ext/snprintk.c:467
     720:	f016 0280 	ands.w	r2, r6, #128	; 0x80
     724:	f000 81b4 	beq.w	a90 <__vsnprintf+0x580>
     728:	3307      	adds	r3, #7
     72a:	f023 0307 	bic.w	r3, r3, #7
     72e:	f103 0b08 	add.w	fp, r3, #8
     732:	e9d3 4500 	ldrd	r4, r5, [r3]
/home/hsk/Desktop/devel/tee-tpm-hyp/optee_os/lib/libutils/ext/snprintk.c:482
     736:	f04f 0900 	mov.w	r9, #0
     73a:	e103      	b.n	944 <__vsnprintf+0x434>
/home/hsk/Desktop/devel/tee-tpm-hyp/optee_os/lib/libutils/ext/snprintk.c:471
     73c:	f8df 24bc 	ldr.w	r2, [pc, #1212]	; bfc <__vsnprintf+0x6ec>
     740:	447a      	add	r2, pc
/home/hsk/Desktop/devel/tee-tpm-hyp/optee_os/lib/libutils/ext/snprintk.c:474
     742:	920f      	str	r2, [sp, #60]	; 0x3c
/home/hsk/Desktop/devel/tee-tpm-hyp/optee_os/lib/libutils/ext/snprintk.c:475
     744:	0634      	lsls	r4, r6, #24
     746:	f140 81c5 	bpl.w	ad4 <__vsnprintf+0x5c4>
     74a:	3307      	adds	r3, #7
     74c:	f023 0307 	bic.w	r3, r3, #7
     750:	f103 0b08 	add.w	fp, r3, #8
     754:	e9d3 4500 	ldrd	r4, r5, [r3]
/home/hsk/Desktop/devel/tee-tpm-hyp/optee_os/lib/libutils/ext/snprintk.c:478
     758:	07f0      	lsls	r0, r6, #31
     75a:	f140 817a 	bpl.w	a52 <__vsnprintf+0x542>
     75e:	ea54 0305 	orrs.w	r3, r4, r5
     762:	f000 8241 	beq.w	be8 <__vsnprintf+0x6d8>
/home/hsk/Desktop/devel/tee-tpm-hyp/optee_os/lib/libutils/ext/snprintk.c:488
     766:	9b0a      	ldr	r3, [sp, #40]	; 0x28
/home/hsk/Desktop/devel/tee-tpm-hyp/optee_os/lib/libutils/ext/snprintk.c:479
     768:	f046 0602 	orr.w	r6, r6, #2
/home/hsk/Desktop/devel/tee-tpm-hyp/optee_os/lib/libutils/ext/snprintk.c:488
     76c:	3301      	adds	r3, #1
     76e:	f000 823e 	beq.w	bee <__vsnprintf+0x6de>
     772:	f04f 0900 	mov.w	r9, #0
     776:	2302      	movs	r3, #2
/home/hsk/Desktop/devel/tee-tpm-hyp/optee_os/lib/libutils/ext/snprintk.c:489
     778:	f426 6680 	bic.w	r6, r6, #1024	; 0x400
/home/hsk/Desktop/devel/tee-tpm-hyp/optee_os/lib/libutils/ext/snprintk.c:497
     77c:	ea54 0205 	orrs.w	r2, r4, r5
     780:	d105      	bne.n	78e <__vsnprintf+0x27e>
     782:	9a0a      	ldr	r2, [sp, #40]	; 0x28
     784:	2a00      	cmp	r2, #0
     786:	f000 81dc 	beq.w	b42 <__vsnprintf+0x632>
     78a:	2400      	movs	r4, #0
     78c:	2500      	movs	r5, #0
/home/hsk/Desktop/devel/tee-tpm-hyp/optee_os/lib/libutils/ext/snprintk.c:503
     78e:	2b01      	cmp	r3, #1
     790:	f000 80dc 	beq.w	94c <__vsnprintf+0x43c>
     794:	2b02      	cmp	r3, #2
     796:	f000 8162 	beq.w	a5e <__vsnprintf+0x54e>
/home/hsk/Desktop/devel/tee-tpm-hyp/optee_os/lib/libutils/ext/snprintk.c:504
     79a:	f10d 0375 	add.w	r3, sp, #117	; 0x75
/home/hsk/Desktop/devel/tee-tpm-hyp/optee_os/lib/libutils/ext/snprintk.c:507
     79e:	08e1      	lsrs	r1, r4, #3
     7a0:	08e8      	lsrs	r0, r5, #3
     7a2:	ea41 7145 	orr.w	r1, r1, r5, lsl #29
/home/hsk/Desktop/devel/tee-tpm-hyp/optee_os/lib/libutils/ext/snprintk.c:506
     7a6:	f004 0207 	and.w	r2, r4, #7
/home/hsk/Desktop/devel/tee-tpm-hyp/optee_os/lib/libutils/ext/snprintk.c:507
     7aa:	4605      	mov	r5, r0
     7ac:	460c      	mov	r4, r1
/home/hsk/Desktop/devel/tee-tpm-hyp/optee_os/lib/libutils/ext/snprintk.c:506
     7ae:	3230      	adds	r2, #48	; 0x30
     7b0:	f103 3aff 	add.w	sl, r3, #4294967295	; 0xffffffff
     7b4:	f803 2c01 	strb.w	r2, [r3, #-1]
/home/hsk/Desktop/devel/tee-tpm-hyp/optee_os/lib/libutils/ext/snprintk.c:508
     7b8:	ea54 0105 	orrs.w	r1, r4, r5
     7bc:	f040 81a0 	bne.w	b00 <__vsnprintf+0x5f0>
/home/hsk/Desktop/devel/tee-tpm-hyp/optee_os/lib/libutils/ext/snprintk.c:510
     7c0:	07f1      	lsls	r1, r6, #31
     7c2:	d506      	bpl.n	7d2 <__vsnprintf+0x2c2>
     7c4:	2a30      	cmp	r2, #48	; 0x30
     7c6:	d004      	beq.n	7d2 <__vsnprintf+0x2c2>
/home/hsk/Desktop/devel/tee-tpm-hyp/optee_os/lib/libutils/ext/snprintk.c:511
     7c8:	2230      	movs	r2, #48	; 0x30
     7ca:	f80a 2c01 	strb.w	r2, [sl, #-1]
     7ce:	f1a3 0a02 	sub.w	sl, r3, #2
/home/hsk/Desktop/devel/tee-tpm-hyp/optee_os/lib/libutils/ext/snprintk.c:537
     7d2:	f10d 0375 	add.w	r3, sp, #117	; 0x75
     7d6:	980a      	ldr	r0, [sp, #40]	; 0x28
     7d8:	eba3 030a 	sub.w	r3, r3, sl
     7dc:	930a      	str	r3, [sp, #40]	; 0x28
     7de:	e055      	b.n	88c <__vsnprintf+0x37c>
/home/hsk/Desktop/devel/tee-tpm-hyp/optee_os/lib/libutils/ext/snprintk.c:299
     7e0:	f1b9 0f00 	cmp.w	r9, #0
     7e4:	f04f 0220 	mov.w	r2, #32
     7e8:	bf08      	it	eq
     7ea:	4691      	moveq	r9, r2
     7ec:	e6d3      	b.n	596 <__vsnprintf+0x86>
/home/hsk/Desktop/devel/tee-tpm-hyp/optee_os/lib/libutils/ext/snprintk.c:302
     7ee:	f046 0601 	orr.w	r6, r6, #1
     7f2:	e6d0      	b.n	596 <__vsnprintf+0x86>
/home/hsk/Desktop/devel/tee-tpm-hyp/optee_os/lib/libutils/ext/snprintk.c:311
     7f4:	1d1a      	adds	r2, r3, #4
     7f6:	681b      	ldr	r3, [r3, #0]
     7f8:	930d      	str	r3, [sp, #52]	; 0x34
     7fa:	2b00      	cmp	r3, #0
     7fc:	f6bf aef1 	bge.w	5e2 <__vsnprintf+0xd2>
/home/hsk/Desktop/devel/tee-tpm-hyp/optee_os/lib/libutils/ext/snprintk.c:313
     800:	425b      	negs	r3, r3
     802:	930d      	str	r3, [sp, #52]	; 0x34
/home/hsk/Desktop/devel/tee-tpm-hyp/optee_os/lib/libutils/ext/snprintk.c:311
     804:	4613      	mov	r3, r2
/home/hsk/Desktop/devel/tee-tpm-hyp/optee_os/lib/libutils/ext/snprintk.c:316
     806:	f046 0604 	orr.w	r6, r6, #4
     80a:	e6c4      	b.n	596 <__vsnprintf+0x86>
/home/hsk/Desktop/devel/tee-tpm-hyp/optee_os/lib/libutils/ext/snprintk.c:322
     80c:	990b      	ldr	r1, [sp, #44]	; 0x2c
     80e:	9a0b      	ldr	r2, [sp, #44]	; 0x2c
     810:	f891 8000 	ldrb.w	r8, [r1]
     814:	3201      	adds	r2, #1
     816:	f1b8 0f2a 	cmp.w	r8, #42	; 0x2a
     81a:	d112      	bne.n	842 <__vsnprintf+0x332>
/home/hsk/Desktop/devel/tee-tpm-hyp/optee_os/lib/libutils/ext/snprintk.c:324
     81c:	6819      	ldr	r1, [r3, #0]
/home/hsk/Desktop/devel/tee-tpm-hyp/optee_os/lib/libutils/ext/snprintk.c:323
     81e:	3304      	adds	r3, #4
/home/hsk/Desktop/devel/tee-tpm-hyp/optee_os/lib/libutils/ext/snprintk.c:322
     820:	920b      	str	r2, [sp, #44]	; 0x2c
/home/hsk/Desktop/devel/tee-tpm-hyp/optee_os/lib/libutils/ext/snprintk.c:324
     822:	ea41 71e1 	orr.w	r1, r1, r1, asr #31
     826:	910a      	str	r1, [sp, #40]	; 0x28
     828:	e6b5      	b.n	596 <__vsnprintf+0x86>
/home/hsk/Desktop/devel/tee-tpm-hyp/optee_os/lib/libutils/ext/snprintk.c:329
     82a:	980a      	ldr	r0, [sp, #40]	; 0x28
     82c:	240a      	movs	r4, #10
/home/hsk/Desktop/devel/tee-tpm-hyp/optee_os/lib/libutils/ext/snprintk.c:330
     82e:	f812 8b01 	ldrb.w	r8, [r2], #1
/home/hsk/Desktop/devel/tee-tpm-hyp/optee_os/lib/libutils/ext/snprintk.c:329
     832:	fb04 1100 	mla	r1, r4, r0, r1
     836:	910a      	str	r1, [sp, #40]	; 0x28
/home/hsk/Desktop/devel/tee-tpm-hyp/optee_os/lib/libutils/ext/snprintk.c:328
     838:	f1a8 0130 	sub.w	r1, r8, #48	; 0x30
     83c:	2909      	cmp	r1, #9
     83e:	d9f4      	bls.n	82a <__vsnprintf+0x31a>
     840:	e6ad      	b.n	59e <__vsnprintf+0x8e>
/home/hsk/Desktop/devel/tee-tpm-hyp/optee_os/lib/libutils/ext/snprintk.c:327
     842:	2100      	movs	r1, #0
     844:	910a      	str	r1, [sp, #40]	; 0x28
     846:	e7f7      	b.n	838 <__vsnprintf+0x328>
/home/hsk/Desktop/devel/tee-tpm-hyp/optee_os/lib/libutils/ext/snprintk.c:340
     848:	f446 6680 	orr.w	r6, r6, #1024	; 0x400
     84c:	e6a3      	b.n	596 <__vsnprintf+0x86>
/home/hsk/Desktop/devel/tee-tpm-hyp/optee_os/lib/libutils/ext/snprintk.c:358
     84e:	9a0b      	ldr	r2, [sp, #44]	; 0x2c
     850:	7812      	ldrb	r2, [r2, #0]
     852:	2a6c      	cmp	r2, #108	; 0x6c
     854:	d105      	bne.n	862 <__vsnprintf+0x352>
     856:	9a0b      	ldr	r2, [sp, #44]	; 0x2c
     858:	3201      	adds	r2, #1
     85a:	920b      	str	r2, [sp, #44]	; 0x2c
/home/hsk/Desktop/devel/tee-tpm-hyp/optee_os/lib/libutils/ext/snprintk.c:366
     85c:	f046 0620 	orr.w	r6, r6, #32
     860:	e699      	b.n	596 <__vsnprintf+0x86>
/home/hsk/Desktop/devel/tee-tpm-hyp/optee_os/lib/libutils/ext/snprintk.c:362
     862:	f046 0610 	orr.w	r6, r6, #16
     866:	e696      	b.n	596 <__vsnprintf+0x86>
/home/hsk/Desktop/devel/tee-tpm-hyp/optee_os/lib/libutils/ext/snprintk.c:369
     868:	f446 7680 	orr.w	r6, r6, #256	; 0x100
     86c:	e693      	b.n	596 <__vsnprintf+0x86>
/home/hsk/Desktop/devel/tee-tpm-hyp/optee_os/lib/libutils/ext/snprintk.c:372
     86e:	f446 7600 	orr.w	r6, r6, #512	; 0x200
     872:	e690      	b.n	596 <__vsnprintf+0x86>
/home/hsk/Desktop/devel/tee-tpm-hyp/optee_os/lib/libutils/ext/snprintk.c:375
     874:	f10d 0a78 	add.w	sl, sp, #120	; 0x78
/home/hsk/Desktop/devel/tee-tpm-hyp/optee_os/lib/libutils/ext/snprintk.c:285
     878:	f04f 0900 	mov.w	r9, #0
/home/hsk/Desktop/devel/tee-tpm-hyp/optee_os/lib/libutils/ext/snprintk.c:375
     87c:	f103 0b04 	add.w	fp, r3, #4
/home/hsk/Desktop/devel/tee-tpm-hyp/optee_os/lib/libutils/ext/snprintk.c:377
     880:	4648      	mov	r0, r9
/home/hsk/Desktop/devel/tee-tpm-hyp/optee_os/lib/libutils/ext/snprintk.c:375
     882:	681b      	ldr	r3, [r3, #0]
     884:	f80a 3d28 	strb.w	r3, [sl, #-40]!
/home/hsk/Desktop/devel/tee-tpm-hyp/optee_os/lib/libutils/ext/snprintk.c:376
     888:	2301      	movs	r3, #1
     88a:	930a      	str	r3, [sp, #40]	; 0x28
/home/hsk/Desktop/devel/tee-tpm-hyp/optee_os/lib/libutils/ext/snprintk.c:565
     88c:	9b0a      	ldr	r3, [sp, #40]	; 0x28
     88e:	4283      	cmp	r3, r0
     890:	bfb8      	it	lt
     892:	4603      	movlt	r3, r0
/home/hsk/Desktop/devel/tee-tpm-hyp/optee_os/lib/libutils/ext/snprintk.c:566
     894:	f1b9 0f00 	cmp.w	r9, #0
     898:	f000 8156 	beq.w	b48 <__vsnprintf+0x638>
/home/hsk/Desktop/devel/tee-tpm-hyp/optee_os/lib/libutils/ext/snprintk.c:567
     89c:	3301      	adds	r3, #1
/home/hsk/Desktop/devel/tee-tpm-hyp/optee_os/lib/libutils/ext/snprintk.c:572
     89e:	9a0d      	ldr	r2, [sp, #52]	; 0x34
     8a0:	990c      	ldr	r1, [sp, #48]	; 0x30
     8a2:	429a      	cmp	r2, r3
     8a4:	bfb8      	it	lt
     8a6:	461a      	movlt	r2, r3
     8a8:	4411      	add	r1, r2
/home/hsk/Desktop/devel/tee-tpm-hyp/optee_os/lib/libutils/ext/snprintk.c:575
     8aa:	f240 4204 	movw	r2, #1028	; 0x404
/home/hsk/Desktop/devel/tee-tpm-hyp/optee_os/lib/libutils/ext/snprintk.c:572
     8ae:	910c      	str	r1, [sp, #48]	; 0x30
/home/hsk/Desktop/devel/tee-tpm-hyp/optee_os/lib/libutils/ext/snprintk.c:575
     8b0:	ea16 0102 	ands.w	r1, r6, r2
     8b4:	d105      	bne.n	8c2 <__vsnprintf+0x3b2>
/home/hsk/Desktop/devel/tee-tpm-hyp/optee_os/lib/libutils/ext/snprintk.c:576
     8b6:	9a0d      	ldr	r2, [sp, #52]	; 0x34
/home/hsk/Desktop/devel/tee-tpm-hyp/optee_os/lib/libutils/ext/snprintk.c:578
     8b8:	2420      	movs	r4, #32
/home/hsk/Desktop/devel/tee-tpm-hyp/optee_os/lib/libutils/ext/snprintk.c:576
     8ba:	1ad2      	subs	r2, r2, r3
/home/hsk/Desktop/devel/tee-tpm-hyp/optee_os/lib/libutils/ext/snprintk.c:577
     8bc:	2a00      	cmp	r2, #0
     8be:	f300 8147 	bgt.w	b50 <__vsnprintf+0x640>
/home/hsk/Desktop/devel/tee-tpm-hyp/optee_os/lib/libutils/ext/snprintk.c:582
     8c2:	f1b9 0f00 	cmp.w	r9, #0
     8c6:	f000 8153 	beq.w	b70 <__vsnprintf+0x660>
/home/hsk/Desktop/devel/tee-tpm-hyp/optee_os/lib/libutils/ext/snprintk.c:583
     8ca:	2f00      	cmp	r7, #0
     8cc:	f040 8148 	bne.w	b60 <__vsnprintf+0x650>
/home/hsk/Desktop/devel/tee-tpm-hyp/optee_os/lib/libutils/ext/snprintk.c:586
     8d0:	2700      	movs	r7, #0
/home/hsk/Desktop/devel/tee-tpm-hyp/optee_os/lib/libutils/ext/snprintk.c:590
     8d2:	f5b1 6f80 	cmp.w	r1, #1024	; 0x400
     8d6:	d105      	bne.n	8e4 <__vsnprintf+0x3d4>
/home/hsk/Desktop/devel/tee-tpm-hyp/optee_os/lib/libutils/ext/snprintk.c:591
     8d8:	9a0d      	ldr	r2, [sp, #52]	; 0x34
/home/hsk/Desktop/devel/tee-tpm-hyp/optee_os/lib/libutils/ext/snprintk.c:593
     8da:	2130      	movs	r1, #48	; 0x30
/home/hsk/Desktop/devel/tee-tpm-hyp/optee_os/lib/libutils/ext/snprintk.c:591
     8dc:	1ad2      	subs	r2, r2, r3
/home/hsk/Desktop/devel/tee-tpm-hyp/optee_os/lib/libutils/ext/snprintk.c:592
     8de:	2a00      	cmp	r2, #0
     8e0:	f300 815e 	bgt.w	ba0 <__vsnprintf+0x690>
/home/hsk/Desktop/devel/tee-tpm-hyp/optee_os/lib/libutils/ext/snprintk.c:597
     8e4:	9a0a      	ldr	r2, [sp, #40]	; 0x28
     8e6:	1a80      	subs	r0, r0, r2
/home/hsk/Desktop/devel/tee-tpm-hyp/optee_os/lib/libutils/ext/snprintk.c:599
     8e8:	2230      	movs	r2, #48	; 0x30
/home/hsk/Desktop/devel/tee-tpm-hyp/optee_os/lib/libutils/ext/snprintk.c:598
     8ea:	2800      	cmp	r0, #0
     8ec:	f300 8160 	bgt.w	bb0 <__vsnprintf+0x6a0>
     8f0:	2200      	movs	r2, #0
/home/hsk/Desktop/devel/tee-tpm-hyp/optee_os/lib/libutils/ext/snprintk.c:602
     8f2:	990a      	ldr	r1, [sp, #40]	; 0x28
     8f4:	428a      	cmp	r2, r1
     8f6:	f040 8163 	bne.w	bc0 <__vsnprintf+0x6b0>
/home/hsk/Desktop/devel/tee-tpm-hyp/optee_os/lib/libutils/ext/snprintk.c:605
     8fa:	0772      	lsls	r2, r6, #29
     8fc:	f57f ae19 	bpl.w	532 <__vsnprintf+0x22>
/home/hsk/Desktop/devel/tee-tpm-hyp/optee_os/lib/libutils/ext/snprintk.c:606
     900:	9a0d      	ldr	r2, [sp, #52]	; 0x34
     902:	1ad3      	subs	r3, r2, r3
/home/hsk/Desktop/devel/tee-tpm-hyp/optee_os/lib/libutils/ext/snprintk.c:608
     904:	2220      	movs	r2, #32
/home/hsk/Desktop/devel/tee-tpm-hyp/optee_os/lib/libutils/ext/snprintk.c:607
     906:	2b00      	cmp	r3, #0
     908:	f77f ae13 	ble.w	532 <__vsnprintf+0x22>
/home/hsk/Desktop/devel/tee-tpm-hyp/optee_os/lib/libutils/ext/snprintk.c:608
     90c:	b127      	cbz	r7, 918 <__vsnprintf+0x408>
     90e:	990e      	ldr	r1, [sp, #56]	; 0x38
     910:	42b9      	cmp	r1, r7
     912:	d901      	bls.n	918 <__vsnprintf+0x408>
     914:	703a      	strb	r2, [r7, #0]
     916:	3701      	adds	r7, #1
     918:	3b01      	subs	r3, #1
     91a:	e7f4      	b.n	906 <__vsnprintf+0x3f6>
/home/hsk/Desktop/devel/tee-tpm-hyp/optee_os/lib/libutils/ext/snprintk.c:380
     91c:	f046 0610 	orr.w	r6, r6, #16
/home/hsk/Desktop/devel/tee-tpm-hyp/optee_os/lib/libutils/ext/snprintk.c:384
     920:	0631      	lsls	r1, r6, #24
     922:	d517      	bpl.n	954 <__vsnprintf+0x444>
     924:	3307      	adds	r3, #7
     926:	f023 0307 	bic.w	r3, r3, #7
     92a:	f103 0b08 	add.w	fp, r3, #8
     92e:	e9d3 4500 	ldrd	r4, r5, [r3]
/home/hsk/Desktop/devel/tee-tpm-hyp/optee_os/lib/libutils/ext/snprintk.c:385
     932:	2c00      	cmp	r4, #0
     934:	f175 0300 	sbcs.w	r3, r5, #0
     938:	da04      	bge.n	944 <__vsnprintf+0x434>
/home/hsk/Desktop/devel/tee-tpm-hyp/optee_os/lib/libutils/ext/snprintk.c:386
     93a:	4264      	negs	r4, r4
/home/hsk/Desktop/devel/tee-tpm-hyp/optee_os/lib/libutils/ext/snprintk.c:387
     93c:	f04f 092d 	mov.w	r9, #45	; 0x2d
/home/hsk/Desktop/devel/tee-tpm-hyp/optee_os/lib/libutils/ext/snprintk.c:386
     940:	eb65 0545 	sbc.w	r5, r5, r5, lsl #1
/home/hsk/Desktop/devel/tee-tpm-hyp/optee_os/lib/libutils/ext/snprintk.c:488
     944:	9b0a      	ldr	r3, [sp, #40]	; 0x28
     946:	3301      	adds	r3, #1
     948:	f040 80d8 	bne.w	afc <__vsnprintf+0x5ec>
/home/hsk/Desktop/devel/tee-tpm-hyp/optee_os/lib/libutils/ext/snprintk.c:508
     94c:	f10d 0375 	add.w	r3, sp, #117	; 0x75
     950:	9311      	str	r3, [sp, #68]	; 0x44
     952:	e0eb      	b.n	b2c <__vsnprintf+0x61c>
/home/hsk/Desktop/devel/tee-tpm-hyp/optee_os/lib/libutils/ext/snprintk.c:384
     954:	05f2      	lsls	r2, r6, #23
     956:	d504      	bpl.n	962 <__vsnprintf+0x452>
     958:	f103 0b04 	add.w	fp, r3, #4
     95c:	681c      	ldr	r4, [r3, #0]
     95e:	17e5      	asrs	r5, r4, #31
     960:	e7e7      	b.n	932 <__vsnprintf+0x422>
     962:	05b5      	lsls	r5, r6, #22
     964:	d4f8      	bmi.n	958 <__vsnprintf+0x448>
     966:	06b4      	lsls	r4, r6, #26
     968:	d4dc      	bmi.n	924 <__vsnprintf+0x414>
     96a:	f103 0b04 	add.w	fp, r3, #4
     96e:	06f0      	lsls	r0, r6, #27
     970:	d4f4      	bmi.n	95c <__vsnprintf+0x44c>
     972:	f016 0f40 	tst.w	r6, #64	; 0x40
     976:	681c      	ldr	r4, [r3, #0]
     978:	d0f1      	beq.n	95e <__vsnprintf+0x44e>
     97a:	b224      	sxth	r4, r4
     97c:	e7ef      	b.n	95e <__vsnprintf+0x44e>
     97e:	469b      	mov	fp, r3
/home/hsk/Desktop/devel/tee-tpm-hyp/optee_os/lib/libutils/ext/snprintk.c:392
     980:	0631      	lsls	r1, r6, #24
     982:	f85b 3b04 	ldr.w	r3, [fp], #4
     986:	d505      	bpl.n	994 <__vsnprintf+0x484>
/home/hsk/Desktop/devel/tee-tpm-hyp/optee_os/lib/libutils/ext/snprintk.c:399
     988:	9a0c      	ldr	r2, [sp, #48]	; 0x30
     98a:	4610      	mov	r0, r2
     98c:	17d1      	asrs	r1, r2, #31
     98e:	e9c3 0100 	strd	r0, r1, [r3]
     992:	e5ce      	b.n	532 <__vsnprintf+0x22>
/home/hsk/Desktop/devel/tee-tpm-hyp/optee_os/lib/libutils/ext/snprintk.c:394
     994:	05f2      	lsls	r2, r6, #23
     996:	d502      	bpl.n	99e <__vsnprintf+0x48e>
/home/hsk/Desktop/devel/tee-tpm-hyp/optee_os/lib/libutils/ext/snprintk.c:405
     998:	9a0c      	ldr	r2, [sp, #48]	; 0x30
     99a:	601a      	str	r2, [r3, #0]
     99c:	e5c9      	b.n	532 <__vsnprintf+0x22>
/home/hsk/Desktop/devel/tee-tpm-hyp/optee_os/lib/libutils/ext/snprintk.c:396
     99e:	05b5      	lsls	r5, r6, #22
     9a0:	d4fa      	bmi.n	998 <__vsnprintf+0x488>
/home/hsk/Desktop/devel/tee-tpm-hyp/optee_os/lib/libutils/ext/snprintk.c:398
     9a2:	06b4      	lsls	r4, r6, #26
     9a4:	d4f0      	bmi.n	988 <__vsnprintf+0x478>
/home/hsk/Desktop/devel/tee-tpm-hyp/optee_os/lib/libutils/ext/snprintk.c:400
     9a6:	06f0      	lsls	r0, r6, #27
     9a8:	d4f6      	bmi.n	998 <__vsnprintf+0x488>
/home/hsk/Desktop/devel/tee-tpm-hyp/optee_os/lib/libutils/ext/snprintk.c:402
     9aa:	0671      	lsls	r1, r6, #25
     9ac:	d5f4      	bpl.n	998 <__vsnprintf+0x488>
/home/hsk/Desktop/devel/tee-tpm-hyp/optee_os/lib/libutils/ext/snprintk.c:403
     9ae:	9a0c      	ldr	r2, [sp, #48]	; 0x30
     9b0:	801a      	strh	r2, [r3, #0]
     9b2:	e5be      	b.n	532 <__vsnprintf+0x22>
/home/hsk/Desktop/devel/tee-tpm-hyp/optee_os/lib/libutils/ext/snprintk.c:411
     9b4:	05f5      	lsls	r5, r6, #23
     9b6:	d503      	bpl.n	9c0 <__vsnprintf+0x4b0>
     9b8:	f103 0b04 	add.w	fp, r3, #4
     9bc:	681c      	ldr	r4, [r3, #0]
     9be:	e00b      	b.n	9d8 <__vsnprintf+0x4c8>
     9c0:	05b4      	lsls	r4, r6, #22
     9c2:	d4f9      	bmi.n	9b8 <__vsnprintf+0x4a8>
     9c4:	06b0      	lsls	r0, r6, #26
     9c6:	f53f ae43 	bmi.w	650 <__vsnprintf+0x140>
     9ca:	f103 0b04 	add.w	fp, r3, #4
     9ce:	06f1      	lsls	r1, r6, #27
     9d0:	d4f4      	bmi.n	9bc <__vsnprintf+0x4ac>
     9d2:	0672      	lsls	r2, r6, #25
     9d4:	d5f2      	bpl.n	9bc <__vsnprintf+0x4ac>
     9d6:	881c      	ldrh	r4, [r3, #0]
     9d8:	2500      	movs	r5, #0
     9da:	e640      	b.n	65e <__vsnprintf+0x14e>
     9dc:	469b      	mov	fp, r3
/home/hsk/Desktop/devel/tee-tpm-hyp/optee_os/lib/libutils/ext/snprintk.c:415
     9de:	9b13      	ldr	r3, [sp, #76]	; 0x4c
     9e0:	f85b 4b04 	ldr.w	r4, [fp], #4
     9e4:	2b00      	cmp	r3, #0
     9e6:	d02b      	beq.n	a40 <__vsnprintf+0x530>
     9e8:	9b0b      	ldr	r3, [sp, #44]	; 0x2c
     9ea:	781b      	ldrb	r3, [r3, #0]
     9ec:	2b55      	cmp	r3, #85	; 0x55
     9ee:	d127      	bne.n	a40 <__vsnprintf+0x530>
     9f0:	9b0b      	ldr	r3, [sp, #44]	; 0x2c
     9f2:	785b      	ldrb	r3, [r3, #1]
     9f4:	2b6c      	cmp	r3, #108	; 0x6c
     9f6:	d123      	bne.n	a40 <__vsnprintf+0x530>
/home/hsk/Desktop/devel/tee-tpm-hyp/optee_os/lib/libutils/ext/snprintk.c:420
     9f8:	9b0b      	ldr	r3, [sp, #44]	; 0x2c
uuid2str():
/home/hsk/Desktop/devel/tee-tpm-hyp/optee_os/lib/libutils/ext/snprintk.c:223
     9fa:	f10d 0a50 	add.w	sl, sp, #80	; 0x50
     9fe:	4a80      	ldr	r2, [pc, #512]	; (c00 <__vsnprintf+0x6f0>)
     a00:	2125      	movs	r1, #37	; 0x25
kprintf():
/home/hsk/Desktop/devel/tee-tpm-hyp/optee_os/lib/libutils/ext/snprintk.c:420
     a02:	3302      	adds	r3, #2
     a04:	930b      	str	r3, [sp, #44]	; 0x2c
uuid2str():
/home/hsk/Desktop/devel/tee-tpm-hyp/optee_os/lib/libutils/ext/snprintk.c:223
     a06:	7be3      	ldrb	r3, [r4, #15]
     a08:	447a      	add	r2, pc
     a0a:	9309      	str	r3, [sp, #36]	; 0x24
     a0c:	4650      	mov	r0, sl
     a0e:	7ba3      	ldrb	r3, [r4, #14]
     a10:	9308      	str	r3, [sp, #32]
     a12:	7b63      	ldrb	r3, [r4, #13]
     a14:	9307      	str	r3, [sp, #28]
     a16:	7b23      	ldrb	r3, [r4, #12]
     a18:	9306      	str	r3, [sp, #24]
     a1a:	7ae3      	ldrb	r3, [r4, #11]
     a1c:	9305      	str	r3, [sp, #20]
     a1e:	7aa3      	ldrb	r3, [r4, #10]
     a20:	9304      	str	r3, [sp, #16]
     a22:	7a63      	ldrb	r3, [r4, #9]
     a24:	9303      	str	r3, [sp, #12]
     a26:	7a23      	ldrb	r3, [r4, #8]
     a28:	9302      	str	r3, [sp, #8]
     a2a:	88e3      	ldrh	r3, [r4, #6]
     a2c:	9301      	str	r3, [sp, #4]
     a2e:	88a3      	ldrh	r3, [r4, #4]
     a30:	9300      	str	r3, [sp, #0]
     a32:	6823      	ldr	r3, [r4, #0]
     a34:	f000 f8f1 	bl	c1a <snprintk>
kprintf():
/home/hsk/Desktop/devel/tee-tpm-hyp/optee_os/lib/libutils/ext/snprintk.c:460
     a38:	900a      	str	r0, [sp, #40]	; 0x28
/home/hsk/Desktop/devel/tee-tpm-hyp/optee_os/lib/libutils/ext/snprintk.c:285
     a3a:	2000      	movs	r0, #0
/home/hsk/Desktop/devel/tee-tpm-hyp/optee_os/lib/libutils/ext/snprintk.c:461
     a3c:	4681      	mov	r9, r0
     a3e:	e725      	b.n	88c <__vsnprintf+0x37c>
/home/hsk/Desktop/devel/tee-tpm-hyp/optee_os/lib/libutils/ext/snprintk.c:437
     a40:	4b70      	ldr	r3, [pc, #448]	; (c04 <__vsnprintf+0x6f4>)
/home/hsk/Desktop/devel/tee-tpm-hyp/optee_os/lib/libutils/ext/snprintk.c:435
     a42:	2500      	movs	r5, #0
/home/hsk/Desktop/devel/tee-tpm-hyp/optee_os/lib/libutils/ext/snprintk.c:438
     a44:	f046 0602 	orr.w	r6, r6, #2
/home/hsk/Desktop/devel/tee-tpm-hyp/optee_os/lib/libutils/ext/snprintk.c:439
     a48:	f04f 0878 	mov.w	r8, #120	; 0x78
/home/hsk/Desktop/devel/tee-tpm-hyp/optee_os/lib/libutils/ext/snprintk.c:437
     a4c:	447b      	add	r3, pc
     a4e:	3311      	adds	r3, #17
     a50:	930f      	str	r3, [sp, #60]	; 0x3c
/home/hsk/Desktop/devel/tee-tpm-hyp/optee_os/lib/libutils/ext/snprintk.c:488
     a52:	9b0a      	ldr	r3, [sp, #40]	; 0x28
     a54:	3301      	adds	r3, #1
     a56:	f47f ae8c 	bne.w	772 <__vsnprintf+0x262>
     a5a:	f04f 0900 	mov.w	r9, #0
/home/hsk/Desktop/devel/tee-tpm-hyp/optee_os/lib/libutils/ext/snprintk.c:523
     a5e:	f10d 0a75 	add.w	sl, sp, #117	; 0x75
/home/hsk/Desktop/devel/tee-tpm-hyp/optee_os/lib/libutils/ext/snprintk.c:525
     a62:	f004 030f 	and.w	r3, r4, #15
     a66:	9a0f      	ldr	r2, [sp, #60]	; 0x3c
     a68:	5cd3      	ldrb	r3, [r2, r3]
/home/hsk/Desktop/devel/tee-tpm-hyp/optee_os/lib/libutils/ext/snprintk.c:526
     a6a:	092a      	lsrs	r2, r5, #4
/home/hsk/Desktop/devel/tee-tpm-hyp/optee_os/lib/libutils/ext/snprintk.c:525
     a6c:	f80a 3d01 	strb.w	r3, [sl, #-1]!
/home/hsk/Desktop/devel/tee-tpm-hyp/optee_os/lib/libutils/ext/snprintk.c:526
     a70:	0923      	lsrs	r3, r4, #4
     a72:	ea43 7305 	orr.w	r3, r3, r5, lsl #28
     a76:	4615      	mov	r5, r2
     a78:	461c      	mov	r4, r3
/home/hsk/Desktop/devel/tee-tpm-hyp/optee_os/lib/libutils/ext/snprintk.c:527
     a7a:	ea54 0305 	orrs.w	r3, r4, r5
     a7e:	d1f0      	bne.n	a62 <__vsnprintf+0x552>
     a80:	e6a7      	b.n	7d2 <__vsnprintf+0x2c2>
/home/hsk/Desktop/devel/tee-tpm-hyp/optee_os/lib/libutils/ext/snprintk.c:460
     a82:	4650      	mov	r0, sl
     a84:	f005 fc9d 	bl	63c2 <strlen>
     a88:	e7d6      	b.n	a38 <__vsnprintf+0x528>
/home/hsk/Desktop/devel/tee-tpm-hyp/optee_os/lib/libutils/ext/snprintk.c:464
     a8a:	f046 0610 	orr.w	r6, r6, #16
     a8e:	e647      	b.n	720 <__vsnprintf+0x210>
/home/hsk/Desktop/devel/tee-tpm-hyp/optee_os/lib/libutils/ext/snprintk.c:467
     a90:	f416 7980 	ands.w	r9, r6, #256	; 0x100
     a94:	d004      	beq.n	aa0 <__vsnprintf+0x590>
     a96:	681c      	ldr	r4, [r3, #0]
     a98:	f103 0b04 	add.w	fp, r3, #4
     a9c:	2500      	movs	r5, #0
     a9e:	e64a      	b.n	736 <__vsnprintf+0x226>
     aa0:	f416 7200 	ands.w	r2, r6, #512	; 0x200
     aa4:	d004      	beq.n	ab0 <__vsnprintf+0x5a0>
     aa6:	f103 0b04 	add.w	fp, r3, #4
     aaa:	681c      	ldr	r4, [r3, #0]
     aac:	2500      	movs	r5, #0
     aae:	e749      	b.n	944 <__vsnprintf+0x434>
     ab0:	f016 0920 	ands.w	r9, r6, #32
     ab4:	f47f ae38 	bne.w	728 <__vsnprintf+0x218>
     ab8:	f103 0b04 	add.w	fp, r3, #4
     abc:	f016 0210 	ands.w	r2, r6, #16
     ac0:	d1f3      	bne.n	aaa <__vsnprintf+0x59a>
     ac2:	f016 0940 	ands.w	r9, r6, #64	; 0x40
     ac6:	d0f0      	beq.n	aaa <__vsnprintf+0x59a>
     ac8:	881c      	ldrh	r4, [r3, #0]
     aca:	e7e7      	b.n	a9c <__vsnprintf+0x58c>
/home/hsk/Desktop/devel/tee-tpm-hyp/optee_os/lib/libutils/ext/snprintk.c:474
     acc:	4a4e      	ldr	r2, [pc, #312]	; (c08 <__vsnprintf+0x6f8>)
     ace:	447a      	add	r2, pc
     ad0:	3211      	adds	r2, #17
     ad2:	e636      	b.n	742 <__vsnprintf+0x232>
/home/hsk/Desktop/devel/tee-tpm-hyp/optee_os/lib/libutils/ext/snprintk.c:475
     ad4:	05f0      	lsls	r0, r6, #23
     ad6:	d503      	bpl.n	ae0 <__vsnprintf+0x5d0>
     ad8:	f103 0b04 	add.w	fp, r3, #4
     adc:	681c      	ldr	r4, [r3, #0]
     ade:	e00b      	b.n	af8 <__vsnprintf+0x5e8>
     ae0:	05b1      	lsls	r1, r6, #22
     ae2:	d4f9      	bmi.n	ad8 <__vsnprintf+0x5c8>
     ae4:	06b2      	lsls	r2, r6, #26
     ae6:	f53f ae30 	bmi.w	74a <__vsnprintf+0x23a>
     aea:	f103 0b04 	add.w	fp, r3, #4
     aee:	06f5      	lsls	r5, r6, #27
     af0:	d4f4      	bmi.n	adc <__vsnprintf+0x5cc>
     af2:	0674      	lsls	r4, r6, #25
     af4:	d5f2      	bpl.n	adc <__vsnprintf+0x5cc>
     af6:	881c      	ldrh	r4, [r3, #0]
     af8:	2500      	movs	r5, #0
     afa:	e62d      	b.n	758 <__vsnprintf+0x248>
/home/hsk/Desktop/devel/tee-tpm-hyp/optee_os/lib/libutils/ext/snprintk.c:488
     afc:	2301      	movs	r3, #1
     afe:	e63b      	b.n	778 <__vsnprintf+0x268>
/home/hsk/Desktop/devel/tee-tpm-hyp/optee_os/lib/libutils/ext/snprintk.c:508
     b00:	4653      	mov	r3, sl
     b02:	e64c      	b.n	79e <__vsnprintf+0x28e>
/home/hsk/Desktop/devel/tee-tpm-hyp/optee_os/lib/libutils/ext/snprintk.c:517
     b04:	4620      	mov	r0, r4
     b06:	4629      	mov	r1, r5
     b08:	220a      	movs	r2, #10
     b0a:	2300      	movs	r3, #0
     b0c:	f000 e89e 	blx	c4c <__aeabi_uldivmod>
     b10:	9b11      	ldr	r3, [sp, #68]	; 0x44
     b12:	3230      	adds	r2, #48	; 0x30
/home/hsk/Desktop/devel/tee-tpm-hyp/optee_os/lib/libutils/ext/snprintk.c:518
     b14:	4620      	mov	r0, r4
     b16:	4629      	mov	r1, r5
/home/hsk/Desktop/devel/tee-tpm-hyp/optee_os/lib/libutils/ext/snprintk.c:517
     b18:	f803 2c01 	strb.w	r2, [r3, #-1]
/home/hsk/Desktop/devel/tee-tpm-hyp/optee_os/lib/libutils/ext/snprintk.c:518
     b1c:	220a      	movs	r2, #10
     b1e:	2300      	movs	r3, #0
     b20:	f000 e894 	blx	c4c <__aeabi_uldivmod>
     b24:	4604      	mov	r4, r0
     b26:	460d      	mov	r5, r1
     b28:	f8cd a044 	str.w	sl, [sp, #68]	; 0x44
     b2c:	9b11      	ldr	r3, [sp, #68]	; 0x44
/home/hsk/Desktop/devel/tee-tpm-hyp/optee_os/lib/libutils/ext/snprintk.c:516
     b2e:	2d00      	cmp	r5, #0
     b30:	bf08      	it	eq
     b32:	2c0a      	cmpeq	r4, #10
     b34:	f103 3aff 	add.w	sl, r3, #4294967295	; 0xffffffff
     b38:	d2e4      	bcs.n	b04 <__vsnprintf+0x5f4>
/home/hsk/Desktop/devel/tee-tpm-hyp/optee_os/lib/libutils/ext/snprintk.c:520
     b3a:	3430      	adds	r4, #48	; 0x30
     b3c:	f803 4c01 	strb.w	r4, [r3, #-1]
     b40:	e647      	b.n	7d2 <__vsnprintf+0x2c2>
/home/hsk/Desktop/devel/tee-tpm-hyp/optee_os/lib/libutils/ext/snprintk.c:496
     b42:	f10d 0a75 	add.w	sl, sp, #117	; 0x75
     b46:	e644      	b.n	7d2 <__vsnprintf+0x2c2>
/home/hsk/Desktop/devel/tee-tpm-hyp/optee_os/lib/libutils/ext/snprintk.c:568
     b48:	07b5      	lsls	r5, r6, #30
/home/hsk/Desktop/devel/tee-tpm-hyp/optee_os/lib/libutils/ext/snprintk.c:569
     b4a:	bf48      	it	mi
     b4c:	3302      	addmi	r3, #2
     b4e:	e6a6      	b.n	89e <__vsnprintf+0x38e>
/home/hsk/Desktop/devel/tee-tpm-hyp/optee_os/lib/libutils/ext/snprintk.c:578
     b50:	b127      	cbz	r7, b5c <__vsnprintf+0x64c>
     b52:	9d0e      	ldr	r5, [sp, #56]	; 0x38
     b54:	42bd      	cmp	r5, r7
     b56:	d901      	bls.n	b5c <__vsnprintf+0x64c>
     b58:	703c      	strb	r4, [r7, #0]
     b5a:	3701      	adds	r7, #1
     b5c:	3a01      	subs	r2, #1
     b5e:	e6ad      	b.n	8bc <__vsnprintf+0x3ac>
/home/hsk/Desktop/devel/tee-tpm-hyp/optee_os/lib/libutils/ext/snprintk.c:583
     b60:	9a0e      	ldr	r2, [sp, #56]	; 0x38
     b62:	42ba      	cmp	r2, r7
     b64:	f67f aeb5 	bls.w	8d2 <__vsnprintf+0x3c2>
     b68:	f887 9000 	strb.w	r9, [r7]
     b6c:	3701      	adds	r7, #1
     b6e:	e6b0      	b.n	8d2 <__vsnprintf+0x3c2>
/home/hsk/Desktop/devel/tee-tpm-hyp/optee_os/lib/libutils/ext/snprintk.c:584
     b70:	07b4      	lsls	r4, r6, #30
     b72:	f57f aeae 	bpl.w	8d2 <__vsnprintf+0x3c2>
/home/hsk/Desktop/devel/tee-tpm-hyp/optee_os/lib/libutils/ext/snprintk.c:585
     b76:	2f00      	cmp	r7, #0
     b78:	f43f aeaa 	beq.w	8d0 <__vsnprintf+0x3c0>
     b7c:	9a0e      	ldr	r2, [sp, #56]	; 0x38
     b7e:	42ba      	cmp	r2, r7
     b80:	f67f aea7 	bls.w	8d2 <__vsnprintf+0x3c2>
     b84:	2230      	movs	r2, #48	; 0x30
     b86:	703a      	strb	r2, [r7, #0]
/home/hsk/Desktop/devel/tee-tpm-hyp/optee_os/lib/libutils/ext/snprintk.c:586
     b88:	1c7a      	adds	r2, r7, #1
     b8a:	f43f aea1 	beq.w	8d0 <__vsnprintf+0x3c0>
     b8e:	9c0e      	ldr	r4, [sp, #56]	; 0x38
     b90:	4294      	cmp	r4, r2
     b92:	d903      	bls.n	b9c <__vsnprintf+0x68c>
     b94:	f887 8001 	strb.w	r8, [r7, #1]
     b98:	3702      	adds	r7, #2
     b9a:	e69a      	b.n	8d2 <__vsnprintf+0x3c2>
     b9c:	4617      	mov	r7, r2
     b9e:	e698      	b.n	8d2 <__vsnprintf+0x3c2>
/home/hsk/Desktop/devel/tee-tpm-hyp/optee_os/lib/libutils/ext/snprintk.c:593
     ba0:	b127      	cbz	r7, bac <__vsnprintf+0x69c>
     ba2:	9c0e      	ldr	r4, [sp, #56]	; 0x38
     ba4:	42bc      	cmp	r4, r7
     ba6:	d901      	bls.n	bac <__vsnprintf+0x69c>
     ba8:	7039      	strb	r1, [r7, #0]
     baa:	3701      	adds	r7, #1
     bac:	3a01      	subs	r2, #1
     bae:	e696      	b.n	8de <__vsnprintf+0x3ce>
/home/hsk/Desktop/devel/tee-tpm-hyp/optee_os/lib/libutils/ext/snprintk.c:599
     bb0:	b127      	cbz	r7, bbc <__vsnprintf+0x6ac>
     bb2:	990e      	ldr	r1, [sp, #56]	; 0x38
     bb4:	42b9      	cmp	r1, r7
     bb6:	d901      	bls.n	bbc <__vsnprintf+0x6ac>
     bb8:	703a      	strb	r2, [r7, #0]
     bba:	3701      	adds	r7, #1
     bbc:	3801      	subs	r0, #1
     bbe:	e694      	b.n	8ea <__vsnprintf+0x3da>
/home/hsk/Desktop/devel/tee-tpm-hyp/optee_os/lib/libutils/ext/snprintk.c:603
     bc0:	b13f      	cbz	r7, bd2 <__vsnprintf+0x6c2>
     bc2:	990e      	ldr	r1, [sp, #56]	; 0x38
     bc4:	42b9      	cmp	r1, r7
     bc6:	d904      	bls.n	bd2 <__vsnprintf+0x6c2>
     bc8:	f81a 1002 	ldrb.w	r1, [sl, r2]
     bcc:	3701      	adds	r7, #1
     bce:	f807 1c01 	strb.w	r1, [r7, #-1]
     bd2:	3201      	adds	r2, #1
     bd4:	e68d      	b.n	8f2 <__vsnprintf+0x3e2>
__vsnprintf():
/home/hsk/Desktop/devel/tee-tpm-hyp/optee_os/lib/libutils/ext/snprintk.c:148
     bd6:	990c      	ldr	r1, [sp, #48]	; 0x30
     bd8:	5453      	strb	r3, [r2, r1]
/home/hsk/Desktop/devel/tee-tpm-hyp/optee_os/lib/libutils/ext/snprintk.c:150
     bda:	e4bf      	b.n	55c <__vsnprintf+0x4c>
kprintf():
/home/hsk/Desktop/devel/tee-tpm-hyp/optee_os/lib/libutils/ext/snprintk.c:489
     bdc:	f426 6680 	bic.w	r6, r6, #1024	; 0x400
/home/hsk/Desktop/devel/tee-tpm-hyp/optee_os/lib/libutils/ext/snprintk.c:482
     be0:	f04f 0900 	mov.w	r9, #0
/home/hsk/Desktop/devel/tee-tpm-hyp/optee_os/lib/libutils/ext/snprintk.c:476
     be4:	2302      	movs	r3, #2
     be6:	e5cc      	b.n	782 <__vsnprintf+0x272>
/home/hsk/Desktop/devel/tee-tpm-hyp/optee_os/lib/libutils/ext/snprintk.c:488
     be8:	9b0a      	ldr	r3, [sp, #40]	; 0x28
     bea:	3301      	adds	r3, #1
     bec:	d1f6      	bne.n	bdc <__vsnprintf+0x6cc>
     bee:	f04f 33ff 	mov.w	r3, #4294967295	; 0xffffffff
     bf2:	930a      	str	r3, [sp, #40]	; 0x28
     bf4:	e731      	b.n	a5a <__vsnprintf+0x54a>
     bf6:	bf00      	nop
     bf8:	000064cf 	.word	0x000064cf
     bfc:	0000644b 	.word	0x0000644b
     c00:	000061ac 	.word	0x000061ac
     c04:	0000613f 	.word	0x0000613f
     c08:	000060bd 	.word	0x000060bd

00000c0c <vsnprintk>:
vsnprintk():
/home/hsk/Desktop/devel/tee-tpm-hyp/optee_os/lib/libutils/ext/snprintk.c:129
     c0c:	b513      	push	{r0, r1, r4, lr}
/home/hsk/Desktop/devel/tee-tpm-hyp/optee_os/lib/libutils/ext/snprintk.c:130
     c0e:	2401      	movs	r4, #1
     c10:	9400      	str	r4, [sp, #0]
     c12:	f7ff fc7d 	bl	510 <__vsnprintf>
/home/hsk/Desktop/devel/tee-tpm-hyp/optee_os/lib/libutils/ext/snprintk.c:131
     c16:	b002      	add	sp, #8
     c18:	bd10      	pop	{r4, pc}

00000c1a <snprintk>:
snprintk():
/home/hsk/Desktop/devel/tee-tpm-hyp/optee_os/lib/libutils/ext/snprintk.c:112
     c1a:	b40c      	push	{r2, r3}
     c1c:	b507      	push	{r0, r1, r2, lr}
     c1e:	ab04      	add	r3, sp, #16
     c20:	f853 2b04 	ldr.w	r2, [r3], #4
/home/hsk/Desktop/devel/tee-tpm-hyp/optee_os/lib/libutils/ext/snprintk.c:116
     c24:	9301      	str	r3, [sp, #4]
/home/hsk/Desktop/devel/tee-tpm-hyp/optee_os/lib/libutils/ext/snprintk.c:117
     c26:	f7ff fff1 	bl	c0c <vsnprintk>
/home/hsk/Desktop/devel/tee-tpm-hyp/optee_os/lib/libutils/ext/snprintk.c:121
     c2a:	b003      	add	sp, #12
     c2c:	f85d eb04 	ldr.w	lr, [sp], #4
     c30:	b002      	add	sp, #8
     c32:	4770      	bx	lr

00000c34 <__aeabi_ldivmod>:
__aeabi_ldivmod():
/home/hsk/Desktop/devel/tee-tpm-hyp/optee_os/lib/libutils/isoc/arch/arm/arm32_aeabi_ldivmod_a32.S:24
     c34:	e92d5000 	push	{ip, lr}
/home/hsk/Desktop/devel/tee-tpm-hyp/optee_os/lib/libutils/isoc/arch/arm/arm32_aeabi_ldivmod_a32.S:26
     c38:	e92d000f 	push	{r0, r1, r2, r3}
/home/hsk/Desktop/devel/tee-tpm-hyp/optee_os/lib/libutils/isoc/arch/arm/arm32_aeabi_ldivmod_a32.S:28
     c3c:	e1a0000d 	mov	r0, sp
/home/hsk/Desktop/devel/tee-tpm-hyp/optee_os/lib/libutils/isoc/arch/arm/arm32_aeabi_ldivmod_a32.S:29
     c40:	fa001600 	blx	6448 <__l_divmod>
/home/hsk/Desktop/devel/tee-tpm-hyp/optee_os/lib/libutils/isoc/arch/arm/arm32_aeabi_ldivmod_a32.S:30
     c44:	e8bd000f 	pop	{r0, r1, r2, r3}
/home/hsk/Desktop/devel/tee-tpm-hyp/optee_os/lib/libutils/isoc/arch/arm/arm32_aeabi_ldivmod_a32.S:31
     c48:	e8bd9000 	pop	{ip, pc}

00000c4c <__aeabi_uldivmod>:
__aeabi_uldivmod():
/home/hsk/Desktop/devel/tee-tpm-hyp/optee_os/lib/libutils/isoc/arch/arm/arm32_aeabi_ldivmod_a32.S:42
     c4c:	e92d5000 	push	{ip, lr}
/home/hsk/Desktop/devel/tee-tpm-hyp/optee_os/lib/libutils/isoc/arch/arm/arm32_aeabi_ldivmod_a32.S:44
     c50:	e92d000f 	push	{r0, r1, r2, r3}
/home/hsk/Desktop/devel/tee-tpm-hyp/optee_os/lib/libutils/isoc/arch/arm/arm32_aeabi_ldivmod_a32.S:46
     c54:	e1a0000d 	mov	r0, sp
/home/hsk/Desktop/devel/tee-tpm-hyp/optee_os/lib/libutils/isoc/arch/arm/arm32_aeabi_ldivmod_a32.S:47
     c58:	fb0015dc 	blx	63d2 <__ul_divmod>
/home/hsk/Desktop/devel/tee-tpm-hyp/optee_os/lib/libutils/isoc/arch/arm/arm32_aeabi_ldivmod_a32.S:48
     c5c:	e8bd000f 	pop	{r0, r1, r2, r3}
/home/hsk/Desktop/devel/tee-tpm-hyp/optee_os/lib/libutils/isoc/arch/arm/arm32_aeabi_ldivmod_a32.S:49
     c60:	e8bd9000 	pop	{ip, pc}

00000c64 <trace_ext_puts>:
trace_ext_puts():
/home/hsk/Desktop/devel/tee-tpm-hyp/optee_os/lib/libutee/trace_ext.c:17
     c64:	b510      	push	{r4, lr}
     c66:	4604      	mov	r4, r0
/home/hsk/Desktop/devel/tee-tpm-hyp/optee_os/lib/libutee/trace_ext.c:18
     c68:	f005 fbab 	bl	63c2 <strlen>
     c6c:	4601      	mov	r1, r0
     c6e:	4620      	mov	r0, r4
/home/hsk/Desktop/devel/tee-tpm-hyp/optee_os/lib/libutee/trace_ext.c:19
     c70:	e8bd 4010 	ldmia.w	sp!, {r4, lr}
/home/hsk/Desktop/devel/tee-tpm-hyp/optee_os/lib/libutee/trace_ext.c:18
     c74:	f005 bcb0 	b.w	65d8 <__utee_log_from_thumb>

00000c78 <trace_ext_get_thread_id>:
trace_ext_get_thread_id():
/home/hsk/Desktop/devel/tee-tpm-hyp/optee_os/lib/libutee/trace_ext.c:24
     c78:	f04f 30ff 	mov.w	r0, #4294967295	; 0xffffffff
     c7c:	4770      	bx	lr

00000c7e <printf>:
printf():
/home/hsk/Desktop/devel/tee-tpm-hyp/optee_os/lib/libutee/trace_ext.c:32
     c7e:	b40f      	push	{r0, r1, r2, r3}
     c80:	b530      	push	{r4, r5, lr}
     c82:	b0c3      	sub	sp, #268	; 0x10c
/home/hsk/Desktop/devel/tee-tpm-hyp/optee_os/lib/libutee/trace_ext.c:37
     c84:	f7ff fb20 	bl	2c8 <trace_get_level>
     c88:	2800      	cmp	r0, #0
     c8a:	dd13      	ble.n	cb4 <printf+0x36>
/home/hsk/Desktop/devel/tee-tpm-hyp/optee_os/lib/libutee/trace_ext.c:41
     c8c:	ad02      	add	r5, sp, #8
/home/hsk/Desktop/devel/tee-tpm-hyp/optee_os/lib/libutee/trace_ext.c:40
     c8e:	ab47      	add	r3, sp, #284	; 0x11c
/home/hsk/Desktop/devel/tee-tpm-hyp/optee_os/lib/libutee/trace_ext.c:41
     c90:	9a46      	ldr	r2, [sp, #280]	; 0x118
     c92:	f44f 7180 	mov.w	r1, #256	; 0x100
     c96:	4628      	mov	r0, r5
/home/hsk/Desktop/devel/tee-tpm-hyp/optee_os/lib/libutee/trace_ext.c:40
     c98:	9301      	str	r3, [sp, #4]
/home/hsk/Desktop/devel/tee-tpm-hyp/optee_os/lib/libutee/trace_ext.c:41
     c9a:	f005 fc5a 	bl	6552 <vsnprintf>
/home/hsk/Desktop/devel/tee-tpm-hyp/optee_os/lib/libutee/trace_ext.c:44
     c9e:	1e04      	subs	r4, r0, #0
     ca0:	db02      	blt.n	ca8 <printf+0x2a>
/home/hsk/Desktop/devel/tee-tpm-hyp/optee_os/lib/libutee/trace_ext.c:47
     ca2:	4628      	mov	r0, r5
     ca4:	f7ff ffde 	bl	c64 <trace_ext_puts>
/home/hsk/Desktop/devel/tee-tpm-hyp/optee_os/lib/libutee/trace_ext.c:50
     ca8:	4620      	mov	r0, r4
     caa:	b043      	add	sp, #268	; 0x10c
     cac:	e8bd 4030 	ldmia.w	sp!, {r4, r5, lr}
     cb0:	b004      	add	sp, #16
     cb2:	4770      	bx	lr
/home/hsk/Desktop/devel/tee-tpm-hyp/optee_os/lib/libutee/trace_ext.c:38
     cb4:	2400      	movs	r4, #0
     cb6:	e7f7      	b.n	ca8 <printf+0x2a>

00000cb8 <puts>:
puts():
/home/hsk/Desktop/devel/tee-tpm-hyp/optee_os/lib/libutee/trace_ext.c:53
     cb8:	b510      	push	{r4, lr}
     cba:	4604      	mov	r4, r0
/home/hsk/Desktop/devel/tee-tpm-hyp/optee_os/lib/libutee/trace_ext.c:54
     cbc:	f7ff fb04 	bl	2c8 <trace_get_level>
     cc0:	2800      	cmp	r0, #0
     cc2:	dd06      	ble.n	cd2 <puts+0x1a>
/home/hsk/Desktop/devel/tee-tpm-hyp/optee_os/lib/libutee/trace_ext.c:55
     cc4:	4620      	mov	r0, r4
     cc6:	f7ff ffcd 	bl	c64 <trace_ext_puts>
/home/hsk/Desktop/devel/tee-tpm-hyp/optee_os/lib/libutee/trace_ext.c:56
     cca:	4803      	ldr	r0, [pc, #12]	; (cd8 <puts+0x20>)
     ccc:	4478      	add	r0, pc
     cce:	f7ff ffc9 	bl	c64 <trace_ext_puts>
/home/hsk/Desktop/devel/tee-tpm-hyp/optee_os/lib/libutee/trace_ext.c:59
     cd2:	2001      	movs	r0, #1
     cd4:	bd10      	pop	{r4, pc}
     cd6:	bf00      	nop
     cd8:	000065aa 	.word	0x000065aa

00000cdc <putchar>:
putchar():
/home/hsk/Desktop/devel/tee-tpm-hyp/optee_os/lib/libutee/trace_ext.c:62
     cdc:	b513      	push	{r0, r1, r4, lr}
/home/hsk/Desktop/devel/tee-tpm-hyp/optee_os/lib/libutee/trace_ext.c:63
     cde:	2300      	movs	r3, #0
/home/hsk/Desktop/devel/tee-tpm-hyp/optee_os/lib/libutee/trace_ext.c:62
     ce0:	4604      	mov	r4, r0
/home/hsk/Desktop/devel/tee-tpm-hyp/optee_os/lib/libutee/trace_ext.c:63
     ce2:	f88d 0004 	strb.w	r0, [sp, #4]
     ce6:	f88d 3005 	strb.w	r3, [sp, #5]
/home/hsk/Desktop/devel/tee-tpm-hyp/optee_os/lib/libutee/trace_ext.c:65
     cea:	f7ff faed 	bl	2c8 <trace_get_level>
     cee:	2800      	cmp	r0, #0
     cf0:	dd02      	ble.n	cf8 <putchar+0x1c>
/home/hsk/Desktop/devel/tee-tpm-hyp/optee_os/lib/libutee/trace_ext.c:66
     cf2:	a801      	add	r0, sp, #4
     cf4:	f7ff ffb6 	bl	c64 <trace_ext_puts>
/home/hsk/Desktop/devel/tee-tpm-hyp/optee_os/lib/libutee/trace_ext.c:73
     cf8:	b2e0      	uxtb	r0, r4
     cfa:	b002      	add	sp, #8
     cfc:	bd10      	pop	{r4, pc}
     cfe:	bf00      	nop

00000d00 <__utee_from_param>:
__utee_from_param():
/home/hsk/Desktop/devel/tee-tpm-hyp/optee_os/lib/libutee/tee_api.c:23
     d00:	2300      	movs	r3, #0
/home/hsk/Desktop/devel/tee-tpm-hyp/optee_os/lib/libutee/tee_api.c:20
     d02:	b5f0      	push	{r4, r5, r6, r7, lr}
/home/hsk/Desktop/devel/tee-tpm-hyp/optee_os/lib/libutee/tee_api.c:39
     d04:	2600      	movs	r6, #0
     d06:	2700      	movs	r7, #0
/home/hsk/Desktop/devel/tee-tpm-hyp/optee_os/lib/libutee/tee_api.c:35
     d08:	461d      	mov	r5, r3
/home/hsk/Desktop/devel/tee-tpm-hyp/optee_os/lib/libutee/tee_api.c:23
     d0a:	e9c0 1300 	strd	r1, r3, [r0]
/home/hsk/Desktop/devel/tee-tpm-hyp/optee_os/lib/libutee/tee_api.c:25
     d0e:	fa21 f403 	lsr.w	r4, r1, r3
     d12:	f004 040f 	and.w	r4, r4, #15
     d16:	3c01      	subs	r4, #1
     d18:	2c06      	cmp	r4, #6
     d1a:	d813      	bhi.n	d44 <__utee_from_param+0x44>
     d1c:	e8df f004 	tbb	[pc, r4]
     d20:	12040404 	.word	0x12040404
     d24:	0404      	.short	0x0404
     d26:	04          	.byte	0x04
     d27:	00          	.byte	0x00
/home/hsk/Desktop/devel/tee-tpm-hyp/optee_os/lib/libutee/tee_api.c:35
     d28:	f852 4013 	ldr.w	r4, [r2, r3, lsl #1]
     d2c:	e9c0 4502 	strd	r4, r5, [r0, #8]
/home/hsk/Desktop/devel/tee-tpm-hyp/optee_os/lib/libutee/tee_api.c:36
     d30:	eb02 0443 	add.w	r4, r2, r3, lsl #1
     d34:	6864      	ldr	r4, [r4, #4]
     d36:	e9c0 4504 	strd	r4, r5, [r0, #16]
     d3a:	3304      	adds	r3, #4
     d3c:	3010      	adds	r0, #16
/home/hsk/Desktop/devel/tee-tpm-hyp/optee_os/lib/libutee/tee_api.c:24 (discriminator 2)
     d3e:	2b10      	cmp	r3, #16
     d40:	d1e5      	bne.n	d0e <__utee_from_param+0xe>
/home/hsk/Desktop/devel/tee-tpm-hyp/optee_os/lib/libutee/tee_api.c:44
     d42:	bdf0      	pop	{r4, r5, r6, r7, pc}
/home/hsk/Desktop/devel/tee-tpm-hyp/optee_os/lib/libutee/tee_api.c:39
     d44:	e9c0 6702 	strd	r6, r7, [r0, #8]
/home/hsk/Desktop/devel/tee-tpm-hyp/optee_os/lib/libutee/tee_api.c:40
     d48:	e9c0 6704 	strd	r6, r7, [r0, #16]
/home/hsk/Desktop/devel/tee-tpm-hyp/optee_os/lib/libutee/tee_api.c:41
     d4c:	e7f5      	b.n	d3a <__utee_from_param+0x3a>

00000d4e <__utee_to_param>:
__utee_to_param():
/home/hsk/Desktop/devel/tee-tpm-hyp/optee_os/lib/libutee/tee_api.c:48
     d4e:	b5f0      	push	{r4, r5, r6, r7, lr}
/home/hsk/Desktop/devel/tee-tpm-hyp/optee_os/lib/libutee/tee_api.c:50
     d50:	2300      	movs	r3, #0
     d52:	6815      	ldr	r5, [r2, #0]
/home/hsk/Desktop/devel/tee-tpm-hyp/optee_os/lib/libutee/tee_api.c:56
     d54:	fa25 f403 	lsr.w	r4, r5, r3
/home/hsk/Desktop/devel/tee-tpm-hyp/optee_os/lib/libutee/tee_api.c:53
     d58:	6897      	ldr	r7, [r2, #8]
/home/hsk/Desktop/devel/tee-tpm-hyp/optee_os/lib/libutee/tee_api.c:56
     d5a:	f004 040f 	and.w	r4, r4, #15
/home/hsk/Desktop/devel/tee-tpm-hyp/optee_os/lib/libutee/tee_api.c:54
     d5e:	6916      	ldr	r6, [r2, #16]
/home/hsk/Desktop/devel/tee-tpm-hyp/optee_os/lib/libutee/tee_api.c:56
     d60:	3c01      	subs	r4, #1
     d62:	2c06      	cmp	r4, #6
     d64:	d80a      	bhi.n	d7c <__utee_to_param+0x2e>
     d66:	e8df f004 	tbb	[pc, r4]
     d6a:	0404      	.short	0x0404
     d6c:	04040904 	.word	0x04040904
     d70:	04          	.byte	0x04
     d71:	00          	.byte	0x00
/home/hsk/Desktop/devel/tee-tpm-hyp/optee_os/lib/libutee/tee_api.c:67
     d72:	eb00 0443 	add.w	r4, r0, r3, lsl #1
/home/hsk/Desktop/devel/tee-tpm-hyp/optee_os/lib/libutee/tee_api.c:66
     d76:	f840 7013 	str.w	r7, [r0, r3, lsl #1]
/home/hsk/Desktop/devel/tee-tpm-hyp/optee_os/lib/libutee/tee_api.c:67
     d7a:	6066      	str	r6, [r4, #4]
     d7c:	3304      	adds	r3, #4
     d7e:	3210      	adds	r2, #16
/home/hsk/Desktop/devel/tee-tpm-hyp/optee_os/lib/libutee/tee_api.c:52 (discriminator 2)
     d80:	2b10      	cmp	r3, #16
     d82:	d1e7      	bne.n	d54 <__utee_to_param+0x6>
/home/hsk/Desktop/devel/tee-tpm-hyp/optee_os/lib/libutee/tee_api.c:74
     d84:	b101      	cbz	r1, d88 <__utee_to_param+0x3a>
/home/hsk/Desktop/devel/tee-tpm-hyp/optee_os/lib/libutee/tee_api.c:75
     d86:	600d      	str	r5, [r1, #0]
/home/hsk/Desktop/devel/tee-tpm-hyp/optee_os/lib/libutee/tee_api.c:76
     d88:	bdf0      	pop	{r4, r5, r6, r7, pc}

00000d8a <TEE_OpenTASession>:
TEE_OpenTASession():
/home/hsk/Desktop/devel/tee-tpm-hyp/optee_os/lib/libutee/tee_api.c:84
     d8a:	b5f0      	push	{r4, r5, r6, r7, lr}
     d8c:	4605      	mov	r5, r0
     d8e:	460f      	mov	r7, r1
     d90:	b097      	sub	sp, #92	; 0x5c
     d92:	4611      	mov	r1, r2
/home/hsk/Desktop/devel/tee-tpm-hyp/optee_os/lib/libutee/tee_api.c:89
     d94:	ac04      	add	r4, sp, #16
     d96:	461a      	mov	r2, r3
     d98:	4620      	mov	r0, r4
/home/hsk/Desktop/devel/tee-tpm-hyp/optee_os/lib/libutee/tee_api.c:84
     d9a:	461e      	mov	r6, r3
/home/hsk/Desktop/devel/tee-tpm-hyp/optee_os/lib/libutee/tee_api.c:89
     d9c:	f7ff ffb0 	bl	d00 <__utee_from_param>
/home/hsk/Desktop/devel/tee-tpm-hyp/optee_os/lib/libutee/tee_api.c:90
     da0:	9b1d      	ldr	r3, [sp, #116]	; 0x74
     da2:	9300      	str	r3, [sp, #0]
     da4:	4622      	mov	r2, r4
     da6:	4639      	mov	r1, r7
     da8:	4628      	mov	r0, r5
     daa:	ab03      	add	r3, sp, #12
     dac:	f000 ee36 	blx	1a1c <utee_open_ta_session>
/home/hsk/Desktop/devel/tee-tpm-hyp/optee_os/lib/libutee/tee_api.c:92
     db0:	4622      	mov	r2, r4
/home/hsk/Desktop/devel/tee-tpm-hyp/optee_os/lib/libutee/tee_api.c:90
     db2:	4605      	mov	r5, r0
/home/hsk/Desktop/devel/tee-tpm-hyp/optee_os/lib/libutee/tee_api.c:92
     db4:	2100      	movs	r1, #0
     db6:	4630      	mov	r0, r6
     db8:	f7ff ffc9 	bl	d4e <__utee_to_param>
/home/hsk/Desktop/devel/tee-tpm-hyp/optee_os/lib/libutee/tee_api.c:98
     dbc:	b10d      	cbz	r5, dc2 <TEE_OpenTASession+0x38>
/home/hsk/Desktop/devel/tee-tpm-hyp/optee_os/lib/libutee/tee_api.c:99
     dbe:	2300      	movs	r3, #0
     dc0:	9303      	str	r3, [sp, #12]
/home/hsk/Desktop/devel/tee-tpm-hyp/optee_os/lib/libutee/tee_api.c:101
     dc2:	9b1c      	ldr	r3, [sp, #112]	; 0x70
/home/hsk/Desktop/devel/tee-tpm-hyp/optee_os/lib/libutee/tee_api.c:103
     dc4:	4628      	mov	r0, r5
/home/hsk/Desktop/devel/tee-tpm-hyp/optee_os/lib/libutee/tee_api.c:101
     dc6:	9a03      	ldr	r2, [sp, #12]
     dc8:	601a      	str	r2, [r3, #0]
/home/hsk/Desktop/devel/tee-tpm-hyp/optee_os/lib/libutee/tee_api.c:103
     dca:	b017      	add	sp, #92	; 0x5c
     dcc:	bdf0      	pop	{r4, r5, r6, r7, pc}

00000dce <TEE_CloseTASession>:
TEE_CloseTASession():
/home/hsk/Desktop/devel/tee-tpm-hyp/optee_os/lib/libutee/tee_api.c:106
     dce:	b508      	push	{r3, lr}
/home/hsk/Desktop/devel/tee-tpm-hyp/optee_os/lib/libutee/tee_api.c:107
     dd0:	b130      	cbz	r0, de0 <TEE_CloseTASession+0x12>
/home/hsk/Desktop/devel/tee-tpm-hyp/optee_os/lib/libutee/tee_api.c:108
     dd2:	f000 ee30 	blx	1a34 <utee_close_ta_session>
/home/hsk/Desktop/devel/tee-tpm-hyp/optee_os/lib/libutee/tee_api.c:110
     dd6:	b118      	cbz	r0, de0 <TEE_CloseTASession+0x12>
/home/hsk/Desktop/devel/tee-tpm-hyp/optee_os/lib/libutee/tee_api.c:113
     dd8:	e8bd 4008 	ldmia.w	sp!, {r3, lr}
/home/hsk/Desktop/devel/tee-tpm-hyp/optee_os/lib/libutee/tee_api.c:111
     ddc:	f005 bba8 	b.w	6530 <TEE_Panic>
/home/hsk/Desktop/devel/tee-tpm-hyp/optee_os/lib/libutee/tee_api.c:113
     de0:	bd08      	pop	{r3, pc}

00000de2 <TEE_InvokeTACommand>:
TEE_InvokeTACommand():
/home/hsk/Desktop/devel/tee-tpm-hyp/optee_os/lib/libutee/tee_api.c:120
     de2:	e92d 41f0 	stmdb	sp!, {r4, r5, r6, r7, r8, lr}
     de6:	4604      	mov	r4, r0
     de8:	460f      	mov	r7, r1
     dea:	b096      	sub	sp, #88	; 0x58
/home/hsk/Desktop/devel/tee-tpm-hyp/optee_os/lib/libutee/tee_api.c:125
     dec:	4619      	mov	r1, r3
     dee:	ad04      	add	r5, sp, #16
/home/hsk/Desktop/devel/tee-tpm-hyp/optee_os/lib/libutee/tee_api.c:120
     df0:	4690      	mov	r8, r2
/home/hsk/Desktop/devel/tee-tpm-hyp/optee_os/lib/libutee/tee_api.c:125
     df2:	4628      	mov	r0, r5
/home/hsk/Desktop/devel/tee-tpm-hyp/optee_os/lib/libutee/tee_api.c:120
     df4:	9e1d      	ldr	r6, [sp, #116]	; 0x74
/home/hsk/Desktop/devel/tee-tpm-hyp/optee_os/lib/libutee/tee_api.c:125
     df6:	9a1c      	ldr	r2, [sp, #112]	; 0x70
     df8:	f7ff ff82 	bl	d00 <__utee_from_param>
/home/hsk/Desktop/devel/tee-tpm-hyp/optee_os/lib/libutee/tee_api.c:126
     dfc:	ab03      	add	r3, sp, #12
     dfe:	4642      	mov	r2, r8
     e00:	9300      	str	r3, [sp, #0]
     e02:	4639      	mov	r1, r7
     e04:	462b      	mov	r3, r5
     e06:	4620      	mov	r0, r4
     e08:	f000 ee1e 	blx	1a48 <utee_invoke_ta_command>
/home/hsk/Desktop/devel/tee-tpm-hyp/optee_os/lib/libutee/tee_api.c:129
     e0c:	462a      	mov	r2, r5
/home/hsk/Desktop/devel/tee-tpm-hyp/optee_os/lib/libutee/tee_api.c:126
     e0e:	4604      	mov	r4, r0
/home/hsk/Desktop/devel/tee-tpm-hyp/optee_os/lib/libutee/tee_api.c:129
     e10:	2100      	movs	r1, #0
     e12:	981c      	ldr	r0, [sp, #112]	; 0x70
     e14:	f7ff ff9b 	bl	d4e <__utee_to_param>
     e18:	9b03      	ldr	r3, [sp, #12]
/home/hsk/Desktop/devel/tee-tpm-hyp/optee_os/lib/libutee/tee_api.c:131
     e1a:	b106      	cbz	r6, e1e <TEE_InvokeTACommand+0x3c>
/home/hsk/Desktop/devel/tee-tpm-hyp/optee_os/lib/libutee/tee_api.c:132
     e1c:	6033      	str	r3, [r6, #0]
/home/hsk/Desktop/devel/tee-tpm-hyp/optee_os/lib/libutee/tee_api.c:134
     e1e:	2b04      	cmp	r3, #4
     e20:	d009      	beq.n	e36 <TEE_InvokeTACommand+0x54>
/home/hsk/Desktop/devel/tee-tpm-hyp/optee_os/lib/libutee/tee_api.c:137
     e22:	b144      	cbz	r4, e36 <TEE_InvokeTACommand+0x54>
/home/hsk/Desktop/devel/tee-tpm-hyp/optee_os/lib/libutee/tee_api.c:137 (discriminator 1)
     e24:	4b06      	ldr	r3, [pc, #24]	; (e40 <TEE_InvokeTACommand+0x5e>)
     e26:	429c      	cmp	r4, r3
     e28:	d005      	beq.n	e36 <TEE_InvokeTACommand+0x54>
/home/hsk/Desktop/devel/tee-tpm-hyp/optee_os/lib/libutee/tee_api.c:138
     e2a:	4b06      	ldr	r3, [pc, #24]	; (e44 <TEE_InvokeTACommand+0x62>)
     e2c:	429c      	cmp	r4, r3
     e2e:	d002      	beq.n	e36 <TEE_InvokeTACommand+0x54>
/home/hsk/Desktop/devel/tee-tpm-hyp/optee_os/lib/libutee/tee_api.c:140
     e30:	4620      	mov	r0, r4
     e32:	f005 fb7d 	bl	6530 <TEE_Panic>
/home/hsk/Desktop/devel/tee-tpm-hyp/optee_os/lib/libutee/tee_api.c:143
     e36:	4620      	mov	r0, r4
     e38:	b016      	add	sp, #88	; 0x58
     e3a:	e8bd 81f0 	ldmia.w	sp!, {r4, r5, r6, r7, r8, pc}
     e3e:	bf00      	nop
     e40:	ffff000c 	.word	0xffff000c
     e44:	ffff3024 	.word	0xffff3024

00000e48 <TEE_GetCancellationFlag>:
TEE_GetCancellationFlag():
/home/hsk/Desktop/devel/tee-tpm-hyp/optee_os/lib/libutee/tee_api.c:148
     e48:	b507      	push	{r0, r1, r2, lr}
/home/hsk/Desktop/devel/tee-tpm-hyp/optee_os/lib/libutee/tee_api.c:150
     e4a:	a801      	add	r0, sp, #4
     e4c:	f000 ee08 	blx	1a60 <utee_get_cancellation_flag>
/home/hsk/Desktop/devel/tee-tpm-hyp/optee_os/lib/libutee/tee_api.c:152
     e50:	b108      	cbz	r0, e56 <TEE_GetCancellationFlag+0xe>
/home/hsk/Desktop/devel/tee-tpm-hyp/optee_os/lib/libutee/tee_api.c:153
     e52:	2300      	movs	r3, #0
     e54:	9301      	str	r3, [sp, #4]
/home/hsk/Desktop/devel/tee-tpm-hyp/optee_os/lib/libutee/tee_api.c:155
     e56:	9801      	ldr	r0, [sp, #4]
     e58:	3000      	adds	r0, #0
     e5a:	bf18      	it	ne
     e5c:	2001      	movne	r0, #1
     e5e:	b003      	add	sp, #12
     e60:	f85d fb04 	ldr.w	pc, [sp], #4

00000e64 <TEE_UnmaskCancellation>:
TEE_UnmaskCancellation():
/home/hsk/Desktop/devel/tee-tpm-hyp/optee_os/lib/libutee/tee_api.c:158
     e64:	b507      	push	{r0, r1, r2, lr}
/home/hsk/Desktop/devel/tee-tpm-hyp/optee_os/lib/libutee/tee_api.c:160
     e66:	a801      	add	r0, sp, #4
     e68:	f000 ee0e 	blx	1a88 <utee_unmask_cancellation>
/home/hsk/Desktop/devel/tee-tpm-hyp/optee_os/lib/libutee/tee_api.c:162
     e6c:	b108      	cbz	r0, e72 <TEE_UnmaskCancellation+0xe>
/home/hsk/Desktop/devel/tee-tpm-hyp/optee_os/lib/libutee/tee_api.c:163
     e6e:	f005 fb5f 	bl	6530 <TEE_Panic>
/home/hsk/Desktop/devel/tee-tpm-hyp/optee_os/lib/libutee/tee_api.c:165
     e72:	9801      	ldr	r0, [sp, #4]
     e74:	3000      	adds	r0, #0
     e76:	bf18      	it	ne
     e78:	2001      	movne	r0, #1
     e7a:	b003      	add	sp, #12
     e7c:	f85d fb04 	ldr.w	pc, [sp], #4

00000e80 <TEE_MaskCancellation>:
TEE_MaskCancellation():
/home/hsk/Desktop/devel/tee-tpm-hyp/optee_os/lib/libutee/tee_api.c:168
     e80:	b507      	push	{r0, r1, r2, lr}
/home/hsk/Desktop/devel/tee-tpm-hyp/optee_os/lib/libutee/tee_api.c:170
     e82:	a801      	add	r0, sp, #4
     e84:	f000 ee0a 	blx	1a9c <utee_mask_cancellation>
/home/hsk/Desktop/devel/tee-tpm-hyp/optee_os/lib/libutee/tee_api.c:172
     e88:	b108      	cbz	r0, e8e <TEE_MaskCancellation+0xe>
/home/hsk/Desktop/devel/tee-tpm-hyp/optee_os/lib/libutee/tee_api.c:173
     e8a:	f005 fb51 	bl	6530 <TEE_Panic>
/home/hsk/Desktop/devel/tee-tpm-hyp/optee_os/lib/libutee/tee_api.c:175
     e8e:	9801      	ldr	r0, [sp, #4]
     e90:	3000      	adds	r0, #0
     e92:	bf18      	it	ne
     e94:	2001      	movne	r0, #1
     e96:	b003      	add	sp, #12
     e98:	f85d fb04 	ldr.w	pc, [sp], #4

00000e9c <TEE_CheckMemoryAccessRights>:
TEE_CheckMemoryAccessRights():
/home/hsk/Desktop/devel/tee-tpm-hyp/optee_os/lib/libutee/tee_api.c:184
     e9c:	b10a      	cbz	r2, ea2 <TEE_CheckMemoryAccessRights+0x6>
/home/hsk/Desktop/devel/tee-tpm-hyp/optee_os/lib/libutee/tee_api.c:188
     e9e:	f005 bbab 	b.w	65f8 <__utee_check_access_rights_from_thumb>
/home/hsk/Desktop/devel/tee-tpm-hyp/optee_os/lib/libutee/tee_api.c:200
     ea2:	4610      	mov	r0, r2
     ea4:	4770      	bx	lr

00000ea6 <TEE_SetInstanceData>:
TEE_SetInstanceData():
/home/hsk/Desktop/devel/tee-tpm-hyp/optee_os/lib/libutee/tee_api.c:204
     ea6:	4b02      	ldr	r3, [pc, #8]	; (eb0 <TEE_SetInstanceData+0xa>)
     ea8:	447b      	add	r3, pc
     eaa:	6018      	str	r0, [r3, #0]
/home/hsk/Desktop/devel/tee-tpm-hyp/optee_os/lib/libutee/tee_api.c:205
     eac:	4770      	bx	lr
     eae:	bf00      	nop
     eb0:	000081ec 	.word	0x000081ec

00000eb4 <TEE_GetInstanceData>:
TEE_GetInstanceData():
/home/hsk/Desktop/devel/tee-tpm-hyp/optee_os/lib/libutee/tee_api.c:210
     eb4:	4b01      	ldr	r3, [pc, #4]	; (ebc <TEE_GetInstanceData+0x8>)
     eb6:	447b      	add	r3, pc
     eb8:	6818      	ldr	r0, [r3, #0]
     eba:	4770      	bx	lr
     ebc:	000081de 	.word	0x000081de

00000ec0 <TEE_MemMove>:
TEE_MemMove():
/home/hsk/Desktop/devel/tee-tpm-hyp/optee_os/lib/libutee/tee_api.c:214
     ec0:	f005 bb68 	b.w	6594 <memmove>

00000ec4 <TEE_MemCompare>:
TEE_MemCompare():
/home/hsk/Desktop/devel/tee-tpm-hyp/optee_os/lib/libutee/tee_api.c:219
     ec4:	f005 bb4c 	b.w	6560 <memcmp>

00000ec8 <TEE_MemFill>:
TEE_MemFill():
/home/hsk/Desktop/devel/tee-tpm-hyp/optee_os/lib/libutee/tee_api.c:224
     ec8:	f005 bb7d 	b.w	65c6 <memset>

00000ecc <TEE_GetSystemTime>:
TEE_GetSystemTime():
/home/hsk/Desktop/devel/tee-tpm-hyp/optee_os/lib/libutee/tee_api.c:230
     ecc:	b508      	push	{r3, lr}
/home/hsk/Desktop/devel/tee-tpm-hyp/optee_os/lib/libutee/tee_api.c:231
     ece:	4601      	mov	r1, r0
     ed0:	2000      	movs	r0, #0
     ed2:	f000 edf8 	blx	1ac4 <utee_get_time>
/home/hsk/Desktop/devel/tee-tpm-hyp/optee_os/lib/libutee/tee_api.c:233
     ed6:	b118      	cbz	r0, ee0 <TEE_GetSystemTime+0x14>
/home/hsk/Desktop/devel/tee-tpm-hyp/optee_os/lib/libutee/tee_api.c:235
     ed8:	e8bd 4008 	ldmia.w	sp!, {r3, lr}
/home/hsk/Desktop/devel/tee-tpm-hyp/optee_os/lib/libutee/tee_api.c:234
     edc:	f005 bb28 	b.w	6530 <TEE_Panic>
/home/hsk/Desktop/devel/tee-tpm-hyp/optee_os/lib/libutee/tee_api.c:235
     ee0:	bd08      	pop	{r3, pc}

00000ee2 <TEE_Wait>:
TEE_Wait():
/home/hsk/Desktop/devel/tee-tpm-hyp/optee_os/lib/libutee/tee_api.c:238
     ee2:	b510      	push	{r4, lr}
/home/hsk/Desktop/devel/tee-tpm-hyp/optee_os/lib/libutee/tee_api.c:239
     ee4:	f000 ede4 	blx	1ab0 <utee_wait>
/home/hsk/Desktop/devel/tee-tpm-hyp/optee_os/lib/libutee/tee_api.c:241
     ee8:	4604      	mov	r4, r0
     eea:	b120      	cbz	r0, ef6 <TEE_Wait+0x14>
/home/hsk/Desktop/devel/tee-tpm-hyp/optee_os/lib/libutee/tee_api.c:241 (discriminator 1)
     eec:	4b03      	ldr	r3, [pc, #12]	; (efc <TEE_Wait+0x1a>)
     eee:	4298      	cmp	r0, r3
     ef0:	d001      	beq.n	ef6 <TEE_Wait+0x14>
/home/hsk/Desktop/devel/tee-tpm-hyp/optee_os/lib/libutee/tee_api.c:242
     ef2:	f005 fb1d 	bl	6530 <TEE_Panic>
/home/hsk/Desktop/devel/tee-tpm-hyp/optee_os/lib/libutee/tee_api.c:245
     ef6:	4620      	mov	r0, r4
     ef8:	bd10      	pop	{r4, pc}
     efa:	bf00      	nop
     efc:	ffff0002 	.word	0xffff0002

00000f00 <TEE_GetTAPersistentTime>:
TEE_GetTAPersistentTime():
/home/hsk/Desktop/devel/tee-tpm-hyp/optee_os/lib/libutee/tee_api.c:248
     f00:	b538      	push	{r3, r4, r5, lr}
/home/hsk/Desktop/devel/tee-tpm-hyp/optee_os/lib/libutee/tee_api.c:251
     f02:	4601      	mov	r1, r0
/home/hsk/Desktop/devel/tee-tpm-hyp/optee_os/lib/libutee/tee_api.c:248
     f04:	4605      	mov	r5, r0
/home/hsk/Desktop/devel/tee-tpm-hyp/optee_os/lib/libutee/tee_api.c:251
     f06:	2001      	movs	r0, #1
     f08:	f000 eddc 	blx	1ac4 <utee_get_time>
/home/hsk/Desktop/devel/tee-tpm-hyp/optee_os/lib/libutee/tee_api.c:253
     f0c:	4604      	mov	r4, r0
     f0e:	b170      	cbz	r0, f2e <TEE_GetTAPersistentTime+0x2e>
/home/hsk/Desktop/devel/tee-tpm-hyp/optee_os/lib/libutee/tee_api.c:253 (discriminator 1)
     f10:	4b08      	ldr	r3, [pc, #32]	; (f34 <TEE_GetTAPersistentTime+0x34>)
     f12:	4298      	cmp	r0, r3
     f14:	d00b      	beq.n	f2e <TEE_GetTAPersistentTime+0x2e>
/home/hsk/Desktop/devel/tee-tpm-hyp/optee_os/lib/libutee/tee_api.c:254
     f16:	2300      	movs	r3, #0
     f18:	602b      	str	r3, [r5, #0]
/home/hsk/Desktop/devel/tee-tpm-hyp/optee_os/lib/libutee/tee_api.c:255
     f1a:	606b      	str	r3, [r5, #4]
/home/hsk/Desktop/devel/tee-tpm-hyp/optee_os/lib/libutee/tee_api.c:258
     f1c:	f500 4330 	add.w	r3, r0, #45056	; 0xb000
     f20:	2b01      	cmp	r3, #1
     f22:	d904      	bls.n	f2e <TEE_GetTAPersistentTime+0x2e>
/home/hsk/Desktop/devel/tee-tpm-hyp/optee_os/lib/libutee/tee_api.c:261
     f24:	4b04      	ldr	r3, [pc, #16]	; (f38 <TEE_GetTAPersistentTime+0x38>)
     f26:	4298      	cmp	r0, r3
     f28:	d001      	beq.n	f2e <TEE_GetTAPersistentTime+0x2e>
/home/hsk/Desktop/devel/tee-tpm-hyp/optee_os/lib/libutee/tee_api.c:263
     f2a:	f005 fb01 	bl	6530 <TEE_Panic>
/home/hsk/Desktop/devel/tee-tpm-hyp/optee_os/lib/libutee/tee_api.c:266
     f2e:	4620      	mov	r0, r4
     f30:	bd38      	pop	{r3, r4, r5, pc}
     f32:	bf00      	nop
     f34:	ffff300f 	.word	0xffff300f
     f38:	ffff000c 	.word	0xffff000c

00000f3c <TEE_SetTAPersistentTime>:
TEE_SetTAPersistentTime():
/home/hsk/Desktop/devel/tee-tpm-hyp/optee_os/lib/libutee/tee_api.c:269
     f3c:	b510      	push	{r4, lr}
/home/hsk/Desktop/devel/tee-tpm-hyp/optee_os/lib/libutee/tee_api.c:272
     f3e:	f000 edcc 	blx	1ad8 <utee_set_ta_time>
/home/hsk/Desktop/devel/tee-tpm-hyp/optee_os/lib/libutee/tee_api.c:274
     f42:	4604      	mov	r4, r0
     f44:	b138      	cbz	r0, f56 <TEE_SetTAPersistentTime+0x1a>
/home/hsk/Desktop/devel/tee-tpm-hyp/optee_os/lib/libutee/tee_api.c:274 (discriminator 1)
     f46:	4b05      	ldr	r3, [pc, #20]	; (f5c <TEE_SetTAPersistentTime+0x20>)
     f48:	4298      	cmp	r0, r3
     f4a:	d004      	beq.n	f56 <TEE_SetTAPersistentTime+0x1a>
/home/hsk/Desktop/devel/tee-tpm-hyp/optee_os/lib/libutee/tee_api.c:275
     f4c:	4b04      	ldr	r3, [pc, #16]	; (f60 <TEE_SetTAPersistentTime+0x24>)
     f4e:	4298      	cmp	r0, r3
     f50:	d001      	beq.n	f56 <TEE_SetTAPersistentTime+0x1a>
/home/hsk/Desktop/devel/tee-tpm-hyp/optee_os/lib/libutee/tee_api.c:277
     f52:	f005 faed 	bl	6530 <TEE_Panic>
/home/hsk/Desktop/devel/tee-tpm-hyp/optee_os/lib/libutee/tee_api.c:280
     f56:	4620      	mov	r0, r4
     f58:	bd10      	pop	{r4, pc}
     f5a:	bf00      	nop
     f5c:	ffff000c 	.word	0xffff000c
     f60:	ffff3041 	.word	0xffff3041

00000f64 <TEE_GetREETime>:
TEE_GetREETime():
/home/hsk/Desktop/devel/tee-tpm-hyp/optee_os/lib/libutee/tee_api.c:283
     f64:	b508      	push	{r3, lr}
/home/hsk/Desktop/devel/tee-tpm-hyp/optee_os/lib/libutee/tee_api.c:284
     f66:	4601      	mov	r1, r0
     f68:	2002      	movs	r0, #2
     f6a:	f000 edac 	blx	1ac4 <utee_get_time>
/home/hsk/Desktop/devel/tee-tpm-hyp/optee_os/lib/libutee/tee_api.c:286
     f6e:	b118      	cbz	r0, f78 <TEE_GetREETime+0x14>
/home/hsk/Desktop/devel/tee-tpm-hyp/optee_os/lib/libutee/tee_api.c:288
     f70:	e8bd 4008 	ldmia.w	sp!, {r3, lr}
/home/hsk/Desktop/devel/tee-tpm-hyp/optee_os/lib/libutee/tee_api.c:287
     f74:	f005 badc 	b.w	6530 <TEE_Panic>
/home/hsk/Desktop/devel/tee-tpm-hyp/optee_os/lib/libutee/tee_api.c:288
     f78:	bd08      	pop	{r3, pc}

00000f7a <TEE_Malloc>:
TEE_Malloc():
/home/hsk/Desktop/devel/tee-tpm-hyp/optee_os/lib/libutee/tee_api.c:291
     f7a:	b507      	push	{r0, r1, r2, lr}
/home/hsk/Desktop/devel/tee-tpm-hyp/optee_os/lib/libutee/tee_api.c:292
     f7c:	b931      	cbnz	r1, f8c <TEE_Malloc+0x12>
/home/hsk/Desktop/devel/tee-tpm-hyp/optee_os/lib/libutee/tee_api.c:293
     f7e:	4601      	mov	r1, r0
     f80:	2001      	movs	r0, #1
/home/hsk/Desktop/devel/tee-tpm-hyp/optee_os/lib/libutee/tee_api.c:300
     f82:	b003      	add	sp, #12
     f84:	f85d eb04 	ldr.w	lr, [sp], #4
/home/hsk/Desktop/devel/tee-tpm-hyp/optee_os/lib/libutee/tee_api.c:293
     f88:	f004 beb2 	b.w	5cf0 <calloc>
/home/hsk/Desktop/devel/tee-tpm-hyp/optee_os/lib/libutee/tee_api.c:294
     f8c:	f1b1 4f00 	cmp.w	r1, #2147483648	; 0x80000000
     f90:	d104      	bne.n	f9c <TEE_Malloc+0x22>
/home/hsk/Desktop/devel/tee-tpm-hyp/optee_os/lib/libutee/tee_api.c:300
     f92:	b003      	add	sp, #12
     f94:	f85d eb04 	ldr.w	lr, [sp], #4
/home/hsk/Desktop/devel/tee-tpm-hyp/optee_os/lib/libutee/tee_api.c:295
     f98:	f004 be86 	b.w	5ca8 <malloc>
/home/hsk/Desktop/devel/tee-tpm-hyp/optee_os/lib/libutee/tee_api.c:297
     f9c:	4b07      	ldr	r3, [pc, #28]	; (fbc <TEE_Malloc+0x42>)
     f9e:	4808      	ldr	r0, [pc, #32]	; (fc0 <TEE_Malloc+0x46>)
     fa0:	447b      	add	r3, pc
     fa2:	9300      	str	r3, [sp, #0]
     fa4:	2301      	movs	r3, #1
     fa6:	9101      	str	r1, [sp, #4]
     fa8:	461a      	mov	r2, r3
     faa:	f240 1129 	movw	r1, #297	; 0x129
     fae:	4478      	add	r0, pc
     fb0:	f7ff f994 	bl	2dc <trace_printf>
/home/hsk/Desktop/devel/tee-tpm-hyp/optee_os/lib/libutee/tee_api.c:300
     fb4:	2000      	movs	r0, #0
     fb6:	b003      	add	sp, #12
     fb8:	f85d fb04 	ldr.w	pc, [sp], #4
     fbc:	00005c50 	.word	0x00005c50
     fc0:	00005c37 	.word	0x00005c37

00000fc4 <TEE_Realloc>:
TEE_Realloc():
/home/hsk/Desktop/devel/tee-tpm-hyp/optee_os/lib/libutee/tee_api.c:304
     fc4:	f004 beb8 	b.w	5d38 <realloc>

00000fc8 <TEE_Free>:
TEE_Free():
/home/hsk/Desktop/devel/tee-tpm-hyp/optee_os/lib/libutee/tee_api.c:309
     fc8:	f004 be8a 	b.w	5ce0 <free>

00000fcc <TEE_CacheClean>:
TEE_CacheClean():
/home/hsk/Desktop/devel/tee-tpm-hyp/optee_os/lib/libutee/tee_api.c:315
     fcc:	2200      	movs	r2, #0
     fce:	f005 bb1b 	b.w	6608 <__utee_cache_operation_from_thumb>

00000fd2 <TEE_CacheFlush>:
TEE_CacheFlush():
/home/hsk/Desktop/devel/tee-tpm-hyp/optee_os/lib/libutee/tee_api.c:319
     fd2:	2201      	movs	r2, #1
     fd4:	f005 bb18 	b.w	6608 <__utee_cache_operation_from_thumb>

00000fd8 <TEE_CacheInvalidate>:
TEE_CacheInvalidate():
/home/hsk/Desktop/devel/tee-tpm-hyp/optee_os/lib/libutee/tee_api.c:324
     fd8:	2202      	movs	r2, #2
     fda:	f005 bb15 	b.w	6608 <__utee_cache_operation_from_thumb>
     fde:	bf00      	nop

00000fe0 <__utee_from_attr>:
__utee_from_attr():
/home/hsk/Desktop/devel/tee-tpm-hyp/optee_os/lib/libutee/tee_api_objects.c:19
     fe0:	2318      	movs	r3, #24
     fe2:	b570      	push	{r4, r5, r6, lr}
     fe4:	2400      	movs	r4, #0
     fe6:	fb03 0202 	mla	r2, r3, r2, r0
/home/hsk/Desktop/devel/tee-tpm-hyp/optee_os/lib/libutee/tee_api_objects.c:22 (discriminator 1)
     fea:	4290      	cmp	r0, r2
     fec:	d100      	bne.n	ff0 <__utee_from_attr+0x10>
/home/hsk/Desktop/devel/tee-tpm-hyp/optee_os/lib/libutee/tee_api_objects.c:32
     fee:	bd70      	pop	{r4, r5, r6, pc}
/home/hsk/Desktop/devel/tee-tpm-hyp/optee_os/lib/libutee/tee_api_objects.c:23
     ff0:	680b      	ldr	r3, [r1, #0]
     ff2:	6103      	str	r3, [r0, #16]
/home/hsk/Desktop/devel/tee-tpm-hyp/optee_os/lib/libutee/tee_api_objects.c:24
     ff4:	f013 5300 	ands.w	r3, r3, #536870912	; 0x20000000
     ff8:	688d      	ldr	r5, [r1, #8]
     ffa:	d007      	beq.n	100c <__utee_from_attr+0x2c>
/home/hsk/Desktop/devel/tee-tpm-hyp/optee_os/lib/libutee/tee_api_objects.c:25
     ffc:	684b      	ldr	r3, [r1, #4]
     ffe:	e9c0 3400 	strd	r3, r4, [r0]
/home/hsk/Desktop/devel/tee-tpm-hyp/optee_os/lib/libutee/tee_api_objects.c:26
    1002:	e9c0 5402 	strd	r5, r4, [r0, #8]
    1006:	310c      	adds	r1, #12
    1008:	3018      	adds	r0, #24
    100a:	e7ee      	b.n	fea <__utee_from_attr+0xa>
/home/hsk/Desktop/devel/tee-tpm-hyp/optee_os/lib/libutee/tee_api_objects.c:28
    100c:	684e      	ldr	r6, [r1, #4]
    100e:	e9c0 6300 	strd	r6, r3, [r0]
/home/hsk/Desktop/devel/tee-tpm-hyp/optee_os/lib/libutee/tee_api_objects.c:29
    1012:	e9c0 5302 	strd	r5, r3, [r0, #8]
    1016:	e7f6      	b.n	1006 <__utee_from_attr+0x26>

00001018 <TEE_GetObjectInfo>:
TEE_GetObjectInfo():
/home/hsk/Desktop/devel/tee-tpm-hyp/optee_os/lib/libutee/tee_api_objects.c:42
    1018:	b510      	push	{r4, lr}
    101a:	460c      	mov	r4, r1
/home/hsk/Desktop/devel/tee-tpm-hyp/optee_os/lib/libutee/tee_api_objects.c:45
    101c:	f000 edc8 	blx	1bb0 <utee_cryp_obj_get_info>
/home/hsk/Desktop/devel/tee-tpm-hyp/optee_os/lib/libutee/tee_api_objects.c:47
    1020:	b108      	cbz	r0, 1026 <TEE_GetObjectInfo+0xe>
/home/hsk/Desktop/devel/tee-tpm-hyp/optee_os/lib/libutee/tee_api_objects.c:48
    1022:	f005 fa85 	bl	6530 <TEE_Panic>
/home/hsk/Desktop/devel/tee-tpm-hyp/optee_os/lib/libutee/tee_api_objects.c:50
    1026:	6822      	ldr	r2, [r4, #0]
    1028:	4b05      	ldr	r3, [pc, #20]	; (1040 <TEE_GetObjectInfo+0x28>)
    102a:	429a      	cmp	r2, r3
    102c:	d106      	bne.n	103c <TEE_GetObjectInfo+0x24>
/home/hsk/Desktop/devel/tee-tpm-hyp/optee_os/lib/libutee/tee_api_objects.c:51
    102e:	2300      	movs	r3, #0
    1030:	6063      	str	r3, [r4, #4]
/home/hsk/Desktop/devel/tee-tpm-hyp/optee_os/lib/libutee/tee_api_objects.c:52
    1032:	60a3      	str	r3, [r4, #8]
/home/hsk/Desktop/devel/tee-tpm-hyp/optee_os/lib/libutee/tee_api_objects.c:53
    1034:	60e3      	str	r3, [r4, #12]
/home/hsk/Desktop/devel/tee-tpm-hyp/optee_os/lib/libutee/tee_api_objects.c:54
    1036:	6123      	str	r3, [r4, #16]
/home/hsk/Desktop/devel/tee-tpm-hyp/optee_os/lib/libutee/tee_api_objects.c:55
    1038:	6163      	str	r3, [r4, #20]
/home/hsk/Desktop/devel/tee-tpm-hyp/optee_os/lib/libutee/tee_api_objects.c:56
    103a:	61a3      	str	r3, [r4, #24]
/home/hsk/Desktop/devel/tee-tpm-hyp/optee_os/lib/libutee/tee_api_objects.c:58
    103c:	bd10      	pop	{r4, pc}
    103e:	bf00      	nop
    1040:	a00000be 	.word	0xa00000be

00001044 <TEE_GetObjectInfo1>:
TEE_GetObjectInfo1():
/home/hsk/Desktop/devel/tee-tpm-hyp/optee_os/lib/libutee/tee_api_objects.c:61
    1044:	b510      	push	{r4, lr}
/home/hsk/Desktop/devel/tee-tpm-hyp/optee_os/lib/libutee/tee_api_objects.c:64
    1046:	f000 edb4 	blx	1bb0 <utee_cryp_obj_get_info>
/home/hsk/Desktop/devel/tee-tpm-hyp/optee_os/lib/libutee/tee_api_objects.c:66
    104a:	4604      	mov	r4, r0
    104c:	b130      	cbz	r0, 105c <TEE_GetObjectInfo1+0x18>
/home/hsk/Desktop/devel/tee-tpm-hyp/optee_os/lib/libutee/tee_api_objects.c:66 (discriminator 1)
    104e:	4b04      	ldr	r3, [pc, #16]	; (1060 <TEE_GetObjectInfo1+0x1c>)
    1050:	f020 0202 	bic.w	r2, r0, #2
    1054:	429a      	cmp	r2, r3
    1056:	d001      	beq.n	105c <TEE_GetObjectInfo1+0x18>
/home/hsk/Desktop/devel/tee-tpm-hyp/optee_os/lib/libutee/tee_api_objects.c:69
    1058:	f005 fa6a 	bl	6530 <TEE_Panic>
/home/hsk/Desktop/devel/tee-tpm-hyp/optee_os/lib/libutee/tee_api_objects.c:72
    105c:	4620      	mov	r0, r4
    105e:	bd10      	pop	{r4, pc}
    1060:	f0100001 	.word	0xf0100001

00001064 <TEE_RestrictObjectUsage1>:
TEE_RestrictObjectUsage1():
/home/hsk/Desktop/devel/tee-tpm-hyp/optee_os/lib/libutee/tee_api_objects.c:96
    1064:	b510      	push	{r4, lr}
/home/hsk/Desktop/devel/tee-tpm-hyp/optee_os/lib/libutee/tee_api_objects.c:99
    1066:	f000 edae 	blx	1bc4 <utee_cryp_obj_restrict_usage>
/home/hsk/Desktop/devel/tee-tpm-hyp/optee_os/lib/libutee/tee_api_objects.c:101
    106a:	4604      	mov	r4, r0
    106c:	b130      	cbz	r0, 107c <TEE_RestrictObjectUsage1+0x18>
/home/hsk/Desktop/devel/tee-tpm-hyp/optee_os/lib/libutee/tee_api_objects.c:101 (discriminator 1)
    106e:	4b04      	ldr	r3, [pc, #16]	; (1080 <TEE_RestrictObjectUsage1+0x1c>)
    1070:	f020 0202 	bic.w	r2, r0, #2
    1074:	429a      	cmp	r2, r3
    1076:	d001      	beq.n	107c <TEE_RestrictObjectUsage1+0x18>
/home/hsk/Desktop/devel/tee-tpm-hyp/optee_os/lib/libutee/tee_api_objects.c:104
    1078:	f005 fa5a 	bl	6530 <TEE_Panic>
/home/hsk/Desktop/devel/tee-tpm-hyp/optee_os/lib/libutee/tee_api_objects.c:107
    107c:	4620      	mov	r0, r4
    107e:	bd10      	pop	{r4, pc}
    1080:	f0100001 	.word	0xf0100001

00001084 <TEE_RestrictObjectUsage>:
TEE_RestrictObjectUsage():
/home/hsk/Desktop/devel/tee-tpm-hyp/optee_os/lib/libutee/tee_api_objects.c:81
    1084:	b530      	push	{r4, r5, lr}
    1086:	460d      	mov	r5, r1
    1088:	4604      	mov	r4, r0
    108a:	b089      	sub	sp, #36	; 0x24
/home/hsk/Desktop/devel/tee-tpm-hyp/optee_os/lib/libutee/tee_api_objects.c:85
    108c:	a901      	add	r1, sp, #4
    108e:	f000 ed90 	blx	1bb0 <utee_cryp_obj_get_info>
/home/hsk/Desktop/devel/tee-tpm-hyp/optee_os/lib/libutee/tee_api_objects.c:86
    1092:	4b06      	ldr	r3, [pc, #24]	; (10ac <TEE_RestrictObjectUsage+0x28>)
    1094:	9a01      	ldr	r2, [sp, #4]
    1096:	429a      	cmp	r2, r3
    1098:	d006      	beq.n	10a8 <TEE_RestrictObjectUsage+0x24>
/home/hsk/Desktop/devel/tee-tpm-hyp/optee_os/lib/libutee/tee_api_objects.c:89
    109a:	4629      	mov	r1, r5
    109c:	4620      	mov	r0, r4
    109e:	f7ff ffe1 	bl	1064 <TEE_RestrictObjectUsage1>
/home/hsk/Desktop/devel/tee-tpm-hyp/optee_os/lib/libutee/tee_api_objects.c:91
    10a2:	b108      	cbz	r0, 10a8 <TEE_RestrictObjectUsage+0x24>
/home/hsk/Desktop/devel/tee-tpm-hyp/optee_os/lib/libutee/tee_api_objects.c:92
    10a4:	f005 fa44 	bl	6530 <TEE_Panic>
/home/hsk/Desktop/devel/tee-tpm-hyp/optee_os/lib/libutee/tee_api_objects.c:93
    10a8:	b009      	add	sp, #36	; 0x24
    10aa:	bd30      	pop	{r4, r5, pc}
    10ac:	a00000be 	.word	0xa00000be

000010b0 <TEE_GetObjectBufferAttribute>:
TEE_GetObjectBufferAttribute():
/home/hsk/Desktop/devel/tee-tpm-hyp/optee_os/lib/libutee/tee_api_objects.c:112
    10b0:	e92d 41f0 	stmdb	sp!, {r4, r5, r6, r7, r8, lr}
    10b4:	460e      	mov	r6, r1
    10b6:	4607      	mov	r7, r0
    10b8:	b08a      	sub	sp, #40	; 0x28
    10ba:	4690      	mov	r8, r2
/home/hsk/Desktop/devel/tee-tpm-hyp/optee_os/lib/libutee/tee_api_objects.c:117
    10bc:	a903      	add	r1, sp, #12
/home/hsk/Desktop/devel/tee-tpm-hyp/optee_os/lib/libutee/tee_api_objects.c:112
    10be:	461d      	mov	r5, r3
/home/hsk/Desktop/devel/tee-tpm-hyp/optee_os/lib/libutee/tee_api_objects.c:117
    10c0:	f000 ed76 	blx	1bb0 <utee_cryp_obj_get_info>
/home/hsk/Desktop/devel/tee-tpm-hyp/optee_os/lib/libutee/tee_api_objects.c:118
    10c4:	4604      	mov	r4, r0
    10c6:	b970      	cbnz	r0, 10e6 <TEE_GetObjectBufferAttribute+0x36>
/home/hsk/Desktop/devel/tee-tpm-hyp/optee_os/lib/libutee/tee_api_objects.c:122
    10c8:	00b3      	lsls	r3, r6, #2
    10ca:	d422      	bmi.n	1112 <TEE_GetObjectBufferAttribute+0x62>
/home/hsk/Desktop/devel/tee-tpm-hyp/optee_os/lib/libutee/tee_api_objects.c:127
    10cc:	682b      	ldr	r3, [r5, #0]
/home/hsk/Desktop/devel/tee-tpm-hyp/optee_os/lib/libutee/tee_api_objects.c:128
    10ce:	4642      	mov	r2, r8
/home/hsk/Desktop/devel/tee-tpm-hyp/optee_os/lib/libutee/tee_api_objects.c:127
    10d0:	e9cd 3000 	strd	r3, r0, [sp]
/home/hsk/Desktop/devel/tee-tpm-hyp/optee_os/lib/libutee/tee_api_objects.c:128
    10d4:	4631      	mov	r1, r6
    10d6:	466b      	mov	r3, sp
    10d8:	4638      	mov	r0, r7
    10da:	f000 ed7e 	blx	1bd8 <utee_cryp_obj_get_attr>
/home/hsk/Desktop/devel/tee-tpm-hyp/optee_os/lib/libutee/tee_api_objects.c:130
    10de:	9b00      	ldr	r3, [sp, #0]
    10e0:	602b      	str	r3, [r5, #0]
/home/hsk/Desktop/devel/tee-tpm-hyp/optee_os/lib/libutee/tee_api_objects.c:133
    10e2:	4604      	mov	r4, r0
    10e4:	b188      	cbz	r0, 110a <TEE_GetObjectBufferAttribute+0x5a>
/home/hsk/Desktop/devel/tee-tpm-hyp/optee_os/lib/libutee/tee_api_objects.c:133 (discriminator 1)
    10e6:	4b0c      	ldr	r3, [pc, #48]	; (1118 <TEE_GetObjectBufferAttribute+0x68>)
    10e8:	429c      	cmp	r4, r3
    10ea:	d00e      	beq.n	110a <TEE_GetObjectBufferAttribute+0x5a>
/home/hsk/Desktop/devel/tee-tpm-hyp/optee_os/lib/libutee/tee_api_objects.c:134
    10ec:	3308      	adds	r3, #8
    10ee:	429c      	cmp	r4, r3
    10f0:	d00b      	beq.n	110a <TEE_GetObjectBufferAttribute+0x5a>
/home/hsk/Desktop/devel/tee-tpm-hyp/optee_os/lib/libutee/tee_api_objects.c:135
    10f2:	f1a3 637e 	sub.w	r3, r3, #266338304	; 0xfe00000
    10f6:	f1a3 130f 	sub.w	r3, r3, #983055	; 0xf000f
    10fa:	429c      	cmp	r4, r3
    10fc:	d005      	beq.n	110a <TEE_GetObjectBufferAttribute+0x5a>
/home/hsk/Desktop/devel/tee-tpm-hyp/optee_os/lib/libutee/tee_api_objects.c:136
    10fe:	3302      	adds	r3, #2
    1100:	429c      	cmp	r4, r3
    1102:	d002      	beq.n	110a <TEE_GetObjectBufferAttribute+0x5a>
/home/hsk/Desktop/devel/tee-tpm-hyp/optee_os/lib/libutee/tee_api_objects.c:138
    1104:	4620      	mov	r0, r4
    1106:	f005 fa13 	bl	6530 <TEE_Panic>
/home/hsk/Desktop/devel/tee-tpm-hyp/optee_os/lib/libutee/tee_api_objects.c:141
    110a:	4620      	mov	r0, r4
    110c:	b00a      	add	sp, #40	; 0x28
    110e:	e8bd 81f0 	ldmia.w	sp!, {r4, r5, r6, r7, r8, pc}
/home/hsk/Desktop/devel/tee-tpm-hyp/optee_os/lib/libutee/tee_api_objects.c:123
    1112:	4c02      	ldr	r4, [pc, #8]	; (111c <TEE_GetObjectBufferAttribute+0x6c>)
    1114:	e7f6      	b.n	1104 <TEE_GetObjectBufferAttribute+0x54>
    1116:	bf00      	nop
    1118:	ffff0008 	.word	0xffff0008
    111c:	ffff0006 	.word	0xffff0006

00001120 <TEE_GetObjectValueAttribute>:
TEE_GetObjectValueAttribute():
/home/hsk/Desktop/devel/tee-tpm-hyp/optee_os/lib/libutee/tee_api_objects.c:146
    1120:	e92d 41f0 	stmdb	sp!, {r4, r5, r6, r7, r8, lr}
    1124:	460f      	mov	r7, r1
    1126:	4680      	mov	r8, r0
    1128:	b08c      	sub	sp, #48	; 0x30
    112a:	4616      	mov	r6, r2
/home/hsk/Desktop/devel/tee-tpm-hyp/optee_os/lib/libutee/tee_api_objects.c:152
    112c:	a905      	add	r1, sp, #20
/home/hsk/Desktop/devel/tee-tpm-hyp/optee_os/lib/libutee/tee_api_objects.c:150
    112e:	2208      	movs	r2, #8
/home/hsk/Desktop/devel/tee-tpm-hyp/optee_os/lib/libutee/tee_api_objects.c:146
    1130:	461d      	mov	r5, r3
/home/hsk/Desktop/devel/tee-tpm-hyp/optee_os/lib/libutee/tee_api_objects.c:150
    1132:	2300      	movs	r3, #0
    1134:	e9cd 2300 	strd	r2, r3, [sp]
/home/hsk/Desktop/devel/tee-tpm-hyp/optee_os/lib/libutee/tee_api_objects.c:152
    1138:	f000 ed3a 	blx	1bb0 <utee_cryp_obj_get_info>
/home/hsk/Desktop/devel/tee-tpm-hyp/optee_os/lib/libutee/tee_api_objects.c:153
    113c:	4604      	mov	r4, r0
    113e:	b948      	cbnz	r0, 1154 <TEE_GetObjectValueAttribute+0x34>
/home/hsk/Desktop/devel/tee-tpm-hyp/optee_os/lib/libutee/tee_api_objects.c:157
    1140:	00bb      	lsls	r3, r7, #2
    1142:	d527      	bpl.n	1194 <TEE_GetObjectValueAttribute+0x74>
/home/hsk/Desktop/devel/tee-tpm-hyp/optee_os/lib/libutee/tee_api_objects.c:162
    1144:	466b      	mov	r3, sp
    1146:	aa03      	add	r2, sp, #12
    1148:	4639      	mov	r1, r7
    114a:	4640      	mov	r0, r8
    114c:	f000 ed44 	blx	1bd8 <utee_cryp_obj_get_attr>
/home/hsk/Desktop/devel/tee-tpm-hyp/optee_os/lib/libutee/tee_api_objects.c:166
    1150:	4604      	mov	r4, r0
    1152:	b158      	cbz	r0, 116c <TEE_GetObjectValueAttribute+0x4c>
/home/hsk/Desktop/devel/tee-tpm-hyp/optee_os/lib/libutee/tee_api_objects.c:166 (discriminator 1)
    1154:	4b10      	ldr	r3, [pc, #64]	; (1198 <TEE_GetObjectValueAttribute+0x78>)
    1156:	429c      	cmp	r4, r3
    1158:	d008      	beq.n	116c <TEE_GetObjectValueAttribute+0x4c>
/home/hsk/Desktop/devel/tee-tpm-hyp/optee_os/lib/libutee/tee_api_objects.c:167
    115a:	4b10      	ldr	r3, [pc, #64]	; (119c <TEE_GetObjectValueAttribute+0x7c>)
    115c:	429c      	cmp	r4, r3
    115e:	d005      	beq.n	116c <TEE_GetObjectValueAttribute+0x4c>
/home/hsk/Desktop/devel/tee-tpm-hyp/optee_os/lib/libutee/tee_api_objects.c:168
    1160:	3302      	adds	r3, #2
    1162:	429c      	cmp	r4, r3
    1164:	d002      	beq.n	116c <TEE_GetObjectValueAttribute+0x4c>
/home/hsk/Desktop/devel/tee-tpm-hyp/optee_os/lib/libutee/tee_api_objects.c:170
    1166:	4620      	mov	r0, r4
    1168:	f005 f9e2 	bl	6530 <TEE_Panic>
/home/hsk/Desktop/devel/tee-tpm-hyp/optee_os/lib/libutee/tee_api_objects.c:172
    116c:	e9dd 2300 	ldrd	r2, r3, [sp]
    1170:	2b00      	cmp	r3, #0
    1172:	bf08      	it	eq
    1174:	2a08      	cmpeq	r2, #8
    1176:	d002      	beq.n	117e <TEE_GetObjectValueAttribute+0x5e>
/home/hsk/Desktop/devel/tee-tpm-hyp/optee_os/lib/libutee/tee_api_objects.c:173
    1178:	2000      	movs	r0, #0
    117a:	f005 f9d9 	bl	6530 <TEE_Panic>
/home/hsk/Desktop/devel/tee-tpm-hyp/optee_os/lib/libutee/tee_api_objects.c:175
    117e:	b92c      	cbnz	r4, 118c <TEE_GetObjectValueAttribute+0x6c>
/home/hsk/Desktop/devel/tee-tpm-hyp/optee_os/lib/libutee/tee_api_objects.c:176
    1180:	b10e      	cbz	r6, 1186 <TEE_GetObjectValueAttribute+0x66>
/home/hsk/Desktop/devel/tee-tpm-hyp/optee_os/lib/libutee/tee_api_objects.c:177
    1182:	9b03      	ldr	r3, [sp, #12]
    1184:	6033      	str	r3, [r6, #0]
/home/hsk/Desktop/devel/tee-tpm-hyp/optee_os/lib/libutee/tee_api_objects.c:178
    1186:	b10d      	cbz	r5, 118c <TEE_GetObjectValueAttribute+0x6c>
/home/hsk/Desktop/devel/tee-tpm-hyp/optee_os/lib/libutee/tee_api_objects.c:179
    1188:	9b04      	ldr	r3, [sp, #16]
    118a:	602b      	str	r3, [r5, #0]
/home/hsk/Desktop/devel/tee-tpm-hyp/optee_os/lib/libutee/tee_api_objects.c:183
    118c:	4620      	mov	r0, r4
    118e:	b00c      	add	sp, #48	; 0x30
    1190:	e8bd 81f0 	ldmia.w	sp!, {r4, r5, r6, r7, r8, pc}
/home/hsk/Desktop/devel/tee-tpm-hyp/optee_os/lib/libutee/tee_api_objects.c:158
    1194:	4c02      	ldr	r4, [pc, #8]	; (11a0 <TEE_GetObjectValueAttribute+0x80>)
    1196:	e7e6      	b.n	1166 <TEE_GetObjectValueAttribute+0x46>
    1198:	ffff0008 	.word	0xffff0008
    119c:	f0100001 	.word	0xf0100001
    11a0:	ffff0006 	.word	0xffff0006

000011a4 <TEE_CloseObject>:
TEE_CloseObject():
/home/hsk/Desktop/devel/tee-tpm-hyp/optee_os/lib/libutee/tee_api_objects.c:186
    11a4:	b508      	push	{r3, lr}
/home/hsk/Desktop/devel/tee-tpm-hyp/optee_os/lib/libutee/tee_api_objects.c:189
    11a6:	b130      	cbz	r0, 11b6 <TEE_CloseObject+0x12>
/home/hsk/Desktop/devel/tee-tpm-hyp/optee_os/lib/libutee/tee_api_objects.c:192
    11a8:	f000 ed2a 	blx	1c00 <utee_cryp_obj_close>
/home/hsk/Desktop/devel/tee-tpm-hyp/optee_os/lib/libutee/tee_api_objects.c:193
    11ac:	b118      	cbz	r0, 11b6 <TEE_CloseObject+0x12>
/home/hsk/Desktop/devel/tee-tpm-hyp/optee_os/lib/libutee/tee_api_objects.c:195
    11ae:	e8bd 4008 	ldmia.w	sp!, {r3, lr}
/home/hsk/Desktop/devel/tee-tpm-hyp/optee_os/lib/libutee/tee_api_objects.c:194
    11b2:	f005 b9bd 	b.w	6530 <TEE_Panic>
/home/hsk/Desktop/devel/tee-tpm-hyp/optee_os/lib/libutee/tee_api_objects.c:195
    11b6:	bd08      	pop	{r3, pc}

000011b8 <TEE_AllocateTransientObject>:
TEE_AllocateTransientObject():
/home/hsk/Desktop/devel/tee-tpm-hyp/optee_os/lib/libutee/tee_api_objects.c:202
    11b8:	b537      	push	{r0, r1, r2, r4, r5, lr}
    11ba:	4615      	mov	r5, r2
/home/hsk/Desktop/devel/tee-tpm-hyp/optee_os/lib/libutee/tee_api_objects.c:206
    11bc:	aa01      	add	r2, sp, #4
    11be:	f000 ed16 	blx	1bec <utee_cryp_obj_alloc>
/home/hsk/Desktop/devel/tee-tpm-hyp/optee_os/lib/libutee/tee_api_objects.c:208
    11c2:	4604      	mov	r4, r0
    11c4:	b150      	cbz	r0, 11dc <TEE_AllocateTransientObject+0x24>
/home/hsk/Desktop/devel/tee-tpm-hyp/optee_os/lib/libutee/tee_api_objects.c:208 (discriminator 1)
    11c6:	4b07      	ldr	r3, [pc, #28]	; (11e4 <TEE_AllocateTransientObject+0x2c>)
    11c8:	4298      	cmp	r0, r3
    11ca:	d004      	beq.n	11d6 <TEE_AllocateTransientObject+0x1e>
/home/hsk/Desktop/devel/tee-tpm-hyp/optee_os/lib/libutee/tee_api_objects.c:209
    11cc:	3b02      	subs	r3, #2
    11ce:	4298      	cmp	r0, r3
    11d0:	d001      	beq.n	11d6 <TEE_AllocateTransientObject+0x1e>
/home/hsk/Desktop/devel/tee-tpm-hyp/optee_os/lib/libutee/tee_api_objects.c:211
    11d2:	f005 f9ad 	bl	6530 <TEE_Panic>
/home/hsk/Desktop/devel/tee-tpm-hyp/optee_os/lib/libutee/tee_api_objects.c:217
    11d6:	4620      	mov	r0, r4
    11d8:	b003      	add	sp, #12
    11da:	bd30      	pop	{r4, r5, pc}
/home/hsk/Desktop/devel/tee-tpm-hyp/optee_os/lib/libutee/tee_api_objects.c:214
    11dc:	9b01      	ldr	r3, [sp, #4]
    11de:	602b      	str	r3, [r5, #0]
    11e0:	e7f9      	b.n	11d6 <TEE_AllocateTransientObject+0x1e>
    11e2:	bf00      	nop
    11e4:	ffff000c 	.word	0xffff000c

000011e8 <TEE_FreeTransientObject>:
TEE_FreeTransientObject():
/home/hsk/Desktop/devel/tee-tpm-hyp/optee_os/lib/libutee/tee_api_objects.c:220
    11e8:	b510      	push	{r4, lr}
/home/hsk/Desktop/devel/tee-tpm-hyp/optee_os/lib/libutee/tee_api_objects.c:224
    11ea:	4604      	mov	r4, r0
/home/hsk/Desktop/devel/tee-tpm-hyp/optee_os/lib/libutee/tee_api_objects.c:220
    11ec:	b088      	sub	sp, #32
/home/hsk/Desktop/devel/tee-tpm-hyp/optee_os/lib/libutee/tee_api_objects.c:224
    11ee:	b188      	cbz	r0, 1214 <TEE_FreeTransientObject+0x2c>
/home/hsk/Desktop/devel/tee-tpm-hyp/optee_os/lib/libutee/tee_api_objects.c:227
    11f0:	a901      	add	r1, sp, #4
    11f2:	f000 ecde 	blx	1bb0 <utee_cryp_obj_get_info>
/home/hsk/Desktop/devel/tee-tpm-hyp/optee_os/lib/libutee/tee_api_objects.c:228
    11f6:	b108      	cbz	r0, 11fc <TEE_FreeTransientObject+0x14>
/home/hsk/Desktop/devel/tee-tpm-hyp/optee_os/lib/libutee/tee_api_objects.c:229
    11f8:	f005 f99a 	bl	6530 <TEE_Panic>
/home/hsk/Desktop/devel/tee-tpm-hyp/optee_os/lib/libutee/tee_api_objects.c:231
    11fc:	9b07      	ldr	r3, [sp, #28]
    11fe:	03db      	lsls	r3, r3, #15
    1200:	d502      	bpl.n	1208 <TEE_FreeTransientObject+0x20>
/home/hsk/Desktop/devel/tee-tpm-hyp/optee_os/lib/libutee/tee_api_objects.c:232
    1202:	2000      	movs	r0, #0
    1204:	f005 f994 	bl	6530 <TEE_Panic>
/home/hsk/Desktop/devel/tee-tpm-hyp/optee_os/lib/libutee/tee_api_objects.c:234
    1208:	4620      	mov	r0, r4
    120a:	f000 ecfa 	blx	1c00 <utee_cryp_obj_close>
/home/hsk/Desktop/devel/tee-tpm-hyp/optee_os/lib/libutee/tee_api_objects.c:235
    120e:	b108      	cbz	r0, 1214 <TEE_FreeTransientObject+0x2c>
/home/hsk/Desktop/devel/tee-tpm-hyp/optee_os/lib/libutee/tee_api_objects.c:236
    1210:	f005 f98e 	bl	6530 <TEE_Panic>
/home/hsk/Desktop/devel/tee-tpm-hyp/optee_os/lib/libutee/tee_api_objects.c:237
    1214:	b008      	add	sp, #32
    1216:	bd10      	pop	{r4, pc}

00001218 <TEE_ResetTransientObject>:
TEE_ResetTransientObject():
/home/hsk/Desktop/devel/tee-tpm-hyp/optee_os/lib/libutee/tee_api_objects.c:240
    1218:	b510      	push	{r4, lr}
/home/hsk/Desktop/devel/tee-tpm-hyp/optee_os/lib/libutee/tee_api_objects.c:244
    121a:	4604      	mov	r4, r0
/home/hsk/Desktop/devel/tee-tpm-hyp/optee_os/lib/libutee/tee_api_objects.c:240
    121c:	b088      	sub	sp, #32
/home/hsk/Desktop/devel/tee-tpm-hyp/optee_os/lib/libutee/tee_api_objects.c:244
    121e:	b188      	cbz	r0, 1244 <TEE_ResetTransientObject+0x2c>
/home/hsk/Desktop/devel/tee-tpm-hyp/optee_os/lib/libutee/tee_api_objects.c:247
    1220:	a901      	add	r1, sp, #4
    1222:	f000 ecc6 	blx	1bb0 <utee_cryp_obj_get_info>
/home/hsk/Desktop/devel/tee-tpm-hyp/optee_os/lib/libutee/tee_api_objects.c:248
    1226:	b108      	cbz	r0, 122c <TEE_ResetTransientObject+0x14>
/home/hsk/Desktop/devel/tee-tpm-hyp/optee_os/lib/libutee/tee_api_objects.c:249
    1228:	f005 f982 	bl	6530 <TEE_Panic>
/home/hsk/Desktop/devel/tee-tpm-hyp/optee_os/lib/libutee/tee_api_objects.c:251
    122c:	9b07      	ldr	r3, [sp, #28]
    122e:	03db      	lsls	r3, r3, #15
    1230:	d502      	bpl.n	1238 <TEE_ResetTransientObject+0x20>
/home/hsk/Desktop/devel/tee-tpm-hyp/optee_os/lib/libutee/tee_api_objects.c:252
    1232:	2000      	movs	r0, #0
    1234:	f005 f97c 	bl	6530 <TEE_Panic>
/home/hsk/Desktop/devel/tee-tpm-hyp/optee_os/lib/libutee/tee_api_objects.c:254
    1238:	4620      	mov	r0, r4
    123a:	f000 ecec 	blx	1c14 <utee_cryp_obj_reset>
/home/hsk/Desktop/devel/tee-tpm-hyp/optee_os/lib/libutee/tee_api_objects.c:255
    123e:	b108      	cbz	r0, 1244 <TEE_ResetTransientObject+0x2c>
/home/hsk/Desktop/devel/tee-tpm-hyp/optee_os/lib/libutee/tee_api_objects.c:256
    1240:	f005 f976 	bl	6530 <TEE_Panic>
/home/hsk/Desktop/devel/tee-tpm-hyp/optee_os/lib/libutee/tee_api_objects.c:257
    1244:	b008      	add	sp, #32
    1246:	bd10      	pop	{r4, pc}

00001248 <TEE_PopulateTransientObject>:
TEE_PopulateTransientObject():
/home/hsk/Desktop/devel/tee-tpm-hyp/optee_os/lib/libutee/tee_api_objects.c:265
    1248:	2318      	movs	r3, #24
/home/hsk/Desktop/devel/tee-tpm-hyp/optee_os/lib/libutee/tee_api_objects.c:262
    124a:	e92d 41f0 	stmdb	sp!, {r4, r5, r6, r7, r8, lr}
    124e:	4688      	mov	r8, r1
    1250:	b088      	sub	sp, #32
/home/hsk/Desktop/devel/tee-tpm-hyp/optee_os/lib/libutee/tee_api_objects.c:265
    1252:	4353      	muls	r3, r2
/home/hsk/Desktop/devel/tee-tpm-hyp/optee_os/lib/libutee/tee_api_objects.c:262
    1254:	af00      	add	r7, sp, #0
/home/hsk/Desktop/devel/tee-tpm-hyp/optee_os/lib/libutee/tee_api_objects.c:267
    1256:	1d39      	adds	r1, r7, #4
/home/hsk/Desktop/devel/tee-tpm-hyp/optee_os/lib/libutee/tee_api_objects.c:262
    1258:	4606      	mov	r6, r0
/home/hsk/Desktop/devel/tee-tpm-hyp/optee_os/lib/libutee/tee_api_objects.c:265
    125a:	3308      	adds	r3, #8
/home/hsk/Desktop/devel/tee-tpm-hyp/optee_os/lib/libutee/tee_api_objects.c:262
    125c:	4614      	mov	r4, r2
/home/hsk/Desktop/devel/tee-tpm-hyp/optee_os/lib/libutee/tee_api_objects.c:265
    125e:	ebad 0d03 	sub.w	sp, sp, r3
    1262:	466d      	mov	r5, sp
/home/hsk/Desktop/devel/tee-tpm-hyp/optee_os/lib/libutee/tee_api_objects.c:267
    1264:	f000 eca4 	blx	1bb0 <utee_cryp_obj_get_info>
/home/hsk/Desktop/devel/tee-tpm-hyp/optee_os/lib/libutee/tee_api_objects.c:268
    1268:	b108      	cbz	r0, 126e <TEE_PopulateTransientObject+0x26>
/home/hsk/Desktop/devel/tee-tpm-hyp/optee_os/lib/libutee/tee_api_objects.c:269
    126a:	f005 f961 	bl	6530 <TEE_Panic>
/home/hsk/Desktop/devel/tee-tpm-hyp/optee_os/lib/libutee/tee_api_objects.c:272
    126e:	69fb      	ldr	r3, [r7, #28]
    1270:	03da      	lsls	r2, r3, #15
    1272:	d502      	bpl.n	127a <TEE_PopulateTransientObject+0x32>
/home/hsk/Desktop/devel/tee-tpm-hyp/optee_os/lib/libutee/tee_api_objects.c:273
    1274:	2000      	movs	r0, #0
    1276:	f005 f95b 	bl	6530 <TEE_Panic>
/home/hsk/Desktop/devel/tee-tpm-hyp/optee_os/lib/libutee/tee_api_objects.c:276
    127a:	69fb      	ldr	r3, [r7, #28]
    127c:	039b      	lsls	r3, r3, #14
    127e:	d502      	bpl.n	1286 <TEE_PopulateTransientObject+0x3e>
/home/hsk/Desktop/devel/tee-tpm-hyp/optee_os/lib/libutee/tee_api_objects.c:277
    1280:	2000      	movs	r0, #0
    1282:	f005 f955 	bl	6530 <TEE_Panic>
/home/hsk/Desktop/devel/tee-tpm-hyp/optee_os/lib/libutee/tee_api_objects.c:279
    1286:	4622      	mov	r2, r4
    1288:	4641      	mov	r1, r8
    128a:	4628      	mov	r0, r5
    128c:	f7ff fea8 	bl	fe0 <__utee_from_attr>
/home/hsk/Desktop/devel/tee-tpm-hyp/optee_os/lib/libutee/tee_api_objects.c:280
    1290:	4622      	mov	r2, r4
    1292:	4629      	mov	r1, r5
    1294:	4630      	mov	r0, r6
    1296:	f000 ecc8 	blx	1c28 <utee_cryp_obj_populate>
/home/hsk/Desktop/devel/tee-tpm-hyp/optee_os/lib/libutee/tee_api_objects.c:281
    129a:	4604      	mov	r4, r0
    129c:	b120      	cbz	r0, 12a8 <TEE_PopulateTransientObject+0x60>
/home/hsk/Desktop/devel/tee-tpm-hyp/optee_os/lib/libutee/tee_api_objects.c:281 (discriminator 1)
    129e:	4b05      	ldr	r3, [pc, #20]	; (12b4 <TEE_PopulateTransientObject+0x6c>)
    12a0:	4298      	cmp	r0, r3
    12a2:	d001      	beq.n	12a8 <TEE_PopulateTransientObject+0x60>
/home/hsk/Desktop/devel/tee-tpm-hyp/optee_os/lib/libutee/tee_api_objects.c:282
    12a4:	f005 f944 	bl	6530 <TEE_Panic>
/home/hsk/Desktop/devel/tee-tpm-hyp/optee_os/lib/libutee/tee_api_objects.c:284
    12a8:	4620      	mov	r0, r4
    12aa:	3720      	adds	r7, #32
    12ac:	46bd      	mov	sp, r7
    12ae:	e8bd 81f0 	ldmia.w	sp!, {r4, r5, r6, r7, r8, pc}
    12b2:	bf00      	nop
    12b4:	ffff0006 	.word	0xffff0006

000012b8 <TEE_InitRefAttribute>:
TEE_InitRefAttribute():
/home/hsk/Desktop/devel/tee-tpm-hyp/optee_os/lib/libutee/tee_api_objects.c:288
    12b8:	b5f8      	push	{r3, r4, r5, r6, r7, lr}
    12ba:	460d      	mov	r5, r1
    12bc:	4617      	mov	r7, r2
    12be:	461e      	mov	r6, r3
/home/hsk/Desktop/devel/tee-tpm-hyp/optee_os/lib/libutee/tee_api_objects.c:289
    12c0:	4604      	mov	r4, r0
    12c2:	b908      	cbnz	r0, 12c8 <TEE_InitRefAttribute+0x10>
/home/hsk/Desktop/devel/tee-tpm-hyp/optee_os/lib/libutee/tee_api_objects.c:290
    12c4:	f005 f934 	bl	6530 <TEE_Panic>
/home/hsk/Desktop/devel/tee-tpm-hyp/optee_os/lib/libutee/tee_api_objects.c:291
    12c8:	00ab      	lsls	r3, r5, #2
    12ca:	d502      	bpl.n	12d2 <TEE_InitRefAttribute+0x1a>
/home/hsk/Desktop/devel/tee-tpm-hyp/optee_os/lib/libutee/tee_api_objects.c:292
    12cc:	2000      	movs	r0, #0
    12ce:	f005 f92f 	bl	6530 <TEE_Panic>
/home/hsk/Desktop/devel/tee-tpm-hyp/optee_os/lib/libutee/tee_api_objects.c:294
    12d2:	e9c4 5700 	strd	r5, r7, [r4]
/home/hsk/Desktop/devel/tee-tpm-hyp/optee_os/lib/libutee/tee_api_objects.c:295
    12d6:	60a6      	str	r6, [r4, #8]
/home/hsk/Desktop/devel/tee-tpm-hyp/optee_os/lib/libutee/tee_api_objects.c:296
    12d8:	bdf8      	pop	{r3, r4, r5, r6, r7, pc}

000012da <TEE_InitValueAttribute>:
TEE_InitValueAttribute():
/home/hsk/Desktop/devel/tee-tpm-hyp/optee_os/lib/libutee/tee_api_objects.c:300
    12da:	b5f8      	push	{r3, r4, r5, r6, r7, lr}
    12dc:	460d      	mov	r5, r1
    12de:	4617      	mov	r7, r2
    12e0:	461e      	mov	r6, r3
/home/hsk/Desktop/devel/tee-tpm-hyp/optee_os/lib/libutee/tee_api_objects.c:301
    12e2:	4604      	mov	r4, r0
    12e4:	b908      	cbnz	r0, 12ea <TEE_InitValueAttribute+0x10>
/home/hsk/Desktop/devel/tee-tpm-hyp/optee_os/lib/libutee/tee_api_objects.c:302
    12e6:	f005 f923 	bl	6530 <TEE_Panic>
/home/hsk/Desktop/devel/tee-tpm-hyp/optee_os/lib/libutee/tee_api_objects.c:303
    12ea:	f015 5000 	ands.w	r0, r5, #536870912	; 0x20000000
    12ee:	d101      	bne.n	12f4 <TEE_InitValueAttribute+0x1a>
/home/hsk/Desktop/devel/tee-tpm-hyp/optee_os/lib/libutee/tee_api_objects.c:304
    12f0:	f005 f91e 	bl	6530 <TEE_Panic>
/home/hsk/Desktop/devel/tee-tpm-hyp/optee_os/lib/libutee/tee_api_objects.c:306
    12f4:	e9c4 5700 	strd	r5, r7, [r4]
/home/hsk/Desktop/devel/tee-tpm-hyp/optee_os/lib/libutee/tee_api_objects.c:307
    12f8:	60a6      	str	r6, [r4, #8]
/home/hsk/Desktop/devel/tee-tpm-hyp/optee_os/lib/libutee/tee_api_objects.c:308
    12fa:	bdf8      	pop	{r3, r4, r5, r6, r7, pc}

000012fc <TEE_CopyObjectAttributes1>:
TEE_CopyObjectAttributes1():
/home/hsk/Desktop/devel/tee-tpm-hyp/optee_os/lib/libutee/tee_api_objects.c:333
    12fc:	b570      	push	{r4, r5, r6, lr}
    12fe:	460d      	mov	r5, r1
    1300:	4606      	mov	r6, r0
    1302:	b08e      	sub	sp, #56	; 0x38
/home/hsk/Desktop/devel/tee-tpm-hyp/optee_os/lib/libutee/tee_api_objects.c:338
    1304:	4669      	mov	r1, sp
    1306:	f000 ec54 	blx	1bb0 <utee_cryp_obj_get_info>
/home/hsk/Desktop/devel/tee-tpm-hyp/optee_os/lib/libutee/tee_api_objects.c:339
    130a:	4604      	mov	r4, r0
    130c:	b9e0      	cbnz	r0, 1348 <TEE_CopyObjectAttributes1+0x4c>
/home/hsk/Desktop/devel/tee-tpm-hyp/optee_os/lib/libutee/tee_api_objects.c:342
    130e:	a907      	add	r1, sp, #28
    1310:	4628      	mov	r0, r5
    1312:	f000 ec4e 	blx	1bb0 <utee_cryp_obj_get_info>
/home/hsk/Desktop/devel/tee-tpm-hyp/optee_os/lib/libutee/tee_api_objects.c:343
    1316:	4604      	mov	r4, r0
    1318:	b9b0      	cbnz	r0, 1348 <TEE_CopyObjectAttributes1+0x4c>
/home/hsk/Desktop/devel/tee-tpm-hyp/optee_os/lib/libutee/tee_api_objects.c:346
    131a:	9b0d      	ldr	r3, [sp, #52]	; 0x34
    131c:	0399      	lsls	r1, r3, #14
    131e:	d401      	bmi.n	1324 <TEE_CopyObjectAttributes1+0x28>
/home/hsk/Desktop/devel/tee-tpm-hyp/optee_os/lib/libutee/tee_api_objects.c:347
    1320:	f005 f906 	bl	6530 <TEE_Panic>
/home/hsk/Desktop/devel/tee-tpm-hyp/optee_os/lib/libutee/tee_api_objects.c:349
    1324:	9b06      	ldr	r3, [sp, #24]
    1326:	03da      	lsls	r2, r3, #15
    1328:	d502      	bpl.n	1330 <TEE_CopyObjectAttributes1+0x34>
/home/hsk/Desktop/devel/tee-tpm-hyp/optee_os/lib/libutee/tee_api_objects.c:350
    132a:	2000      	movs	r0, #0
    132c:	f005 f900 	bl	6530 <TEE_Panic>
/home/hsk/Desktop/devel/tee-tpm-hyp/optee_os/lib/libutee/tee_api_objects.c:352
    1330:	9b06      	ldr	r3, [sp, #24]
    1332:	039b      	lsls	r3, r3, #14
    1334:	d502      	bpl.n	133c <TEE_CopyObjectAttributes1+0x40>
/home/hsk/Desktop/devel/tee-tpm-hyp/optee_os/lib/libutee/tee_api_objects.c:353
    1336:	2000      	movs	r0, #0
    1338:	f005 f8fa 	bl	6530 <TEE_Panic>
/home/hsk/Desktop/devel/tee-tpm-hyp/optee_os/lib/libutee/tee_api_objects.c:355
    133c:	4629      	mov	r1, r5
    133e:	4630      	mov	r0, r6
    1340:	f000 ec7c 	blx	1c3c <utee_cryp_obj_copy>
/home/hsk/Desktop/devel/tee-tpm-hyp/optee_os/lib/libutee/tee_api_objects.c:359
    1344:	4604      	mov	r4, r0
    1346:	b140      	cbz	r0, 135a <TEE_CopyObjectAttributes1+0x5e>
/home/hsk/Desktop/devel/tee-tpm-hyp/optee_os/lib/libutee/tee_api_objects.c:359 (discriminator 1)
    1348:	4b05      	ldr	r3, [pc, #20]	; (1360 <TEE_CopyObjectAttributes1+0x64>)
    134a:	429c      	cmp	r4, r3
    134c:	d005      	beq.n	135a <TEE_CopyObjectAttributes1+0x5e>
/home/hsk/Desktop/devel/tee-tpm-hyp/optee_os/lib/libutee/tee_api_objects.c:360
    134e:	3302      	adds	r3, #2
    1350:	429c      	cmp	r4, r3
    1352:	d002      	beq.n	135a <TEE_CopyObjectAttributes1+0x5e>
/home/hsk/Desktop/devel/tee-tpm-hyp/optee_os/lib/libutee/tee_api_objects.c:362
    1354:	4620      	mov	r0, r4
    1356:	f005 f8eb 	bl	6530 <TEE_Panic>
/home/hsk/Desktop/devel/tee-tpm-hyp/optee_os/lib/libutee/tee_api_objects.c:365
    135a:	4620      	mov	r0, r4
    135c:	b00e      	add	sp, #56	; 0x38
    135e:	bd70      	pop	{r4, r5, r6, pc}
    1360:	f0100001 	.word	0xf0100001

00001364 <TEE_CopyObjectAttributes>:
TEE_CopyObjectAttributes():
/home/hsk/Desktop/devel/tee-tpm-hyp/optee_os/lib/libutee/tee_api_objects.c:318
    1364:	b530      	push	{r4, r5, lr}
    1366:	460c      	mov	r4, r1
    1368:	4605      	mov	r5, r0
    136a:	b089      	sub	sp, #36	; 0x24
/home/hsk/Desktop/devel/tee-tpm-hyp/optee_os/lib/libutee/tee_api_objects.c:322
    136c:	4620      	mov	r0, r4
    136e:	a901      	add	r1, sp, #4
    1370:	f000 ec1e 	blx	1bb0 <utee_cryp_obj_get_info>
/home/hsk/Desktop/devel/tee-tpm-hyp/optee_os/lib/libutee/tee_api_objects.c:323
    1374:	4b06      	ldr	r3, [pc, #24]	; (1390 <TEE_CopyObjectAttributes+0x2c>)
    1376:	9a01      	ldr	r2, [sp, #4]
    1378:	429a      	cmp	r2, r3
    137a:	d006      	beq.n	138a <TEE_CopyObjectAttributes+0x26>
/home/hsk/Desktop/devel/tee-tpm-hyp/optee_os/lib/libutee/tee_api_objects.c:326
    137c:	4621      	mov	r1, r4
    137e:	4628      	mov	r0, r5
    1380:	f7ff ffbc 	bl	12fc <TEE_CopyObjectAttributes1>
/home/hsk/Desktop/devel/tee-tpm-hyp/optee_os/lib/libutee/tee_api_objects.c:327
    1384:	b108      	cbz	r0, 138a <TEE_CopyObjectAttributes+0x26>
/home/hsk/Desktop/devel/tee-tpm-hyp/optee_os/lib/libutee/tee_api_objects.c:328
    1386:	f005 f8d3 	bl	6530 <TEE_Panic>
/home/hsk/Desktop/devel/tee-tpm-hyp/optee_os/lib/libutee/tee_api_objects.c:329
    138a:	b009      	add	sp, #36	; 0x24
    138c:	bd30      	pop	{r4, r5, pc}
    138e:	bf00      	nop
    1390:	a00000be 	.word	0xa00000be

00001394 <TEE_GenerateKey>:
TEE_GenerateKey():
/home/hsk/Desktop/devel/tee-tpm-hyp/optee_os/lib/libutee/tee_api_objects.c:369
    1394:	e92d 41f0 	stmdb	sp!, {r4, r5, r6, r7, r8, lr}
    1398:	461c      	mov	r4, r3
/home/hsk/Desktop/devel/tee-tpm-hyp/optee_os/lib/libutee/tee_api_objects.c:371
    139a:	2318      	movs	r3, #24
/home/hsk/Desktop/devel/tee-tpm-hyp/optee_os/lib/libutee/tee_api_objects.c:369
    139c:	b082      	sub	sp, #8
    139e:	af02      	add	r7, sp, #8
    13a0:	4605      	mov	r5, r0
/home/hsk/Desktop/devel/tee-tpm-hyp/optee_os/lib/libutee/tee_api_objects.c:371
    13a2:	4363      	muls	r3, r4
/home/hsk/Desktop/devel/tee-tpm-hyp/optee_os/lib/libutee/tee_api_objects.c:369
    13a4:	4688      	mov	r8, r1
    13a6:	4611      	mov	r1, r2
/home/hsk/Desktop/devel/tee-tpm-hyp/optee_os/lib/libutee/tee_api_objects.c:373
    13a8:	4622      	mov	r2, r4
/home/hsk/Desktop/devel/tee-tpm-hyp/optee_os/lib/libutee/tee_api_objects.c:371
    13aa:	3308      	adds	r3, #8
    13ac:	ebad 0d03 	sub.w	sp, sp, r3
    13b0:	ae02      	add	r6, sp, #8
/home/hsk/Desktop/devel/tee-tpm-hyp/optee_os/lib/libutee/tee_api_objects.c:373
    13b2:	4630      	mov	r0, r6
    13b4:	f7ff fe14 	bl	fe0 <__utee_from_attr>
/home/hsk/Desktop/devel/tee-tpm-hyp/optee_os/lib/libutee/tee_api_objects.c:374
    13b8:	4b0f      	ldr	r3, [pc, #60]	; (13f8 <TEE_GenerateKey+0x64>)
    13ba:	4810      	ldr	r0, [pc, #64]	; (13fc <TEE_GenerateKey+0x68>)
    13bc:	2203      	movs	r2, #3
    13be:	447b      	add	r3, pc
    13c0:	f44f 71bb 	mov.w	r1, #374	; 0x176
    13c4:	9300      	str	r3, [sp, #0]
    13c6:	4478      	add	r0, pc
    13c8:	2301      	movs	r3, #1
    13ca:	9501      	str	r5, [sp, #4]
    13cc:	f7fe ff86 	bl	2dc <trace_printf>
/home/hsk/Desktop/devel/tee-tpm-hyp/optee_os/lib/libutee/tee_api_objects.c:375
    13d0:	4623      	mov	r3, r4
    13d2:	4632      	mov	r2, r6
    13d4:	4641      	mov	r1, r8
    13d6:	4628      	mov	r0, r5
    13d8:	f000 ed26 	blx	1e28 <utee_cryp_obj_generate_key>
/home/hsk/Desktop/devel/tee-tpm-hyp/optee_os/lib/libutee/tee_api_objects.c:378
    13dc:	4604      	mov	r4, r0
    13de:	b120      	cbz	r0, 13ea <TEE_GenerateKey+0x56>
/home/hsk/Desktop/devel/tee-tpm-hyp/optee_os/lib/libutee/tee_api_objects.c:378 (discriminator 1)
    13e0:	4b04      	ldr	r3, [pc, #16]	; (13f4 <TEE_GenerateKey+0x60>)
    13e2:	4298      	cmp	r0, r3
    13e4:	d001      	beq.n	13ea <TEE_GenerateKey+0x56>
/home/hsk/Desktop/devel/tee-tpm-hyp/optee_os/lib/libutee/tee_api_objects.c:379
    13e6:	f005 f8a3 	bl	6530 <TEE_Panic>
/home/hsk/Desktop/devel/tee-tpm-hyp/optee_os/lib/libutee/tee_api_objects.c:382
    13ea:	4620      	mov	r0, r4
    13ec:	46bd      	mov	sp, r7
    13ee:	e8bd 81f0 	ldmia.w	sp!, {r4, r5, r6, r7, r8, pc}
    13f2:	bf00      	nop
    13f4:	ffff0006 	.word	0xffff0006
    13f8:	00005853 	.word	0x00005853
    13fc:	0000583b 	.word	0x0000583b

00001400 <TEE_OpenPersistentObject>:
TEE_OpenPersistentObject():
/home/hsk/Desktop/devel/tee-tpm-hyp/optee_os/lib/libutee/tee_api_objects.c:389
    1400:	b530      	push	{r4, r5, lr}
    1402:	b085      	sub	sp, #20
    1404:	9d08      	ldr	r5, [sp, #32]
/home/hsk/Desktop/devel/tee-tpm-hyp/optee_os/lib/libutee/tee_api_objects.c:393
    1406:	b919      	cbnz	r1, 1410 <TEE_OpenPersistentObject+0x10>
/home/hsk/Desktop/devel/tee-tpm-hyp/optee_os/lib/libutee/tee_api_objects.c:394
    1408:	4c12      	ldr	r4, [pc, #72]	; (1454 <TEE_OpenPersistentObject+0x54>)
/home/hsk/Desktop/devel/tee-tpm-hyp/optee_os/lib/libutee/tee_api_objects.c:423
    140a:	4620      	mov	r0, r4
    140c:	b005      	add	sp, #20
    140e:	bd30      	pop	{r4, r5, pc}
/home/hsk/Desktop/devel/tee-tpm-hyp/optee_os/lib/libutee/tee_api_objects.c:398
    1410:	2a40      	cmp	r2, #64	; 0x40
    1412:	d809      	bhi.n	1428 <TEE_OpenPersistentObject+0x28>
/home/hsk/Desktop/devel/tee-tpm-hyp/optee_os/lib/libutee/tee_api_objects.c:403
    1414:	b145      	cbz	r5, 1428 <TEE_OpenPersistentObject+0x28>
/home/hsk/Desktop/devel/tee-tpm-hyp/optee_os/lib/libutee/tee_api_objects.c:408
    1416:	ac03      	add	r4, sp, #12
    1418:	9400      	str	r4, [sp, #0]
    141a:	f000 ec80 	blx	1d1c <utee_storage_obj_open>
/home/hsk/Desktop/devel/tee-tpm-hyp/optee_os/lib/libutee/tee_api_objects.c:410
    141e:	4604      	mov	r4, r0
    1420:	b920      	cbnz	r0, 142c <TEE_OpenPersistentObject+0x2c>
/home/hsk/Desktop/devel/tee-tpm-hyp/optee_os/lib/libutee/tee_api_objects.c:411
    1422:	9b03      	ldr	r3, [sp, #12]
    1424:	602b      	str	r3, [r5, #0]
    1426:	e7f0      	b.n	140a <TEE_OpenPersistentObject+0xa>
    1428:	4c0b      	ldr	r4, [pc, #44]	; (1458 <TEE_OpenPersistentObject+0x58>)
    142a:	e00e      	b.n	144a <TEE_OpenPersistentObject+0x4a>
/home/hsk/Desktop/devel/tee-tpm-hyp/optee_os/lib/libutee/tee_api_objects.c:414
    142c:	4b09      	ldr	r3, [pc, #36]	; (1454 <TEE_OpenPersistentObject+0x54>)
    142e:	4298      	cmp	r0, r3
    1430:	d0ea      	beq.n	1408 <TEE_OpenPersistentObject+0x8>
/home/hsk/Desktop/devel/tee-tpm-hyp/optee_os/lib/libutee/tee_api_objects.c:415
    1432:	4b0a      	ldr	r3, [pc, #40]	; (145c <TEE_OpenPersistentObject+0x5c>)
    1434:	429c      	cmp	r4, r3
    1436:	d0e8      	beq.n	140a <TEE_OpenPersistentObject+0xa>
/home/hsk/Desktop/devel/tee-tpm-hyp/optee_os/lib/libutee/tee_api_objects.c:416
    1438:	3309      	adds	r3, #9
    143a:	429c      	cmp	r4, r3
    143c:	d0e5      	beq.n	140a <TEE_OpenPersistentObject+0xa>
/home/hsk/Desktop/devel/tee-tpm-hyp/optee_os/lib/libutee/tee_api_objects.c:417
    143e:	4b08      	ldr	r3, [pc, #32]	; (1460 <TEE_OpenPersistentObject+0x60>)
    1440:	429c      	cmp	r4, r3
    1442:	d0e2      	beq.n	140a <TEE_OpenPersistentObject+0xa>
/home/hsk/Desktop/devel/tee-tpm-hyp/optee_os/lib/libutee/tee_api_objects.c:418
    1444:	3302      	adds	r3, #2
    1446:	429c      	cmp	r4, r3
    1448:	d0df      	beq.n	140a <TEE_OpenPersistentObject+0xa>
/home/hsk/Desktop/devel/tee-tpm-hyp/optee_os/lib/libutee/tee_api_objects.c:420
    144a:	4620      	mov	r0, r4
    144c:	f005 f870 	bl	6530 <TEE_Panic>
/home/hsk/Desktop/devel/tee-tpm-hyp/optee_os/lib/libutee/tee_api_objects.c:422
    1450:	e7db      	b.n	140a <TEE_OpenPersistentObject+0xa>
    1452:	bf00      	nop
    1454:	ffff0008 	.word	0xffff0008
    1458:	ffff0006 	.word	0xffff0006
    145c:	ffff0003 	.word	0xffff0003
    1460:	f0100001 	.word	0xf0100001

00001464 <TEE_CreatePersistentObject>:
TEE_CreatePersistentObject():
/home/hsk/Desktop/devel/tee-tpm-hyp/optee_os/lib/libutee/tee_api_objects.c:431
    1464:	b570      	push	{r4, r5, r6, lr}
    1466:	b086      	sub	sp, #24
    1468:	9c0d      	ldr	r4, [sp, #52]	; 0x34
/home/hsk/Desktop/devel/tee-tpm-hyp/optee_os/lib/libutee/tee_api_objects.c:435
    146a:	2900      	cmp	r1, #0
    146c:	d033      	beq.n	14d6 <TEE_CreatePersistentObject+0x72>
/home/hsk/Desktop/devel/tee-tpm-hyp/optee_os/lib/libutee/tee_api_objects.c:440
    146e:	2a40      	cmp	r2, #64	; 0x40
    1470:	d835      	bhi.n	14de <TEE_CreatePersistentObject+0x7a>
/home/hsk/Desktop/devel/tee-tpm-hyp/optee_os/lib/libutee/tee_api_objects.c:445
    1472:	ad05      	add	r5, sp, #20
    1474:	9503      	str	r5, [sp, #12]
    1476:	9d0c      	ldr	r5, [sp, #48]	; 0x30
    1478:	9502      	str	r5, [sp, #8]
    147a:	9d0b      	ldr	r5, [sp, #44]	; 0x2c
    147c:	9501      	str	r5, [sp, #4]
    147e:	9d0a      	ldr	r5, [sp, #40]	; 0x28
    1480:	9500      	str	r5, [sp, #0]
    1482:	f000 ec58 	blx	1d34 <utee_storage_obj_create>
/home/hsk/Desktop/devel/tee-tpm-hyp/optee_os/lib/libutee/tee_api_objects.c:448
    1486:	b970      	cbnz	r0, 14a6 <TEE_CreatePersistentObject+0x42>
    1488:	9b05      	ldr	r3, [sp, #20]
/home/hsk/Desktop/devel/tee-tpm-hyp/optee_os/lib/libutee/tee_api_objects.c:449
    148a:	b114      	cbz	r4, 1492 <TEE_CreatePersistentObject+0x2e>
/home/hsk/Desktop/devel/tee-tpm-hyp/optee_os/lib/libutee/tee_api_objects.c:450
    148c:	6023      	str	r3, [r4, #0]
/home/hsk/Desktop/devel/tee-tpm-hyp/optee_os/lib/libutee/tee_api_objects.c:469
    148e:	b006      	add	sp, #24
    1490:	bd70      	pop	{r4, r5, r6, pc}
/home/hsk/Desktop/devel/tee-tpm-hyp/optee_os/lib/libutee/tee_api_objects.c:452
    1492:	4618      	mov	r0, r3
    1494:	f000 ebb4 	blx	1c00 <utee_cryp_obj_close>
/home/hsk/Desktop/devel/tee-tpm-hyp/optee_os/lib/libutee/tee_api_objects.c:453
    1498:	2800      	cmp	r0, #0
    149a:	d0f8      	beq.n	148e <TEE_CreatePersistentObject+0x2a>
/home/hsk/Desktop/devel/tee-tpm-hyp/optee_os/lib/libutee/tee_api_objects.c:459
    149c:	4b12      	ldr	r3, [pc, #72]	; (14e8 <TEE_CreatePersistentObject+0x84>)
    149e:	4298      	cmp	r0, r3
    14a0:	d106      	bne.n	14b0 <TEE_CreatePersistentObject+0x4c>
/home/hsk/Desktop/devel/tee-tpm-hyp/optee_os/lib/libutee/tee_api_objects.c:458
    14a2:	4811      	ldr	r0, [pc, #68]	; (14e8 <TEE_CreatePersistentObject+0x84>)
    14a4:	e7f3      	b.n	148e <TEE_CreatePersistentObject+0x2a>
/home/hsk/Desktop/devel/tee-tpm-hyp/optee_os/lib/libutee/tee_api_objects.c:457
    14a6:	2c00      	cmp	r4, #0
    14a8:	d0f8      	beq.n	149c <TEE_CreatePersistentObject+0x38>
/home/hsk/Desktop/devel/tee-tpm-hyp/optee_os/lib/libutee/tee_api_objects.c:458
    14aa:	2300      	movs	r3, #0
    14ac:	6023      	str	r3, [r4, #0]
    14ae:	e7f5      	b.n	149c <TEE_CreatePersistentObject+0x38>
/home/hsk/Desktop/devel/tee-tpm-hyp/optee_os/lib/libutee/tee_api_objects.c:459 (discriminator 1)
    14b0:	4b0e      	ldr	r3, [pc, #56]	; (14ec <TEE_CreatePersistentObject+0x88>)
    14b2:	4298      	cmp	r0, r3
    14b4:	d0eb      	beq.n	148e <TEE_CreatePersistentObject+0x2a>
/home/hsk/Desktop/devel/tee-tpm-hyp/optee_os/lib/libutee/tee_api_objects.c:460
    14b6:	3309      	adds	r3, #9
    14b8:	4298      	cmp	r0, r3
    14ba:	d0e8      	beq.n	148e <TEE_CreatePersistentObject+0x2a>
/home/hsk/Desktop/devel/tee-tpm-hyp/optee_os/lib/libutee/tee_api_objects.c:461
    14bc:	4b0c      	ldr	r3, [pc, #48]	; (14f0 <TEE_CreatePersistentObject+0x8c>)
    14be:	4298      	cmp	r0, r3
    14c0:	d0e5      	beq.n	148e <TEE_CreatePersistentObject+0x2a>
/home/hsk/Desktop/devel/tee-tpm-hyp/optee_os/lib/libutee/tee_api_objects.c:462
    14c2:	4b0c      	ldr	r3, [pc, #48]	; (14f4 <TEE_CreatePersistentObject+0x90>)
    14c4:	4298      	cmp	r0, r3
    14c6:	d0e2      	beq.n	148e <TEE_CreatePersistentObject+0x2a>
/home/hsk/Desktop/devel/tee-tpm-hyp/optee_os/lib/libutee/tee_api_objects.c:463
    14c8:	3302      	adds	r3, #2
    14ca:	4298      	cmp	r0, r3
    14cc:	d0df      	beq.n	148e <TEE_CreatePersistentObject+0x2a>
/home/hsk/Desktop/devel/tee-tpm-hyp/optee_os/lib/libutee/tee_api_objects.c:466
    14ce:	f005 f82f 	bl	6530 <TEE_Panic>
/home/hsk/Desktop/devel/tee-tpm-hyp/optee_os/lib/libutee/tee_api_objects.c:468
    14d2:	2000      	movs	r0, #0
    14d4:	e7db      	b.n	148e <TEE_CreatePersistentObject+0x2a>
/home/hsk/Desktop/devel/tee-tpm-hyp/optee_os/lib/libutee/tee_api_objects.c:457
    14d6:	2c00      	cmp	r4, #0
    14d8:	d0e3      	beq.n	14a2 <TEE_CreatePersistentObject+0x3e>
/home/hsk/Desktop/devel/tee-tpm-hyp/optee_os/lib/libutee/tee_api_objects.c:458
    14da:	6021      	str	r1, [r4, #0]
    14dc:	e7e1      	b.n	14a2 <TEE_CreatePersistentObject+0x3e>
/home/hsk/Desktop/devel/tee-tpm-hyp/optee_os/lib/libutee/tee_api_objects.c:457
    14de:	b10c      	cbz	r4, 14e4 <TEE_CreatePersistentObject+0x80>
/home/hsk/Desktop/devel/tee-tpm-hyp/optee_os/lib/libutee/tee_api_objects.c:458
    14e0:	2300      	movs	r3, #0
    14e2:	6023      	str	r3, [r4, #0]
/home/hsk/Desktop/devel/tee-tpm-hyp/optee_os/lib/libutee/tee_api_objects.c:441
    14e4:	4804      	ldr	r0, [pc, #16]	; (14f8 <TEE_CreatePersistentObject+0x94>)
    14e6:	e7f2      	b.n	14ce <TEE_CreatePersistentObject+0x6a>
    14e8:	ffff0008 	.word	0xffff0008
    14ec:	ffff0003 	.word	0xffff0003
    14f0:	ffff3041 	.word	0xffff3041
    14f4:	f0100001 	.word	0xf0100001
    14f8:	ffff0006 	.word	0xffff0006

000014fc <TEE_CloseAndDeletePersistentObject1>:
TEE_CloseAndDeletePersistentObject1():
/home/hsk/Desktop/devel/tee-tpm-hyp/optee_os/lib/libutee/tee_api_objects.c:491
    14fc:	b510      	push	{r4, lr}
/home/hsk/Desktop/devel/tee-tpm-hyp/optee_os/lib/libutee/tee_api_objects.c:494
    14fe:	b150      	cbz	r0, 1516 <TEE_CloseAndDeletePersistentObject1+0x1a>
/home/hsk/Desktop/devel/tee-tpm-hyp/optee_os/lib/libutee/tee_api_objects.c:497
    1500:	f000 ec24 	blx	1d4c <utee_storage_obj_del>
/home/hsk/Desktop/devel/tee-tpm-hyp/optee_os/lib/libutee/tee_api_objects.c:499
    1504:	4604      	mov	r4, r0
    1506:	b120      	cbz	r0, 1512 <TEE_CloseAndDeletePersistentObject1+0x16>
/home/hsk/Desktop/devel/tee-tpm-hyp/optee_os/lib/libutee/tee_api_objects.c:499 (discriminator 1)
    1508:	4b04      	ldr	r3, [pc, #16]	; (151c <TEE_CloseAndDeletePersistentObject1+0x20>)
    150a:	4298      	cmp	r0, r3
    150c:	d001      	beq.n	1512 <TEE_CloseAndDeletePersistentObject1+0x16>
/home/hsk/Desktop/devel/tee-tpm-hyp/optee_os/lib/libutee/tee_api_objects.c:500
    150e:	f005 f80f 	bl	6530 <TEE_Panic>
/home/hsk/Desktop/devel/tee-tpm-hyp/optee_os/lib/libutee/tee_api_objects.c:503
    1512:	4620      	mov	r0, r4
    1514:	bd10      	pop	{r4, pc}
/home/hsk/Desktop/devel/tee-tpm-hyp/optee_os/lib/libutee/tee_api_objects.c:495
    1516:	4c01      	ldr	r4, [pc, #4]	; (151c <TEE_CloseAndDeletePersistentObject1+0x20>)
    1518:	e7fb      	b.n	1512 <TEE_CloseAndDeletePersistentObject1+0x16>
    151a:	bf00      	nop
    151c:	f0100003 	.word	0xf0100003

00001520 <TEE_CloseAndDeletePersistentObject>:
TEE_CloseAndDeletePersistentObject():
/home/hsk/Desktop/devel/tee-tpm-hyp/optee_os/lib/libutee/tee_api_objects.c:478
    1520:	b508      	push	{r3, lr}
/home/hsk/Desktop/devel/tee-tpm-hyp/optee_os/lib/libutee/tee_api_objects.c:481
    1522:	b138      	cbz	r0, 1534 <TEE_CloseAndDeletePersistentObject+0x14>
/home/hsk/Desktop/devel/tee-tpm-hyp/optee_os/lib/libutee/tee_api_objects.c:484
    1524:	f7ff ffea 	bl	14fc <TEE_CloseAndDeletePersistentObject1>
/home/hsk/Desktop/devel/tee-tpm-hyp/optee_os/lib/libutee/tee_api_objects.c:486
    1528:	b120      	cbz	r0, 1534 <TEE_CloseAndDeletePersistentObject+0x14>
/home/hsk/Desktop/devel/tee-tpm-hyp/optee_os/lib/libutee/tee_api_objects.c:487
    152a:	2000      	movs	r0, #0
/home/hsk/Desktop/devel/tee-tpm-hyp/optee_os/lib/libutee/tee_api_objects.c:488
    152c:	e8bd 4008 	ldmia.w	sp!, {r3, lr}
/home/hsk/Desktop/devel/tee-tpm-hyp/optee_os/lib/libutee/tee_api_objects.c:487
    1530:	f004 bffe 	b.w	6530 <TEE_Panic>
/home/hsk/Desktop/devel/tee-tpm-hyp/optee_os/lib/libutee/tee_api_objects.c:488
    1534:	bd08      	pop	{r3, pc}

00001536 <TEE_RenamePersistentObject>:
TEE_RenamePersistentObject():
/home/hsk/Desktop/devel/tee-tpm-hyp/optee_os/lib/libutee/tee_api_objects.c:509
    1536:	b510      	push	{r4, lr}
/home/hsk/Desktop/devel/tee-tpm-hyp/optee_os/lib/libutee/tee_api_objects.c:512
    1538:	b1a0      	cbz	r0, 1564 <TEE_RenamePersistentObject+0x2e>
/home/hsk/Desktop/devel/tee-tpm-hyp/optee_os/lib/libutee/tee_api_objects.c:517
    153a:	b1a9      	cbz	r1, 1568 <TEE_RenamePersistentObject+0x32>
/home/hsk/Desktop/devel/tee-tpm-hyp/optee_os/lib/libutee/tee_api_objects.c:522
    153c:	2a40      	cmp	r2, #64	; 0x40
    153e:	d813      	bhi.n	1568 <TEE_RenamePersistentObject+0x32>
/home/hsk/Desktop/devel/tee-tpm-hyp/optee_os/lib/libutee/tee_api_objects.c:527
    1540:	f000 ec0e 	blx	1d60 <utee_storage_obj_rename>
/home/hsk/Desktop/devel/tee-tpm-hyp/optee_os/lib/libutee/tee_api_objects.c:531
    1544:	4604      	mov	r4, r0
    1546:	b158      	cbz	r0, 1560 <TEE_RenamePersistentObject+0x2a>
/home/hsk/Desktop/devel/tee-tpm-hyp/optee_os/lib/libutee/tee_api_objects.c:531 (discriminator 1)
    1548:	4b08      	ldr	r3, [pc, #32]	; (156c <TEE_RenamePersistentObject+0x36>)
    154a:	4298      	cmp	r0, r3
    154c:	d008      	beq.n	1560 <TEE_RenamePersistentObject+0x2a>
/home/hsk/Desktop/devel/tee-tpm-hyp/optee_os/lib/libutee/tee_api_objects.c:532
    154e:	4b08      	ldr	r3, [pc, #32]	; (1570 <TEE_RenamePersistentObject+0x3a>)
    1550:	4298      	cmp	r0, r3
    1552:	d005      	beq.n	1560 <TEE_RenamePersistentObject+0x2a>
/home/hsk/Desktop/devel/tee-tpm-hyp/optee_os/lib/libutee/tee_api_objects.c:533
    1554:	3302      	adds	r3, #2
    1556:	4298      	cmp	r0, r3
    1558:	d002      	beq.n	1560 <TEE_RenamePersistentObject+0x2a>
/home/hsk/Desktop/devel/tee-tpm-hyp/optee_os/lib/libutee/tee_api_objects.c:535
    155a:	4620      	mov	r0, r4
    155c:	f004 ffe8 	bl	6530 <TEE_Panic>
/home/hsk/Desktop/devel/tee-tpm-hyp/optee_os/lib/libutee/tee_api_objects.c:538
    1560:	4620      	mov	r0, r4
    1562:	bd10      	pop	{r4, pc}
/home/hsk/Desktop/devel/tee-tpm-hyp/optee_os/lib/libutee/tee_api_objects.c:513
    1564:	4c03      	ldr	r4, [pc, #12]	; (1574 <TEE_RenamePersistentObject+0x3e>)
    1566:	e7f8      	b.n	155a <TEE_RenamePersistentObject+0x24>
/home/hsk/Desktop/devel/tee-tpm-hyp/optee_os/lib/libutee/tee_api_objects.c:518
    1568:	4c03      	ldr	r4, [pc, #12]	; (1578 <TEE_RenamePersistentObject+0x42>)
    156a:	e7f6      	b.n	155a <TEE_RenamePersistentObject+0x24>
    156c:	ffff0003 	.word	0xffff0003
    1570:	f0100001 	.word	0xf0100001
    1574:	ffff0008 	.word	0xffff0008
    1578:	ffff0006 	.word	0xffff0006

0000157c <TEE_AllocatePersistentObjectEnumerator>:
TEE_AllocatePersistentObjectEnumerator():
/home/hsk/Desktop/devel/tee-tpm-hyp/optee_os/lib/libutee/tee_api_objects.c:542
    157c:	b537      	push	{r0, r1, r2, r4, r5, lr}
/home/hsk/Desktop/devel/tee-tpm-hyp/optee_os/lib/libutee/tee_api_objects.c:546
    157e:	4605      	mov	r5, r0
    1580:	b190      	cbz	r0, 15a8 <TEE_AllocatePersistentObjectEnumerator+0x2c>
/home/hsk/Desktop/devel/tee-tpm-hyp/optee_os/lib/libutee/tee_api_objects.c:549
    1582:	a801      	add	r0, sp, #4
    1584:	f000 ebf6 	blx	1d74 <utee_storage_alloc_enum>
/home/hsk/Desktop/devel/tee-tpm-hyp/optee_os/lib/libutee/tee_api_objects.c:551
    1588:	4604      	mov	r4, r0
    158a:	b108      	cbz	r0, 1590 <TEE_AllocatePersistentObjectEnumerator+0x14>
/home/hsk/Desktop/devel/tee-tpm-hyp/optee_os/lib/libutee/tee_api_objects.c:552
    158c:	2300      	movs	r3, #0
    158e:	9301      	str	r3, [sp, #4]
/home/hsk/Desktop/devel/tee-tpm-hyp/optee_os/lib/libutee/tee_api_objects.c:554
    1590:	9b01      	ldr	r3, [sp, #4]
    1592:	602b      	str	r3, [r5, #0]
/home/hsk/Desktop/devel/tee-tpm-hyp/optee_os/lib/libutee/tee_api_objects.c:556
    1594:	b12c      	cbz	r4, 15a2 <TEE_AllocatePersistentObjectEnumerator+0x26>
/home/hsk/Desktop/devel/tee-tpm-hyp/optee_os/lib/libutee/tee_api_objects.c:556 (discriminator 1)
    1596:	4b05      	ldr	r3, [pc, #20]	; (15ac <TEE_AllocatePersistentObjectEnumerator+0x30>)
    1598:	429c      	cmp	r4, r3
    159a:	d002      	beq.n	15a2 <TEE_AllocatePersistentObjectEnumerator+0x26>
/home/hsk/Desktop/devel/tee-tpm-hyp/optee_os/lib/libutee/tee_api_objects.c:558
    159c:	4620      	mov	r0, r4
    159e:	f004 ffc7 	bl	6530 <TEE_Panic>
/home/hsk/Desktop/devel/tee-tpm-hyp/optee_os/lib/libutee/tee_api_objects.c:561
    15a2:	4620      	mov	r0, r4
    15a4:	b003      	add	sp, #12
    15a6:	bd30      	pop	{r4, r5, pc}
/home/hsk/Desktop/devel/tee-tpm-hyp/optee_os/lib/libutee/tee_api_objects.c:547
    15a8:	4c01      	ldr	r4, [pc, #4]	; (15b0 <TEE_AllocatePersistentObjectEnumerator+0x34>)
    15aa:	e7fa      	b.n	15a2 <TEE_AllocatePersistentObjectEnumerator+0x26>
    15ac:	ffff0003 	.word	0xffff0003
    15b0:	ffff0006 	.word	0xffff0006

000015b4 <TEE_FreePersistentObjectEnumerator>:
TEE_FreePersistentObjectEnumerator():
/home/hsk/Desktop/devel/tee-tpm-hyp/optee_os/lib/libutee/tee_api_objects.c:564
    15b4:	b508      	push	{r3, lr}
/home/hsk/Desktop/devel/tee-tpm-hyp/optee_os/lib/libutee/tee_api_objects.c:567
    15b6:	b130      	cbz	r0, 15c6 <TEE_FreePersistentObjectEnumerator+0x12>
/home/hsk/Desktop/devel/tee-tpm-hyp/optee_os/lib/libutee/tee_api_objects.c:570
    15b8:	f000 ebe6 	blx	1d88 <utee_storage_free_enum>
/home/hsk/Desktop/devel/tee-tpm-hyp/optee_os/lib/libutee/tee_api_objects.c:572
    15bc:	b118      	cbz	r0, 15c6 <TEE_FreePersistentObjectEnumerator+0x12>
/home/hsk/Desktop/devel/tee-tpm-hyp/optee_os/lib/libutee/tee_api_objects.c:574
    15be:	e8bd 4008 	ldmia.w	sp!, {r3, lr}
/home/hsk/Desktop/devel/tee-tpm-hyp/optee_os/lib/libutee/tee_api_objects.c:573
    15c2:	f004 bfb5 	b.w	6530 <TEE_Panic>
/home/hsk/Desktop/devel/tee-tpm-hyp/optee_os/lib/libutee/tee_api_objects.c:574
    15c6:	bd08      	pop	{r3, pc}

000015c8 <TEE_ResetPersistentObjectEnumerator>:
TEE_ResetPersistentObjectEnumerator():
/home/hsk/Desktop/devel/tee-tpm-hyp/optee_os/lib/libutee/tee_api_objects.c:577
    15c8:	b508      	push	{r3, lr}
/home/hsk/Desktop/devel/tee-tpm-hyp/optee_os/lib/libutee/tee_api_objects.c:580
    15ca:	b130      	cbz	r0, 15da <TEE_ResetPersistentObjectEnumerator+0x12>
/home/hsk/Desktop/devel/tee-tpm-hyp/optee_os/lib/libutee/tee_api_objects.c:583
    15cc:	f000 ebe6 	blx	1d9c <utee_storage_reset_enum>
/home/hsk/Desktop/devel/tee-tpm-hyp/optee_os/lib/libutee/tee_api_objects.c:585
    15d0:	b118      	cbz	r0, 15da <TEE_ResetPersistentObjectEnumerator+0x12>
/home/hsk/Desktop/devel/tee-tpm-hyp/optee_os/lib/libutee/tee_api_objects.c:587
    15d2:	e8bd 4008 	ldmia.w	sp!, {r3, lr}
/home/hsk/Desktop/devel/tee-tpm-hyp/optee_os/lib/libutee/tee_api_objects.c:586
    15d6:	f004 bfab 	b.w	6530 <TEE_Panic>
/home/hsk/Desktop/devel/tee-tpm-hyp/optee_os/lib/libutee/tee_api_objects.c:587
    15da:	bd08      	pop	{r3, pc}

000015dc <TEE_StartPersistentObjectEnumerator>:
TEE_StartPersistentObjectEnumerator():
/home/hsk/Desktop/devel/tee-tpm-hyp/optee_os/lib/libutee/tee_api_objects.c:592
    15dc:	b510      	push	{r4, lr}
/home/hsk/Desktop/devel/tee-tpm-hyp/optee_os/lib/libutee/tee_api_objects.c:595
    15de:	f000 ebe8 	blx	1db0 <utee_storage_start_enum>
/home/hsk/Desktop/devel/tee-tpm-hyp/optee_os/lib/libutee/tee_api_objects.c:598
    15e2:	4604      	mov	r4, r0
    15e4:	b148      	cbz	r0, 15fa <TEE_StartPersistentObjectEnumerator+0x1e>
/home/hsk/Desktop/devel/tee-tpm-hyp/optee_os/lib/libutee/tee_api_objects.c:598 (discriminator 1)
    15e6:	4b06      	ldr	r3, [pc, #24]	; (1600 <TEE_StartPersistentObjectEnumerator+0x24>)
    15e8:	4298      	cmp	r0, r3
    15ea:	d006      	beq.n	15fa <TEE_StartPersistentObjectEnumerator+0x1e>
/home/hsk/Desktop/devel/tee-tpm-hyp/optee_os/lib/libutee/tee_api_objects.c:599
    15ec:	4b05      	ldr	r3, [pc, #20]	; (1604 <TEE_StartPersistentObjectEnumerator+0x28>)
    15ee:	f020 0202 	bic.w	r2, r0, #2
    15f2:	429a      	cmp	r2, r3
    15f4:	d001      	beq.n	15fa <TEE_StartPersistentObjectEnumerator+0x1e>
/home/hsk/Desktop/devel/tee-tpm-hyp/optee_os/lib/libutee/tee_api_objects.c:602
    15f6:	f004 ff9b 	bl	6530 <TEE_Panic>
/home/hsk/Desktop/devel/tee-tpm-hyp/optee_os/lib/libutee/tee_api_objects.c:605
    15fa:	4620      	mov	r0, r4
    15fc:	bd10      	pop	{r4, pc}
    15fe:	bf00      	nop
    1600:	ffff0008 	.word	0xffff0008
    1604:	f0100001 	.word	0xf0100001

00001608 <TEE_GetNextPersistentObject>:
TEE_GetNextPersistentObject():
/home/hsk/Desktop/devel/tee-tpm-hyp/optee_os/lib/libutee/tee_api_objects.c:610
    1608:	b510      	push	{r4, lr}
    160a:	461c      	mov	r4, r3
    160c:	b08a      	sub	sp, #40	; 0x28
/home/hsk/Desktop/devel/tee-tpm-hyp/optee_os/lib/libutee/tee_api_objects.c:616
    160e:	b1e2      	cbz	r2, 164a <TEE_GetNextPersistentObject+0x42>
/home/hsk/Desktop/devel/tee-tpm-hyp/optee_os/lib/libutee/tee_api_objects.c:621
    1610:	b1db      	cbz	r3, 164a <TEE_GetNextPersistentObject+0x42>
/home/hsk/Desktop/devel/tee-tpm-hyp/optee_os/lib/libutee/tee_api_objects.c:626
    1612:	b901      	cbnz	r1, 1616 <TEE_GetNextPersistentObject+0xe>
/home/hsk/Desktop/devel/tee-tpm-hyp/optee_os/lib/libutee/tee_api_objects.c:629
    1614:	a903      	add	r1, sp, #12
/home/hsk/Desktop/devel/tee-tpm-hyp/optee_os/lib/libutee/tee_api_objects.c:630
    1616:	6823      	ldr	r3, [r4, #0]
    1618:	9300      	str	r3, [sp, #0]
    161a:	2300      	movs	r3, #0
    161c:	9301      	str	r3, [sp, #4]
/home/hsk/Desktop/devel/tee-tpm-hyp/optee_os/lib/libutee/tee_api_objects.c:631
    161e:	466b      	mov	r3, sp
    1620:	f000 ebd0 	blx	1dc4 <utee_storage_next_enum>
/home/hsk/Desktop/devel/tee-tpm-hyp/optee_os/lib/libutee/tee_api_objects.c:633
    1624:	9b00      	ldr	r3, [sp, #0]
    1626:	6023      	str	r3, [r4, #0]
/home/hsk/Desktop/devel/tee-tpm-hyp/optee_os/lib/libutee/tee_api_objects.c:636
    1628:	4604      	mov	r4, r0
    162a:	b158      	cbz	r0, 1644 <TEE_GetNextPersistentObject+0x3c>
/home/hsk/Desktop/devel/tee-tpm-hyp/optee_os/lib/libutee/tee_api_objects.c:636 (discriminator 1)
    162c:	4b08      	ldr	r3, [pc, #32]	; (1650 <TEE_GetNextPersistentObject+0x48>)
    162e:	4298      	cmp	r0, r3
    1630:	d008      	beq.n	1644 <TEE_GetNextPersistentObject+0x3c>
/home/hsk/Desktop/devel/tee-tpm-hyp/optee_os/lib/libutee/tee_api_objects.c:637
    1632:	4b08      	ldr	r3, [pc, #32]	; (1654 <TEE_GetNextPersistentObject+0x4c>)
    1634:	4298      	cmp	r0, r3
    1636:	d005      	beq.n	1644 <TEE_GetNextPersistentObject+0x3c>
/home/hsk/Desktop/devel/tee-tpm-hyp/optee_os/lib/libutee/tee_api_objects.c:638
    1638:	3302      	adds	r3, #2
    163a:	4298      	cmp	r0, r3
    163c:	d002      	beq.n	1644 <TEE_GetNextPersistentObject+0x3c>
/home/hsk/Desktop/devel/tee-tpm-hyp/optee_os/lib/libutee/tee_api_objects.c:640
    163e:	4620      	mov	r0, r4
    1640:	f004 ff76 	bl	6530 <TEE_Panic>
/home/hsk/Desktop/devel/tee-tpm-hyp/optee_os/lib/libutee/tee_api_objects.c:643
    1644:	4620      	mov	r0, r4
    1646:	b00a      	add	sp, #40	; 0x28
    1648:	bd10      	pop	{r4, pc}
    164a:	4c03      	ldr	r4, [pc, #12]	; (1658 <TEE_GetNextPersistentObject+0x50>)
    164c:	e7f7      	b.n	163e <TEE_GetNextPersistentObject+0x36>
    164e:	bf00      	nop
    1650:	ffff0008 	.word	0xffff0008
    1654:	f0100001 	.word	0xf0100001
    1658:	ffff0006 	.word	0xffff0006

0000165c <TEE_ReadObjectData>:
TEE_ReadObjectData():
/home/hsk/Desktop/devel/tee-tpm-hyp/optee_os/lib/libutee/tee_api_objects.c:649
    165c:	b513      	push	{r0, r1, r4, lr}
    165e:	461c      	mov	r4, r3
/home/hsk/Desktop/devel/tee-tpm-hyp/optee_os/lib/libutee/tee_api_objects.c:653
    1660:	b1b0      	cbz	r0, 1690 <TEE_ReadObjectData+0x34>
/home/hsk/Desktop/devel/tee-tpm-hyp/optee_os/lib/libutee/tee_api_objects.c:658
    1662:	681b      	ldr	r3, [r3, #0]
    1664:	9300      	str	r3, [sp, #0]
    1666:	2300      	movs	r3, #0
    1668:	9301      	str	r3, [sp, #4]
/home/hsk/Desktop/devel/tee-tpm-hyp/optee_os/lib/libutee/tee_api_objects.c:659
    166a:	466b      	mov	r3, sp
    166c:	f000 ebb4 	blx	1dd8 <utee_storage_obj_read>
/home/hsk/Desktop/devel/tee-tpm-hyp/optee_os/lib/libutee/tee_api_objects.c:661
    1670:	9b00      	ldr	r3, [sp, #0]
    1672:	6023      	str	r3, [r4, #0]
/home/hsk/Desktop/devel/tee-tpm-hyp/optee_os/lib/libutee/tee_api_objects.c:664
    1674:	4604      	mov	r4, r0
    1676:	b140      	cbz	r0, 168a <TEE_ReadObjectData+0x2e>
/home/hsk/Desktop/devel/tee-tpm-hyp/optee_os/lib/libutee/tee_api_objects.c:664 (discriminator 1)
    1678:	4b06      	ldr	r3, [pc, #24]	; (1694 <TEE_ReadObjectData+0x38>)
    167a:	4298      	cmp	r0, r3
    167c:	d005      	beq.n	168a <TEE_ReadObjectData+0x2e>
/home/hsk/Desktop/devel/tee-tpm-hyp/optee_os/lib/libutee/tee_api_objects.c:665
    167e:	3302      	adds	r3, #2
    1680:	4298      	cmp	r0, r3
    1682:	d002      	beq.n	168a <TEE_ReadObjectData+0x2e>
/home/hsk/Desktop/devel/tee-tpm-hyp/optee_os/lib/libutee/tee_api_objects.c:667
    1684:	4620      	mov	r0, r4
    1686:	f004 ff53 	bl	6530 <TEE_Panic>
/home/hsk/Desktop/devel/tee-tpm-hyp/optee_os/lib/libutee/tee_api_objects.c:670
    168a:	4620      	mov	r0, r4
    168c:	b002      	add	sp, #8
    168e:	bd10      	pop	{r4, pc}
/home/hsk/Desktop/devel/tee-tpm-hyp/optee_os/lib/libutee/tee_api_objects.c:654
    1690:	4c01      	ldr	r4, [pc, #4]	; (1698 <TEE_ReadObjectData+0x3c>)
    1692:	e7f7      	b.n	1684 <TEE_ReadObjectData+0x28>
    1694:	f0100001 	.word	0xf0100001
    1698:	ffff0006 	.word	0xffff0006

0000169c <TEE_WriteObjectData>:
TEE_WriteObjectData():
/home/hsk/Desktop/devel/tee-tpm-hyp/optee_os/lib/libutee/tee_api_objects.c:674
    169c:	b510      	push	{r4, lr}
/home/hsk/Desktop/devel/tee-tpm-hyp/optee_os/lib/libutee/tee_api_objects.c:677
    169e:	b1a0      	cbz	r0, 16ca <TEE_WriteObjectData+0x2e>
/home/hsk/Desktop/devel/tee-tpm-hyp/optee_os/lib/libutee/tee_api_objects.c:687
    16a0:	f000 eba4 	blx	1dec <utee_storage_obj_write>
/home/hsk/Desktop/devel/tee-tpm-hyp/optee_os/lib/libutee/tee_api_objects.c:690
    16a4:	4604      	mov	r4, r0
    16a6:	b170      	cbz	r0, 16c6 <TEE_WriteObjectData+0x2a>
/home/hsk/Desktop/devel/tee-tpm-hyp/optee_os/lib/libutee/tee_api_objects.c:690 (discriminator 1)
    16a8:	4b09      	ldr	r3, [pc, #36]	; (16d0 <TEE_WriteObjectData+0x34>)
    16aa:	4298      	cmp	r0, r3
    16ac:	d00b      	beq.n	16c6 <TEE_WriteObjectData+0x2a>
/home/hsk/Desktop/devel/tee-tpm-hyp/optee_os/lib/libutee/tee_api_objects.c:691
    16ae:	3b32      	subs	r3, #50	; 0x32
    16b0:	4298      	cmp	r0, r3
    16b2:	d008      	beq.n	16c6 <TEE_WriteObjectData+0x2a>
/home/hsk/Desktop/devel/tee-tpm-hyp/optee_os/lib/libutee/tee_api_objects.c:692
    16b4:	4b07      	ldr	r3, [pc, #28]	; (16d4 <TEE_WriteObjectData+0x38>)
    16b6:	4298      	cmp	r0, r3
    16b8:	d005      	beq.n	16c6 <TEE_WriteObjectData+0x2a>
/home/hsk/Desktop/devel/tee-tpm-hyp/optee_os/lib/libutee/tee_api_objects.c:693
    16ba:	3302      	adds	r3, #2
    16bc:	4298      	cmp	r0, r3
    16be:	d002      	beq.n	16c6 <TEE_WriteObjectData+0x2a>
/home/hsk/Desktop/devel/tee-tpm-hyp/optee_os/lib/libutee/tee_api_objects.c:695
    16c0:	4620      	mov	r0, r4
    16c2:	f004 ff35 	bl	6530 <TEE_Panic>
/home/hsk/Desktop/devel/tee-tpm-hyp/optee_os/lib/libutee/tee_api_objects.c:698
    16c6:	4620      	mov	r0, r4
    16c8:	bd10      	pop	{r4, pc}
/home/hsk/Desktop/devel/tee-tpm-hyp/optee_os/lib/libutee/tee_api_objects.c:678
    16ca:	4c03      	ldr	r4, [pc, #12]	; (16d8 <TEE_WriteObjectData+0x3c>)
    16cc:	e7f8      	b.n	16c0 <TEE_WriteObjectData+0x24>
    16ce:	bf00      	nop
    16d0:	ffff3041 	.word	0xffff3041
    16d4:	f0100001 	.word	0xf0100001
    16d8:	ffff0006 	.word	0xffff0006

000016dc <TEE_TruncateObjectData>:
TEE_TruncateObjectData():
/home/hsk/Desktop/devel/tee-tpm-hyp/optee_os/lib/libutee/tee_api_objects.c:701
    16dc:	b510      	push	{r4, lr}
/home/hsk/Desktop/devel/tee-tpm-hyp/optee_os/lib/libutee/tee_api_objects.c:704
    16de:	b170      	cbz	r0, 16fe <TEE_TruncateObjectData+0x22>
/home/hsk/Desktop/devel/tee-tpm-hyp/optee_os/lib/libutee/tee_api_objects.c:709
    16e0:	f000 eb8e 	blx	1e00 <utee_storage_obj_trunc>
/home/hsk/Desktop/devel/tee-tpm-hyp/optee_os/lib/libutee/tee_api_objects.c:712
    16e4:	4604      	mov	r4, r0
    16e6:	b140      	cbz	r0, 16fa <TEE_TruncateObjectData+0x1e>
/home/hsk/Desktop/devel/tee-tpm-hyp/optee_os/lib/libutee/tee_api_objects.c:712 (discriminator 1)
    16e8:	4b07      	ldr	r3, [pc, #28]	; (1708 <TEE_TruncateObjectData+0x2c>)
    16ea:	4298      	cmp	r0, r3
    16ec:	d005      	beq.n	16fa <TEE_TruncateObjectData+0x1e>
/home/hsk/Desktop/devel/tee-tpm-hyp/optee_os/lib/libutee/tee_api_objects.c:713
    16ee:	4b07      	ldr	r3, [pc, #28]	; (170c <TEE_TruncateObjectData+0x30>)
    16f0:	4298      	cmp	r0, r3
    16f2:	d002      	beq.n	16fa <TEE_TruncateObjectData+0x1e>
/home/hsk/Desktop/devel/tee-tpm-hyp/optee_os/lib/libutee/tee_api_objects.c:714
    16f4:	3302      	adds	r3, #2
    16f6:	4298      	cmp	r0, r3
    16f8:	d102      	bne.n	1700 <TEE_TruncateObjectData+0x24>
/home/hsk/Desktop/devel/tee-tpm-hyp/optee_os/lib/libutee/tee_api_objects.c:719
    16fa:	4620      	mov	r0, r4
    16fc:	bd10      	pop	{r4, pc}
/home/hsk/Desktop/devel/tee-tpm-hyp/optee_os/lib/libutee/tee_api_objects.c:705
    16fe:	4c04      	ldr	r4, [pc, #16]	; (1710 <TEE_TruncateObjectData+0x34>)
/home/hsk/Desktop/devel/tee-tpm-hyp/optee_os/lib/libutee/tee_api_objects.c:716
    1700:	4620      	mov	r0, r4
    1702:	f004 ff15 	bl	6530 <TEE_Panic>
/home/hsk/Desktop/devel/tee-tpm-hyp/optee_os/lib/libutee/tee_api_objects.c:718
    1706:	e7f8      	b.n	16fa <TEE_TruncateObjectData+0x1e>
    1708:	ffff3041 	.word	0xffff3041
    170c:	f0100001 	.word	0xf0100001
    1710:	ffff0006 	.word	0xffff0006

00001714 <TEE_SeekObjectData>:
TEE_SeekObjectData():
/home/hsk/Desktop/devel/tee-tpm-hyp/optee_os/lib/libutee/tee_api_objects.c:723
    1714:	b5f0      	push	{r4, r5, r6, r7, lr}
    1716:	460d      	mov	r5, r1
    1718:	4616      	mov	r6, r2
    171a:	b089      	sub	sp, #36	; 0x24
/home/hsk/Desktop/devel/tee-tpm-hyp/optee_os/lib/libutee/tee_api_objects.c:727
    171c:	4607      	mov	r7, r0
    171e:	b368      	cbz	r0, 177c <TEE_SeekObjectData+0x68>
/home/hsk/Desktop/devel/tee-tpm-hyp/optee_os/lib/libutee/tee_api_objects.c:732
    1720:	a901      	add	r1, sp, #4
    1722:	f000 ea46 	blx	1bb0 <utee_cryp_obj_get_info>
/home/hsk/Desktop/devel/tee-tpm-hyp/optee_os/lib/libutee/tee_api_objects.c:733
    1726:	4604      	mov	r4, r0
    1728:	b9d8      	cbnz	r0, 1762 <TEE_SeekObjectData+0x4e>
/home/hsk/Desktop/devel/tee-tpm-hyp/optee_os/lib/libutee/tee_api_objects.c:736
    172a:	2e01      	cmp	r6, #1
    172c:	d004      	beq.n	1738 <TEE_SeekObjectData+0x24>
    172e:	d310      	bcc.n	1752 <TEE_SeekObjectData+0x3e>
    1730:	2e02      	cmp	r6, #2
    1732:	d00a      	beq.n	174a <TEE_SeekObjectData+0x36>
/home/hsk/Desktop/devel/tee-tpm-hyp/optee_os/lib/libutee/tee_api_objects.c:762
    1734:	4c12      	ldr	r4, [pc, #72]	; (1780 <TEE_SeekObjectData+0x6c>)
    1736:	e01d      	b.n	1774 <TEE_SeekObjectData+0x60>
/home/hsk/Desktop/devel/tee-tpm-hyp/optee_os/lib/libutee/tee_api_objects.c:744
    1738:	2d00      	cmp	r5, #0
    173a:	dd0a      	ble.n	1752 <TEE_SeekObjectData+0x3e>
/home/hsk/Desktop/devel/tee-tpm-hyp/optee_os/lib/libutee/tee_api_objects.c:744 (discriminator 1)
    173c:	9b06      	ldr	r3, [sp, #24]
    173e:	42dd      	cmn	r5, r3
    1740:	d307      	bcc.n	1752 <TEE_SeekObjectData+0x3e>
/home/hsk/Desktop/devel/tee-tpm-hyp/optee_os/lib/libutee/tee_api_objects.c:749
    1742:	4c10      	ldr	r4, [pc, #64]	; (1784 <TEE_SeekObjectData+0x70>)
/home/hsk/Desktop/devel/tee-tpm-hyp/optee_os/lib/libutee/tee_api_objects.c:776
    1744:	4620      	mov	r0, r4
    1746:	b009      	add	sp, #36	; 0x24
    1748:	bdf0      	pop	{r4, r5, r6, r7, pc}
/home/hsk/Desktop/devel/tee-tpm-hyp/optee_os/lib/libutee/tee_api_objects.c:754
    174a:	2d00      	cmp	r5, #0
    174c:	dd01      	ble.n	1752 <TEE_SeekObjectData+0x3e>
/home/hsk/Desktop/devel/tee-tpm-hyp/optee_os/lib/libutee/tee_api_objects.c:754 (discriminator 1)
    174e:	9b05      	ldr	r3, [sp, #20]
    1750:	e7f5      	b.n	173e <TEE_SeekObjectData+0x2a>
/home/hsk/Desktop/devel/tee-tpm-hyp/optee_os/lib/libutee/tee_api_objects.c:766
    1752:	4632      	mov	r2, r6
    1754:	4629      	mov	r1, r5
    1756:	4638      	mov	r0, r7
    1758:	f000 eb5c 	blx	1e14 <utee_storage_obj_seek>
/home/hsk/Desktop/devel/tee-tpm-hyp/optee_os/lib/libutee/tee_api_objects.c:769
    175c:	4604      	mov	r4, r0
    175e:	2800      	cmp	r0, #0
    1760:	d0f0      	beq.n	1744 <TEE_SeekObjectData+0x30>
/home/hsk/Desktop/devel/tee-tpm-hyp/optee_os/lib/libutee/tee_api_objects.c:769 (discriminator 1)
    1762:	4b08      	ldr	r3, [pc, #32]	; (1784 <TEE_SeekObjectData+0x70>)
    1764:	429c      	cmp	r4, r3
    1766:	d0ec      	beq.n	1742 <TEE_SeekObjectData+0x2e>
/home/hsk/Desktop/devel/tee-tpm-hyp/optee_os/lib/libutee/tee_api_objects.c:770
    1768:	4b07      	ldr	r3, [pc, #28]	; (1788 <TEE_SeekObjectData+0x74>)
    176a:	429c      	cmp	r4, r3
    176c:	d0ea      	beq.n	1744 <TEE_SeekObjectData+0x30>
/home/hsk/Desktop/devel/tee-tpm-hyp/optee_os/lib/libutee/tee_api_objects.c:771
    176e:	3302      	adds	r3, #2
    1770:	429c      	cmp	r4, r3
    1772:	d0e7      	beq.n	1744 <TEE_SeekObjectData+0x30>
/home/hsk/Desktop/devel/tee-tpm-hyp/optee_os/lib/libutee/tee_api_objects.c:773
    1774:	4620      	mov	r0, r4
    1776:	f004 fedb 	bl	6530 <TEE_Panic>
/home/hsk/Desktop/devel/tee-tpm-hyp/optee_os/lib/libutee/tee_api_objects.c:775
    177a:	e7e3      	b.n	1744 <TEE_SeekObjectData+0x30>
/home/hsk/Desktop/devel/tee-tpm-hyp/optee_os/lib/libutee/tee_api_objects.c:728
    177c:	4c03      	ldr	r4, [pc, #12]	; (178c <TEE_SeekObjectData+0x78>)
    177e:	e7f9      	b.n	1774 <TEE_SeekObjectData+0x60>
    1780:	ffff0008 	.word	0xffff0008
    1784:	ffff300f 	.word	0xffff300f
    1788:	f0100001 	.word	0xf0100001
    178c:	ffff0006 	.word	0xffff0006

00001790 <ta_header_get_session>:
ta_header_get_session():
/home/hsk/Desktop/devel/tee-tpm-hyp/optee_os/lib/libutee/arch/arm/user_ta_entry.c:81
    1790:	4b05      	ldr	r3, [pc, #20]	; (17a8 <ta_header_get_session+0x18>)
    1792:	447b      	add	r3, pc
    1794:	681b      	ldr	r3, [r3, #0]
/home/hsk/Desktop/devel/tee-tpm-hyp/optee_os/lib/libutee/arch/arm/user_ta_entry.c:81 (discriminator 1)
    1796:	b90b      	cbnz	r3, 179c <ta_header_get_session+0xc>
/home/hsk/Desktop/devel/tee-tpm-hyp/optee_os/lib/libutee/arch/arm/user_ta_entry.c:86
    1798:	4618      	mov	r0, r3
    179a:	4770      	bx	lr
/home/hsk/Desktop/devel/tee-tpm-hyp/optee_os/lib/libutee/arch/arm/user_ta_entry.c:82
    179c:	681a      	ldr	r2, [r3, #0]
    179e:	4282      	cmp	r2, r0
    17a0:	d0fa      	beq.n	1798 <ta_header_get_session+0x8>
/home/hsk/Desktop/devel/tee-tpm-hyp/optee_os/lib/libutee/arch/arm/user_ta_entry.c:81 (discriminator 2)
    17a2:	689b      	ldr	r3, [r3, #8]
    17a4:	e7f7      	b.n	1796 <ta_header_get_session+0x6>
    17a6:	bf00      	nop
    17a8:	000078de 	.word	0x000078de

000017ac <ta_header_remove_session>:
ta_header_remove_session():
/home/hsk/Desktop/devel/tee-tpm-hyp/optee_os/lib/libutee/arch/arm/user_ta_entry.c:119
    17ac:	4b14      	ldr	r3, [pc, #80]	; (1800 <ta_header_remove_session+0x54>)
/home/hsk/Desktop/devel/tee-tpm-hyp/optee_os/lib/libutee/arch/arm/user_ta_entry.c:115
    17ae:	b510      	push	{r4, lr}
/home/hsk/Desktop/devel/tee-tpm-hyp/optee_os/lib/libutee/arch/arm/user_ta_entry.c:119
    17b0:	447b      	add	r3, pc
/home/hsk/Desktop/devel/tee-tpm-hyp/optee_os/lib/libutee/arch/arm/user_ta_entry.c:115
    17b2:	4c14      	ldr	r4, [pc, #80]	; (1804 <ta_header_remove_session+0x58>)
/home/hsk/Desktop/devel/tee-tpm-hyp/optee_os/lib/libutee/arch/arm/user_ta_entry.c:119
    17b4:	681b      	ldr	r3, [r3, #0]
/home/hsk/Desktop/devel/tee-tpm-hyp/optee_os/lib/libutee/arch/arm/user_ta_entry.c:115
    17b6:	447c      	add	r4, pc
/home/hsk/Desktop/devel/tee-tpm-hyp/optee_os/lib/libutee/arch/arm/user_ta_entry.c:119 (discriminator 1)
    17b8:	b903      	cbnz	r3, 17bc <ta_header_remove_session+0x10>
/home/hsk/Desktop/devel/tee-tpm-hyp/optee_os/lib/libutee/arch/arm/user_ta_entry.c:133
    17ba:	bd10      	pop	{r4, pc}
/home/hsk/Desktop/devel/tee-tpm-hyp/optee_os/lib/libutee/arch/arm/user_ta_entry.c:120
    17bc:	6819      	ldr	r1, [r3, #0]
    17be:	689a      	ldr	r2, [r3, #8]
    17c0:	4281      	cmp	r1, r0
    17c2:	d11b      	bne.n	17fc <ta_header_remove_session+0x50>
    17c4:	68d9      	ldr	r1, [r3, #12]
/home/hsk/Desktop/devel/tee-tpm-hyp/optee_os/lib/libutee/arch/arm/user_ta_entry.c:121
    17c6:	b1aa      	cbz	r2, 17f4 <ta_header_remove_session+0x48>
/home/hsk/Desktop/devel/tee-tpm-hyp/optee_os/lib/libutee/arch/arm/user_ta_entry.c:121 (discriminator 1)
    17c8:	60d1      	str	r1, [r2, #12]
/home/hsk/Desktop/devel/tee-tpm-hyp/optee_os/lib/libutee/arch/arm/user_ta_entry.c:121 (discriminator 4)
    17ca:	68d9      	ldr	r1, [r3, #12]
/home/hsk/Desktop/devel/tee-tpm-hyp/optee_os/lib/libutee/arch/arm/user_ta_entry.c:122 (discriminator 4)
    17cc:	4618      	mov	r0, r3
/home/hsk/Desktop/devel/tee-tpm-hyp/optee_os/lib/libutee/arch/arm/user_ta_entry.c:121 (discriminator 4)
    17ce:	600a      	str	r2, [r1, #0]
/home/hsk/Desktop/devel/tee-tpm-hyp/optee_os/lib/libutee/arch/arm/user_ta_entry.c:122 (discriminator 4)
    17d0:	f7ff fbfa 	bl	fc8 <TEE_Free>
/home/hsk/Desktop/devel/tee-tpm-hyp/optee_os/lib/libutee/arch/arm/user_ta_entry.c:127 (discriminator 4)
    17d4:	4b0c      	ldr	r3, [pc, #48]	; (1808 <ta_header_remove_session+0x5c>)
    17d6:	447b      	add	r3, pc
    17d8:	681b      	ldr	r3, [r3, #0]
    17da:	2b00      	cmp	r3, #0
    17dc:	d1ed      	bne.n	17ba <ta_header_remove_session+0xe>
/home/hsk/Desktop/devel/tee-tpm-hyp/optee_os/lib/libutee/arch/arm/user_ta_entry.c:125 (discriminator 1)
    17de:	4b0b      	ldr	r3, [pc, #44]	; (180c <ta_header_remove_session+0x60>)
    17e0:	58e3      	ldr	r3, [r4, r3]
    17e2:	695b      	ldr	r3, [r3, #20]
    17e4:	f003 0314 	and.w	r3, r3, #20
/home/hsk/Desktop/devel/tee-tpm-hyp/optee_os/lib/libutee/arch/arm/user_ta_entry.c:127 (discriminator 1)
    17e8:	2b14      	cmp	r3, #20
    17ea:	d0e6      	beq.n	17ba <ta_header_remove_session+0xe>
/home/hsk/Desktop/devel/tee-tpm-hyp/optee_os/lib/libutee/arch/arm/user_ta_entry.c:133
    17ec:	e8bd 4010 	ldmia.w	sp!, {r4, lr}
uninit_instance():
/home/hsk/Desktop/devel/tee-tpm-hyp/optee_os/lib/libutee/arch/arm/user_ta_entry.c:63
    17f0:	f7fe bc18 	b.w	24 <TA_DestroyEntryPoint>
ta_header_remove_session():
/home/hsk/Desktop/devel/tee-tpm-hyp/optee_os/lib/libutee/arch/arm/user_ta_entry.c:121 (discriminator 2)
    17f4:	4806      	ldr	r0, [pc, #24]	; (1810 <ta_header_remove_session+0x64>)
    17f6:	4478      	add	r0, pc
    17f8:	6041      	str	r1, [r0, #4]
    17fa:	e7e6      	b.n	17ca <ta_header_remove_session+0x1e>
    17fc:	4613      	mov	r3, r2
    17fe:	e7db      	b.n	17b8 <ta_header_remove_session+0xc>
    1800:	000078c0 	.word	0x000078c0
    1804:	00006696 	.word	0x00006696
    1808:	0000789a 	.word	0x0000789a
    180c:	0000002c 	.word	0x0000002c
    1810:	0000787a 	.word	0x0000787a

00001814 <__utee_entry>:
__utee_entry():
/home/hsk/Desktop/devel/tee-tpm-hyp/optee_os/lib/libutee/arch/arm/user_ta_entry.c:200
    1814:	b580      	push	{r7, lr}
    1816:	4616      	mov	r6, r2
    1818:	4c59      	ldr	r4, [pc, #356]	; (1980 <__utee_entry+0x16c>)
    181a:	b08c      	sub	sp, #48	; 0x30
    181c:	460f      	mov	r7, r1
    181e:	447c      	add	r4, pc
    1820:	4698      	mov	r8, r3
/home/hsk/Desktop/devel/tee-tpm-hyp/optee_os/lib/libutee/arch/arm/user_ta_entry.c:211
    1822:	2801      	cmp	r0, #1
    1824:	d073      	beq.n	190e <__utee_entry+0xfa>
    1826:	d307      	bcc.n	1838 <__utee_entry+0x24>
    1828:	2802      	cmp	r0, #2
    182a:	d07c      	beq.n	1926 <__utee_entry+0x112>
/home/hsk/Desktop/devel/tee-tpm-hyp/optee_os/lib/libutee/arch/arm/user_ta_entry.c:223
    182c:	2000      	movs	r0, #0
/home/hsk/Desktop/devel/tee-tpm-hyp/optee_os/lib/libutee/arch/arm/user_ta_entry.c:222
    182e:	f04f 34ff 	mov.w	r4, #4294967295	; 0xffffffff
/home/hsk/Desktop/devel/tee-tpm-hyp/optee_os/lib/libutee/arch/arm/user_ta_entry.c:223
    1832:	f004 fe7d 	bl	6530 <TEE_Panic>
/home/hsk/Desktop/devel/tee-tpm-hyp/optee_os/lib/libutee/arch/arm/user_ta_entry.c:224
    1836:	e026      	b.n	1886 <__utee_entry+0x72>
ta_header_add_session():
/home/hsk/Desktop/devel/tee-tpm-hyp/optee_os/lib/libutee/arch/arm/user_ta_entry.c:90
    1838:	4608      	mov	r0, r1
    183a:	f7ff ffa9 	bl	1790 <ta_header_get_session>
/home/hsk/Desktop/devel/tee-tpm-hyp/optee_os/lib/libutee/arch/arm/user_ta_entry.c:93
    183e:	2800      	cmp	r0, #0
    1840:	d138      	bne.n	18b4 <__utee_entry+0xa0>
/home/hsk/Desktop/devel/tee-tpm-hyp/optee_os/lib/libutee/arch/arm/user_ta_entry.c:96
    1842:	4b50      	ldr	r3, [pc, #320]	; (1984 <__utee_entry+0x170>)
    1844:	447b      	add	r3, pc
    1846:	781a      	ldrb	r2, [r3, #0]
    1848:	b13a      	cbz	r2, 185a <__utee_entry+0x46>
/home/hsk/Desktop/devel/tee-tpm-hyp/optee_os/lib/libutee/arch/arm/user_ta_entry.c:103
    184a:	f04f 4100 	mov.w	r1, #2147483648	; 0x80000000
    184e:	2010      	movs	r0, #16
    1850:	f7ff fb93 	bl	f7a <TEE_Malloc>
/home/hsk/Desktop/devel/tee-tpm-hyp/optee_os/lib/libutee/arch/arm/user_ta_entry.c:105
    1854:	bb18      	cbnz	r0, 189e <__utee_entry+0x8a>
/home/hsk/Desktop/devel/tee-tpm-hyp/optee_os/lib/libutee/arch/arm/user_ta_entry.c:106
    1856:	4c48      	ldr	r4, [pc, #288]	; (1978 <__utee_entry+0x164>)
    1858:	e015      	b.n	1886 <__utee_entry+0x72>
/home/hsk/Desktop/devel/tee-tpm-hyp/optee_os/lib/libutee/arch/arm/user_ta_entry.c:97
    185a:	2201      	movs	r2, #1
    185c:	701a      	strb	r2, [r3, #0]
init_instance():
/home/hsk/Desktop/devel/tee-tpm-hyp/optee_os/lib/libutee/arch/arm/user_ta_entry.c:53
    185e:	f004 fd9d 	bl	639c <tahead_get_trace_level>
    1862:	f7fe fd22 	bl	2aa <trace_set_level>
/home/hsk/Desktop/devel/tee-tpm-hyp/optee_os/lib/libutee/arch/arm/user_ta_entry.c:55
    1866:	4b48      	ldr	r3, [pc, #288]	; (1988 <__utee_entry+0x174>)
    1868:	4a48      	ldr	r2, [pc, #288]	; (198c <__utee_entry+0x178>)
    186a:	58e3      	ldr	r3, [r4, r3]
    186c:	58a2      	ldr	r2, [r4, r2]
    186e:	9201      	str	r2, [sp, #4]
    1870:	6819      	ldr	r1, [r3, #0]
    1872:	4610      	mov	r0, r2
    1874:	f004 fbe4 	bl	6040 <malloc_add_pool>
/home/hsk/Desktop/devel/tee-tpm-hyp/optee_os/lib/libutee/arch/arm/user_ta_entry.c:56
    1878:	f000 fdc6 	bl	2408 <_TEE_MathAPI_Init>
/home/hsk/Desktop/devel/tee-tpm-hyp/optee_os/lib/libutee/arch/arm/user_ta_entry.c:57
    187c:	f7fe fbd0 	bl	20 <TA_CreateEntryPoint>
ta_header_add_session():
/home/hsk/Desktop/devel/tee-tpm-hyp/optee_os/lib/libutee/arch/arm/user_ta_entry.c:99
    1880:	4604      	mov	r4, r0
    1882:	2800      	cmp	r0, #0
    1884:	d0e1      	beq.n	184a <__utee_entry+0x36>
ta_header_save_params():
/home/hsk/Desktop/devel/tee-tpm-hyp/optee_os/lib/libutee/arch/arm/user_ta_entry.c:69
    1886:	4842      	ldr	r0, [pc, #264]	; (1990 <__utee_entry+0x17c>)
    1888:	2100      	movs	r1, #0
/home/hsk/Desktop/devel/tee-tpm-hyp/optee_os/lib/libutee/arch/arm/user_ta_entry.c:74
    188a:	2220      	movs	r2, #32
/home/hsk/Desktop/devel/tee-tpm-hyp/optee_os/lib/libutee/arch/arm/user_ta_entry.c:69
    188c:	4478      	add	r0, pc
/home/hsk/Desktop/devel/tee-tpm-hyp/optee_os/lib/libutee/arch/arm/user_ta_entry.c:74
    188e:	3008      	adds	r0, #8
/home/hsk/Desktop/devel/tee-tpm-hyp/optee_os/lib/libutee/arch/arm/user_ta_entry.c:69
    1890:	f840 1c04 	str.w	r1, [r0, #-4]
/home/hsk/Desktop/devel/tee-tpm-hyp/optee_os/lib/libutee/arch/arm/user_ta_entry.c:74
    1894:	f004 fe97 	bl	65c6 <memset>
__utee_entry():
/home/hsk/Desktop/devel/tee-tpm-hyp/optee_os/lib/libutee/arch/arm/user_ta_entry.c:227
    1898:	4620      	mov	r0, r4
    189a:	f000 e88c 	blx	19b4 <utee_return>
ta_header_add_session():
/home/hsk/Desktop/devel/tee-tpm-hyp/optee_os/lib/libutee/arch/arm/user_ta_entry.c:108
    189e:	2300      	movs	r3, #0
    18a0:	6043      	str	r3, [r0, #4]
/home/hsk/Desktop/devel/tee-tpm-hyp/optee_os/lib/libutee/arch/arm/user_ta_entry.c:109
    18a2:	6083      	str	r3, [r0, #8]
    18a4:	4b3b      	ldr	r3, [pc, #236]	; (1994 <__utee_entry+0x180>)
/home/hsk/Desktop/devel/tee-tpm-hyp/optee_os/lib/libutee/arch/arm/user_ta_entry.c:107
    18a6:	6007      	str	r7, [r0, #0]
/home/hsk/Desktop/devel/tee-tpm-hyp/optee_os/lib/libutee/arch/arm/user_ta_entry.c:109
    18a8:	447b      	add	r3, pc
    18aa:	685a      	ldr	r2, [r3, #4]
    18ac:	60c2      	str	r2, [r0, #12]
    18ae:	6010      	str	r0, [r2, #0]
    18b0:	3008      	adds	r0, #8
    18b2:	6058      	str	r0, [r3, #4]
entry_open_session():
/home/hsk/Desktop/devel/tee-tpm-hyp/optee_os/lib/libutee/arch/arm/user_ta_entry.c:147
    18b4:	4638      	mov	r0, r7
    18b6:	f7ff ff6b 	bl	1790 <ta_header_get_session>
/home/hsk/Desktop/devel/tee-tpm-hyp/optee_os/lib/libutee/arch/arm/user_ta_entry.c:148
    18ba:	4681      	mov	r9, r0
    18bc:	2800      	cmp	r0, #0
    18be:	d059      	beq.n	1974 <__utee_entry+0x160>
/home/hsk/Desktop/devel/tee-tpm-hyp/optee_os/lib/libutee/arch/arm/user_ta_entry.c:151
    18c0:	f10d 0810 	add.w	r8, sp, #16
ta_header_save_params():
/home/hsk/Desktop/devel/tee-tpm-hyp/optee_os/lib/libutee/arch/arm/user_ta_entry.c:69
    18c4:	4c34      	ldr	r4, [pc, #208]	; (1998 <__utee_entry+0x184>)
/home/hsk/Desktop/devel/tee-tpm-hyp/optee_os/lib/libutee/arch/arm/user_ta_entry.c:72
    18c6:	4645      	mov	r5, r8
entry_open_session():
/home/hsk/Desktop/devel/tee-tpm-hyp/optee_os/lib/libutee/arch/arm/user_ta_entry.c:151
    18c8:	4632      	mov	r2, r6
    18ca:	a903      	add	r1, sp, #12
    18cc:	4640      	mov	r0, r8
ta_header_save_params():
/home/hsk/Desktop/devel/tee-tpm-hyp/optee_os/lib/libutee/arch/arm/user_ta_entry.c:69
    18ce:	447c      	add	r4, pc
entry_open_session():
/home/hsk/Desktop/devel/tee-tpm-hyp/optee_os/lib/libutee/arch/arm/user_ta_entry.c:151
    18d0:	f7ff fa3d 	bl	d4e <__utee_to_param>
ta_header_save_params():
/home/hsk/Desktop/devel/tee-tpm-hyp/optee_os/lib/libutee/arch/arm/user_ta_entry.c:72
    18d4:	cd0f      	ldmia	r5!, {r0, r1, r2, r3}
    18d6:	3408      	adds	r4, #8
entry_open_session():
/home/hsk/Desktop/devel/tee-tpm-hyp/optee_os/lib/libutee/arch/arm/user_ta_entry.c:152
    18d8:	f8dd c00c 	ldr.w	ip, [sp, #12]
ta_header_save_params():
/home/hsk/Desktop/devel/tee-tpm-hyp/optee_os/lib/libutee/arch/arm/user_ta_entry.c:69
    18dc:	f844 cc04 	str.w	ip, [r4, #-4]
/home/hsk/Desktop/devel/tee-tpm-hyp/optee_os/lib/libutee/arch/arm/user_ta_entry.c:72
    18e0:	c40f      	stmia	r4!, {r0, r1, r2, r3}
    18e2:	e895 000f 	ldmia.w	r5, {r0, r1, r2, r3}
    18e6:	e884 000f 	stmia.w	r4, {r0, r1, r2, r3}
entry_open_session():
/home/hsk/Desktop/devel/tee-tpm-hyp/optee_os/lib/libutee/arch/arm/user_ta_entry.c:154
    18ea:	f109 0204 	add.w	r2, r9, #4
    18ee:	4641      	mov	r1, r8
    18f0:	4660      	mov	r0, ip
    18f2:	f7fe fb98 	bl	26 <TA_OpenSessionEntryPoint>
/home/hsk/Desktop/devel/tee-tpm-hyp/optee_os/lib/libutee/arch/arm/user_ta_entry.c:157
    18f6:	4642      	mov	r2, r8
/home/hsk/Desktop/devel/tee-tpm-hyp/optee_os/lib/libutee/arch/arm/user_ta_entry.c:154
    18f8:	4604      	mov	r4, r0
/home/hsk/Desktop/devel/tee-tpm-hyp/optee_os/lib/libutee/arch/arm/user_ta_entry.c:157
    18fa:	9903      	ldr	r1, [sp, #12]
    18fc:	4630      	mov	r0, r6
    18fe:	f7ff f9ff 	bl	d00 <__utee_from_param>
/home/hsk/Desktop/devel/tee-tpm-hyp/optee_os/lib/libutee/arch/arm/user_ta_entry.c:159
    1902:	2c00      	cmp	r4, #0
    1904:	d0bf      	beq.n	1886 <__utee_entry+0x72>
/home/hsk/Desktop/devel/tee-tpm-hyp/optee_os/lib/libutee/arch/arm/user_ta_entry.c:160
    1906:	4638      	mov	r0, r7
    1908:	f7ff ff50 	bl	17ac <ta_header_remove_session>
    190c:	e7bb      	b.n	1886 <__utee_entry+0x72>
entry_close_session():
/home/hsk/Desktop/devel/tee-tpm-hyp/optee_os/lib/libutee/arch/arm/user_ta_entry.c:166
    190e:	4608      	mov	r0, r1
    1910:	f7ff ff3e 	bl	1790 <ta_header_get_session>
/home/hsk/Desktop/devel/tee-tpm-hyp/optee_os/lib/libutee/arch/arm/user_ta_entry.c:168
    1914:	b370      	cbz	r0, 1974 <__utee_entry+0x160>
/home/hsk/Desktop/devel/tee-tpm-hyp/optee_os/lib/libutee/arch/arm/user_ta_entry.c:171
    1916:	6840      	ldr	r0, [r0, #4]
/home/hsk/Desktop/devel/tee-tpm-hyp/optee_os/lib/libutee/arch/arm/user_ta_entry.c:174
    1918:	2400      	movs	r4, #0
/home/hsk/Desktop/devel/tee-tpm-hyp/optee_os/lib/libutee/arch/arm/user_ta_entry.c:171
    191a:	f7fe fb86 	bl	2a <TA_CloseSessionEntryPoint>
/home/hsk/Desktop/devel/tee-tpm-hyp/optee_os/lib/libutee/arch/arm/user_ta_entry.c:173
    191e:	4638      	mov	r0, r7
    1920:	f7ff ff44 	bl	17ac <ta_header_remove_session>
    1924:	e7af      	b.n	1886 <__utee_entry+0x72>
entry_invoke_command():
/home/hsk/Desktop/devel/tee-tpm-hyp/optee_os/lib/libutee/arch/arm/user_ta_entry.c:183
    1926:	4608      	mov	r0, r1
    1928:	f7ff ff32 	bl	1790 <ta_header_get_session>
/home/hsk/Desktop/devel/tee-tpm-hyp/optee_os/lib/libutee/arch/arm/user_ta_entry.c:185
    192c:	4681      	mov	r9, r0
    192e:	b308      	cbz	r0, 1974 <__utee_entry+0x160>
/home/hsk/Desktop/devel/tee-tpm-hyp/optee_os/lib/libutee/arch/arm/user_ta_entry.c:188
    1930:	af04      	add	r7, sp, #16
ta_header_save_params():
/home/hsk/Desktop/devel/tee-tpm-hyp/optee_os/lib/libutee/arch/arm/user_ta_entry.c:69
    1932:	4c1a      	ldr	r4, [pc, #104]	; (199c <__utee_entry+0x188>)
/home/hsk/Desktop/devel/tee-tpm-hyp/optee_os/lib/libutee/arch/arm/user_ta_entry.c:72
    1934:	463d      	mov	r5, r7
entry_invoke_command():
/home/hsk/Desktop/devel/tee-tpm-hyp/optee_os/lib/libutee/arch/arm/user_ta_entry.c:188
    1936:	4632      	mov	r2, r6
    1938:	a903      	add	r1, sp, #12
    193a:	4638      	mov	r0, r7
ta_header_save_params():
/home/hsk/Desktop/devel/tee-tpm-hyp/optee_os/lib/libutee/arch/arm/user_ta_entry.c:69
    193c:	447c      	add	r4, pc
entry_invoke_command():
/home/hsk/Desktop/devel/tee-tpm-hyp/optee_os/lib/libutee/arch/arm/user_ta_entry.c:188
    193e:	f7ff fa06 	bl	d4e <__utee_to_param>
ta_header_save_params():
/home/hsk/Desktop/devel/tee-tpm-hyp/optee_os/lib/libutee/arch/arm/user_ta_entry.c:72
    1942:	cd0f      	ldmia	r5!, {r0, r1, r2, r3}
    1944:	3408      	adds	r4, #8
entry_invoke_command():
/home/hsk/Desktop/devel/tee-tpm-hyp/optee_os/lib/libutee/arch/arm/user_ta_entry.c:189
    1946:	f8dd c00c 	ldr.w	ip, [sp, #12]
ta_header_save_params():
/home/hsk/Desktop/devel/tee-tpm-hyp/optee_os/lib/libutee/arch/arm/user_ta_entry.c:69
    194a:	f844 cc04 	str.w	ip, [r4, #-4]
/home/hsk/Desktop/devel/tee-tpm-hyp/optee_os/lib/libutee/arch/arm/user_ta_entry.c:72
    194e:	c40f      	stmia	r4!, {r0, r1, r2, r3}
    1950:	e895 000f 	ldmia.w	r5, {r0, r1, r2, r3}
    1954:	e884 000f 	stmia.w	r4, {r0, r1, r2, r3}
entry_invoke_command():
/home/hsk/Desktop/devel/tee-tpm-hyp/optee_os/lib/libutee/arch/arm/user_ta_entry.c:191
    1958:	4662      	mov	r2, ip
    195a:	4641      	mov	r1, r8
    195c:	463b      	mov	r3, r7
    195e:	f8d9 0004 	ldr.w	r0, [r9, #4]
    1962:	f7fe fb63 	bl	2c <TA_InvokeCommandEntryPoint>
/home/hsk/Desktop/devel/tee-tpm-hyp/optee_os/lib/libutee/arch/arm/user_ta_entry.c:194
    1966:	463a      	mov	r2, r7
/home/hsk/Desktop/devel/tee-tpm-hyp/optee_os/lib/libutee/arch/arm/user_ta_entry.c:191
    1968:	4604      	mov	r4, r0
/home/hsk/Desktop/devel/tee-tpm-hyp/optee_os/lib/libutee/arch/arm/user_ta_entry.c:194
    196a:	9903      	ldr	r1, [sp, #12]
    196c:	4630      	mov	r0, r6
    196e:	f7ff f9c7 	bl	d00 <__utee_from_param>
    1972:	e788      	b.n	1886 <__utee_entry+0x72>
entry_close_session():
/home/hsk/Desktop/devel/tee-tpm-hyp/optee_os/lib/libutee/arch/arm/user_ta_entry.c:169
    1974:	4c01      	ldr	r4, [pc, #4]	; (197c <__utee_entry+0x168>)
    1976:	e786      	b.n	1886 <__utee_entry+0x72>
    1978:	ffff000c 	.word	0xffff000c
    197c:	ffff0007 	.word	0xffff0007
    1980:	0000662e 	.word	0x0000662e
    1984:	00007854 	.word	0x00007854
    1988:	0000000c 	.word	0x0000000c
    198c:	00000020 	.word	0x00000020
    1990:	0000780c 	.word	0x0000780c
    1994:	000077c8 	.word	0x000077c8
    1998:	000077ca 	.word	0x000077ca
    199c:	0000775c 	.word	0x0000775c

000019a0 <utee_panic>:
utee_panic():
/home/hsk/Desktop/devel/tee-tpm-hyp/optee_os/lib/libutee/arch/arm/utee_syscalls_a32.S:47
    19a0:	e92d4fff 	push	{r0, r1, r2, r3, r4, r5, r6, r7, r8, r9, sl, fp, lr}
/home/hsk/Desktop/devel/tee-tpm-hyp/optee_os/lib/libutee/arch/arm/utee_syscalls_a32.S:49
    19a4:	e1a0e00f 	mov	lr, pc
/home/hsk/Desktop/devel/tee-tpm-hyp/optee_os/lib/libutee/arch/arm/utee_syscalls_a32.S:50
    19a8:	e52de004 	push	{lr}		; (str lr, [sp, #-4]!)
/home/hsk/Desktop/devel/tee-tpm-hyp/optee_os/lib/libutee/arch/arm/utee_syscalls_a32.S:52
    19ac:	e1a0100d 	mov	r1, sp
/home/hsk/Desktop/devel/tee-tpm-hyp/optee_os/lib/libutee/arch/arm/utee_syscalls_a32.S:53
    19b0:	eb000009 	bl	19dc <__utee_panic>

000019b4 <utee_return>:
utee_return():
/home/hsk/Desktop/devel/tee-tpm-hyp/optee_os/lib/libutee/arch/arm/utee_syscalls_asm.S:8
    19b4:	e92d40e0 	push	{r5, r6, r7, lr}
    19b8:	e3a07000 	mov	r7, #0
    19bc:	e3a06000 	mov	r6, #0
    19c0:	ef000000 	svc	0x00000000
    19c4:	e8bd80e0 	pop	{r5, r6, r7, pc}

000019c8 <utee_log>:
utee_log():
/home/hsk/Desktop/devel/tee-tpm-hyp/optee_os/lib/libutee/arch/arm/utee_syscalls_asm.S:10
    19c8:	e92d40e0 	push	{r5, r6, r7, lr}
    19cc:	e3a07001 	mov	r7, #1
    19d0:	e3a06000 	mov	r6, #0
    19d4:	ef000000 	svc	0x00000000
    19d8:	e8bd80e0 	pop	{r5, r6, r7, pc}

000019dc <__utee_panic>:
__utee_panic():
/home/hsk/Desktop/devel/tee-tpm-hyp/optee_os/lib/libutee/arch/arm/utee_syscalls_asm.S:12
    19dc:	e92d40e0 	push	{r5, r6, r7, lr}
    19e0:	e3a07002 	mov	r7, #2
    19e4:	e3a06000 	mov	r6, #0
    19e8:	ef000000 	svc	0x00000000
    19ec:	e8bd80e0 	pop	{r5, r6, r7, pc}

000019f0 <utee_get_property>:
utee_get_property():
/home/hsk/Desktop/devel/tee-tpm-hyp/optee_os/lib/libutee/arch/arm/utee_syscalls_asm.S:14
    19f0:	e92d40e0 	push	{r5, r6, r7, lr}
    19f4:	e3a07003 	mov	r7, #3
    19f8:	e3a06003 	mov	r6, #3
    19fc:	e28d5010 	add	r5, sp, #16
    1a00:	ef000000 	svc	0x00000000
    1a04:	e8bd80e0 	pop	{r5, r6, r7, pc}

00001a08 <utee_get_property_name_to_index>:
utee_get_property_name_to_index():
/home/hsk/Desktop/devel/tee-tpm-hyp/optee_os/lib/libutee/arch/arm/utee_syscalls_asm.S:16
    1a08:	e92d40e0 	push	{r5, r6, r7, lr}
    1a0c:	e3a07004 	mov	r7, #4
    1a10:	e3a06000 	mov	r6, #0
    1a14:	ef000000 	svc	0x00000000
    1a18:	e8bd80e0 	pop	{r5, r6, r7, pc}

00001a1c <utee_open_ta_session>:
utee_open_ta_session():
/home/hsk/Desktop/devel/tee-tpm-hyp/optee_os/lib/libutee/arch/arm/utee_syscalls_asm.S:19
    1a1c:	e92d40e0 	push	{r5, r6, r7, lr}
    1a20:	e3a07005 	mov	r7, #5
    1a24:	e3a06001 	mov	r6, #1
    1a28:	e28d5010 	add	r5, sp, #16
    1a2c:	ef000000 	svc	0x00000000
    1a30:	e8bd80e0 	pop	{r5, r6, r7, pc}

00001a34 <utee_close_ta_session>:
utee_close_ta_session():
/home/hsk/Desktop/devel/tee-tpm-hyp/optee_os/lib/libutee/arch/arm/utee_syscalls_asm.S:21
    1a34:	e92d40e0 	push	{r5, r6, r7, lr}
    1a38:	e3a07006 	mov	r7, #6
    1a3c:	e3a06000 	mov	r6, #0
    1a40:	ef000000 	svc	0x00000000
    1a44:	e8bd80e0 	pop	{r5, r6, r7, pc}

00001a48 <utee_invoke_ta_command>:
utee_invoke_ta_command():
/home/hsk/Desktop/devel/tee-tpm-hyp/optee_os/lib/libutee/arch/arm/utee_syscalls_asm.S:23
    1a48:	e92d40e0 	push	{r5, r6, r7, lr}
    1a4c:	e3a07007 	mov	r7, #7
    1a50:	e3a06001 	mov	r6, #1
    1a54:	e28d5010 	add	r5, sp, #16
    1a58:	ef000000 	svc	0x00000000
    1a5c:	e8bd80e0 	pop	{r5, r6, r7, pc}

00001a60 <utee_get_cancellation_flag>:
utee_get_cancellation_flag():
/home/hsk/Desktop/devel/tee-tpm-hyp/optee_os/lib/libutee/arch/arm/utee_syscalls_asm.S:25
    1a60:	e92d40e0 	push	{r5, r6, r7, lr}
    1a64:	e3a07009 	mov	r7, #9
    1a68:	e3a06000 	mov	r6, #0
    1a6c:	ef000000 	svc	0x00000000
    1a70:	e8bd80e0 	pop	{r5, r6, r7, pc}

00001a74 <utee_check_access_rights>:
utee_check_access_rights():
/home/hsk/Desktop/devel/tee-tpm-hyp/optee_os/lib/libutee/arch/arm/utee_syscalls_asm.S:28
    1a74:	e92d40e0 	push	{r5, r6, r7, lr}
    1a78:	e3a07008 	mov	r7, #8
    1a7c:	e3a06000 	mov	r6, #0
    1a80:	ef000000 	svc	0x00000000
    1a84:	e8bd80e0 	pop	{r5, r6, r7, pc}

00001a88 <utee_unmask_cancellation>:
utee_unmask_cancellation():
/home/hsk/Desktop/devel/tee-tpm-hyp/optee_os/lib/libutee/arch/arm/utee_syscalls_asm.S:30
    1a88:	e92d40e0 	push	{r5, r6, r7, lr}
    1a8c:	e3a0700a 	mov	r7, #10
    1a90:	e3a06000 	mov	r6, #0
    1a94:	ef000000 	svc	0x00000000
    1a98:	e8bd80e0 	pop	{r5, r6, r7, pc}

00001a9c <utee_mask_cancellation>:
utee_mask_cancellation():
/home/hsk/Desktop/devel/tee-tpm-hyp/optee_os/lib/libutee/arch/arm/utee_syscalls_asm.S:32
    1a9c:	e92d40e0 	push	{r5, r6, r7, lr}
    1aa0:	e3a0700b 	mov	r7, #11
    1aa4:	e3a06000 	mov	r6, #0
    1aa8:	ef000000 	svc	0x00000000
    1aac:	e8bd80e0 	pop	{r5, r6, r7, pc}

00001ab0 <utee_wait>:
utee_wait():
/home/hsk/Desktop/devel/tee-tpm-hyp/optee_os/lib/libutee/arch/arm/utee_syscalls_asm.S:34
    1ab0:	e92d40e0 	push	{r5, r6, r7, lr}
    1ab4:	e3a0700c 	mov	r7, #12
    1ab8:	e3a06000 	mov	r6, #0
    1abc:	ef000000 	svc	0x00000000
    1ac0:	e8bd80e0 	pop	{r5, r6, r7, pc}

00001ac4 <utee_get_time>:
utee_get_time():
/home/hsk/Desktop/devel/tee-tpm-hyp/optee_os/lib/libutee/arch/arm/utee_syscalls_asm.S:36
    1ac4:	e92d40e0 	push	{r5, r6, r7, lr}
    1ac8:	e3a0700d 	mov	r7, #13
    1acc:	e3a06000 	mov	r6, #0
    1ad0:	ef000000 	svc	0x00000000
    1ad4:	e8bd80e0 	pop	{r5, r6, r7, pc}

00001ad8 <utee_set_ta_time>:
utee_set_ta_time():
/home/hsk/Desktop/devel/tee-tpm-hyp/optee_os/lib/libutee/arch/arm/utee_syscalls_asm.S:38
    1ad8:	e92d40e0 	push	{r5, r6, r7, lr}
    1adc:	e3a0700e 	mov	r7, #14
    1ae0:	e3a06000 	mov	r6, #0
    1ae4:	ef000000 	svc	0x00000000
    1ae8:	e8bd80e0 	pop	{r5, r6, r7, pc}

00001aec <utee_cryp_state_alloc>:
utee_cryp_state_alloc():
/home/hsk/Desktop/devel/tee-tpm-hyp/optee_os/lib/libutee/arch/arm/utee_syscalls_asm.S:40
    1aec:	e92d40e0 	push	{r5, r6, r7, lr}
    1af0:	e3a0700f 	mov	r7, #15
    1af4:	e3a06001 	mov	r6, #1
    1af8:	e28d5010 	add	r5, sp, #16
    1afc:	ef000000 	svc	0x00000000
    1b00:	e8bd80e0 	pop	{r5, r6, r7, pc}

00001b04 <utee_cryp_state_copy>:
utee_cryp_state_copy():
/home/hsk/Desktop/devel/tee-tpm-hyp/optee_os/lib/libutee/arch/arm/utee_syscalls_asm.S:42
    1b04:	e92d40e0 	push	{r5, r6, r7, lr}
    1b08:	e3a07010 	mov	r7, #16
    1b0c:	e3a06000 	mov	r6, #0
    1b10:	ef000000 	svc	0x00000000
    1b14:	e8bd80e0 	pop	{r5, r6, r7, pc}

00001b18 <utee_cryp_state_free>:
utee_cryp_state_free():
/home/hsk/Desktop/devel/tee-tpm-hyp/optee_os/lib/libutee/arch/arm/utee_syscalls_asm.S:44
    1b18:	e92d40e0 	push	{r5, r6, r7, lr}
    1b1c:	e3a07011 	mov	r7, #17
    1b20:	e3a06000 	mov	r6, #0
    1b24:	ef000000 	svc	0x00000000
    1b28:	e8bd80e0 	pop	{r5, r6, r7, pc}

00001b2c <utee_hash_init>:
utee_hash_init():
/home/hsk/Desktop/devel/tee-tpm-hyp/optee_os/lib/libutee/arch/arm/utee_syscalls_asm.S:46
    1b2c:	e92d40e0 	push	{r5, r6, r7, lr}
    1b30:	e3a07012 	mov	r7, #18
    1b34:	e3a06000 	mov	r6, #0
    1b38:	ef000000 	svc	0x00000000
    1b3c:	e8bd80e0 	pop	{r5, r6, r7, pc}

00001b40 <utee_hash_update>:
utee_hash_update():
/home/hsk/Desktop/devel/tee-tpm-hyp/optee_os/lib/libutee/arch/arm/utee_syscalls_asm.S:48
    1b40:	e92d40e0 	push	{r5, r6, r7, lr}
    1b44:	e3a07013 	mov	r7, #19
    1b48:	e3a06000 	mov	r6, #0
    1b4c:	ef000000 	svc	0x00000000
    1b50:	e8bd80e0 	pop	{r5, r6, r7, pc}

00001b54 <utee_hash_final>:
utee_hash_final():
/home/hsk/Desktop/devel/tee-tpm-hyp/optee_os/lib/libutee/arch/arm/utee_syscalls_asm.S:50
    1b54:	e92d40e0 	push	{r5, r6, r7, lr}
    1b58:	e3a07014 	mov	r7, #20
    1b5c:	e3a06001 	mov	r6, #1
    1b60:	e28d5010 	add	r5, sp, #16
    1b64:	ef000000 	svc	0x00000000
    1b68:	e8bd80e0 	pop	{r5, r6, r7, pc}

00001b6c <utee_cipher_init>:
utee_cipher_init():
/home/hsk/Desktop/devel/tee-tpm-hyp/optee_os/lib/libutee/arch/arm/utee_syscalls_asm.S:52
    1b6c:	e92d40e0 	push	{r5, r6, r7, lr}
    1b70:	e3a07015 	mov	r7, #21
    1b74:	e3a06000 	mov	r6, #0
    1b78:	ef000000 	svc	0x00000000
    1b7c:	e8bd80e0 	pop	{r5, r6, r7, pc}

00001b80 <utee_cipher_update>:
utee_cipher_update():
/home/hsk/Desktop/devel/tee-tpm-hyp/optee_os/lib/libutee/arch/arm/utee_syscalls_asm.S:54
    1b80:	e92d40e0 	push	{r5, r6, r7, lr}
    1b84:	e3a07016 	mov	r7, #22
    1b88:	e3a06001 	mov	r6, #1
    1b8c:	e28d5010 	add	r5, sp, #16
    1b90:	ef000000 	svc	0x00000000
    1b94:	e8bd80e0 	pop	{r5, r6, r7, pc}

00001b98 <utee_cipher_final>:
utee_cipher_final():
/home/hsk/Desktop/devel/tee-tpm-hyp/optee_os/lib/libutee/arch/arm/utee_syscalls_asm.S:56
    1b98:	e92d40e0 	push	{r5, r6, r7, lr}
    1b9c:	e3a07017 	mov	r7, #23
    1ba0:	e3a06001 	mov	r6, #1
    1ba4:	e28d5010 	add	r5, sp, #16
    1ba8:	ef000000 	svc	0x00000000
    1bac:	e8bd80e0 	pop	{r5, r6, r7, pc}

00001bb0 <utee_cryp_obj_get_info>:
utee_cryp_obj_get_info():
/home/hsk/Desktop/devel/tee-tpm-hyp/optee_os/lib/libutee/arch/arm/utee_syscalls_asm.S:58
    1bb0:	e92d40e0 	push	{r5, r6, r7, lr}
    1bb4:	e3a07018 	mov	r7, #24
    1bb8:	e3a06000 	mov	r6, #0
    1bbc:	ef000000 	svc	0x00000000
    1bc0:	e8bd80e0 	pop	{r5, r6, r7, pc}

00001bc4 <utee_cryp_obj_restrict_usage>:
utee_cryp_obj_restrict_usage():
/home/hsk/Desktop/devel/tee-tpm-hyp/optee_os/lib/libutee/arch/arm/utee_syscalls_asm.S:60
    1bc4:	e92d40e0 	push	{r5, r6, r7, lr}
    1bc8:	e3a07019 	mov	r7, #25
    1bcc:	e3a06000 	mov	r6, #0
    1bd0:	ef000000 	svc	0x00000000
    1bd4:	e8bd80e0 	pop	{r5, r6, r7, pc}

00001bd8 <utee_cryp_obj_get_attr>:
utee_cryp_obj_get_attr():
/home/hsk/Desktop/devel/tee-tpm-hyp/optee_os/lib/libutee/arch/arm/utee_syscalls_asm.S:63
    1bd8:	e92d40e0 	push	{r5, r6, r7, lr}
    1bdc:	e3a0701a 	mov	r7, #26
    1be0:	e3a06000 	mov	r6, #0
    1be4:	ef000000 	svc	0x00000000
    1be8:	e8bd80e0 	pop	{r5, r6, r7, pc}

00001bec <utee_cryp_obj_alloc>:
utee_cryp_obj_alloc():
/home/hsk/Desktop/devel/tee-tpm-hyp/optee_os/lib/libutee/arch/arm/utee_syscalls_asm.S:65
    1bec:	e92d40e0 	push	{r5, r6, r7, lr}
    1bf0:	e3a0701b 	mov	r7, #27
    1bf4:	e3a06000 	mov	r6, #0
    1bf8:	ef000000 	svc	0x00000000
    1bfc:	e8bd80e0 	pop	{r5, r6, r7, pc}

00001c00 <utee_cryp_obj_close>:
utee_cryp_obj_close():
/home/hsk/Desktop/devel/tee-tpm-hyp/optee_os/lib/libutee/arch/arm/utee_syscalls_asm.S:67
    1c00:	e92d40e0 	push	{r5, r6, r7, lr}
    1c04:	e3a0701c 	mov	r7, #28
    1c08:	e3a06000 	mov	r6, #0
    1c0c:	ef000000 	svc	0x00000000
    1c10:	e8bd80e0 	pop	{r5, r6, r7, pc}

00001c14 <utee_cryp_obj_reset>:
utee_cryp_obj_reset():
/home/hsk/Desktop/devel/tee-tpm-hyp/optee_os/lib/libutee/arch/arm/utee_syscalls_asm.S:69
    1c14:	e92d40e0 	push	{r5, r6, r7, lr}
    1c18:	e3a0701d 	mov	r7, #29
    1c1c:	e3a06000 	mov	r6, #0
    1c20:	ef000000 	svc	0x00000000
    1c24:	e8bd80e0 	pop	{r5, r6, r7, pc}

00001c28 <utee_cryp_obj_populate>:
utee_cryp_obj_populate():
/home/hsk/Desktop/devel/tee-tpm-hyp/optee_os/lib/libutee/arch/arm/utee_syscalls_asm.S:71
    1c28:	e92d40e0 	push	{r5, r6, r7, lr}
    1c2c:	e3a0701e 	mov	r7, #30
    1c30:	e3a06000 	mov	r6, #0
    1c34:	ef000000 	svc	0x00000000
    1c38:	e8bd80e0 	pop	{r5, r6, r7, pc}

00001c3c <utee_cryp_obj_copy>:
utee_cryp_obj_copy():
/home/hsk/Desktop/devel/tee-tpm-hyp/optee_os/lib/libutee/arch/arm/utee_syscalls_asm.S:73
    1c3c:	e92d40e0 	push	{r5, r6, r7, lr}
    1c40:	e3a0701f 	mov	r7, #31
    1c44:	e3a06000 	mov	r6, #0
    1c48:	ef000000 	svc	0x00000000
    1c4c:	e8bd80e0 	pop	{r5, r6, r7, pc}

00001c50 <utee_cryp_derive_key>:
utee_cryp_derive_key():
/home/hsk/Desktop/devel/tee-tpm-hyp/optee_os/lib/libutee/arch/arm/utee_syscalls_asm.S:75
    1c50:	e92d40e0 	push	{r5, r6, r7, lr}
    1c54:	e3a07020 	mov	r7, #32
    1c58:	e3a06000 	mov	r6, #0
    1c5c:	ef000000 	svc	0x00000000
    1c60:	e8bd80e0 	pop	{r5, r6, r7, pc}

00001c64 <utee_cryp_random_number_generate>:
utee_cryp_random_number_generate():
/home/hsk/Desktop/devel/tee-tpm-hyp/optee_os/lib/libutee/arch/arm/utee_syscalls_asm.S:77
    1c64:	e92d40e0 	push	{r5, r6, r7, lr}
    1c68:	e3a07021 	mov	r7, #33	; 0x21
    1c6c:	e3a06000 	mov	r6, #0
    1c70:	ef000000 	svc	0x00000000
    1c74:	e8bd80e0 	pop	{r5, r6, r7, pc}

00001c78 <utee_authenc_init>:
utee_authenc_init():
/home/hsk/Desktop/devel/tee-tpm-hyp/optee_os/lib/libutee/arch/arm/utee_syscalls_asm.S:80
    1c78:	e92d40e0 	push	{r5, r6, r7, lr}
    1c7c:	e3a07022 	mov	r7, #34	; 0x22
    1c80:	e3a06002 	mov	r6, #2
    1c84:	e28d5010 	add	r5, sp, #16
    1c88:	ef000000 	svc	0x00000000
    1c8c:	e8bd80e0 	pop	{r5, r6, r7, pc}

00001c90 <utee_authenc_update_aad>:
utee_authenc_update_aad():
/home/hsk/Desktop/devel/tee-tpm-hyp/optee_os/lib/libutee/arch/arm/utee_syscalls_asm.S:82
    1c90:	e92d40e0 	push	{r5, r6, r7, lr}
    1c94:	e3a07023 	mov	r7, #35	; 0x23
    1c98:	e3a06000 	mov	r6, #0
    1c9c:	ef000000 	svc	0x00000000
    1ca0:	e8bd80e0 	pop	{r5, r6, r7, pc}

00001ca4 <utee_authenc_update_payload>:
utee_authenc_update_payload():
/home/hsk/Desktop/devel/tee-tpm-hyp/optee_os/lib/libutee/arch/arm/utee_syscalls_asm.S:84
    1ca4:	e92d40e0 	push	{r5, r6, r7, lr}
    1ca8:	e3a07024 	mov	r7, #36	; 0x24
    1cac:	e3a06001 	mov	r6, #1
    1cb0:	e28d5010 	add	r5, sp, #16
    1cb4:	ef000000 	svc	0x00000000
    1cb8:	e8bd80e0 	pop	{r5, r6, r7, pc}

00001cbc <utee_authenc_enc_final>:
utee_authenc_enc_final():
/home/hsk/Desktop/devel/tee-tpm-hyp/optee_os/lib/libutee/arch/arm/utee_syscalls_asm.S:87
    1cbc:	e92d40e0 	push	{r5, r6, r7, lr}
    1cc0:	e3a07025 	mov	r7, #37	; 0x25
    1cc4:	e3a06003 	mov	r6, #3
    1cc8:	e28d5010 	add	r5, sp, #16
    1ccc:	ef000000 	svc	0x00000000
    1cd0:	e8bd80e0 	pop	{r5, r6, r7, pc}

00001cd4 <utee_authenc_dec_final>:
utee_authenc_dec_final():
/home/hsk/Desktop/devel/tee-tpm-hyp/optee_os/lib/libutee/arch/arm/utee_syscalls_asm.S:89
    1cd4:	e92d40e0 	push	{r5, r6, r7, lr}
    1cd8:	e3a07026 	mov	r7, #38	; 0x26
    1cdc:	e3a06003 	mov	r6, #3
    1ce0:	e28d5010 	add	r5, sp, #16
    1ce4:	ef000000 	svc	0x00000000
    1ce8:	e8bd80e0 	pop	{r5, r6, r7, pc}

00001cec <utee_asymm_operate>:
utee_asymm_operate():
/home/hsk/Desktop/devel/tee-tpm-hyp/optee_os/lib/libutee/arch/arm/utee_syscalls_asm.S:91
    1cec:	e92d40e0 	push	{r5, r6, r7, lr}
    1cf0:	e3a07027 	mov	r7, #39	; 0x27
    1cf4:	e3a06003 	mov	r6, #3
    1cf8:	e28d5010 	add	r5, sp, #16
    1cfc:	ef000000 	svc	0x00000000
    1d00:	e8bd80e0 	pop	{r5, r6, r7, pc}

00001d04 <utee_asymm_verify>:
utee_asymm_verify():
/home/hsk/Desktop/devel/tee-tpm-hyp/optee_os/lib/libutee/arch/arm/utee_syscalls_asm.S:93
    1d04:	e92d40e0 	push	{r5, r6, r7, lr}
    1d08:	e3a07028 	mov	r7, #40	; 0x28
    1d0c:	e3a06003 	mov	r6, #3
    1d10:	e28d5010 	add	r5, sp, #16
    1d14:	ef000000 	svc	0x00000000
    1d18:	e8bd80e0 	pop	{r5, r6, r7, pc}

00001d1c <utee_storage_obj_open>:
utee_storage_obj_open():
/home/hsk/Desktop/devel/tee-tpm-hyp/optee_os/lib/libutee/arch/arm/utee_syscalls_asm.S:95
    1d1c:	e92d40e0 	push	{r5, r6, r7, lr}
    1d20:	e3a07029 	mov	r7, #41	; 0x29
    1d24:	e3a06001 	mov	r6, #1
    1d28:	e28d5010 	add	r5, sp, #16
    1d2c:	ef000000 	svc	0x00000000
    1d30:	e8bd80e0 	pop	{r5, r6, r7, pc}

00001d34 <utee_storage_obj_create>:
utee_storage_obj_create():
/home/hsk/Desktop/devel/tee-tpm-hyp/optee_os/lib/libutee/arch/arm/utee_syscalls_asm.S:97
    1d34:	e92d40e0 	push	{r5, r6, r7, lr}
    1d38:	e3a0702a 	mov	r7, #42	; 0x2a
    1d3c:	e3a06004 	mov	r6, #4
    1d40:	e28d5010 	add	r5, sp, #16
    1d44:	ef000000 	svc	0x00000000
    1d48:	e8bd80e0 	pop	{r5, r6, r7, pc}

00001d4c <utee_storage_obj_del>:
utee_storage_obj_del():
/home/hsk/Desktop/devel/tee-tpm-hyp/optee_os/lib/libutee/arch/arm/utee_syscalls_asm.S:99
    1d4c:	e92d40e0 	push	{r5, r6, r7, lr}
    1d50:	e3a0702b 	mov	r7, #43	; 0x2b
    1d54:	e3a06000 	mov	r6, #0
    1d58:	ef000000 	svc	0x00000000
    1d5c:	e8bd80e0 	pop	{r5, r6, r7, pc}

00001d60 <utee_storage_obj_rename>:
utee_storage_obj_rename():
/home/hsk/Desktop/devel/tee-tpm-hyp/optee_os/lib/libutee/arch/arm/utee_syscalls_asm.S:101
    1d60:	e92d40e0 	push	{r5, r6, r7, lr}
    1d64:	e3a0702c 	mov	r7, #44	; 0x2c
    1d68:	e3a06000 	mov	r6, #0
    1d6c:	ef000000 	svc	0x00000000
    1d70:	e8bd80e0 	pop	{r5, r6, r7, pc}

00001d74 <utee_storage_alloc_enum>:
utee_storage_alloc_enum():
/home/hsk/Desktop/devel/tee-tpm-hyp/optee_os/lib/libutee/arch/arm/utee_syscalls_asm.S:103
    1d74:	e92d40e0 	push	{r5, r6, r7, lr}
    1d78:	e3a0702d 	mov	r7, #45	; 0x2d
    1d7c:	e3a06000 	mov	r6, #0
    1d80:	ef000000 	svc	0x00000000
    1d84:	e8bd80e0 	pop	{r5, r6, r7, pc}

00001d88 <utee_storage_free_enum>:
utee_storage_free_enum():
/home/hsk/Desktop/devel/tee-tpm-hyp/optee_os/lib/libutee/arch/arm/utee_syscalls_asm.S:105
    1d88:	e92d40e0 	push	{r5, r6, r7, lr}
    1d8c:	e3a0702e 	mov	r7, #46	; 0x2e
    1d90:	e3a06000 	mov	r6, #0
    1d94:	ef000000 	svc	0x00000000
    1d98:	e8bd80e0 	pop	{r5, r6, r7, pc}

00001d9c <utee_storage_reset_enum>:
utee_storage_reset_enum():
/home/hsk/Desktop/devel/tee-tpm-hyp/optee_os/lib/libutee/arch/arm/utee_syscalls_asm.S:107
    1d9c:	e92d40e0 	push	{r5, r6, r7, lr}
    1da0:	e3a0702f 	mov	r7, #47	; 0x2f
    1da4:	e3a06000 	mov	r6, #0
    1da8:	ef000000 	svc	0x00000000
    1dac:	e8bd80e0 	pop	{r5, r6, r7, pc}

00001db0 <utee_storage_start_enum>:
utee_storage_start_enum():
/home/hsk/Desktop/devel/tee-tpm-hyp/optee_os/lib/libutee/arch/arm/utee_syscalls_asm.S:109
    1db0:	e92d40e0 	push	{r5, r6, r7, lr}
    1db4:	e3a07030 	mov	r7, #48	; 0x30
    1db8:	e3a06000 	mov	r6, #0
    1dbc:	ef000000 	svc	0x00000000
    1dc0:	e8bd80e0 	pop	{r5, r6, r7, pc}

00001dc4 <utee_storage_next_enum>:
utee_storage_next_enum():
/home/hsk/Desktop/devel/tee-tpm-hyp/optee_os/lib/libutee/arch/arm/utee_syscalls_asm.S:111
    1dc4:	e92d40e0 	push	{r5, r6, r7, lr}
    1dc8:	e3a07031 	mov	r7, #49	; 0x31
    1dcc:	e3a06000 	mov	r6, #0
    1dd0:	ef000000 	svc	0x00000000
    1dd4:	e8bd80e0 	pop	{r5, r6, r7, pc}

00001dd8 <utee_storage_obj_read>:
utee_storage_obj_read():
/home/hsk/Desktop/devel/tee-tpm-hyp/optee_os/lib/libutee/arch/arm/utee_syscalls_asm.S:113
    1dd8:	e92d40e0 	push	{r5, r6, r7, lr}
    1ddc:	e3a07032 	mov	r7, #50	; 0x32
    1de0:	e3a06000 	mov	r6, #0
    1de4:	ef000000 	svc	0x00000000
    1de8:	e8bd80e0 	pop	{r5, r6, r7, pc}

00001dec <utee_storage_obj_write>:
utee_storage_obj_write():
/home/hsk/Desktop/devel/tee-tpm-hyp/optee_os/lib/libutee/arch/arm/utee_syscalls_asm.S:115
    1dec:	e92d40e0 	push	{r5, r6, r7, lr}
    1df0:	e3a07033 	mov	r7, #51	; 0x33
    1df4:	e3a06000 	mov	r6, #0
    1df8:	ef000000 	svc	0x00000000
    1dfc:	e8bd80e0 	pop	{r5, r6, r7, pc}

00001e00 <utee_storage_obj_trunc>:
utee_storage_obj_trunc():
/home/hsk/Desktop/devel/tee-tpm-hyp/optee_os/lib/libutee/arch/arm/utee_syscalls_asm.S:117
    1e00:	e92d40e0 	push	{r5, r6, r7, lr}
    1e04:	e3a07034 	mov	r7, #52	; 0x34
    1e08:	e3a06000 	mov	r6, #0
    1e0c:	ef000000 	svc	0x00000000
    1e10:	e8bd80e0 	pop	{r5, r6, r7, pc}

00001e14 <utee_storage_obj_seek>:
utee_storage_obj_seek():
/home/hsk/Desktop/devel/tee-tpm-hyp/optee_os/lib/libutee/arch/arm/utee_syscalls_asm.S:119
    1e14:	e92d40e0 	push	{r5, r6, r7, lr}
    1e18:	e3a07035 	mov	r7, #53	; 0x35
    1e1c:	e3a06000 	mov	r6, #0
    1e20:	ef000000 	svc	0x00000000
    1e24:	e8bd80e0 	pop	{r5, r6, r7, pc}

00001e28 <utee_cryp_obj_generate_key>:
utee_cryp_obj_generate_key():
/home/hsk/Desktop/devel/tee-tpm-hyp/optee_os/lib/libutee/arch/arm/utee_syscalls_asm.S:121
    1e28:	e92d40e0 	push	{r5, r6, r7, lr}
    1e2c:	e3a07036 	mov	r7, #54	; 0x36
    1e30:	e3a06000 	mov	r6, #0
    1e34:	ef000000 	svc	0x00000000
    1e38:	e8bd80e0 	pop	{r5, r6, r7, pc}

00001e3c <utee_cache_operation>:
utee_cache_operation():
/home/hsk/Desktop/devel/tee-tpm-hyp/optee_os/lib/libutee/arch/arm/utee_syscalls_asm.S:124
    1e3c:	e92d40e0 	push	{r5, r6, r7, lr}
    1e40:	e3a07046 	mov	r7, #70	; 0x46
    1e44:	e3a06000 	mov	r6, #0
    1e48:	ef000000 	svc	0x00000000
    1e4c:	e8bd80e0 	pop	{r5, r6, r7, pc}

00001e50 <__utee_mcount>:
__utee_mcount():
/home/hsk/Desktop/devel/tee-tpm-hyp/optee_os/lib/libutee/arch/arm/gprof/gprof_a32.S:49
    1e50:	e52de004 	push	{lr}		; (str lr, [sp, #-4]!)
/home/hsk/Desktop/devel/tee-tpm-hyp/optee_os/lib/libutee/arch/arm/gprof/gprof_a32.S:50
    1e54:	e8bd5000 	pop	{ip, lr}
/home/hsk/Desktop/devel/tee-tpm-hyp/optee_os/lib/libutee/arch/arm/gprof/gprof_a32.S:51
    1e58:	e12fff1c 	bx	ip

00001e5c <mpi_panic>:
mpi_panic():
/home/hsk/Desktop/devel/tee-tpm-hyp/optee_os/lib/libutee/tee_api_arith_mpi.c:29
    1e5c:	b508      	push	{r3, lr}
/home/hsk/Desktop/devel/tee-tpm-hyp/optee_os/lib/libutee/tee_api_arith_mpi.c:30
    1e5e:	4613      	mov	r3, r2
    1e60:	460a      	mov	r2, r1
    1e62:	4601      	mov	r1, r0
    1e64:	4804      	ldr	r0, [pc, #16]	; (1e78 <mpi_panic+0x1c>)
    1e66:	4478      	add	r0, pc
    1e68:	f7fe ff09 	bl	c7e <printf>
/home/hsk/Desktop/devel/tee-tpm-hyp/optee_os/lib/libutee/tee_api_arith_mpi.c:31
    1e6c:	4801      	ldr	r0, [pc, #4]	; (1e74 <mpi_panic+0x18>)
    1e6e:	f004 fb5f 	bl	6530 <TEE_Panic>
    1e72:	e7fe      	b.n	1e72 <mpi_panic+0x16>
    1e74:	00b16127 	.word	0x00b16127
    1e78:	00004f1e 	.word	0x00004f1e

00001e7c <get_mpi>:
get_mpi():
/home/hsk/Desktop/devel/tee-tpm-hyp/optee_os/lib/libutee/tee_api_arith_mpi.c:81
    1e7c:	b507      	push	{r0, r1, r2, lr}
/home/hsk/Desktop/devel/tee-tpm-hyp/optee_os/lib/libutee/tee_api_arith_mpi.c:96
    1e7e:	b151      	cbz	r1, 1e96 <get_mpi+0x1a>
init_static_mpi():
/home/hsk/Desktop/devel/tee-tpm-hyp/optee_os/lib/libutee/tee_api_arith_mpi.c:65
    1e80:	88ca      	ldrh	r2, [r1, #6]
    1e82:	888b      	ldrh	r3, [r1, #4]
    1e84:	3108      	adds	r1, #8
    1e86:	9200      	str	r2, [sp, #0]
    1e88:	f851 2c08 	ldr.w	r2, [r1, #-8]
    1e8c:	f001 fad2 	bl	3434 <mbedtls_mpi_init_static>
get_mpi():
/home/hsk/Desktop/devel/tee-tpm-hyp/optee_os/lib/libutee/tee_api_arith_mpi.c:100
    1e90:	b003      	add	sp, #12
    1e92:	f85d fb04 	ldr.w	pc, [sp], #4
    1e96:	b003      	add	sp, #12
    1e98:	f85d eb04 	ldr.w	lr, [sp], #4
/home/hsk/Desktop/devel/tee-tpm-hyp/optee_os/lib/libutee/tee_api_arith_mpi.c:99
    1e9c:	f001 bab8 	b.w	3410 <mbedtls_mpi_init_mempool>

00001ea0 <mpi_is_odd>:
mpi_is_odd():
/home/hsk/Desktop/devel/tee-tpm-hyp/optee_os/lib/libutee/tee_api_arith_mpi.c:599
    1ea0:	b508      	push	{r3, lr}
/home/hsk/Desktop/devel/tee-tpm-hyp/optee_os/lib/libutee/tee_api_arith_mpi.c:600
    1ea2:	2100      	movs	r1, #0
    1ea4:	f001 fc87 	bl	37b6 <mbedtls_mpi_get_bit>
/home/hsk/Desktop/devel/tee-tpm-hyp/optee_os/lib/libutee/tee_api_arith_mpi.c:601
    1ea8:	3000      	adds	r0, #0
    1eaa:	bf18      	it	ne
    1eac:	2001      	movne	r0, #1
    1eae:	bd08      	pop	{r3, pc}

00001eb0 <rng_read>:
rng_read():
/home/hsk/Desktop/devel/tee-tpm-hyp/optee_os/lib/libutee/tee_api_arith_mpi.c:763
    1eb0:	b508      	push	{r3, lr}
    1eb2:	4608      	mov	r0, r1
/home/hsk/Desktop/devel/tee-tpm-hyp/optee_os/lib/libutee/tee_api_arith_mpi.c:764
    1eb4:	4611      	mov	r1, r2
    1eb6:	f7ff eed6 	blx	1c64 <utee_cryp_random_number_generate>
    1eba:	2800      	cmp	r0, #0
/home/hsk/Desktop/devel/tee-tpm-hyp/optee_os/lib/libutee/tee_api_arith_mpi.c:767
    1ebc:	f06f 0001 	mvn.w	r0, #1
    1ec0:	bf08      	it	eq
    1ec2:	2000      	moveq	r0, #0
    1ec4:	bd08      	pop	{r3, pc}

00001ec6 <put_mpi>:
put_mpi():
/home/hsk/Desktop/devel/tee-tpm-hyp/optee_os/lib/libutee/tee_api_arith_mpi.c:128
    1ec6:	7842      	ldrb	r2, [r0, #1]
    1ec8:	2a02      	cmp	r2, #2
    1eca:	d108      	bne.n	1ede <put_mpi+0x18>
/home/hsk/Desktop/devel/tee-tpm-hyp/optee_os/lib/libutee/tee_api_arith_mpi.c:129
    1ecc:	6882      	ldr	r2, [r0, #8]
/home/hsk/Desktop/devel/tee-tpm-hyp/optee_os/lib/libutee/tee_api_arith_mpi.c:131
    1ece:	f990 1000 	ldrsb.w	r1, [r0]
/home/hsk/Desktop/devel/tee-tpm-hyp/optee_os/lib/libutee/tee_api_arith_mpi.c:132
    1ed2:	8883      	ldrh	r3, [r0, #4]
/home/hsk/Desktop/devel/tee-tpm-hyp/optee_os/lib/libutee/tee_api_arith_mpi.c:131
    1ed4:	f842 1c08 	str.w	r1, [r2, #-8]
/home/hsk/Desktop/devel/tee-tpm-hyp/optee_os/lib/libutee/tee_api_arith_mpi.c:132
    1ed8:	f822 3c02 	strh.w	r3, [r2, #-2]
/home/hsk/Desktop/devel/tee-tpm-hyp/optee_os/lib/libutee/tee_api_arith_mpi.c:136
    1edc:	4770      	bx	lr
/home/hsk/Desktop/devel/tee-tpm-hyp/optee_os/lib/libutee/tee_api_arith_mpi.c:134
    1ede:	f001 bab2 	b.w	3446 <mbedtls_mpi_free>

00001ee2 <mpi_egcd>:
mpi_egcd():
/home/hsk/Desktop/devel/tee-tpm-hyp/optee_os/lib/libutee/tee_api_arith_mpi.c:614
    1ee2:	e92d 4ff0 	stmdb	sp!, {r4, r5, r6, r7, r8, r9, sl, fp, lr}
    1ee6:	4681      	mov	r9, r0
    1ee8:	b09b      	sub	sp, #108	; 0x6c
get_mpi():
/home/hsk/Desktop/devel/tee-tpm-hyp/optee_os/lib/libutee/tee_api_arith_mpi.c:99
    1eea:	f10d 0814 	add.w	r8, sp, #20
    1eee:	af08      	add	r7, sp, #32
    1ef0:	4640      	mov	r0, r8
    1ef2:	ad0b      	add	r5, sp, #44	; 0x2c
mpi_egcd():
/home/hsk/Desktop/devel/tee-tpm-hyp/optee_os/lib/libutee/tee_api_arith_mpi.c:614
    1ef4:	9102      	str	r1, [sp, #8]
get_mpi():
/home/hsk/Desktop/devel/tee-tpm-hyp/optee_os/lib/libutee/tee_api_arith_mpi.c:99
    1ef6:	ac0e      	add	r4, sp, #56	; 0x38
mpi_egcd():
/home/hsk/Desktop/devel/tee-tpm-hyp/optee_os/lib/libutee/tee_api_arith_mpi.c:614
    1ef8:	9203      	str	r2, [sp, #12]
get_mpi():
/home/hsk/Desktop/devel/tee-tpm-hyp/optee_os/lib/libutee/tee_api_arith_mpi.c:99
    1efa:	f10d 0a44 	add.w	sl, sp, #68	; 0x44
mpi_egcd():
/home/hsk/Desktop/devel/tee-tpm-hyp/optee_os/lib/libutee/tee_api_arith_mpi.c:614
    1efe:	9301      	str	r3, [sp, #4]
get_mpi():
