
f4e750bb-1437-4fbf-8785-8d3580c34994.elf:     file format elf32-littlearm
f4e750bb-1437-4fbf-8785-8d3580c34994.elf
architecture: arm, flags 0x00000150:
HAS_SYMS, DYNAMIC, D_PAGED
start address 0x00000020

Program Header:
0x70000001 off    0x000178f0 vaddr 0x000078f0 paddr 0x000078f0 align 2**2
         filesz 0x00000560 memsz 0x00000560 flags r--
    LOAD off    0x00010000 vaddr 0x00000000 paddr 0x00000000 align 2**16
         filesz 0x00006618 memsz 0x00006618 flags r-x
    LOAD off    0x00016618 vaddr 0x00006618 paddr 0x00006618 align 2**16
         filesz 0x00001bac memsz 0x00001bac flags r--
    LOAD off    0x00019000 vaddr 0x00009000 paddr 0x00009000 align 2**16
         filesz 0x00000098 memsz 0x0000a108 flags rw-
 DYNAMIC off    0x00017f8c vaddr 0x00007f8c paddr 0x00007f8c align 2**2
         filesz 0x00000080 memsz 0x00000080 flags rw-

Dynamic Section:
  HASH                 0x0000817c
  STRTAB               0x000080dc
  SYMTAB               0x0000800c
  STRSZ                0x0000009f
  SYMENT               0x00000010
  DEBUG                0x00000000
  REL                  0x00007e84
  RELSZ                0x00000108
  RELENT               0x00000008
  FLAGS_1              0x08000000
  RELCOUNT             0x00000017
private flags = 5000400: [Version5 EABI] [hard-float ABI]

Sections:
Idx Name          Size      VMA       LMA       File off  Algn
  0 .ta_head      00000020  00000000  00000000  00010000  2**3
                  CONTENTS, ALLOC, LOAD, DATA
  1 .text         000065f8  00000020  00000020  00010020  2**3
                  CONTENTS, ALLOC, LOAD, READONLY, CODE
  2 .rodata       000011b5  00006618  00006618  00016618  2**2
                  CONTENTS, ALLOC, LOAD, READONLY, DATA
  3 .ARM.extab    000000f0  000077d0  000077d0  000177d0  2**2
                  CONTENTS, ALLOC, LOAD, READONLY, DATA
  4 .ARM.extab.text.__aeabi_ldivmod 0000000c  000078c0  000078c0  000178c0  2**2
                  CONTENTS, ALLOC, LOAD, READONLY, DATA
  5 .ARM.extab.text.__aeabi_uldivmod 0000000c  000078cc  000078cc  000178cc  2**2
                  CONTENTS, ALLOC, LOAD, READONLY, DATA
  6 .ARM.extab.text.utee_panic 0000000c  000078d8  000078d8  000178d8  2**2
                  CONTENTS, ALLOC, LOAD, READONLY, DATA
  7 .ARM.extab.text.unlikely 0000000c  000078e4  000078e4  000178e4  2**2
                  CONTENTS, ALLOC, LOAD, READONLY, DATA
  8 .ARM.exidx    00000560  000078f0  000078f0  000178f0  2**2
                  CONTENTS, ALLOC, LOAD, READONLY, DATA
  9 .got          00000034  00007e50  00007e50  00017e50  2**2
                  CONTENTS, ALLOC, LOAD, DATA
 10 .dynsym       000000d0  0000800c  0000800c  0001800c  2**2
                  CONTENTS, ALLOC, LOAD, READONLY, DATA
 11 .rel.got      00000050  00007f3c  00007f3c  00017f3c  2**2
                  CONTENTS, ALLOC, LOAD, READONLY, DATA
 12 .dynamic      00000080  00007f8c  00007f8c  00017f8c  2**2
                  CONTENTS, ALLOC, LOAD, DATA
 13 .dynstr       0000009f  000080dc  000080dc  000180dc  2**0
                  CONTENTS, ALLOC, LOAD, READONLY, DATA
 14 .hash         00000048  0000817c  0000817c  0001817c  2**2
                  CONTENTS, ALLOC, LOAD, READONLY, DATA
 15 .data         00000098  00009000  00009000  00019000  2**2
                  CONTENTS, ALLOC, LOAD, DATA
 16 .bss          0000a070  00009098  00009098  00019098  2**2
                  ALLOC
 17 .debug_info   0000f311  00000000  00000000  00019098  2**0
                  CONTENTS, READONLY, DEBUGGING
 18 .debug_abbrev 00002967  00000000  00000000  000283a9  2**0
                  CONTENTS, READONLY, DEBUGGING
 19 .debug_loc    0000e4d1  00000000  00000000  0002ad10  2**0
                  CONTENTS, READONLY, DEBUGGING
 20 .debug_aranges 00000510  00000000  00000000  000391e8  2**3
                  CONTENTS, READONLY, DEBUGGING
 21 .debug_ranges 000007c0  00000000  00000000  000396f8  2**3
                  CONTENTS, READONLY, DEBUGGING
 22 .debug_macro  0001278d  00000000  00000000  00039eb8  2**0
                  CONTENTS, READONLY, DEBUGGING
 23 .debug_line   00004a29  00000000  00000000  0004c645  2**0
                  CONTENTS, READONLY, DEBUGGING
 24 .debug_str    000116d7  00000000  00000000  0005106e  2**0
                  CONTENTS, READONLY, DEBUGGING
 25 .comment      00000074  00000000  00000000  00062745  2**0
                  CONTENTS, READONLY
 26 .ARM.attributes 00000036  00000000  00000000  000627b9  2**0
                  CONTENTS, READONLY
 27 .debug_frame  00001a5c  00000000  00000000  000627f0  2**2
                  CONTENTS, READONLY, DEBUGGING
 28 .rel.dyn      000000b8  00007e84  00007e84  00017e84  2**2
                  CONTENTS, ALLOC, LOAD, READONLY, DATA
SYMBOL TABLE:
00000000 l    d  .ta_head	00000000 .ta_head
00000020 l    d  .text	00000000 .text
00006618 l    d  .rodata	00000000 .rodata
000077d0 l    d  .ARM.extab	00000000 .ARM.extab
000078c0 l    d  .ARM.extab.text.__aeabi_ldivmod	00000000 .ARM.extab.text.__aeabi_ldivmod
000078cc l    d  .ARM.extab.text.__aeabi_uldivmod	00000000 .ARM.extab.text.__aeabi_uldivmod
000078d8 l    d  .ARM.extab.text.utee_panic	00000000 .ARM.extab.text.utee_panic
000078e4 l    d  .ARM.extab.text.unlikely	00000000 .ARM.extab.text.unlikely
000078f0 l    d  .ARM.exidx	00000000 .ARM.exidx
00007e50 l    d  .got	00000000 .got
00007f3c l    d  .rel.got	00000000 .rel.got
00007f8c l    d  .dynamic	00000000 .dynamic
0000800c l    d  .dynsym	00000000 .dynsym
000080dc l    d  .dynstr	00000000 .dynstr
0000817c l    d  .hash	00000000 .hash
00009000 l    d  .data	00000000 .data
00009098 l    d  .bss	00000000 .bss
00000000 l    d  .debug_info	00000000 .debug_info
00000000 l    d  .debug_abbrev	00000000 .debug_abbrev
00000000 l    d  .debug_loc	00000000 .debug_loc
00000000 l    d  .debug_aranges	00000000 .debug_aranges
00000000 l    d  .debug_ranges	00000000 .debug_ranges
00000000 l    d  .debug_macro	00000000 .debug_macro
00000000 l    d  .debug_line	00000000 .debug_line
00000000 l    d  .debug_str	00000000 .debug_str
00000000 l    d  .comment	00000000 .comment
00000000 l    d  .ARM.attributes	00000000 .ARM.attributes
00000000 l    d  .debug_frame	00000000 .debug_frame
00007e84 l    d  .rel.dyn	00000000 .rel.dyn
00000000 l    df *ABS*	00000000 user_ta_header.c
0000661c l     O .rodata	00000004 __compound_literal.5
00006620 l     O .rodata	00000004 __compound_literal.4
00006624 l     O .rodata	00000004 __compound_literal.3
00006628 l     O .rodata	00000001 __compound_literal.2
00006629 l     O .rodata	00000001 __compound_literal.1
0000662a l     O .rodata	00000001 __compound_literal.0
00000000 l    df *ABS*	00000000 secure_storage_ta.c
000068f8 l     O .rodata	00000012 __func__.6167
0000690a l     O .rodata	00000010 __func__.6181
0000691a l     O .rodata	0000000e __func__.6154
00006928 l     O .rodata	0000001b __func__.6207
00000000 l    df *ABS*	00000000 trace.c
0000025c l     F .text	0000004e append
00006b46 l     O .rodata	00000005 lvl_strs.5573
00006b4b l     O .rodata	0000000a __func__.5627
00000000 l    df *ABS*	00000000 snprintk.c
00006b8f l     O .rodata	00000011 HEXDIGITS
00006ba0 l     O .rodata	00000011 hexdigits
00000000 l    df *ABS*	00000000 arm32_aeabi_ldivmod_a32.o
00000000 l    df *ABS*	00000000 trace_ext.c
00000000 l    df *ABS*	00000000 tee_api.c
00006be9 l     O .rodata	0000000b __func__.6740
00009098 l     O .bss	00000004 tee_api_instance_data
00000000 l    df *ABS*	00000000 tee_api_objects.c
00006c05 l     O .rodata	00000010 __func__.6655
00000000 l    df *ABS*	00000000 user_ta_entry.c
00001790 l     F .text	0000001c ta_header_get_session
000017ac l     F .text	00000068 ta_header_remove_session
0000909c l     O .bss	00000001 init_done
00009074 l     O .data	00000008 ta_sessions
00000000 l    df *ABS*	00000000 utee_syscalls_a32.o
00000000 l    df *ABS*	00000000 gprof_a32.o
00000000 l    df *ABS*	00000000 tee_api_arith_mpi.c
00002e6c l     F .text	00000020 api_panic
00001e5c l     F .text	00000020 mpi_panic
00001e7c l     F .text	00000024 get_mpi
00001ea0 l     F .text	00000010 mpi_is_odd
00001eb0 l     F .text	00000016 rng_read
00001ec6 l     F .text	0000001c put_mpi
00001ee2 l     F .text	0000045a mpi_egcd
0000233c l     F .text	00000044 get_const_mpi
00002380 l     F .text	00000088 bigint_binary
000090c4 l     O .bss	00002000 data.6740
00002610 l     F .text	000000e8 bigint_binary_mod
00006c25 l     O .rodata	00000009 __func__.7008
00006c2e l     O .rodata	0000000e __func__.6769
00006c3c l     O .rodata	0000000e __func__.6868
00006c4a l     O .rodata	00000012 __func__.6741
00006c5c l     O .rodata	0000000f __func__.6779
00006c6b l     O .rodata	0000001f __func__.6797
00006c8a l     O .rodata	00000019 __func__.6804
00006ca3 l     O .rodata	00000012 __func__.6879
00006cb5 l     O .rodata	00000015 __func__.6834
00006cca l     O .rodata	0000000e __func__.6906
00006cd8 l     O .rodata	0000000e __func__.6934
00006ce6 l     O .rodata	0000000e __func__.6940
00006cf4 l     O .rodata	00000011 __func__.6969
00006d05 l     O .rodata	00000018 __func__.6985
00006d1d l     O .rodata	0000001d __func__.7065
00006d3a l     O .rodata	00000019 __func__.7115
00006d53 l     O .rodata	00000015 __func__.7129
00000000 l    df *ABS*	00000000 bignum.c
00002e8c l     F .text	00000038 mpi_get_digit
00002ec4 l     F .text	0000005c mpi_sub_hlp
00002f20 l     F .text	0000049a mpi_mul_hlp
000033ba l     F .text	00000048 mbedtls_mpi_mod_int.part.3
00004430 l     F .text	0000006e mpi_write_hlp
000045cc l     F .text	00000050 mpi_check_small_factors
00004cc6 l     F .text	00000216 mpi_miller_rabin
00006634 l     O .rodata	000002a0 small_prime
000068d4 l     O .rodata	00000024 gcd_pairs
00000000 l    df *ABS*	00000000 bget_malloc.c
00005668 l     F .text	00000030 raw_malloc_return_hook.isra.3
00005698 l     F .text	000000d8 create_free_block.constprop.11
0000727c l     O .rodata	00000012 __func__.5866
0000728e l     O .rodata	00000005 __func__.5722
00007293 l     O .rodata	00000006 __func__.5737
00007299 l     O .rodata	00000005 __func__.5754
0000729e l     O .rodata	00000006 __func__.5746
000072a4 l     O .rodata	00000006 __func__.5763
000072aa l     O .rodata	00000007 __func__.5773
000072b1 l     O .rodata	0000000d __func__.5902
000072be l     O .rodata	0000000c __func__.5876
000072ca l     O .rodata	0000000b __func__.5887
000072d5 l     O .rodata	00000010 __func__.5954
000072e5 l     O .rodata	0000000e __func__.5908
000072f3 l     O .rodata	00000013 __func__.5814
0000b0c8 l     O .bss	00000038 mstats
0000b100 l     O .bss	00000004 malloc_pool_len
0000b104 l     O .bss	00000004 malloc_pool
0000907c l     O .data	0000001c malloc_poolset
00000000 l    df *ABS*	00000000 mempool.c
0000770e l     O .rodata	00000013 __func__.5630
00007721 l     O .rodata	0000000e __func__.5639
00000000 l    df *ABS*	00000000 assert.c
00000000 l    df *ABS*	00000000 aeabi_unwind.c
00000000 l    df *ABS*	00000000 memchr.c
00000000 l    df *ABS*	00000000 strlen.c
00000000 l    df *ABS*	00000000 arm32_aeabi_ldivmod.c
00000000 l    df *ABS*	00000000 tee_api_panic.c
00000000 l    df *ABS*	00000000 snprintf.c
00000000 l    df *ABS*	00000000 memcmp.c
00000000 l    df *ABS*	00000000 memcpy.c
00000000 l    df *ABS*	00000000 memmove.c
00000000 l    df *ABS*	00000000 memset.c
00000000 l    df *ABS*	00000000 
00007f8c l     O *ABS*	00000000 _DYNAMIC
00007e50 l     O *ABS*	00000000 _GLOBAL_OFFSET_TABLE_
000065d8 l     F .text	00000010 __utee_log_from_thumb
000065e8 l     F .text	00000010 __utee_panic_from_thumb
000065f8 l     F .text	00000010 __utee_check_access_rights_from_thumb
00006608 l     F .text	00000010 __utee_cache_operation_from_thumb
00000cdc g     F .text	00000022 putchar
00001248 g     F .text	00000070 TEE_PopulateTransientObject
00002d7e g     F .text	00000004 TEE_BigIntConvertToFMM
00002ac4 g     F .text	00000008 TEE_BigIntSquareMod
000026f8 g     F .text	000000f4 TEE_BigIntShiftRight
00001d34 g     F .text	00000018 utee_storage_obj_create
00003494 g     F .text	000000a8 mbedtls_mpi_grow
00006448 g     F .text	000000e8 __l_divmod
000019b4 g     F .text	00000014 utee_return
00000fc4 g     F .text	00000004 TEE_Realloc
00000c7e g     F .text	0000003a printf
000019c8 g     F .text	00000014 utee_log
000012b8 g     F .text	00000022 TEE_InitRefAttribute
00000de2 g     F .text	00000066 TEE_InvokeTACommand
00003410 g     F .text	00000024 mbedtls_mpi_init_mempool
0000390e g     F .text	00000046 mbedtls_mpi_write_binary
00000c0c g     F .text	0000000e vsnprintk
00003d7c g     F .text	00000030 mbedtls_mpi_sub_int
00006594 g     F .text	00000032 memmove
00006534 g     F .text	0000001e snprintf
000025ea g     F .text	00000026 TEE_BigIntCmpS32
000012da g     F .text	00000022 TEE_InitValueAttribute
0000353c g     F .text	000000cc mbedtls_mpi_shrink
000063a0 g     F .text	00000002 __aeabi_unwind_cpp_pr0
00002838 g     F .text	0000001c TEE_BigIntAdd
00001a08 g     F .text	00000014 utee_get_property_name_to_index
0000662c g     O .rodata	00000004 ta_heap_size
00001218 g     F .text	00000030 TEE_ResetTransientObject
00001aec g     F .text	00000018 utee_cryp_state_alloc
00001cbc g     F .text	00000018 utee_authenc_enc_final
00003ea2 g     F .text	0000012c mbedtls_mpi_read_string
00002870 g     F .text	00000058 TEE_BigIntNeg
00000020 g       .text	00000000 __text_start
000015dc g     F .text	0000002c TEE_StartPersistentObjectEnumerator
000039e4 g     F .text	0000007c mbedtls_mpi_shift_r
00006214 g     F .text	0000004c malloc_buffer_overlaps_heap
00002a8c g     F .text	0000001c TEE_BigIntSubMod
00005206 g     F .text	00000136 mbedtls_mpi_gen_prime
000037b6 g     F .text	00000020 mbedtls_mpi_get_bit
000038a8 g     F .text	00000066 mbedtls_mpi_read_binary
000002dc g     F .text	0000013c trace_printf
00004644 g     F .text	000000c4 mbedtls_mpi_montmul
0000657e g     F .text	00000016 memcpy
00001b18 g     F .text	00000014 utee_cryp_state_free
00002d82 g     F .text	0000004a TEE_BigIntConvertFromFMM
00006530 g     F .text	00000004 TEE_Panic
00000c4c g     F .text	00000018 __aeabi_uldivmod
00000cb8 g     F .text	00000024 puts
00002dcc g     F .text	000000a0 TEE_BigIntComputeFMM
00005c88 g     F .text	00000020 malloc_get_stats
00001b98 g     F .text	00000018 utee_cipher_final
00000f64 g     F .text	00000016 TEE_GetREETime
0000157c g     F .text	00000038 TEE_AllocatePersistentObjectEnumerator
00009004 g     O .data	0000006c ta_props
00005ca8 g     F .text	00000038 malloc
00001c00 g     F .text	00000014 utee_cryp_obj_close
00001394 g     F .text	0000006c TEE_GenerateKey
00006552 g     F .text	0000000e vsnprintf
00009000 g     O .data	00000004 trace_level
000025b4 g     F .text	00000036 TEE_BigIntCmp
00006618 g     O .rodata	00000004 ta_num_props
00005af8 g     F .text	0000007c bgetr
00001ca4 g     F .text	00000018 utee_authenc_update_payload
00006334 g     F .text	0000002e mempool_free
000024cc g     F .text	00000058 TEE_BigIntConvertToOctetString
00001e3c g     F .text	00000014 utee_cache_operation
0000385a g     F .text	00000042 mbedtls_mpi_bitlen
00001c78 g     F .text	00000018 utee_authenc_init
000027ec g     F .text	0000002a TEE_BigIntGetBit
00006630 g     O .rodata	00000003 trace_ext_prefix
000058a4 g     F .text	0000005c bgetz
00000eb4 g     F .text	0000000c TEE_GetInstanceData
00000ee2 g     F .text	0000001e TEE_Wait
00001dec g     F .text	00000014 utee_storage_obj_write
00003dac g     F .text	000000d8 mbedtls_mpi_mul_mpi
000063a4 g     F .text	00000002 __aeabi_unwind_cpp_pr2
00000fd2 g     F .text	00000006 TEE_CacheFlush
00000024 g     F .text	00000002 TA_DestroyEntryPoint
00003402 g     F .text	0000000e mbedtls_mpi_init
00003828 g     F .text	00000032 mbedtls_mpi_lsb
00006364 g     F .text	00000028 _assert_log
00002d7a g     F .text	00000004 TEE_BigIntFMMContextSizeInU32
00001536 g     F .text	00000046 TEE_RenamePersistentObject
00002408 g     F .text	00000044 _TEE_MathAPI_Init
00003cbc g     F .text	00000046 mbedtls_mpi_add_mpi
00001dc4 g     F .text	00000014 utee_storage_next_enum
0000b108 g     O .bss	00008000 ta_heap
00002acc g     F .text	000000a4 TEE_BigIntInvMod
0000002a g     F .text	00000002 TA_CloseSessionEntryPoint
00001400 g     F .text	00000064 TEE_OpenPersistentObject
00003d02 g     F .text	0000004a mbedtls_mpi_sub_mpi
000019dc g     F .text	00000014 __utee_panic
00001b04 g     F .text	00000014 utee_cryp_state_copy
0000002c g     F .text	00000230 TA_InvokeCommandEntryPoint
000062a4 g     F .text	0000006c mempool_alloc
00001bec g     F .text	00000014 utee_cryp_obj_alloc
00001ad8 g     F .text	00000014 utee_set_ta_time
00001bd8 g     F .text	00000014 utee_cryp_obj_get_attr
00006310 g     F .text	00000024 mempool_calloc
00001364 g     F .text	00000030 TEE_CopyObjectAttributes
00005cf0 g     F .text	00000048 calloc
00000f7a g     F .text	0000004a TEE_Malloc
00001a9c g     F .text	00000014 utee_mask_cancellation
00001c14 g     F .text	00000014 utee_cryp_obj_reset
00000e9c g     F .text	0000000a TEE_CheckMemoryAccessRights
00013108 g       .bss	00000000 __gprof_buf_end
000063d2 g     F .text	00000076 __ul_divmod
0000377e g     F .text	00000038 mbedtls_mpi_lset
0000165c g     F .text	00000040 TEE_ReadObjectData
000010b0 g     F .text	00000070 TEE_GetObjectBufferAttribute
00000026 g     F .text	00000004 TA_OpenSessionEntryPoint
00001db0 g     F .text	00000014 utee_storage_start_enum
00001d60 g     F .text	00000014 utee_storage_obj_rename
000090a0 g     O .bss	00000004 ta_param_types
00004364 g     F .text	0000002e mbedtls_mpi_div_int
00000fe0 g     F .text	00000038 __utee_from_attr
00002d3c g     F .text	00000030 TEE_BigIntIsProbablePrime
00003e84 g     F .text	0000001e mbedtls_mpi_mul_int
000014fc g     F .text	00000024 TEE_CloseAndDeletePersistentObject1
0000472c g     F .text	00000454 mbedtls_mpi_exp_mod
0000368c g     F .text	0000006c mbedtls_mpi_safe_cond_assign
000019f0 g     F .text	00000018 utee_get_property
0000244c g     F .text	00000040 TEE_BigIntInit
00000ec0 g     F .text	00000004 TEE_MemMove
0000248c g     F .text	00000040 TEE_BigIntConvertFromOctetString
00009070 g     O .data	00000004 _ref__utee_mcount
00003a60 g     F .text	00000068 mbedtls_mpi_cmp_abs
000063a6 g     F .text	0000001c memchr
00000e64 g     F .text	0000001c TEE_UnmaskCancellation
00001018 g     F .text	0000002c TEE_GetObjectInfo
0000533c g     F .text	0000032c mbedtls_mpi_self_test
00001d4c g     F .text	00000014 utee_storage_obj_del
00001e14 g     F .text	00000014 utee_storage_obj_seek
000011e8 g     F .text	00000030 TEE_FreeTransientObject
00003b5a g     F .text	00000030 mbedtls_mpi_cmp_int
00001b40 g     F .text	00000014 utee_hash_update
00001e50  w    F .text	0000000c __utee_mcount
00002a20 g     F .text	00000050 TEE_BigIntMod
000043f6 g     F .text	0000003a mbedtls_mpi_mod_int
00001a34 g     F .text	00000014 utee_close_ta_session
00002972 g     F .text	000000ae TEE_BigIntDiv
00003608 g     F .text	00000056 mbedtls_mpi_copy
00005c74 g     F .text	00000014 malloc_reset_stats
00001b80 g     F .text	00000018 utee_cipher_update
00001064 g     F .text	00000020 TEE_RestrictObjectUsage1
00005d38 g     F .text	00000038 realloc
0000365e g     F .text	0000002e mbedtls_mpi_swap
00006260 g     F .text	00000044 mempool_alloc_pool
00001d04 g     F .text	00000018 utee_asymm_verify
000028c8 g     F .text	000000a4 TEE_BigIntMul
00003954 g     F .text	00000090 mbedtls_mpi_shift_l
00003ac8 g     F .text	00000092 mbedtls_mpi_cmp_mpi
00000ec8 g     F .text	00000004 TEE_MemFill
00006560 g     F .text	0000001e memcmp
00006040 g     F .text	000000f8 malloc_add_pool
000002c8 g     F .text	00000014 trace_get_level
00003b8a g     F .text	000000b8 mbedtls_mpi_add_abs
00001c64 g     F .text	00000014 utee_cryp_random_number_generate
00001084 g     F .text	0000002c TEE_RestrictObjectUsage
00002d72 g     F .text	00000008 TEE_BigIntFMMSizeInU32
00002d6c g     F .text	00000004 TEE_BigIntInitFMM
00001cec g     F .text	00000018 utee_asymm_operate
000011a4 g     F .text	00000014 TEE_CloseObject
00001814 g     F .text	0000018c __utee_entry
00006618 g       .text	00000000 __text_end
00002b70 g     F .text	0000007c TEE_BigIntRelativePrime
00004392 g     F .text	00000064 mbedtls_mpi_mod_mpi
00005b74 g     F .text	0000009c bpool
00000e48 g     F .text	0000001c TEE_GetCancellationFlag
00004b80 g     F .text	00000112 mbedtls_mpi_gcd
00000f3c g     F .text	00000028 TEE_SetTAPersistentTime
000065c6 g     F .text	00000010 memset
00000f00 g     F .text	0000003c TEE_GetTAPersistentTime
00000418 g     F .text	000000f8 dhex_dump
00001464 g     F .text	00000098 TEE_CreatePersistentObject
00000e80 g     F .text	0000001c TEE_MaskCancellation
00001dd8 g     F .text	00000014 utee_storage_obj_read
000016dc g     F .text	00000038 TEE_TruncateObjectData
00001c28 g     F .text	00000014 utee_cryp_obj_populate
00001044 g     F .text	00000020 TEE_GetObjectInfo1
000002aa g     F .text	0000001e trace_set_level
00001bb0 g     F .text	00000014 utee_cryp_obj_get_info
00001120 g     F .text	00000084 TEE_GetObjectValueAttribute
00001d74 g     F .text	00000014 utee_storage_alloc_enum
00001d9c g     F .text	00000014 utee_storage_reset_enum
00001e00 g     F .text	00000014 utee_storage_obj_trunc
0000255c g     F .text	00000058 TEE_BigIntConvertToS32
00002854 g     F .text	0000001c TEE_BigIntSub
00001a60 g     F .text	00000014 utee_get_cancellation_flag
00001b2c g     F .text	00000014 utee_hash_init
0000639c g     F .text	00000004 tahead_get_trace_level
00000d00 g     F .text	0000004e __utee_from_param
00001714 g     F .text	0000007c TEE_SeekObjectData
00000d4e g     F .text	0000003c __utee_to_param
00004708 g     F .text	00000024 mbedtls_mpi_montred
00005d70 g     F .text	000002d0 memalign
00002524 g     F .text	00000038 TEE_BigIntConvertFromS32
00003d4c g     F .text	00000030 mbedtls_mpi_add_int
00001bc4 g     F .text	00000014 utee_cryp_obj_restrict_usage
00006138 g     F .text	000000dc malloc_buffer_is_within_alloced
00001c3c g     F .text	00000014 utee_cryp_obj_copy
00002d70 g     F .text	00000002 TEE_BigIntInitFMMContext
00001c50 g     F .text	00000014 utee_cryp_derive_key
00001cd4 g     F .text	00000018 utee_authenc_dec_final
000015c8 g     F .text	00000014 TEE_ResetPersistentObjectEnumerator
0000169c g     F .text	00000040 TEE_WriteObjectData
0000296c g     F .text	00000006 TEE_BigIntSquare
00000020 g     F .text	00000004 TA_CreateEntryPoint
0000461c g     F .text	00000028 mbedtls_mpi_montg_init
00000c1a g     F .text	0000001a snprintk
00002816 g     F .text	00000022 TEE_BigIntGetBitCount
00002aa8 g     F .text	0000001c TEE_BigIntMulMod
00004edc g     F .text	000002ce mbedtls_mpi_inv_mod
000090a4 g     O .bss	00000020 ta_params
00003fce g     F .text	00000396 mbedtls_mpi_div_mpi
0000389c g     F .text	0000000c mbedtls_mpi_size
00005770 g     F .text	00000134 bget
000011b8 g     F .text	00000030 TEE_AllocateTransientObject
000037d6 g     F .text	00000052 mbedtls_mpi_set_bit
00003434 g     F .text	00000012 mbedtls_mpi_init_static
00000fc8 g     F .text	00000004 TEE_Free
000051aa g     F .text	0000005c mbedtls_mpi_is_prime
00000fd8 g     F .text	00000006 TEE_CacheInvalidate
00001b6c g     F .text	00000014 utee_cipher_init
0000638c g     F .text	00000010 _assert_break
00002a70 g     F .text	0000001c TEE_BigIntAddMod
00001d88 g     F .text	00000014 utee_storage_free_enum
00001c90 g     F .text	00000014 utee_authenc_update_aad
00000ec4 g     F .text	00000004 TEE_MemCompare
00000510 g     F .text	000006fc __vsnprintf
000015b4 g     F .text	00000014 TEE_FreePersistentObjectEnumerator
000019a0 g     F .text	00000014 utee_panic
00000d8a g     F .text	00000044 TEE_OpenTASession
00000c64 g     F .text	00000014 trace_ext_puts
00000c78 g     F .text	00000006 trace_ext_get_thread_id
00001520 g     F .text	00000016 TEE_CloseAndDeletePersistentObject
00003446 g     F .text	0000004e mbedtls_mpi_free
00000fcc g     F .text	00000006 TEE_CacheClean
00001a1c g     F .text	00000018 utee_open_ta_session
000036f8 g     F .text	00000086 mbedtls_mpi_safe_cond_swap
000012fc g     F .text	00000068 TEE_CopyObjectAttributes1
00001b54 g     F .text	00000018 utee_hash_final
000063c2 g     F .text	00000010 strlen
00002bec g     F .text	00000150 TEE_BigIntComputeExtendedGcd
000063a2 g     F .text	00000002 __aeabi_unwind_cpp_pr1
00001d1c g     F .text	00000018 utee_storage_obj_open
00001a48 g     F .text	00000018 utee_invoke_ta_command
00001ab0 g     F .text	00000014 utee_wait
00000ecc g     F .text	00000016 TEE_GetSystemTime
00000000 g     O .ta_head	00000020 ta_head
00005900 g     F .text	000001f8 brel
00003c42 g     F .text	0000007a mbedtls_mpi_sub_abs
00001ac4 g     F .text	00000014 utee_get_time
00004c92 g     F .text	00000034 mbedtls_mpi_fill_random
00000ea6 g     F .text	0000000e TEE_SetInstanceData
00001a88 g     F .text	00000014 utee_unmask_cancellation
00000c34 g     F .text	00000018 __aeabi_ldivmod
00001a74 g     F .text	00000014 utee_check_access_rights
0000449e g     F .text	0000012e mbedtls_mpi_write_string
00001608 g     F .text	00000054 TEE_GetNextPersistentObject
00001e28 g     F .text	00000014 utee_cryp_obj_generate_key
00000dce g     F .text	00000014 TEE_CloseTASession
00013108 g       .bss	00000000 __gprof_buf_start
00005ce0 g     F .text	00000010 free
00005c10 g     F .text	00000064 bstats
0000b0c4 g     O .bss	00000004 mbedtls_mpi_mempool



Disassembly of section .text:

00000020 <TA_CreateEntryPoint>:
TA_CreateEntryPoint():
/home/hsk/Desktop/devel/tee-tpm-hyp/optee_examples/secure_storage/ta/secure_storage_ta.c:222
      20:	2000      	movs	r0, #0
      22:	4770      	bx	lr

00000024 <TA_DestroyEntryPoint>:
TA_DestroyEntryPoint():
/home/hsk/Desktop/devel/tee-tpm-hyp/optee_examples/secure_storage/ta/secure_storage_ta.c:227
      24:	4770      	bx	lr

00000026 <TA_OpenSessionEntryPoint>:
TA_OpenSessionEntryPoint():
/home/hsk/Desktop/devel/tee-tpm-hyp/optee_examples/secure_storage/ta/secure_storage_ta.c:235
      26:	2000      	movs	r0, #0
      28:	4770      	bx	lr

0000002a <TA_CloseSessionEntryPoint>:
TA_CloseSessionEntryPoint():
/home/hsk/Desktop/devel/tee-tpm-hyp/optee_examples/secure_storage/ta/secure_storage_ta.c:240
      2a:	4770      	bx	lr

0000002c <TA_InvokeCommandEntryPoint>:
TA_InvokeCommandEntryPoint():
/home/hsk/Desktop/devel/tee-tpm-hyp/optee_examples/secure_storage/ta/secure_storage_ta.c:246
      2c:	e92d 41f0 	stmdb	sp!, {r4, r5, r6, r7, r8, lr}
/home/hsk/Desktop/devel/tee-tpm-hyp/optee_examples/secure_storage/ta/secure_storage_ta.c:247
      30:	2901      	cmp	r1, #1
/home/hsk/Desktop/devel/tee-tpm-hyp/optee_examples/secure_storage/ta/secure_storage_ta.c:246
      32:	460e      	mov	r6, r1
      34:	b08e      	sub	sp, #56	; 0x38
      36:	4614      	mov	r4, r2
      38:	461d      	mov	r5, r3
/home/hsk/Desktop/devel/tee-tpm-hyp/optee_examples/secure_storage/ta/secure_storage_ta.c:247
      3a:	d011      	beq.n	60 <TA_InvokeCommandEntryPoint+0x34>
      3c:	d35e      	bcc.n	fc <TA_InvokeCommandEntryPoint+0xd0>
      3e:	2902      	cmp	r1, #2
      40:	f000 80be 	beq.w	1c0 <TA_InvokeCommandEntryPoint+0x194>
/home/hsk/Desktop/devel/tee-tpm-hyp/optee_examples/secure_storage/ta/secure_storage_ta.c:255
      44:	4b77      	ldr	r3, [pc, #476]	; (224 <TA_InvokeCommandEntryPoint+0x1f8>)
      46:	4878      	ldr	r0, [pc, #480]	; (228 <TA_InvokeCommandEntryPoint+0x1fc>)
      48:	447b      	add	r3, pc
      4a:	9300      	str	r3, [sp, #0]
      4c:	4478      	add	r0, pc
      4e:	2301      	movs	r3, #1
      50:	9101      	str	r1, [sp, #4]
      52:	461a      	mov	r2, r3
      54:	21ff      	movs	r1, #255	; 0xff
      56:	3030      	adds	r0, #48	; 0x30
      58:	f000 f940 	bl	2dc <trace_printf>
/home/hsk/Desktop/devel/tee-tpm-hyp/optee_examples/secure_storage/ta/secure_storage_ta.c:256
      5c:	4c6d      	ldr	r4, [pc, #436]	; (214 <TA_InvokeCommandEntryPoint+0x1e8>)
      5e:	e02f      	b.n	c0 <TA_InvokeCommandEntryPoint+0x94>
create_raw_object():
/home/hsk/Desktop/devel/tee-tpm-hyp/optee_examples/secure_storage/ta/secure_storage_ta.c:95
      60:	2a55      	cmp	r2, #85	; 0x55
      62:	f040 80d3 	bne.w	20c <TA_InvokeCommandEntryPoint+0x1e0>
/home/hsk/Desktop/devel/tee-tpm-hyp/optee_examples/secure_storage/ta/secure_storage_ta.c:98
      66:	685c      	ldr	r4, [r3, #4]
/home/hsk/Desktop/devel/tee-tpm-hyp/optee_examples/secure_storage/ta/secure_storage_ta.c:99
      68:	2100      	movs	r1, #0
      6a:	4620      	mov	r0, r4
      6c:	f000 ff85 	bl	f7a <TEE_Malloc>
/home/hsk/Desktop/devel/tee-tpm-hyp/optee_examples/secure_storage/ta/secure_storage_ta.c:100
      70:	4607      	mov	r7, r0
      72:	2800      	cmp	r0, #0
      74:	f000 80cc 	beq.w	210 <TA_InvokeCommandEntryPoint+0x1e4>
/home/hsk/Desktop/devel/tee-tpm-hyp/optee_examples/secure_storage/ta/secure_storage_ta.c:103
      78:	4622      	mov	r2, r4
      7a:	6829      	ldr	r1, [r5, #0]
      7c:	f000 ff20 	bl	ec0 <TEE_MemMove>
/home/hsk/Desktop/devel/tee-tpm-hyp/optee_examples/secure_storage/ta/secure_storage_ta.c:105
      80:	f8d5 8008 	ldr.w	r8, [r5, #8]
/home/hsk/Desktop/devel/tee-tpm-hyp/optee_examples/secure_storage/ta/secure_storage_ta.c:116
      84:	ab07      	add	r3, sp, #28
/home/hsk/Desktop/devel/tee-tpm-hyp/optee_examples/secure_storage/ta/secure_storage_ta.c:106
      86:	68ed      	ldr	r5, [r5, #12]
/home/hsk/Desktop/devel/tee-tpm-hyp/optee_examples/secure_storage/ta/secure_storage_ta.c:116
      88:	4622      	mov	r2, r4
      8a:	9303      	str	r3, [sp, #12]
      8c:	4639      	mov	r1, r7
      8e:	2300      	movs	r3, #0
      90:	4630      	mov	r0, r6
      92:	9302      	str	r3, [sp, #8]
      94:	9301      	str	r3, [sp, #4]
      96:	9300      	str	r3, [sp, #0]
      98:	f240 4307 	movw	r3, #1031	; 0x407
      9c:	f001 f9e2 	bl	1464 <TEE_CreatePersistentObject>
/home/hsk/Desktop/devel/tee-tpm-hyp/optee_examples/secure_storage/ta/secure_storage_ta.c:122
      a0:	4604      	mov	r4, r0
      a2:	b188      	cbz	r0, c8 <TA_InvokeCommandEntryPoint+0x9c>
/home/hsk/Desktop/devel/tee-tpm-hyp/optee_examples/secure_storage/ta/secure_storage_ta.c:123
      a4:	9001      	str	r0, [sp, #4]
      a6:	4632      	mov	r2, r6
      a8:	4b60      	ldr	r3, [pc, #384]	; (22c <TA_InvokeCommandEntryPoint+0x200>)
      aa:	217b      	movs	r1, #123	; 0x7b
      ac:	4860      	ldr	r0, [pc, #384]	; (230 <TA_InvokeCommandEntryPoint+0x204>)
      ae:	447b      	add	r3, pc
      b0:	9300      	str	r3, [sp, #0]
      b2:	4478      	add	r0, pc
      b4:	4633      	mov	r3, r6
      b6:	f000 f911 	bl	2dc <trace_printf>
/home/hsk/Desktop/devel/tee-tpm-hyp/optee_examples/secure_storage/ta/secure_storage_ta.c:135
      ba:	4638      	mov	r0, r7
read_raw_object():
/home/hsk/Desktop/devel/tee-tpm-hyp/optee_examples/secure_storage/ta/secure_storage_ta.c:182
      bc:	f000 ff84 	bl	fc8 <TEE_Free>
TA_InvokeCommandEntryPoint():
/home/hsk/Desktop/devel/tee-tpm-hyp/optee_examples/secure_storage/ta/secure_storage_ta.c:258
      c0:	4620      	mov	r0, r4
      c2:	b00e      	add	sp, #56	; 0x38
      c4:	e8bd 81f0 	ldmia.w	sp!, {r4, r5, r6, r7, r8, pc}
create_raw_object():
/home/hsk/Desktop/devel/tee-tpm-hyp/optee_examples/secure_storage/ta/secure_storage_ta.c:128
      c8:	462a      	mov	r2, r5
      ca:	4641      	mov	r1, r8
      cc:	9807      	ldr	r0, [sp, #28]
      ce:	f001 fae5 	bl	169c <TEE_WriteObjectData>
/home/hsk/Desktop/devel/tee-tpm-hyp/optee_examples/secure_storage/ta/secure_storage_ta.c:129
      d2:	4604      	mov	r4, r0
      d4:	b170      	cbz	r0, f4 <TA_InvokeCommandEntryPoint+0xc8>
/home/hsk/Desktop/devel/tee-tpm-hyp/optee_examples/secure_storage/ta/secure_storage_ta.c:130
      d6:	9001      	str	r0, [sp, #4]
      d8:	4632      	mov	r2, r6
      da:	4b56      	ldr	r3, [pc, #344]	; (234 <TA_InvokeCommandEntryPoint+0x208>)
      dc:	2182      	movs	r1, #130	; 0x82
      de:	4856      	ldr	r0, [pc, #344]	; (238 <TA_InvokeCommandEntryPoint+0x20c>)
      e0:	447b      	add	r3, pc
      e2:	9300      	str	r3, [sp, #0]
      e4:	4478      	add	r0, pc
      e6:	4633      	mov	r3, r6
      e8:	f000 f8f8 	bl	2dc <trace_printf>
/home/hsk/Desktop/devel/tee-tpm-hyp/optee_examples/secure_storage/ta/secure_storage_ta.c:131
      ec:	9807      	ldr	r0, [sp, #28]
      ee:	f001 fa05 	bl	14fc <TEE_CloseAndDeletePersistentObject1>
      f2:	e7e2      	b.n	ba <TA_InvokeCommandEntryPoint+0x8e>
/home/hsk/Desktop/devel/tee-tpm-hyp/optee_examples/secure_storage/ta/secure_storage_ta.c:133
      f4:	9807      	ldr	r0, [sp, #28]
      f6:	f001 f855 	bl	11a4 <TEE_CloseObject>
      fa:	e7de      	b.n	ba <TA_InvokeCommandEntryPoint+0x8e>
read_raw_object():
/home/hsk/Desktop/devel/tee-tpm-hyp/optee_examples/secure_storage/ta/secure_storage_ta.c:158
      fc:	2a65      	cmp	r2, #101	; 0x65
      fe:	f040 8085 	bne.w	20c <TA_InvokeCommandEntryPoint+0x1e0>
/home/hsk/Desktop/devel/tee-tpm-hyp/optee_examples/secure_storage/ta/secure_storage_ta.c:161
     102:	685c      	ldr	r4, [r3, #4]
/home/hsk/Desktop/devel/tee-tpm-hyp/optee_examples/secure_storage/ta/secure_storage_ta.c:162
     104:	2100      	movs	r1, #0
     106:	4620      	mov	r0, r4
     108:	f000 ff37 	bl	f7a <TEE_Malloc>
/home/hsk/Desktop/devel/tee-tpm-hyp/optee_examples/secure_storage/ta/secure_storage_ta.c:163
     10c:	4606      	mov	r6, r0
     10e:	2800      	cmp	r0, #0
     110:	d07e      	beq.n	210 <TA_InvokeCommandEntryPoint+0x1e4>
/home/hsk/Desktop/devel/tee-tpm-hyp/optee_examples/secure_storage/ta/secure_storage_ta.c:166
     112:	4622      	mov	r2, r4
     114:	6829      	ldr	r1, [r5, #0]
     116:	f000 fed3 	bl	ec0 <TEE_MemMove>
/home/hsk/Desktop/devel/tee-tpm-hyp/optee_examples/secure_storage/ta/secure_storage_ta.c:168
     11a:	68af      	ldr	r7, [r5, #8]
/home/hsk/Desktop/devel/tee-tpm-hyp/optee_examples/secure_storage/ta/secure_storage_ta.c:169
     11c:	f8d5 800c 	ldr.w	r8, [r5, #12]
/home/hsk/Desktop/devel/tee-tpm-hyp/optee_examples/secure_storage/ta/secure_storage_ta.c:175
     120:	ab05      	add	r3, sp, #20
     122:	4622      	mov	r2, r4
     124:	9300      	str	r3, [sp, #0]
     126:	4631      	mov	r1, r6
     128:	2311      	movs	r3, #17
     12a:	2001      	movs	r0, #1
     12c:	f001 f968 	bl	1400 <TEE_OpenPersistentObject>
/home/hsk/Desktop/devel/tee-tpm-hyp/optee_examples/secure_storage/ta/secure_storage_ta.c:180
     130:	4604      	mov	r4, r0
     132:	b168      	cbz	r0, 150 <TA_InvokeCommandEntryPoint+0x124>
/home/hsk/Desktop/devel/tee-tpm-hyp/optee_examples/secure_storage/ta/secure_storage_ta.c:181
     134:	9001      	str	r0, [sp, #4]
     136:	21b5      	movs	r1, #181	; 0xb5
     138:	4b40      	ldr	r3, [pc, #256]	; (23c <TA_InvokeCommandEntryPoint+0x210>)
     13a:	4841      	ldr	r0, [pc, #260]	; (240 <TA_InvokeCommandEntryPoint+0x214>)
     13c:	447b      	add	r3, pc
     13e:	9300      	str	r3, [sp, #0]
     140:	4478      	add	r0, pc
     142:	2301      	movs	r3, #1
     144:	461a      	mov	r2, r3
     146:	3012      	adds	r0, #18
     148:	f000 f8c8 	bl	2dc <trace_printf>
/home/hsk/Desktop/devel/tee-tpm-hyp/optee_examples/secure_storage/ta/secure_storage_ta.c:182
     14c:	4630      	mov	r0, r6
     14e:	e7b5      	b.n	bc <TA_InvokeCommandEntryPoint+0x90>
/home/hsk/Desktop/devel/tee-tpm-hyp/optee_examples/secure_storage/ta/secure_storage_ta.c:186
     150:	a907      	add	r1, sp, #28
     152:	9805      	ldr	r0, [sp, #20]
     154:	f000 ff76 	bl	1044 <TEE_GetObjectInfo1>
/home/hsk/Desktop/devel/tee-tpm-hyp/optee_examples/secure_storage/ta/secure_storage_ta.c:187
     158:	4604      	mov	r4, r0
     15a:	b178      	cbz	r0, 17c <TA_InvokeCommandEntryPoint+0x150>
/home/hsk/Desktop/devel/tee-tpm-hyp/optee_examples/secure_storage/ta/secure_storage_ta.c:188
     15c:	9001      	str	r0, [sp, #4]
     15e:	21bc      	movs	r1, #188	; 0xbc
     160:	4b38      	ldr	r3, [pc, #224]	; (244 <TA_InvokeCommandEntryPoint+0x218>)
     162:	4839      	ldr	r0, [pc, #228]	; (248 <TA_InvokeCommandEntryPoint+0x21c>)
     164:	447b      	add	r3, pc
     166:	9300      	str	r3, [sp, #0]
     168:	4478      	add	r0, pc
     16a:	2301      	movs	r3, #1
     16c:	461a      	mov	r2, r3
     16e:	3012      	adds	r0, #18
     170:	f000 f8b4 	bl	2dc <trace_printf>
/home/hsk/Desktop/devel/tee-tpm-hyp/optee_examples/secure_storage/ta/secure_storage_ta.c:213
     174:	9805      	ldr	r0, [sp, #20]
     176:	f001 f815 	bl	11a4 <TEE_CloseObject>
     17a:	e7e7      	b.n	14c <TA_InvokeCommandEntryPoint+0x120>
/home/hsk/Desktop/devel/tee-tpm-hyp/optee_examples/secure_storage/ta/secure_storage_ta.c:192
     17c:	9a0b      	ldr	r2, [sp, #44]	; 0x2c
     17e:	4590      	cmp	r8, r2
     180:	d202      	bcs.n	188 <TA_InvokeCommandEntryPoint+0x15c>
/home/hsk/Desktop/devel/tee-tpm-hyp/optee_examples/secure_storage/ta/secure_storage_ta.c:197
     182:	60ea      	str	r2, [r5, #12]
/home/hsk/Desktop/devel/tee-tpm-hyp/optee_examples/secure_storage/ta/secure_storage_ta.c:198
     184:	4c24      	ldr	r4, [pc, #144]	; (218 <TA_InvokeCommandEntryPoint+0x1ec>)
     186:	e7f5      	b.n	174 <TA_InvokeCommandEntryPoint+0x148>
/home/hsk/Desktop/devel/tee-tpm-hyp/optee_examples/secure_storage/ta/secure_storage_ta.c:202
     188:	ab06      	add	r3, sp, #24
     18a:	4639      	mov	r1, r7
     18c:	9805      	ldr	r0, [sp, #20]
     18e:	f001 fa65 	bl	165c <TEE_ReadObjectData>
     192:	9b0b      	ldr	r3, [sp, #44]	; 0x2c
/home/hsk/Desktop/devel/tee-tpm-hyp/optee_examples/secure_storage/ta/secure_storage_ta.c:204
     194:	4604      	mov	r4, r0
     196:	9a06      	ldr	r2, [sp, #24]
     198:	b908      	cbnz	r0, 19e <TA_InvokeCommandEntryPoint+0x172>
     19a:	4293      	cmp	r3, r2
     19c:	d00e      	beq.n	1bc <TA_InvokeCommandEntryPoint+0x190>
/home/hsk/Desktop/devel/tee-tpm-hyp/optee_examples/secure_storage/ta/secure_storage_ta.c:205
     19e:	9303      	str	r3, [sp, #12]
     1a0:	21ce      	movs	r1, #206	; 0xce
     1a2:	4b2a      	ldr	r3, [pc, #168]	; (24c <TA_InvokeCommandEntryPoint+0x220>)
     1a4:	482a      	ldr	r0, [pc, #168]	; (250 <TA_InvokeCommandEntryPoint+0x224>)
     1a6:	447b      	add	r3, pc
     1a8:	9300      	str	r3, [sp, #0]
     1aa:	4478      	add	r0, pc
     1ac:	2301      	movs	r3, #1
     1ae:	9202      	str	r2, [sp, #8]
     1b0:	3012      	adds	r0, #18
     1b2:	9401      	str	r4, [sp, #4]
     1b4:	461a      	mov	r2, r3
     1b6:	f000 f891 	bl	2dc <trace_printf>
     1ba:	e7db      	b.n	174 <TA_InvokeCommandEntryPoint+0x148>
/home/hsk/Desktop/devel/tee-tpm-hyp/optee_examples/secure_storage/ta/secure_storage_ta.c:211
     1bc:	60eb      	str	r3, [r5, #12]
     1be:	e7d9      	b.n	174 <TA_InvokeCommandEntryPoint+0x148>
delete_object():
/home/hsk/Desktop/devel/tee-tpm-hyp/optee_examples/secure_storage/ta/secure_storage_ta.c:47
     1c0:	2a05      	cmp	r2, #5
     1c2:	d123      	bne.n	20c <TA_InvokeCommandEntryPoint+0x1e0>
/home/hsk/Desktop/devel/tee-tpm-hyp/optee_examples/secure_storage/ta/secure_storage_ta.c:50
     1c4:	685f      	ldr	r7, [r3, #4]
/home/hsk/Desktop/devel/tee-tpm-hyp/optee_examples/secure_storage/ta/secure_storage_ta.c:51
     1c6:	2100      	movs	r1, #0
     1c8:	4638      	mov	r0, r7
     1ca:	f000 fed6 	bl	f7a <TEE_Malloc>
/home/hsk/Desktop/devel/tee-tpm-hyp/optee_examples/secure_storage/ta/secure_storage_ta.c:52
     1ce:	4606      	mov	r6, r0
     1d0:	b1f0      	cbz	r0, 210 <TA_InvokeCommandEntryPoint+0x1e4>
/home/hsk/Desktop/devel/tee-tpm-hyp/optee_examples/secure_storage/ta/secure_storage_ta.c:55
     1d2:	463a      	mov	r2, r7
     1d4:	6829      	ldr	r1, [r5, #0]
     1d6:	f000 fe73 	bl	ec0 <TEE_MemMove>
/home/hsk/Desktop/devel/tee-tpm-hyp/optee_examples/secure_storage/ta/secure_storage_ta.c:60
     1da:	ab07      	add	r3, sp, #28
     1dc:	463a      	mov	r2, r7
     1de:	9300      	str	r3, [sp, #0]
     1e0:	4631      	mov	r1, r6
     1e2:	4623      	mov	r3, r4
     1e4:	2001      	movs	r0, #1
     1e6:	f001 f90b 	bl	1400 <TEE_OpenPersistentObject>
/home/hsk/Desktop/devel/tee-tpm-hyp/optee_examples/secure_storage/ta/secure_storage_ta.c:65
     1ea:	4604      	mov	r4, r0
     1ec:	b150      	cbz	r0, 204 <TA_InvokeCommandEntryPoint+0x1d8>
/home/hsk/Desktop/devel/tee-tpm-hyp/optee_examples/secure_storage/ta/secure_storage_ta.c:66
     1ee:	9001      	str	r0, [sp, #4]
     1f0:	2142      	movs	r1, #66	; 0x42
     1f2:	4b18      	ldr	r3, [pc, #96]	; (254 <TA_InvokeCommandEntryPoint+0x228>)
     1f4:	4818      	ldr	r0, [pc, #96]	; (258 <TA_InvokeCommandEntryPoint+0x22c>)
     1f6:	447b      	add	r3, pc
     1f8:	9300      	str	r3, [sp, #0]
     1fa:	4478      	add	r0, pc
     1fc:	2301      	movs	r3, #1
     1fe:	461a      	mov	r2, r3
     200:	3022      	adds	r0, #34	; 0x22
     202:	e7a1      	b.n	148 <TA_InvokeCommandEntryPoint+0x11c>
/home/hsk/Desktop/devel/tee-tpm-hyp/optee_examples/secure_storage/ta/secure_storage_ta.c:71
     204:	9807      	ldr	r0, [sp, #28]
     206:	f001 f979 	bl	14fc <TEE_CloseAndDeletePersistentObject1>
     20a:	e79f      	b.n	14c <TA_InvokeCommandEntryPoint+0x120>
/home/hsk/Desktop/devel/tee-tpm-hyp/optee_examples/secure_storage/ta/secure_storage_ta.c:48
     20c:	4c03      	ldr	r4, [pc, #12]	; (21c <TA_InvokeCommandEntryPoint+0x1f0>)
     20e:	e757      	b.n	c0 <TA_InvokeCommandEntryPoint+0x94>
/home/hsk/Desktop/devel/tee-tpm-hyp/optee_examples/secure_storage/ta/secure_storage_ta.c:53
     210:	4c03      	ldr	r4, [pc, #12]	; (220 <TA_InvokeCommandEntryPoint+0x1f4>)
TA_InvokeCommandEntryPoint():
/home/hsk/Desktop/devel/tee-tpm-hyp/optee_examples/secure_storage/ta/secure_storage_ta.c:253
     212:	e755      	b.n	c0 <TA_InvokeCommandEntryPoint+0x94>
     214:	ffff000a 	.word	0xffff000a
     218:	ffff0010 	.word	0xffff0010
     21c:	ffff0006 	.word	0xffff0006
     220:	ffff000c 	.word	0xffff000c
     224:	000069d0 	.word	0x000069d0
     228:	000068a8 	.word	0x000068a8
     22c:	00006891 	.word	0x00006891
     230:	00006842 	.word	0x00006842
     234:	00006888 	.word	0x00006888
     238:	00006810 	.word	0x00006810
     23c:	0000684e 	.word	0x0000684e
     240:	000067b4 	.word	0x000067b4
     244:	00006853 	.word	0x00006853
     248:	0000678c 	.word	0x0000678c
     24c:	00006840 	.word	0x00006840
     250:	0000674a 	.word	0x0000674a
     254:	00006794 	.word	0x00006794
     258:	000066fa 	.word	0x000066fa

0000025c <append>:
append():
/home/hsk/Desktop/devel/tee-tpm-hyp/optee_os/lib/libutils/ext/trace.c:198
     25c:	b40e      	push	{r1, r2, r3}
/home/hsk/Desktop/devel/tee-tpm-hyp/optee_os/lib/libutils/ext/trace.c:203
     25e:	f8d0 3100 	ldr.w	r3, [r0, #256]	; 0x100
/home/hsk/Desktop/devel/tee-tpm-hyp/optee_os/lib/libutils/ext/trace.c:198
     262:	b533      	push	{r0, r1, r4, r5, lr}
     264:	4604      	mov	r4, r0
/home/hsk/Desktop/devel/tee-tpm-hyp/optee_os/lib/libutils/ext/trace.c:203
     266:	b90b      	cbnz	r3, 26c <append+0x10>
/home/hsk/Desktop/devel/tee-tpm-hyp/optee_os/lib/libutils/ext/trace.c:204
     268:	f8c4 0100 	str.w	r0, [r4, #256]	; 0x100
/home/hsk/Desktop/devel/tee-tpm-hyp/optee_os/lib/libutils/ext/trace.c:205
     26c:	f8d4 0100 	ldr.w	r0, [r4, #256]	; 0x100
/home/hsk/Desktop/devel/tee-tpm-hyp/optee_os/lib/libutils/ext/trace.c:206
     270:	ab06      	add	r3, sp, #24
/home/hsk/Desktop/devel/tee-tpm-hyp/optee_os/lib/libutils/ext/trace.c:207
     272:	9a05      	ldr	r2, [sp, #20]
/home/hsk/Desktop/devel/tee-tpm-hyp/optee_os/lib/libutils/ext/trace.c:205
     274:	1b05      	subs	r5, r0, r4
/home/hsk/Desktop/devel/tee-tpm-hyp/optee_os/lib/libutils/ext/trace.c:206
     276:	9301      	str	r3, [sp, #4]
/home/hsk/Desktop/devel/tee-tpm-hyp/optee_os/lib/libutils/ext/trace.c:205
     278:	f5c5 7580 	rsb	r5, r5, #256	; 0x100
/home/hsk/Desktop/devel/tee-tpm-hyp/optee_os/lib/libutils/ext/trace.c:207
     27c:	4629      	mov	r1, r5
     27e:	f000 fcc5 	bl	c0c <vsnprintk>
/home/hsk/Desktop/devel/tee-tpm-hyp/optee_os/lib/libutils/ext/trace.c:209
     282:	2800      	cmp	r0, #0
     284:	db0f      	blt.n	2a6 <append+0x4a>
/home/hsk/Desktop/devel/tee-tpm-hyp/optee_os/lib/libutils/ext/trace.c:213
     286:	4285      	cmp	r5, r0
     288:	dd0d      	ble.n	2a6 <append+0x4a>
/home/hsk/Desktop/devel/tee-tpm-hyp/optee_os/lib/libutils/ext/trace.c:217
     28a:	4285      	cmp	r5, r0
     28c:	bfa8      	it	ge
     28e:	4605      	movge	r5, r0
     290:	f8d4 0100 	ldr.w	r0, [r4, #256]	; 0x100
     294:	4405      	add	r5, r0
/home/hsk/Desktop/devel/tee-tpm-hyp/optee_os/lib/libutils/ext/trace.c:218
     296:	2001      	movs	r0, #1
/home/hsk/Desktop/devel/tee-tpm-hyp/optee_os/lib/libutils/ext/trace.c:217
     298:	f8c4 5100 	str.w	r5, [r4, #256]	; 0x100
/home/hsk/Desktop/devel/tee-tpm-hyp/optee_os/lib/libutils/ext/trace.c:219
     29c:	b002      	add	sp, #8
     29e:	e8bd 4030 	ldmia.w	sp!, {r4, r5, lr}
     2a2:	b003      	add	sp, #12
     2a4:	4770      	bx	lr
/home/hsk/Desktop/devel/tee-tpm-hyp/optee_os/lib/libutils/ext/trace.c:211
     2a6:	2000      	movs	r0, #0
     2a8:	e7f8      	b.n	29c <append+0x40>

000002aa <trace_set_level>:
trace_set_level():
/home/hsk/Desktop/devel/tee-tpm-hyp/optee_os/lib/libutils/ext/trace.c:25
     2aa:	4b05      	ldr	r3, [pc, #20]	; (2c0 <trace_set_level+0x16>)
/home/hsk/Desktop/devel/tee-tpm-hyp/optee_os/lib/libutils/ext/trace.c:26
     2ac:	2804      	cmp	r0, #4
     2ae:	4a05      	ldr	r2, [pc, #20]	; (2c4 <trace_set_level+0x1a>)
/home/hsk/Desktop/devel/tee-tpm-hyp/optee_os/lib/libutils/ext/trace.c:25
     2b0:	447b      	add	r3, pc
     2b2:	589b      	ldr	r3, [r3, r2]
/home/hsk/Desktop/devel/tee-tpm-hyp/optee_os/lib/libutils/ext/trace.c:26
     2b4:	d801      	bhi.n	2ba <trace_set_level+0x10>
/home/hsk/Desktop/devel/tee-tpm-hyp/optee_os/lib/libutils/ext/trace.c:27
     2b6:	6018      	str	r0, [r3, #0]
     2b8:	4770      	bx	lr
/home/hsk/Desktop/devel/tee-tpm-hyp/optee_os/lib/libutils/ext/trace.c:29
     2ba:	2204      	movs	r2, #4
     2bc:	601a      	str	r2, [r3, #0]
/home/hsk/Desktop/devel/tee-tpm-hyp/optee_os/lib/libutils/ext/trace.c:30
     2be:	4770      	bx	lr
     2c0:	00007b9c 	.word	0x00007b9c
     2c4:	00000010 	.word	0x00000010

000002c8 <trace_get_level>:
trace_get_level():
/home/hsk/Desktop/devel/tee-tpm-hyp/optee_os/lib/libutils/ext/trace.c:33
     2c8:	4b02      	ldr	r3, [pc, #8]	; (2d4 <trace_get_level+0xc>)
/home/hsk/Desktop/devel/tee-tpm-hyp/optee_os/lib/libutils/ext/trace.c:34
     2ca:	4a03      	ldr	r2, [pc, #12]	; (2d8 <trace_get_level+0x10>)
/home/hsk/Desktop/devel/tee-tpm-hyp/optee_os/lib/libutils/ext/trace.c:33
     2cc:	447b      	add	r3, pc
/home/hsk/Desktop/devel/tee-tpm-hyp/optee_os/lib/libutils/ext/trace.c:34
     2ce:	589b      	ldr	r3, [r3, r2]
/home/hsk/Desktop/devel/tee-tpm-hyp/optee_os/lib/libutils/ext/trace.c:35
     2d0:	6818      	ldr	r0, [r3, #0]
     2d2:	4770      	bx	lr
     2d4:	00007b80 	.word	0x00007b80
     2d8:	00000010 	.word	0x00000010

000002dc <trace_printf>:
trace_printf():
/home/hsk/Desktop/devel/tee-tpm-hyp/optee_os/lib/libutils/ext/trace.c:97
     2dc:	e92d 47f0 	stmdb	sp!, {r4, r5, r6, r7, r8, r9, sl, lr}
     2e0:	4607      	mov	r7, r0
     2e2:	f8df 910c 	ldr.w	r9, [pc, #268]	; 3f0 <trace_printf+0x114>
     2e6:	b0c6      	sub	sp, #280	; 0x118
     2e8:	4688      	mov	r8, r1
     2ea:	44f9      	add	r9, pc
     2ec:	4614      	mov	r4, r2
/home/hsk/Desktop/devel/tee-tpm-hyp/optee_os/lib/libutils/ext/trace.c:103
     2ee:	469a      	mov	sl, r3
     2f0:	2b00      	cmp	r3, #0
     2f2:	d06a      	beq.n	3ca <trace_printf+0xee>
/home/hsk/Desktop/devel/tee-tpm-hyp/optee_os/lib/libutils/ext/trace.c:103 (discriminator 1)
     2f4:	4b3f      	ldr	r3, [pc, #252]	; (3f4 <trace_printf+0x118>)
     2f6:	f859 3003 	ldr.w	r3, [r9, r3]
     2fa:	681b      	ldr	r3, [r3, #0]
     2fc:	4293      	cmp	r3, r2
     2fe:	db61      	blt.n	3c4 <trace_printf+0xe8>
trace_level_to_string():
/home/hsk/Desktop/devel/tee-tpm-hyp/optee_os/lib/libutils/ext/trace.c:47
     300:	4613      	mov	r3, r2
     302:	2a05      	cmp	r2, #5
/home/hsk/Desktop/devel/tee-tpm-hyp/optee_os/lib/libutils/ext/trace.c:55
     304:	4a3c      	ldr	r2, [pc, #240]	; (3f8 <trace_printf+0x11c>)
/home/hsk/Desktop/devel/tee-tpm-hyp/optee_os/lib/libutils/ext/trace.c:47
     306:	bf28      	it	cs
     308:	2300      	movcs	r3, #0
/home/hsk/Desktop/devel/tee-tpm-hyp/optee_os/lib/libutils/ext/trace.c:55
     30a:	447a      	add	r2, pc
     30c:	5cd3      	ldrb	r3, [r2, r3]
trace_printf():
/home/hsk/Desktop/devel/tee-tpm-hyp/optee_os/lib/libutils/ext/trace.c:107
     30e:	4a3b      	ldr	r2, [pc, #236]	; (3fc <trace_printf+0x120>)
     310:	ad06      	add	r5, sp, #24
     312:	f44f 7180 	mov.w	r1, #256	; 0x100
     316:	4628      	mov	r0, r5
     318:	447a      	add	r2, pc
     31a:	f000 fc7e 	bl	c1a <snprintk>
/home/hsk/Desktop/devel/tee-tpm-hyp/optee_os/lib/libutils/ext/trace.c:109
     31e:	1e06      	subs	r6, r0, #0
     320:	db50      	blt.n	3c4 <trace_printf+0xe8>
/home/hsk/Desktop/devel/tee-tpm-hyp/optee_os/lib/libutils/ext/trace.c:114
     322:	4b37      	ldr	r3, [pc, #220]	; (400 <trace_printf+0x124>)
     324:	f5c6 7180 	rsb	r1, r6, #256	; 0x100
     328:	4a36      	ldr	r2, [pc, #216]	; (404 <trace_printf+0x128>)
     32a:	19a8      	adds	r0, r5, r6
     32c:	447a      	add	r2, pc
     32e:	f859 3003 	ldr.w	r3, [r9, r3]
     332:	9303      	str	r3, [sp, #12]
     334:	f000 fc71 	bl	c1a <snprintk>
/home/hsk/Desktop/devel/tee-tpm-hyp/optee_os/lib/libutils/ext/trace.c:116
     338:	2800      	cmp	r0, #0
     33a:	db43      	blt.n	3c4 <trace_printf+0xe8>
/home/hsk/Desktop/devel/tee-tpm-hyp/optee_os/lib/libutils/ext/trace.c:118
     33c:	4406      	add	r6, r0
/home/hsk/Desktop/devel/tee-tpm-hyp/optee_os/lib/libutils/ext/trace.c:120
     33e:	f1ba 0f00 	cmp.w	sl, #0
     342:	d04b      	beq.n	3dc <trace_printf+0x100>
/home/hsk/Desktop/devel/tee-tpm-hyp/optee_os/lib/libutils/ext/trace.c:120 (discriminator 1)
     344:	231a      	movs	r3, #26
     346:	fa23 f404 	lsr.w	r4, r3, r4
     34a:	07e3      	lsls	r3, r4, #31
     34c:	d546      	bpl.n	3dc <trace_printf+0x100>
print_thread_id():
/home/hsk/Desktop/devel/tee-tpm-hyp/optee_os/lib/libutils/ext/trace.c:65
     34e:	f000 fc93 	bl	c78 <trace_ext_get_thread_id>
trace_printf():
/home/hsk/Desktop/devel/tee-tpm-hyp/optee_os/lib/libutils/ext/trace.c:122
     352:	19ac      	adds	r4, r5, r6
     354:	f5c6 7980 	rsb	r9, r6, #256	; 0x100
print_thread_id():
/home/hsk/Desktop/devel/tee-tpm-hyp/optee_os/lib/libutils/ext/trace.c:67
     358:	2800      	cmp	r0, #0
     35a:	db38      	blt.n	3ce <trace_printf+0xf2>
/home/hsk/Desktop/devel/tee-tpm-hyp/optee_os/lib/libutils/ext/trace.c:68
     35c:	4a2a      	ldr	r2, [pc, #168]	; (408 <trace_printf+0x12c>)
     35e:	2301      	movs	r3, #1
     360:	9000      	str	r0, [sp, #0]
     362:	447a      	add	r2, pc
/home/hsk/Desktop/devel/tee-tpm-hyp/optee_os/lib/libutils/ext/trace.c:70
     364:	4649      	mov	r1, r9
     366:	4620      	mov	r0, r4
     368:	f000 fc57 	bl	c1a <snprintk>
trace_printf():
/home/hsk/Desktop/devel/tee-tpm-hyp/optee_os/lib/libutils/ext/trace.c:129
     36c:	2800      	cmp	r0, #0
     36e:	db29      	blt.n	3c4 <trace_printf+0xe8>
/home/hsk/Desktop/devel/tee-tpm-hyp/optee_os/lib/libutils/ext/trace.c:131
     370:	1984      	adds	r4, r0, r6
/home/hsk/Desktop/devel/tee-tpm-hyp/optee_os/lib/libutils/ext/trace.c:133
     372:	b167      	cbz	r7, 38e <trace_printf+0xb2>
/home/hsk/Desktop/devel/tee-tpm-hyp/optee_os/lib/libutils/ext/trace.c:134
     374:	4a25      	ldr	r2, [pc, #148]	; (40c <trace_printf+0x130>)
     376:	463b      	mov	r3, r7
     378:	f8cd 8000 	str.w	r8, [sp]
     37c:	f5c4 7180 	rsb	r1, r4, #256	; 0x100
     380:	447a      	add	r2, pc
     382:	1928      	adds	r0, r5, r4
     384:	f000 fc49 	bl	c1a <snprintk>
/home/hsk/Desktop/devel/tee-tpm-hyp/optee_os/lib/libutils/ext/trace.c:136
     388:	2800      	cmp	r0, #0
     38a:	db1b      	blt.n	3c4 <trace_printf+0xe8>
/home/hsk/Desktop/devel/tee-tpm-hyp/optee_os/lib/libutils/ext/trace.c:138
     38c:	4404      	add	r4, r0
/home/hsk/Desktop/devel/tee-tpm-hyp/optee_os/lib/libutils/ext/trace.c:148
     38e:	ab4f      	add	r3, sp, #316	; 0x13c
/home/hsk/Desktop/devel/tee-tpm-hyp/optee_os/lib/libutils/ext/trace.c:149
     390:	f5c4 7180 	rsb	r1, r4, #256	; 0x100
     394:	1928      	adds	r0, r5, r4
     396:	9a4e      	ldr	r2, [sp, #312]	; 0x138
/home/hsk/Desktop/devel/tee-tpm-hyp/optee_os/lib/libutils/ext/trace.c:148
     398:	9305      	str	r3, [sp, #20]
/home/hsk/Desktop/devel/tee-tpm-hyp/optee_os/lib/libutils/ext/trace.c:149
     39a:	f000 fc37 	bl	c0c <vsnprintk>
/home/hsk/Desktop/devel/tee-tpm-hyp/optee_os/lib/libutils/ext/trace.c:151
     39e:	2800      	cmp	r0, #0
/home/hsk/Desktop/devel/tee-tpm-hyp/optee_os/lib/libutils/ext/trace.c:157
     3a0:	f04f 030a 	mov.w	r3, #10
/home/hsk/Desktop/devel/tee-tpm-hyp/optee_os/lib/libutils/ext/trace.c:152
     3a4:	bfc8      	it	gt
     3a6:	1824      	addgt	r4, r4, r0
     3a8:	2cfe      	cmp	r4, #254	; 0xfe
     3aa:	bf28      	it	cs
     3ac:	24fe      	movcs	r4, #254	; 0xfe
/home/hsk/Desktop/devel/tee-tpm-hyp/optee_os/lib/libutils/ext/trace.c:157
     3ae:	552b      	strb	r3, [r5, r4]
/home/hsk/Desktop/devel/tee-tpm-hyp/optee_os/lib/libutils/ext/trace.c:158
     3b0:	b114      	cbz	r4, 3b8 <trace_printf+0xdc>
/home/hsk/Desktop/devel/tee-tpm-hyp/optee_os/lib/libutils/ext/trace.c:158 (discriminator 1)
     3b2:	5d2b      	ldrb	r3, [r5, r4]
     3b4:	2b0a      	cmp	r3, #10
     3b6:	d019      	beq.n	3ec <trace_printf+0x110>
/home/hsk/Desktop/devel/tee-tpm-hyp/optee_os/lib/libutils/ext/trace.c:161
     3b8:	442c      	add	r4, r5
/home/hsk/Desktop/devel/tee-tpm-hyp/optee_os/lib/libutils/ext/trace.c:163
     3ba:	4628      	mov	r0, r5
/home/hsk/Desktop/devel/tee-tpm-hyp/optee_os/lib/libutils/ext/trace.c:161
     3bc:	2300      	movs	r3, #0
     3be:	70a3      	strb	r3, [r4, #2]
/home/hsk/Desktop/devel/tee-tpm-hyp/optee_os/lib/libutils/ext/trace.c:163
     3c0:	f000 fc50 	bl	c64 <trace_ext_puts>
/home/hsk/Desktop/devel/tee-tpm-hyp/optee_os/lib/libutils/ext/trace.c:164
     3c4:	b046      	add	sp, #280	; 0x118
     3c6:	e8bd 87f0 	ldmia.w	sp!, {r4, r5, r6, r7, r8, r9, sl, pc}
trace_level_to_string():
/home/hsk/Desktop/devel/tee-tpm-hyp/optee_os/lib/libutils/ext/trace.c:50
     3ca:	234d      	movs	r3, #77	; 0x4d
     3cc:	e79f      	b.n	30e <trace_printf+0x32>
print_thread_id():
/home/hsk/Desktop/devel/tee-tpm-hyp/optee_os/lib/libutils/ext/trace.c:70
     3ce:	4b10      	ldr	r3, [pc, #64]	; (410 <trace_printf+0x134>)
     3d0:	4a10      	ldr	r2, [pc, #64]	; (414 <trace_printf+0x138>)
     3d2:	447b      	add	r3, pc
     3d4:	9300      	str	r3, [sp, #0]
     3d6:	447a      	add	r2, pc
     3d8:	2301      	movs	r3, #1
     3da:	e7c3      	b.n	364 <trace_printf+0x88>
trace_printf():
/home/hsk/Desktop/devel/tee-tpm-hyp/optee_os/lib/libutils/ext/trace.c:142
     3dc:	2efe      	cmp	r6, #254	; 0xfe
     3de:	d8f1      	bhi.n	3c4 <trace_printf+0xe8>
/home/hsk/Desktop/devel/tee-tpm-hyp/optee_os/lib/libutils/ext/trace.c:144
     3e0:	1c74      	adds	r4, r6, #1
     3e2:	2320      	movs	r3, #32
     3e4:	55ab      	strb	r3, [r5, r6]
/home/hsk/Desktop/devel/tee-tpm-hyp/optee_os/lib/libutils/ext/trace.c:145
     3e6:	2300      	movs	r3, #0
     3e8:	552b      	strb	r3, [r5, r4]
     3ea:	e7d0      	b.n	38e <trace_printf+0xb2>
/home/hsk/Desktop/devel/tee-tpm-hyp/optee_os/lib/libutils/ext/trace.c:159
     3ec:	3c01      	subs	r4, #1
     3ee:	e7df      	b.n	3b0 <trace_printf+0xd4>
     3f0:	00007b62 	.word	0x00007b62
     3f4:	00000010 	.word	0x00000010
     3f8:	00006838 	.word	0x00006838
     3fc:	00006839 	.word	0x00006839
     400:	00000014 	.word	0x00000014
     404:	00006829 	.word	0x00006829
     408:	000067f7 	.word	0x000067f7
     40c:	000067e4 	.word	0x000067e4
     410:	00006ea5 	.word	0x00006ea5
     414:	00006789 	.word	0x00006789

00000418 <dhex_dump>:
dhex_dump():
/home/hsk/Desktop/devel/tee-tpm-hyp/optee_os/lib/libutils/ext/trace.c:225
     418:	e92d 4ff0 	stmdb	sp!, {r4, r5, r6, r7, r8, r9, sl, fp, lr}
     41c:	4617      	mov	r7, r2
     41e:	4a33      	ldr	r2, [pc, #204]	; (4ec <dhex_dump+0xd4>)
     420:	4689      	mov	r9, r1
/home/hsk/Desktop/devel/tee-tpm-hyp/optee_os/lib/libutils/ext/trace.c:231
     422:	4933      	ldr	r1, [pc, #204]	; (4f0 <dhex_dump+0xd8>)
/home/hsk/Desktop/devel/tee-tpm-hyp/optee_os/lib/libutils/ext/trace.c:225
     424:	447a      	add	r2, pc
     426:	b0c7      	sub	sp, #284	; 0x11c
     428:	4680      	mov	r8, r0
/home/hsk/Desktop/devel/tee-tpm-hyp/optee_os/lib/libutils/ext/trace.c:231
     42a:	5852      	ldr	r2, [r2, r1]
     42c:	6812      	ldr	r2, [r2, #0]
     42e:	42ba      	cmp	r2, r7
     430:	db1d      	blt.n	46e <dhex_dump+0x56>
     432:	461e      	mov	r6, r3
/home/hsk/Desktop/devel/tee-tpm-hyp/optee_os/lib/libutils/ext/trace.c:240
     434:	4b2f      	ldr	r3, [pc, #188]	; (4f4 <dhex_dump+0xdc>)
/home/hsk/Desktop/devel/tee-tpm-hyp/optee_os/lib/libutils/ext/trace.c:232
     436:	ac05      	add	r4, sp, #20
/home/hsk/Desktop/devel/tee-tpm-hyp/optee_os/lib/libutils/ext/trace.c:235
     438:	f8df b0bc 	ldr.w	fp, [pc, #188]	; 4f8 <dhex_dump+0xe0>
/home/hsk/Desktop/devel/tee-tpm-hyp/optee_os/lib/libutils/ext/trace.c:240
     43c:	447b      	add	r3, pc
     43e:	9302      	str	r3, [sp, #8]
/home/hsk/Desktop/devel/tee-tpm-hyp/optee_os/lib/libutils/ext/trace.c:248
     440:	4b2e      	ldr	r3, [pc, #184]	; (4fc <dhex_dump+0xe4>)
/home/hsk/Desktop/devel/tee-tpm-hyp/optee_os/lib/libutils/ext/trace.c:235
     442:	44fb      	add	fp, pc
/home/hsk/Desktop/devel/tee-tpm-hyp/optee_os/lib/libutils/ext/trace.c:232
     444:	2500      	movs	r5, #0
     446:	f8c4 5100 	str.w	r5, [r4, #256]	; 0x100
/home/hsk/Desktop/devel/tee-tpm-hyp/optee_os/lib/libutils/ext/trace.c:248
     44a:	447b      	add	r3, pc
     44c:	9303      	str	r3, [sp, #12]
/home/hsk/Desktop/devel/tee-tpm-hyp/optee_os/lib/libutils/ext/trace.c:233 (discriminator 1)
     44e:	9b50      	ldr	r3, [sp, #320]	; 0x140
     450:	429d      	cmp	r5, r3
     452:	db0f      	blt.n	474 <dhex_dump+0x5c>
/home/hsk/Desktop/devel/tee-tpm-hyp/optee_os/lib/libutils/ext/trace.c:253
     454:	f8d4 3100 	ldr.w	r3, [r4, #256]	; 0x100
     458:	b14b      	cbz	r3, 46e <dhex_dump+0x56>
/home/hsk/Desktop/devel/tee-tpm-hyp/optee_os/lib/libutils/ext/trace.c:255
     45a:	4b29      	ldr	r3, [pc, #164]	; (500 <dhex_dump+0xe8>)
     45c:	463a      	mov	r2, r7
     45e:	9401      	str	r4, [sp, #4]
     460:	4649      	mov	r1, r9
     462:	447b      	add	r3, pc
     464:	4640      	mov	r0, r8
     466:	9300      	str	r3, [sp, #0]
     468:	2301      	movs	r3, #1
     46a:	f7ff ff37 	bl	2dc <trace_printf>
/home/hsk/Desktop/devel/tee-tpm-hyp/optee_os/lib/libutils/ext/trace.c:263
     46e:	b047      	add	sp, #284	; 0x11c
     470:	e8bd 8ff0 	ldmia.w	sp!, {r4, r5, r6, r7, r8, r9, sl, fp, pc}
/home/hsk/Desktop/devel/tee-tpm-hyp/optee_os/lib/libutils/ext/trace.c:234
     474:	f015 0a0f 	ands.w	sl, r5, #15
     478:	d013      	beq.n	4a2 <dhex_dump+0x8a>
/home/hsk/Desktop/devel/tee-tpm-hyp/optee_os/lib/libutils/ext/trace.c:240
     47a:	f816 2b01 	ldrb.w	r2, [r6], #1
     47e:	4620      	mov	r0, r4
     480:	9902      	ldr	r1, [sp, #8]
     482:	f7ff feeb 	bl	25c <append>
/home/hsk/Desktop/devel/tee-tpm-hyp/optee_os/lib/libutils/ext/trace.c:241
     486:	b9a8      	cbnz	r0, 4b4 <dhex_dump+0x9c>
/home/hsk/Desktop/devel/tee-tpm-hyp/optee_os/lib/libutils/ext/trace.c:262
     488:	481e      	ldr	r0, [pc, #120]	; (504 <dhex_dump+0xec>)
     48a:	2203      	movs	r2, #3
     48c:	4b1e      	ldr	r3, [pc, #120]	; (508 <dhex_dump+0xf0>)
     48e:	f44f 7183 	mov.w	r1, #262	; 0x106
     492:	4478      	add	r0, pc
     494:	447b      	add	r3, pc
     496:	3005      	adds	r0, #5
     498:	9300      	str	r3, [sp, #0]
     49a:	2301      	movs	r3, #1
     49c:	f7ff ff1e 	bl	2dc <trace_printf>
     4a0:	e7e5      	b.n	46e <dhex_dump+0x56>
/home/hsk/Desktop/devel/tee-tpm-hyp/optee_os/lib/libutils/ext/trace.c:235
     4a2:	4633      	mov	r3, r6
     4a4:	2208      	movs	r2, #8
     4a6:	4659      	mov	r1, fp
     4a8:	4620      	mov	r0, r4
     4aa:	f7ff fed7 	bl	25c <append>
/home/hsk/Desktop/devel/tee-tpm-hyp/optee_os/lib/libutils/ext/trace.c:237
     4ae:	2800      	cmp	r0, #0
     4b0:	d1e3      	bne.n	47a <dhex_dump+0x62>
     4b2:	e7e9      	b.n	488 <dhex_dump+0x70>
/home/hsk/Desktop/devel/tee-tpm-hyp/optee_os/lib/libutils/ext/trace.c:243
     4b4:	f1ba 0f07 	cmp.w	sl, #7
     4b8:	d108      	bne.n	4cc <dhex_dump+0xb4>
/home/hsk/Desktop/devel/tee-tpm-hyp/optee_os/lib/libutils/ext/trace.c:244
     4ba:	4914      	ldr	r1, [pc, #80]	; (50c <dhex_dump+0xf4>)
     4bc:	4620      	mov	r0, r4
     4be:	4479      	add	r1, pc
     4c0:	f7ff fecc 	bl	25c <append>
/home/hsk/Desktop/devel/tee-tpm-hyp/optee_os/lib/libutils/ext/trace.c:245
     4c4:	2800      	cmp	r0, #0
     4c6:	d0df      	beq.n	488 <dhex_dump+0x70>
/home/hsk/Desktop/devel/tee-tpm-hyp/optee_os/lib/libutils/ext/trace.c:233 (discriminator 2)
     4c8:	3501      	adds	r5, #1
     4ca:	e7c0      	b.n	44e <dhex_dump+0x36>
/home/hsk/Desktop/devel/tee-tpm-hyp/optee_os/lib/libutils/ext/trace.c:247
     4cc:	f1ba 0f0f 	cmp.w	sl, #15
     4d0:	d1fa      	bne.n	4c8 <dhex_dump+0xb0>
/home/hsk/Desktop/devel/tee-tpm-hyp/optee_os/lib/libutils/ext/trace.c:248
     4d2:	9b03      	ldr	r3, [sp, #12]
     4d4:	463a      	mov	r2, r7
     4d6:	9300      	str	r3, [sp, #0]
     4d8:	4649      	mov	r1, r9
     4da:	2301      	movs	r3, #1
     4dc:	9401      	str	r4, [sp, #4]
     4de:	4640      	mov	r0, r8
     4e0:	f7ff fefc 	bl	2dc <trace_printf>
/home/hsk/Desktop/devel/tee-tpm-hyp/optee_os/lib/libutils/ext/trace.c:250
     4e4:	2300      	movs	r3, #0
     4e6:	f8c4 3100 	str.w	r3, [r4, #256]	; 0x100
     4ea:	e7ed      	b.n	4c8 <dhex_dump+0xb0>
     4ec:	00007a28 	.word	0x00007a28
     4f0:	00000010 	.word	0x00000010
     4f4:	0000672f 	.word	0x0000672f
     4f8:	0000672f 	.word	0x0000672f
     4fc:	0000672f 	.word	0x0000672f
     500:	00006717 	.word	0x00006717
     504:	000066b0 	.word	0x000066b0
     508:	000066e8 	.word	0x000066e8
     50c:	000066b9 	.word	0x000066b9

00000510 <__vsnprintf>:
__vsnprintf():
/home/hsk/Desktop/devel/tee-tpm-hyp/optee_os/lib/libutils/ext/snprintk.c:137
     510:	e92d 4ff0 	stmdb	sp!, {r4, r5, r6, r7, r8, r9, sl, fp, lr}
/home/hsk/Desktop/devel/tee-tpm-hyp/optee_os/lib/libutils/ext/snprintk.c:141
     514:	4607      	mov	r7, r0
     516:	469b      	mov	fp, r3
/home/hsk/Desktop/devel/tee-tpm-hyp/optee_os/lib/libutils/ext/snprintk.c:137
     518:	b09f      	sub	sp, #124	; 0x7c
kprintf():
/home/hsk/Desktop/devel/tee-tpm-hyp/optee_os/lib/libutils/ext/snprintk.c:269
     51a:	2300      	movs	r3, #0
__vsnprintf():
/home/hsk/Desktop/devel/tee-tpm-hyp/optee_os/lib/libutils/ext/snprintk.c:137
     51c:	920b      	str	r2, [sp, #44]	; 0x2c
     51e:	f89d 20a0 	ldrb.w	r2, [sp, #160]	; 0xa0
     522:	9213      	str	r2, [sp, #76]	; 0x4c
/home/hsk/Desktop/devel/tee-tpm-hyp/optee_os/lib/libutils/ext/snprintk.c:141
     524:	4602      	mov	r2, r0
     526:	440a      	add	r2, r1
/home/hsk/Desktop/devel/tee-tpm-hyp/optee_os/lib/libutils/ext/snprintk.c:137
     528:	9010      	str	r0, [sp, #64]	; 0x40
     52a:	9112      	str	r1, [sp, #72]	; 0x48
/home/hsk/Desktop/devel/tee-tpm-hyp/optee_os/lib/libutils/ext/snprintk.c:141
     52c:	920e      	str	r2, [sp, #56]	; 0x38
kprintf():
/home/hsk/Desktop/devel/tee-tpm-hyp/optee_os/lib/libutils/ext/snprintk.c:269
     52e:	930f      	str	r3, [sp, #60]	; 0x3c
/home/hsk/Desktop/devel/tee-tpm-hyp/optee_os/lib/libutils/ext/snprintk.c:267
     530:	930c      	str	r3, [sp, #48]	; 0x30
/home/hsk/Desktop/devel/tee-tpm-hyp/optee_os/lib/libutils/ext/snprintk.c:275
     532:	9b0b      	ldr	r3, [sp, #44]	; 0x2c
     534:	781b      	ldrb	r3, [r3, #0]
     536:	2b25      	cmp	r3, #37	; 0x25
     538:	d021      	beq.n	57e <__vsnprintf+0x6e>
     53a:	b99b      	cbnz	r3, 564 <__vsnprintf+0x54>
__vsnprintf():
/home/hsk/Desktop/devel/tee-tpm-hyp/optee_os/lib/libutils/ext/snprintk.c:143
     53c:	9b10      	ldr	r3, [sp, #64]	; 0x40
     53e:	b16b      	cbz	r3, 55c <__vsnprintf+0x4c>
/home/hsk/Desktop/devel/tee-tpm-hyp/optee_os/lib/libutils/ext/snprintk.c:143 (discriminator 1)
     540:	9b12      	ldr	r3, [sp, #72]	; 0x48
     542:	b15b      	cbz	r3, 55c <__vsnprintf+0x4c>
/home/hsk/Desktop/devel/tee-tpm-hyp/optee_os/lib/libutils/ext/snprintk.c:145
     544:	9b0c      	ldr	r3, [sp, #48]	; 0x30
     546:	9a12      	ldr	r2, [sp, #72]	; 0x48
     548:	4293      	cmp	r3, r2
     54a:	f04f 0300 	mov.w	r3, #0
/home/hsk/Desktop/devel/tee-tpm-hyp/optee_os/lib/libutils/ext/snprintk.c:146
     54e:	9a10      	ldr	r2, [sp, #64]	; 0x40
/home/hsk/Desktop/devel/tee-tpm-hyp/optee_os/lib/libutils/ext/snprintk.c:145
     550:	f0c0 8341 	bcc.w	bd6 <__vsnprintf+0x6c6>
/home/hsk/Desktop/devel/tee-tpm-hyp/optee_os/lib/libutils/ext/snprintk.c:146
     554:	9912      	ldr	r1, [sp, #72]	; 0x48
     556:	440a      	add	r2, r1
     558:	f802 3c01 	strb.w	r3, [r2, #-1]
/home/hsk/Desktop/devel/tee-tpm-hyp/optee_os/lib/libutils/ext/snprintk.c:151
     55c:	980c      	ldr	r0, [sp, #48]	; 0x30
     55e:	b01f      	add	sp, #124	; 0x7c
     560:	e8bd 8ff0 	ldmia.w	sp!, {r4, r5, r6, r7, r8, r9, sl, fp, pc}
kprintf():
/home/hsk/Desktop/devel/tee-tpm-hyp/optee_os/lib/libutils/ext/snprintk.c:276
     564:	9a0c      	ldr	r2, [sp, #48]	; 0x30
     566:	3201      	adds	r2, #1
     568:	920c      	str	r2, [sp, #48]	; 0x30
/home/hsk/Desktop/devel/tee-tpm-hyp/optee_os/lib/libutils/ext/snprintk.c:277
     56a:	b127      	cbz	r7, 576 <__vsnprintf+0x66>
     56c:	9a0e      	ldr	r2, [sp, #56]	; 0x38
     56e:	42ba      	cmp	r2, r7
     570:	d901      	bls.n	576 <__vsnprintf+0x66>
     572:	703b      	strb	r3, [r7, #0]
     574:	3701      	adds	r7, #1
/home/hsk/Desktop/devel/tee-tpm-hyp/optee_os/lib/libutils/ext/snprintk.c:275
     576:	9b0b      	ldr	r3, [sp, #44]	; 0x2c
     578:	3301      	adds	r3, #1
     57a:	930b      	str	r3, [sp, #44]	; 0x2c
     57c:	e7d9      	b.n	532 <__vsnprintf+0x22>
/home/hsk/Desktop/devel/tee-tpm-hyp/optee_os/lib/libutils/ext/snprintk.c:282
     57e:	9b0b      	ldr	r3, [sp, #44]	; 0x2c
/home/hsk/Desktop/devel/tee-tpm-hyp/optee_os/lib/libutils/ext/snprintk.c:288
     580:	f04f 0900 	mov.w	r9, #0
/home/hsk/Desktop/devel/tee-tpm-hyp/optee_os/lib/libutils/ext/snprintk.c:284
     584:	464e      	mov	r6, r9
/home/hsk/Desktop/devel/tee-tpm-hyp/optee_os/lib/libutils/ext/snprintk.c:287
     586:	f04f 32ff 	mov.w	r2, #4294967295	; 0xffffffff
/home/hsk/Desktop/devel/tee-tpm-hyp/optee_os/lib/libutils/ext/snprintk.c:282
     58a:	3301      	adds	r3, #1
     58c:	930b      	str	r3, [sp, #44]	; 0x2c
     58e:	465b      	mov	r3, fp
/home/hsk/Desktop/devel/tee-tpm-hyp/optee_os/lib/libutils/ext/snprintk.c:287
     590:	920a      	str	r2, [sp, #40]	; 0x28
/home/hsk/Desktop/devel/tee-tpm-hyp/optee_os/lib/libutils/ext/snprintk.c:286
     592:	f8cd 9034 	str.w	r9, [sp, #52]	; 0x34
/home/hsk/Desktop/devel/tee-tpm-hyp/optee_os/lib/libutils/ext/snprintk.c:290
     596:	9a0b      	ldr	r2, [sp, #44]	; 0x2c
     598:	3201      	adds	r2, #1
     59a:	f812 8c01 	ldrb.w	r8, [r2, #-1]
/home/hsk/Desktop/devel/tee-tpm-hyp/optee_os/lib/libutils/ext/snprintk.c:319
     59e:	920b      	str	r2, [sp, #44]	; 0x2c
/home/hsk/Desktop/devel/tee-tpm-hyp/optee_os/lib/libutils/ext/snprintk.c:291
     5a0:	f1b8 0f63 	cmp.w	r8, #99	; 0x63
     5a4:	f000 8166 	beq.w	874 <__vsnprintf+0x364>
     5a8:	dc61      	bgt.n	66e <__vsnprintf+0x15e>
     5aa:	f1b8 0f30 	cmp.w	r8, #48	; 0x30
     5ae:	f000 814b 	beq.w	848 <__vsnprintf+0x338>
     5b2:	dc25      	bgt.n	600 <__vsnprintf+0xf0>
     5b4:	f1b8 0f2a 	cmp.w	r8, #42	; 0x2a
     5b8:	f000 811c 	beq.w	7f4 <__vsnprintf+0x2e4>
     5bc:	dc13      	bgt.n	5e6 <__vsnprintf+0xd6>
     5be:	f1b8 0f20 	cmp.w	r8, #32
     5c2:	f000 810d 	beq.w	7e0 <__vsnprintf+0x2d0>
     5c6:	f1b8 0f23 	cmp.w	r8, #35	; 0x23
     5ca:	f000 8110 	beq.w	7ee <__vsnprintf+0x2de>
/home/hsk/Desktop/devel/tee-tpm-hyp/optee_os/lib/libutils/ext/snprintk.c:541
     5ce:	f1b8 0f00 	cmp.w	r8, #0
     5d2:	d0b3      	beq.n	53c <__vsnprintf+0x2c>
/home/hsk/Desktop/devel/tee-tpm-hyp/optee_os/lib/libutils/ext/snprintk.c:545
     5d4:	f10d 0a78 	add.w	sl, sp, #120	; 0x78
     5d8:	469b      	mov	fp, r3
/home/hsk/Desktop/devel/tee-tpm-hyp/optee_os/lib/libutils/ext/snprintk.c:546
     5da:	2301      	movs	r3, #1
/home/hsk/Desktop/devel/tee-tpm-hyp/optee_os/lib/libutils/ext/snprintk.c:545
     5dc:	f80a 8d28 	strb.w	r8, [sl, #-40]!
     5e0:	e090      	b.n	704 <__vsnprintf+0x1f4>
/home/hsk/Desktop/devel/tee-tpm-hyp/optee_os/lib/libutils/ext/snprintk.c:311
     5e2:	4613      	mov	r3, r2
     5e4:	e7d7      	b.n	596 <__vsnprintf+0x86>
/home/hsk/Desktop/devel/tee-tpm-hyp/optee_os/lib/libutils/ext/snprintk.c:291
     5e6:	f1b8 0f2d 	cmp.w	r8, #45	; 0x2d
     5ea:	f000 810c 	beq.w	806 <__vsnprintf+0x2f6>
     5ee:	f1b8 0f2e 	cmp.w	r8, #46	; 0x2e
     5f2:	f000 810b 	beq.w	80c <__vsnprintf+0x2fc>
     5f6:	f1b8 0f2b 	cmp.w	r8, #43	; 0x2b
     5fa:	d1e8      	bne.n	5ce <__vsnprintf+0xbe>
/home/hsk/Desktop/devel/tee-tpm-hyp/optee_os/lib/libutils/ext/snprintk.c:319
     5fc:	46c1      	mov	r9, r8
     5fe:	e7ca      	b.n	596 <__vsnprintf+0x86>
/home/hsk/Desktop/devel/tee-tpm-hyp/optee_os/lib/libutils/ext/snprintk.c:291
     600:	f1b8 0f44 	cmp.w	r8, #68	; 0x44
     604:	f000 818a 	beq.w	91c <__vsnprintf+0x40c>
     608:	dc13      	bgt.n	632 <__vsnprintf+0x122>
     60a:	f1b8 0f39 	cmp.w	r8, #57	; 0x39
     60e:	dcde      	bgt.n	5ce <__vsnprintf+0xbe>
     610:	9a0b      	ldr	r2, [sp, #44]	; 0x2c
/home/hsk/Desktop/devel/tee-tpm-hyp/optee_os/lib/libutils/ext/snprintk.c:344
     612:	2100      	movs	r1, #0
     614:	910d      	str	r1, [sp, #52]	; 0x34
/home/hsk/Desktop/devel/tee-tpm-hyp/optee_os/lib/libutils/ext/snprintk.c:346
     616:	990d      	ldr	r1, [sp, #52]	; 0x34
     618:	f1a8 0830 	sub.w	r8, r8, #48	; 0x30
     61c:	200a      	movs	r0, #10
     61e:	fb00 8101 	mla	r1, r0, r1, r8
/home/hsk/Desktop/devel/tee-tpm-hyp/optee_os/lib/libutils/ext/snprintk.c:347
     622:	f812 8b01 	ldrb.w	r8, [r2], #1
/home/hsk/Desktop/devel/tee-tpm-hyp/optee_os/lib/libutils/ext/snprintk.c:346
     626:	910d      	str	r1, [sp, #52]	; 0x34
/home/hsk/Desktop/devel/tee-tpm-hyp/optee_os/lib/libutils/ext/snprintk.c:348
     628:	f1a8 0130 	sub.w	r1, r8, #48	; 0x30
     62c:	2909      	cmp	r1, #9
     62e:	d9f2      	bls.n	616 <__vsnprintf+0x106>
     630:	e7b5      	b.n	59e <__vsnprintf+0x8e>
/home/hsk/Desktop/devel/tee-tpm-hyp/optee_os/lib/libutils/ext/snprintk.c:291
     632:	f1b8 0f55 	cmp.w	r8, #85	; 0x55
     636:	f000 8228 	beq.w	a8a <__vsnprintf+0x57a>
     63a:	f1b8 0f58 	cmp.w	r8, #88	; 0x58
     63e:	d07d      	beq.n	73c <__vsnprintf+0x22c>
     640:	f1b8 0f4f 	cmp.w	r8, #79	; 0x4f
     644:	d1c3      	bne.n	5ce <__vsnprintf+0xbe>
/home/hsk/Desktop/devel/tee-tpm-hyp/optee_os/lib/libutils/ext/snprintk.c:408
     646:	f046 0610 	orr.w	r6, r6, #16
/home/hsk/Desktop/devel/tee-tpm-hyp/optee_os/lib/libutils/ext/snprintk.c:411
     64a:	0632      	lsls	r2, r6, #24
     64c:	f140 81b2 	bpl.w	9b4 <__vsnprintf+0x4a4>
     650:	3307      	adds	r3, #7
     652:	f023 0307 	bic.w	r3, r3, #7
     656:	f103 0b08 	add.w	fp, r3, #8
     65a:	e9d3 4500 	ldrd	r4, r5, [r3]
/home/hsk/Desktop/devel/tee-tpm-hyp/optee_os/lib/libutils/ext/snprintk.c:488
     65e:	f04f 0900 	mov.w	r9, #0
     662:	9b0a      	ldr	r3, [sp, #40]	; 0x28
     664:	3301      	adds	r3, #1
     666:	f000 8098 	beq.w	79a <__vsnprintf+0x28a>
     66a:	464b      	mov	r3, r9
     66c:	e084      	b.n	778 <__vsnprintf+0x268>
/home/hsk/Desktop/devel/tee-tpm-hyp/optee_os/lib/libutils/ext/snprintk.c:291
     66e:	f1b8 0f6f 	cmp.w	r8, #111	; 0x6f
     672:	d0ea      	beq.n	64a <__vsnprintf+0x13a>
     674:	dc1c      	bgt.n	6b0 <__vsnprintf+0x1a0>
     676:	f1b8 0f69 	cmp.w	r8, #105	; 0x69
     67a:	f000 8151 	beq.w	920 <__vsnprintf+0x410>
     67e:	dc09      	bgt.n	694 <__vsnprintf+0x184>
     680:	f1b8 0f64 	cmp.w	r8, #100	; 0x64
     684:	f000 814c 	beq.w	920 <__vsnprintf+0x410>
     688:	f1b8 0f68 	cmp.w	r8, #104	; 0x68
     68c:	d19f      	bne.n	5ce <__vsnprintf+0xbe>
/home/hsk/Desktop/devel/tee-tpm-hyp/optee_os/lib/libutils/ext/snprintk.c:352
     68e:	f046 0640 	orr.w	r6, r6, #64	; 0x40
     692:	e780      	b.n	596 <__vsnprintf+0x86>
/home/hsk/Desktop/devel/tee-tpm-hyp/optee_os/lib/libutils/ext/snprintk.c:291
     694:	f1b8 0f6c 	cmp.w	r8, #108	; 0x6c
     698:	f000 80d9 	beq.w	84e <__vsnprintf+0x33e>
     69c:	f1b8 0f6e 	cmp.w	r8, #110	; 0x6e
     6a0:	f000 816d 	beq.w	97e <__vsnprintf+0x46e>
     6a4:	f1b8 0f6a 	cmp.w	r8, #106	; 0x6a
     6a8:	d191      	bne.n	5ce <__vsnprintf+0xbe>
/home/hsk/Desktop/devel/tee-tpm-hyp/optee_os/lib/libutils/ext/snprintk.c:355
     6aa:	f046 0680 	orr.w	r6, r6, #128	; 0x80
     6ae:	e772      	b.n	596 <__vsnprintf+0x86>
/home/hsk/Desktop/devel/tee-tpm-hyp/optee_os/lib/libutils/ext/snprintk.c:291
     6b0:	f1b8 0f74 	cmp.w	r8, #116	; 0x74
     6b4:	f000 80d8 	beq.w	868 <__vsnprintf+0x358>
     6b8:	dc26      	bgt.n	708 <__vsnprintf+0x1f8>
     6ba:	f1b8 0f71 	cmp.w	r8, #113	; 0x71
     6be:	f000 80cd 	beq.w	85c <__vsnprintf+0x34c>
     6c2:	f2c0 818b 	blt.w	9dc <__vsnprintf+0x4cc>
     6c6:	f1b8 0f73 	cmp.w	r8, #115	; 0x73
     6ca:	d180      	bne.n	5ce <__vsnprintf+0xbe>
/home/hsk/Desktop/devel/tee-tpm-hyp/optee_os/lib/libutils/ext/snprintk.c:442
     6cc:	f8d3 a000 	ldr.w	sl, [r3]
     6d0:	f103 0b04 	add.w	fp, r3, #4
     6d4:	f1ba 0f00 	cmp.w	sl, #0
     6d8:	d102      	bne.n	6e0 <__vsnprintf+0x1d0>
/home/hsk/Desktop/devel/tee-tpm-hyp/optee_os/lib/libutils/ext/snprintk.c:444
     6da:	f8df a51c 	ldr.w	sl, [pc, #1308]	; bf8 <__vsnprintf+0x6e8>
     6de:	44fa      	add	sl, pc
/home/hsk/Desktop/devel/tee-tpm-hyp/optee_os/lib/libutils/ext/snprintk.c:445
     6e0:	9b0a      	ldr	r3, [sp, #40]	; 0x28
     6e2:	1c5d      	adds	r5, r3, #1
     6e4:	f000 81cd 	beq.w	a82 <__vsnprintf+0x572>
/home/hsk/Desktop/devel/tee-tpm-hyp/optee_os/lib/libutils/ext/snprintk.c:451
     6e8:	461a      	mov	r2, r3
     6ea:	2100      	movs	r1, #0
     6ec:	4650      	mov	r0, sl
     6ee:	f005 fe5a 	bl	63a6 <memchr>
/home/hsk/Desktop/devel/tee-tpm-hyp/optee_os/lib/libutils/ext/snprintk.c:453
     6f2:	2800      	cmp	r0, #0
     6f4:	f000 81a2 	beq.w	a3c <__vsnprintf+0x52c>
     6f8:	9b0a      	ldr	r3, [sp, #40]	; 0x28
/home/hsk/Desktop/devel/tee-tpm-hyp/optee_os/lib/libutils/ext/snprintk.c:454
     6fa:	eba0 000a 	sub.w	r0, r0, sl
     6fe:	4283      	cmp	r3, r0
     700:	bfa8      	it	ge
     702:	4603      	movge	r3, r0
/home/hsk/Desktop/devel/tee-tpm-hyp/optee_os/lib/libutils/ext/snprintk.c:546
     704:	930a      	str	r3, [sp, #40]	; 0x28
     706:	e198      	b.n	a3a <__vsnprintf+0x52a>
/home/hsk/Desktop/devel/tee-tpm-hyp/optee_os/lib/libutils/ext/snprintk.c:291
     708:	f1b8 0f78 	cmp.w	r8, #120	; 0x78
     70c:	f000 81de 	beq.w	acc <__vsnprintf+0x5bc>
     710:	f1b8 0f7a 	cmp.w	r8, #122	; 0x7a
     714:	f000 80ab 	beq.w	86e <__vsnprintf+0x35e>
     718:	f1b8 0f75 	cmp.w	r8, #117	; 0x75
     71c:	f47f af57 	bne.w	5ce <__vsnprintf+0xbe>
/home/hsk/Desktop/devel/tee-tpm-hyp/optee_os/lib/libutils/ext/snprintk.c:467
     720:	f016 0280 	ands.w	r2, r6, #128	; 0x80
     724:	f000 81b4 	beq.w	a90 <__vsnprintf+0x580>
     728:	3307      	adds	r3, #7
     72a:	f023 0307 	bic.w	r3, r3, #7
     72e:	f103 0b08 	add.w	fp, r3, #8
     732:	e9d3 4500 	ldrd	r4, r5, [r3]
/home/hsk/Desktop/devel/tee-tpm-hyp/optee_os/lib/libutils/ext/snprintk.c:482
     736:	f04f 0900 	mov.w	r9, #0
     73a:	e103      	b.n	944 <__vsnprintf+0x434>
/home/hsk/Desktop/devel/tee-tpm-hyp/optee_os/lib/libutils/ext/snprintk.c:471
     73c:	f8df 24bc 	ldr.w	r2, [pc, #1212]	; bfc <__vsnprintf+0x6ec>
     740:	447a      	add	r2, pc
/home/hsk/Desktop/devel/tee-tpm-hyp/optee_os/lib/libutils/ext/snprintk.c:474
     742:	920f      	str	r2, [sp, #60]	; 0x3c
/home/hsk/Desktop/devel/tee-tpm-hyp/optee_os/lib/libutils/ext/snprintk.c:475
     744:	0634      	lsls	r4, r6, #24
     746:	f140 81c5 	bpl.w	ad4 <__vsnprintf+0x5c4>
     74a:	3307      	adds	r3, #7
     74c:	f023 0307 	bic.w	r3, r3, #7
     750:	f103 0b08 	add.w	fp, r3, #8
     754:	e9d3 4500 	ldrd	r4, r5, [r3]
/home/hsk/Desktop/devel/tee-tpm-hyp/optee_os/lib/libutils/ext/snprintk.c:478
     758:	07f0      	lsls	r0, r6, #31
     75a:	f140 817a 	bpl.w	a52 <__vsnprintf+0x542>
     75e:	ea54 0305 	orrs.w	r3, r4, r5
     762:	f000 8241 	beq.w	be8 <__vsnprintf+0x6d8>
/home/hsk/Desktop/devel/tee-tpm-hyp/optee_os/lib/libutils/ext/snprintk.c:488
     766:	9b0a      	ldr	r3, [sp, #40]	; 0x28
/home/hsk/Desktop/devel/tee-tpm-hyp/optee_os/lib/libutils/ext/snprintk.c:479
     768:	f046 0602 	orr.w	r6, r6, #2
/home/hsk/Desktop/devel/tee-tpm-hyp/optee_os/lib/libutils/ext/snprintk.c:488
     76c:	3301      	adds	r3, #1
     76e:	f000 823e 	beq.w	bee <__vsnprintf+0x6de>
     772:	f04f 0900 	mov.w	r9, #0
     776:	2302      	movs	r3, #2
/home/hsk/Desktop/devel/tee-tpm-hyp/optee_os/lib/libutils/ext/snprintk.c:489
     778:	f426 6680 	bic.w	r6, r6, #1024	; 0x400
/home/hsk/Desktop/devel/tee-tpm-hyp/optee_os/lib/libutils/ext/snprintk.c:497
     77c:	ea54 0205 	orrs.w	r2, r4, r5
     780:	d105      	bne.n	78e <__vsnprintf+0x27e>
     782:	9a0a      	ldr	r2, [sp, #40]	; 0x28
     784:	2a00      	cmp	r2, #0
     786:	f000 81dc 	beq.w	b42 <__vsnprintf+0x632>
     78a:	2400      	movs	r4, #0
     78c:	2500      	movs	r5, #0
/home/hsk/Desktop/devel/tee-tpm-hyp/optee_os/lib/libutils/ext/snprintk.c:503
     78e:	2b01      	cmp	r3, #1
     790:	f000 80dc 	beq.w	94c <__vsnprintf+0x43c>
     794:	2b02      	cmp	r3, #2
     796:	f000 8162 	beq.w	a5e <__vsnprintf+0x54e>
/home/hsk/Desktop/devel/tee-tpm-hyp/optee_os/lib/libutils/ext/snprintk.c:504
     79a:	f10d 0375 	add.w	r3, sp, #117	; 0x75
/home/hsk/Desktop/devel/tee-tpm-hyp/optee_os/lib/libutils/ext/snprintk.c:507
     79e:	08e1      	lsrs	r1, r4, #3
     7a0:	08e8      	lsrs	r0, r5, #3
     7a2:	ea41 7145 	orr.w	r1, r1, r5, lsl #29
/home/hsk/Desktop/devel/tee-tpm-hyp/optee_os/lib/libutils/ext/snprintk.c:506
     7a6:	f004 0207 	and.w	r2, r4, #7
/home/hsk/Desktop/devel/tee-tpm-hyp/optee_os/lib/libutils/ext/snprintk.c:507
     7aa:	4605      	mov	r5, r0
     7ac:	460c      	mov	r4, r1
/home/hsk/Desktop/devel/tee-tpm-hyp/optee_os/lib/libutils/ext/snprintk.c:506
     7ae:	3230      	adds	r2, #48	; 0x30
     7b0:	f103 3aff 	add.w	sl, r3, #4294967295	; 0xffffffff
     7b4:	f803 2c01 	strb.w	r2, [r3, #-1]
/home/hsk/Desktop/devel/tee-tpm-hyp/optee_os/lib/libutils/ext/snprintk.c:508
     7b8:	ea54 0105 	orrs.w	r1, r4, r5
     7bc:	f040 81a0 	bne.w	b00 <__vsnprintf+0x5f0>
/home/hsk/Desktop/devel/tee-tpm-hyp/optee_os/lib/libutils/ext/snprintk.c:510
     7c0:	07f1      	lsls	r1, r6, #31
     7c2:	d506      	bpl.n	7d2 <__vsnprintf+0x2c2>
     7c4:	2a30      	cmp	r2, #48	; 0x30
     7c6:	d004      	beq.n	7d2 <__vsnprintf+0x2c2>
/home/hsk/Desktop/devel/tee-tpm-hyp/optee_os/lib/libutils/ext/snprintk.c:511
     7c8:	2230      	movs	r2, #48	; 0x30
     7ca:	f80a 2c01 	strb.w	r2, [sl, #-1]
     7ce:	f1a3 0a02 	sub.w	sl, r3, #2
/home/hsk/Desktop/devel/tee-tpm-hyp/optee_os/lib/libutils/ext/snprintk.c:537
     7d2:	f10d 0375 	add.w	r3, sp, #117	; 0x75
     7d6:	980a      	ldr	r0, [sp, #40]	; 0x28
     7d8:	eba3 030a 	sub.w	r3, r3, sl
     7dc:	930a      	str	r3, [sp, #40]	; 0x28
     7de:	e055      	b.n	88c <__vsnprintf+0x37c>
/home/hsk/Desktop/devel/tee-tpm-hyp/optee_os/lib/libutils/ext/snprintk.c:299
     7e0:	f1b9 0f00 	cmp.w	r9, #0
     7e4:	f04f 0220 	mov.w	r2, #32
     7e8:	bf08      	it	eq
     7ea:	4691      	moveq	r9, r2
     7ec:	e6d3      	b.n	596 <__vsnprintf+0x86>
/home/hsk/Desktop/devel/tee-tpm-hyp/optee_os/lib/libutils/ext/snprintk.c:302
     7ee:	f046 0601 	orr.w	r6, r6, #1
     7f2:	e6d0      	b.n	596 <__vsnprintf+0x86>
/home/hsk/Desktop/devel/tee-tpm-hyp/optee_os/lib/libutils/ext/snprintk.c:311
     7f4:	1d1a      	adds	r2, r3, #4
     7f6:	681b      	ldr	r3, [r3, #0]
     7f8:	930d      	str	r3, [sp, #52]	; 0x34
     7fa:	2b00      	cmp	r3, #0
     7fc:	f6bf aef1 	bge.w	5e2 <__vsnprintf+0xd2>
/home/hsk/Desktop/devel/tee-tpm-hyp/optee_os/lib/libutils/ext/snprintk.c:313
     800:	425b      	negs	r3, r3
     802:	930d      	str	r3, [sp, #52]	; 0x34
/home/hsk/Desktop/devel/tee-tpm-hyp/optee_os/lib/libutils/ext/snprintk.c:311
     804:	4613      	mov	r3, r2
/home/hsk/Desktop/devel/tee-tpm-hyp/optee_os/lib/libutils/ext/snprintk.c:316
     806:	f046 0604 	orr.w	r6, r6, #4
     80a:	e6c4      	b.n	596 <__vsnprintf+0x86>
/home/hsk/Desktop/devel/tee-tpm-hyp/optee_os/lib/libutils/ext/snprintk.c:322
     80c:	990b      	ldr	r1, [sp, #44]	; 0x2c
     80e:	9a0b      	ldr	r2, [sp, #44]	; 0x2c
     810:	f891 8000 	ldrb.w	r8, [r1]
     814:	3201      	adds	r2, #1
     816:	f1b8 0f2a 	cmp.w	r8, #42	; 0x2a
     81a:	d112      	bne.n	842 <__vsnprintf+0x332>
/home/hsk/Desktop/devel/tee-tpm-hyp/optee_os/lib/libutils/ext/snprintk.c:324
     81c:	6819      	ldr	r1, [r3, #0]
/home/hsk/Desktop/devel/tee-tpm-hyp/optee_os/lib/libutils/ext/snprintk.c:323
     81e:	3304      	adds	r3, #4
/home/hsk/Desktop/devel/tee-tpm-hyp/optee_os/lib/libutils/ext/snprintk.c:322
     820:	920b      	str	r2, [sp, #44]	; 0x2c
/home/hsk/Desktop/devel/tee-tpm-hyp/optee_os/lib/libutils/ext/snprintk.c:324
     822:	ea41 71e1 	orr.w	r1, r1, r1, asr #31
     826:	910a      	str	r1, [sp, #40]	; 0x28
     828:	e6b5      	b.n	596 <__vsnprintf+0x86>
/home/hsk/Desktop/devel/tee-tpm-hyp/optee_os/lib/libutils/ext/snprintk.c:329
     82a:	980a      	ldr	r0, [sp, #40]	; 0x28
     82c:	240a      	movs	r4, #10
/home/hsk/Desktop/devel/tee-tpm-hyp/optee_os/lib/libutils/ext/snprintk.c:330
     82e:	f812 8b01 	ldrb.w	r8, [r2], #1
/home/hsk/Desktop/devel/tee-tpm-hyp/optee_os/lib/libutils/ext/snprintk.c:329
     832:	fb04 1100 	mla	r1, r4, r0, r1
     836:	910a      	str	r1, [sp, #40]	; 0x28
/home/hsk/Desktop/devel/tee-tpm-hyp/optee_os/lib/libutils/ext/snprintk.c:328
     838:	f1a8 0130 	sub.w	r1, r8, #48	; 0x30
     83c:	2909      	cmp	r1, #9
     83e:	d9f4      	bls.n	82a <__vsnprintf+0x31a>
     840:	e6ad      	b.n	59e <__vsnprintf+0x8e>
/home/hsk/Desktop/devel/tee-tpm-hyp/optee_os/lib/libutils/ext/snprintk.c:327
     842:	2100      	movs	r1, #0
     844:	910a      	str	r1, [sp, #40]	; 0x28
     846:	e7f7      	b.n	838 <__vsnprintf+0x328>
/home/hsk/Desktop/devel/tee-tpm-hyp/optee_os/lib/libutils/ext/snprintk.c:340
     848:	f446 6680 	orr.w	r6, r6, #1024	; 0x400
     84c:	e6a3      	b.n	596 <__vsnprintf+0x86>
/home/hsk/Desktop/devel/tee-tpm-hyp/optee_os/lib/libutils/ext/snprintk.c:358
     84e:	9a0b      	ldr	r2, [sp, #44]	; 0x2c
     850:	7812      	ldrb	r2, [r2, #0]
     852:	2a6c      	cmp	r2, #108	; 0x6c
     854:	d105      	bne.n	862 <__vsnprintf+0x352>
     856:	9a0b      	ldr	r2, [sp, #44]	; 0x2c
     858:	3201      	adds	r2, #1
     85a:	920b      	str	r2, [sp, #44]	; 0x2c
/home/hsk/Desktop/devel/tee-tpm-hyp/optee_os/lib/libutils/ext/snprintk.c:366
     85c:	f046 0620 	orr.w	r6, r6, #32
     860:	e699      	b.n	596 <__vsnprintf+0x86>
/home/hsk/Desktop/devel/tee-tpm-hyp/optee_os/lib/libutils/ext/snprintk.c:362
     862:	f046 0610 	orr.w	r6, r6, #16
     866:	e696      	b.n	596 <__vsnprintf+0x86>
/home/hsk/Desktop/devel/tee-tpm-hyp/optee_os/lib/libutils/ext/snprintk.c:369
     868:	f446 7680 	orr.w	r6, r6, #256	; 0x100
     86c:	e693      	b.n	596 <__vsnprintf+0x86>
/home/hsk/Desktop/devel/tee-tpm-hyp/optee_os/lib/libutils/ext/snprintk.c:372
     86e:	f446 7600 	orr.w	r6, r6, #512	; 0x200
     872:	e690      	b.n	596 <__vsnprintf+0x86>
/home/hsk/Desktop/devel/tee-tpm-hyp/optee_os/lib/libutils/ext/snprintk.c:375
     874:	f10d 0a78 	add.w	sl, sp, #120	; 0x78
/home/hsk/Desktop/devel/tee-tpm-hyp/optee_os/lib/libutils/ext/snprintk.c:285
     878:	f04f 0900 	mov.w	r9, #0
/home/hsk/Desktop/devel/tee-tpm-hyp/optee_os/lib/libutils/ext/snprintk.c:375
     87c:	f103 0b04 	add.w	fp, r3, #4
/home/hsk/Desktop/devel/tee-tpm-hyp/optee_os/lib/libutils/ext/snprintk.c:377
     880:	4648      	mov	r0, r9
/home/hsk/Desktop/devel/tee-tpm-hyp/optee_os/lib/libutils/ext/snprintk.c:375
     882:	681b      	ldr	r3, [r3, #0]
     884:	f80a 3d28 	strb.w	r3, [sl, #-40]!
/home/hsk/Desktop/devel/tee-tpm-hyp/optee_os/lib/libutils/ext/snprintk.c:376
     888:	2301      	movs	r3, #1
     88a:	930a      	str	r3, [sp, #40]	; 0x28
/home/hsk/Desktop/devel/tee-tpm-hyp/optee_os/lib/libutils/ext/snprintk.c:565
     88c:	9b0a      	ldr	r3, [sp, #40]	; 0x28
     88e:	4283      	cmp	r3, r0
     890:	bfb8      	it	lt
     892:	4603      	movlt	r3, r0
/home/hsk/Desktop/devel/tee-tpm-hyp/optee_os/lib/libutils/ext/snprintk.c:566
     894:	f1b9 0f00 	cmp.w	r9, #0
     898:	f000 8156 	beq.w	b48 <__vsnprintf+0x638>
/home/hsk/Desktop/devel/tee-tpm-hyp/optee_os/lib/libutils/ext/snprintk.c:567
     89c:	3301      	adds	r3, #1
/home/hsk/Desktop/devel/tee-tpm-hyp/optee_os/lib/libutils/ext/snprintk.c:572
     89e:	9a0d      	ldr	r2, [sp, #52]	; 0x34
     8a0:	990c      	ldr	r1, [sp, #48]	; 0x30
     8a2:	429a      	cmp	r2, r3
     8a4:	bfb8      	it	lt
     8a6:	461a      	movlt	r2, r3
     8a8:	4411      	add	r1, r2
/home/hsk/Desktop/devel/tee-tpm-hyp/optee_os/lib/libutils/ext/snprintk.c:575
     8aa:	f240 4204 	movw	r2, #1028	; 0x404
/home/hsk/Desktop/devel/tee-tpm-hyp/optee_os/lib/libutils/ext/snprintk.c:572
     8ae:	910c      	str	r1, [sp, #48]	; 0x30
/home/hsk/Desktop/devel/tee-tpm-hyp/optee_os/lib/libutils/ext/snprintk.c:575
     8b0:	ea16 0102 	ands.w	r1, r6, r2
     8b4:	d105      	bne.n	8c2 <__vsnprintf+0x3b2>
/home/hsk/Desktop/devel/tee-tpm-hyp/optee_os/lib/libutils/ext/snprintk.c:576
     8b6:	9a0d      	ldr	r2, [sp, #52]	; 0x34
/home/hsk/Desktop/devel/tee-tpm-hyp/optee_os/lib/libutils/ext/snprintk.c:578
     8b8:	2420      	movs	r4, #32
/home/hsk/Desktop/devel/tee-tpm-hyp/optee_os/lib/libutils/ext/snprintk.c:576
     8ba:	1ad2      	subs	r2, r2, r3
/home/hsk/Desktop/devel/tee-tpm-hyp/optee_os/lib/libutils/ext/snprintk.c:577
     8bc:	2a00      	cmp	r2, #0
     8be:	f300 8147 	bgt.w	b50 <__vsnprintf+0x640>
/home/hsk/Desktop/devel/tee-tpm-hyp/optee_os/lib/libutils/ext/snprintk.c:582
     8c2:	f1b9 0f00 	cmp.w	r9, #0
     8c6:	f000 8153 	beq.w	b70 <__vsnprintf+0x660>
/home/hsk/Desktop/devel/tee-tpm-hyp/optee_os/lib/libutils/ext/snprintk.c:583
     8ca:	2f00      	cmp	r7, #0
     8cc:	f040 8148 	bne.w	b60 <__vsnprintf+0x650>
/home/hsk/Desktop/devel/tee-tpm-hyp/optee_os/lib/libutils/ext/snprintk.c:586
     8d0:	2700      	movs	r7, #0
/home/hsk/Desktop/devel/tee-tpm-hyp/optee_os/lib/libutils/ext/snprintk.c:590
     8d2:	f5b1 6f80 	cmp.w	r1, #1024	; 0x400
     8d6:	d105      	bne.n	8e4 <__vsnprintf+0x3d4>
/home/hsk/Desktop/devel/tee-tpm-hyp/optee_os/lib/libutils/ext/snprintk.c:591
     8d8:	9a0d      	ldr	r2, [sp, #52]	; 0x34
/home/hsk/Desktop/devel/tee-tpm-hyp/optee_os/lib/libutils/ext/snprintk.c:593
     8da:	2130      	movs	r1, #48	; 0x30
/home/hsk/Desktop/devel/tee-tpm-hyp/optee_os/lib/libutils/ext/snprintk.c:591
     8dc:	1ad2      	subs	r2, r2, r3
/home/hsk/Desktop/devel/tee-tpm-hyp/optee_os/lib/libutils/ext/snprintk.c:592
     8de:	2a00      	cmp	r2, #0
     8e0:	f300 815e 	bgt.w	ba0 <__vsnprintf+0x690>
/home/hsk/Desktop/devel/tee-tpm-hyp/optee_os/lib/libutils/ext/snprintk.c:597
     8e4:	9a0a      	ldr	r2, [sp, #40]	; 0x28
     8e6:	1a80      	subs	r0, r0, r2
/home/hsk/Desktop/devel/tee-tpm-hyp/optee_os/lib/libutils/ext/snprintk.c:599
     8e8:	2230      	movs	r2, #48	; 0x30
/home/hsk/Desktop/devel/tee-tpm-hyp/optee_os/lib/libutils/ext/snprintk.c:598
     8ea:	2800      	cmp	r0, #0
     8ec:	f300 8160 	bgt.w	bb0 <__vsnprintf+0x6a0>
     8f0:	2200      	movs	r2, #0
/home/hsk/Desktop/devel/tee-tpm-hyp/optee_os/lib/libutils/ext/snprintk.c:602
     8f2:	990a      	ldr	r1, [sp, #40]	; 0x28
     8f4:	428a      	cmp	r2, r1
     8f6:	f040 8163 	bne.w	bc0 <__vsnprintf+0x6b0>
/home/hsk/Desktop/devel/tee-tpm-hyp/optee_os/lib/libutils/ext/snprintk.c:605
     8fa:	0772      	lsls	r2, r6, #29
     8fc:	f57f ae19 	bpl.w	532 <__vsnprintf+0x22>
/home/hsk/Desktop/devel/tee-tpm-hyp/optee_os/lib/libutils/ext/snprintk.c:606
     900:	9a0d      	ldr	r2, [sp, #52]	; 0x34
     902:	1ad3      	subs	r3, r2, r3
/home/hsk/Desktop/devel/tee-tpm-hyp/optee_os/lib/libutils/ext/snprintk.c:608
     904:	2220      	movs	r2, #32
/home/hsk/Desktop/devel/tee-tpm-hyp/optee_os/lib/libutils/ext/snprintk.c:607
     906:	2b00      	cmp	r3, #0
     908:	f77f ae13 	ble.w	532 <__vsnprintf+0x22>
/home/hsk/Desktop/devel/tee-tpm-hyp/optee_os/lib/libutils/ext/snprintk.c:608
     90c:	b127      	cbz	r7, 918 <__vsnprintf+0x408>
     90e:	990e      	ldr	r1, [sp, #56]	; 0x38
     910:	42b9      	cmp	r1, r7
     912:	d901      	bls.n	918 <__vsnprintf+0x408>
     914:	703a      	strb	r2, [r7, #0]
     916:	3701      	adds	r7, #1
     918:	3b01      	subs	r3, #1
     91a:	e7f4      	b.n	906 <__vsnprintf+0x3f6>
/home/hsk/Desktop/devel/tee-tpm-hyp/optee_os/lib/libutils/ext/snprintk.c:380
     91c:	f046 0610 	orr.w	r6, r6, #16
/home/hsk/Desktop/devel/tee-tpm-hyp/optee_os/lib/libutils/ext/snprintk.c:384
     920:	0631      	lsls	r1, r6, #24
     922:	d517      	bpl.n	954 <__vsnprintf+0x444>
     924:	3307      	adds	r3, #7
     926:	f023 0307 	bic.w	r3, r3, #7
     92a:	f103 0b08 	add.w	fp, r3, #8
     92e:	e9d3 4500 	ldrd	r4, r5, [r3]
/home/hsk/Desktop/devel/tee-tpm-hyp/optee_os/lib/libutils/ext/snprintk.c:385
     932:	2c00      	cmp	r4, #0
     934:	f175 0300 	sbcs.w	r3, r5, #0
     938:	da04      	bge.n	944 <__vsnprintf+0x434>
/home/hsk/Desktop/devel/tee-tpm-hyp/optee_os/lib/libutils/ext/snprintk.c:386
     93a:	4264      	negs	r4, r4
/home/hsk/Desktop/devel/tee-tpm-hyp/optee_os/lib/libutils/ext/snprintk.c:387
     93c:	f04f 092d 	mov.w	r9, #45	; 0x2d
/home/hsk/Desktop/devel/tee-tpm-hyp/optee_os/lib/libutils/ext/snprintk.c:386
     940:	eb65 0545 	sbc.w	r5, r5, r5, lsl #1
/home/hsk/Desktop/devel/tee-tpm-hyp/optee_os/lib/libutils/ext/snprintk.c:488
     944:	9b0a      	ldr	r3, [sp, #40]	; 0x28
     946:	3301      	adds	r3, #1
     948:	f040 80d8 	bne.w	afc <__vsnprintf+0x5ec>
/home/hsk/Desktop/devel/tee-tpm-hyp/optee_os/lib/libutils/ext/snprintk.c:508
     94c:	f10d 0375 	add.w	r3, sp, #117	; 0x75
     950:	9311      	str	r3, [sp, #68]	; 0x44
     952:	e0eb      	b.n	b2c <__vsnprintf+0x61c>
/home/hsk/Desktop/devel/tee-tpm-hyp/optee_os/lib/libutils/ext/snprintk.c:384
     954:	05f2      	lsls	r2, r6, #23
     956:	d504      	bpl.n	962 <__vsnprintf+0x452>
     958:	f103 0b04 	add.w	fp, r3, #4
     95c:	681c      	ldr	r4, [r3, #0]
     95e:	17e5      	asrs	r5, r4, #31
     960:	e7e7      	b.n	932 <__vsnprintf+0x422>
     962:	05b5      	lsls	r5, r6, #22
     964:	d4f8      	bmi.n	958 <__vsnprintf+0x448>
     966:	06b4      	lsls	r4, r6, #26
     968:	d4dc      	bmi.n	924 <__vsnprintf+0x414>
     96a:	f103 0b04 	add.w	fp, r3, #4
     96e:	06f0      	lsls	r0, r6, #27
     970:	d4f4      	bmi.n	95c <__vsnprintf+0x44c>
     972:	f016 0f40 	tst.w	r6, #64	; 0x40
     976:	681c      	ldr	r4, [r3, #0]
     978:	d0f1      	beq.n	95e <__vsnprintf+0x44e>
     97a:	b224      	sxth	r4, r4
     97c:	e7ef      	b.n	95e <__vsnprintf+0x44e>
     97e:	469b      	mov	fp, r3
/home/hsk/Desktop/devel/tee-tpm-hyp/optee_os/lib/libutils/ext/snprintk.c:392
     980:	0631      	lsls	r1, r6, #24
     982:	f85b 3b04 	ldr.w	r3, [fp], #4
     986:	d505      	bpl.n	994 <__vsnprintf+0x484>
/home/hsk/Desktop/devel/tee-tpm-hyp/optee_os/lib/libutils/ext/snprintk.c:399
     988:	9a0c      	ldr	r2, [sp, #48]	; 0x30
     98a:	4610      	mov	r0, r2
     98c:	17d1      	asrs	r1, r2, #31
     98e:	e9c3 0100 	strd	r0, r1, [r3]
     992:	e5ce      	b.n	532 <__vsnprintf+0x22>
/home/hsk/Desktop/devel/tee-tpm-hyp/optee_os/lib/libutils/ext/snprintk.c:394
     994:	05f2      	lsls	r2, r6, #23
     996:	d502      	bpl.n	99e <__vsnprintf+0x48e>
/home/hsk/Desktop/devel/tee-tpm-hyp/optee_os/lib/libutils/ext/snprintk.c:405
     998:	9a0c      	ldr	r2, [sp, #48]	; 0x30
     99a:	601a      	str	r2, [r3, #0]
     99c:	e5c9      	b.n	532 <__vsnprintf+0x22>
/home/hsk/Desktop/devel/tee-tpm-hyp/optee_os/lib/libutils/ext/snprintk.c:396
     99e:	05b5      	lsls	r5, r6, #22
     9a0:	d4fa      	bmi.n	998 <__vsnprintf+0x488>
/home/hsk/Desktop/devel/tee-tpm-hyp/optee_os/lib/libutils/ext/snprintk.c:398
     9a2:	06b4      	lsls	r4, r6, #26
     9a4:	d4f0      	bmi.n	988 <__vsnprintf+0x478>
/home/hsk/Desktop/devel/tee-tpm-hyp/optee_os/lib/libutils/ext/snprintk.c:400
     9a6:	06f0      	lsls	r0, r6, #27
     9a8:	d4f6      	bmi.n	998 <__vsnprintf+0x488>
/home/hsk/Desktop/devel/tee-tpm-hyp/optee_os/lib/libutils/ext/snprintk.c:402
     9aa:	0671      	lsls	r1, r6, #25
     9ac:	d5f4      	bpl.n	998 <__vsnprintf+0x488>
/home/hsk/Desktop/devel/tee-tpm-hyp/optee_os/lib/libutils/ext/snprintk.c:403
     9ae:	9a0c      	ldr	r2, [sp, #48]	; 0x30
     9b0:	801a      	strh	r2, [r3, #0]
     9b2:	e5be      	b.n	532 <__vsnprintf+0x22>
/home/hsk/Desktop/devel/tee-tpm-hyp/optee_os/lib/libutils/ext/snprintk.c:411
     9b4:	05f5      	lsls	r5, r6, #23
     9b6:	d503      	bpl.n	9c0 <__vsnprintf+0x4b0>
     9b8:	f103 0b04 	add.w	fp, r3, #4
     9bc:	681c      	ldr	r4, [r3, #0]
     9be:	e00b      	b.n	9d8 <__vsnprintf+0x4c8>
     9c0:	05b4      	lsls	r4, r6, #22
     9c2:	d4f9      	bmi.n	9b8 <__vsnprintf+0x4a8>
     9c4:	06b0      	lsls	r0, r6, #26
     9c6:	f53f ae43 	bmi.w	650 <__vsnprintf+0x140>
     9ca:	f103 0b04 	add.w	fp, r3, #4
     9ce:	06f1      	lsls	r1, r6, #27
     9d0:	d4f4      	bmi.n	9bc <__vsnprintf+0x4ac>
     9d2:	0672      	lsls	r2, r6, #25
     9d4:	d5f2      	bpl.n	9bc <__vsnprintf+0x4ac>
     9d6:	881c      	ldrh	r4, [r3, #0]
     9d8:	2500      	movs	r5, #0
     9da:	e640      	b.n	65e <__vsnprintf+0x14e>
     9dc:	469b      	mov	fp, r3
/home/hsk/Desktop/devel/tee-tpm-hyp/optee_os/lib/libutils/ext/snprintk.c:415
     9de:	9b13      	ldr	r3, [sp, #76]	; 0x4c
     9e0:	f85b 4b04 	ldr.w	r4, [fp], #4
     9e4:	2b00      	cmp	r3, #0
     9e6:	d02b      	beq.n	a40 <__vsnprintf+0x530>
     9e8:	9b0b      	ldr	r3, [sp, #44]	; 0x2c
     9ea:	781b      	ldrb	r3, [r3, #0]
     9ec:	2b55      	cmp	r3, #85	; 0x55
     9ee:	d127      	bne.n	a40 <__vsnprintf+0x530>
     9f0:	9b0b      	ldr	r3, [sp, #44]	; 0x2c
     9f2:	785b      	ldrb	r3, [r3, #1]
     9f4:	2b6c      	cmp	r3, #108	; 0x6c
     9f6:	d123      	bne.n	a40 <__vsnprintf+0x530>
/home/hsk/Desktop/devel/tee-tpm-hyp/optee_os/lib/libutils/ext/snprintk.c:420
     9f8:	9b0b      	ldr	r3, [sp, #44]	; 0x2c
uuid2str():
/home/hsk/Desktop/devel/tee-tpm-hyp/optee_os/lib/libutils/ext/snprintk.c:223
     9fa:	f10d 0a50 	add.w	sl, sp, #80	; 0x50
     9fe:	4a80      	ldr	r2, [pc, #512]	; (c00 <__vsnprintf+0x6f0>)
     a00:	2125      	movs	r1, #37	; 0x25
kprintf():
/home/hsk/Desktop/devel/tee-tpm-hyp/optee_os/lib/libutils/ext/snprintk.c:420
     a02:	3302      	adds	r3, #2
     a04:	930b      	str	r3, [sp, #44]	; 0x2c
uuid2str():
/home/hsk/Desktop/devel/tee-tpm-hyp/optee_os/lib/libutils/ext/snprintk.c:223
     a06:	7be3      	ldrb	r3, [r4, #15]
     a08:	447a      	add	r2, pc
     a0a:	9309      	str	r3, [sp, #36]	; 0x24
     a0c:	4650      	mov	r0, sl
     a0e:	7ba3      	ldrb	r3, [r4, #14]
     a10:	9308      	str	r3, [sp, #32]
     a12:	7b63      	ldrb	r3, [r4, #13]
     a14:	9307      	str	r3, [sp, #28]
     a16:	7b23      	ldrb	r3, [r4, #12]
     a18:	9306      	str	r3, [sp, #24]
     a1a:	7ae3      	ldrb	r3, [r4, #11]
     a1c:	9305      	str	r3, [sp, #20]
     a1e:	7aa3      	ldrb	r3, [r4, #10]
     a20:	9304      	str	r3, [sp, #16]
     a22:	7a63      	ldrb	r3, [r4, #9]
     a24:	9303      	str	r3, [sp, #12]
     a26:	7a23      	ldrb	r3, [r4, #8]
     a28:	9302      	str	r3, [sp, #8]
     a2a:	88e3      	ldrh	r3, [r4, #6]
     a2c:	9301      	str	r3, [sp, #4]
     a2e:	88a3      	ldrh	r3, [r4, #4]
     a30:	9300      	str	r3, [sp, #0]
     a32:	6823      	ldr	r3, [r4, #0]
     a34:	f000 f8f1 	bl	c1a <snprintk>
kprintf():
/home/hsk/Desktop/devel/tee-tpm-hyp/optee_os/lib/libutils/ext/snprintk.c:460
     a38:	900a      	str	r0, [sp, #40]	; 0x28
/home/hsk/Desktop/devel/tee-tpm-hyp/optee_os/lib/libutils/ext/snprintk.c:285
     a3a:	2000      	movs	r0, #0
/home/hsk/Desktop/devel/tee-tpm-hyp/optee_os/lib/libutils/ext/snprintk.c:461
     a3c:	4681      	mov	r9, r0
     a3e:	e725      	b.n	88c <__vsnprintf+0x37c>
/home/hsk/Desktop/devel/tee-tpm-hyp/optee_os/lib/libutils/ext/snprintk.c:437
     a40:	4b70      	ldr	r3, [pc, #448]	; (c04 <__vsnprintf+0x6f4>)
/home/hsk/Desktop/devel/tee-tpm-hyp/optee_os/lib/libutils/ext/snprintk.c:435
     a42:	2500      	movs	r5, #0
/home/hsk/Desktop/devel/tee-tpm-hyp/optee_os/lib/libutils/ext/snprintk.c:438
     a44:	f046 0602 	orr.w	r6, r6, #2
/home/hsk/Desktop/devel/tee-tpm-hyp/optee_os/lib/libutils/ext/snprintk.c:439
     a48:	f04f 0878 	mov.w	r8, #120	; 0x78
/home/hsk/Desktop/devel/tee-tpm-hyp/optee_os/lib/libutils/ext/snprintk.c:437
     a4c:	447b      	add	r3, pc
     a4e:	3311      	adds	r3, #17
     a50:	930f      	str	r3, [sp, #60]	; 0x3c
/home/hsk/Desktop/devel/tee-tpm-hyp/optee_os/lib/libutils/ext/snprintk.c:488
     a52:	9b0a      	ldr	r3, [sp, #40]	; 0x28
     a54:	3301      	adds	r3, #1
     a56:	f47f ae8c 	bne.w	772 <__vsnprintf+0x262>
     a5a:	f04f 0900 	mov.w	r9, #0
/home/hsk/Desktop/devel/tee-tpm-hyp/optee_os/lib/libutils/ext/snprintk.c:523
     a5e:	f10d 0a75 	add.w	sl, sp, #117	; 0x75
/home/hsk/Desktop/devel/tee-tpm-hyp/optee_os/lib/libutils/ext/snprintk.c:525
     a62:	f004 030f 	and.w	r3, r4, #15
     a66:	9a0f      	ldr	r2, [sp, #60]	; 0x3c
     a68:	5cd3      	ldrb	r3, [r2, r3]
/home/hsk/Desktop/devel/tee-tpm-hyp/optee_os/lib/libutils/ext/snprintk.c:526
     a6a:	092a      	lsrs	r2, r5, #4
/home/hsk/Desktop/devel/tee-tpm-hyp/optee_os/lib/libutils/ext/snprintk.c:525
     a6c:	f80a 3d01 	strb.w	r3, [sl, #-1]!
/home/hsk/Desktop/devel/tee-tpm-hyp/optee_os/lib/libutils/ext/snprintk.c:526
     a70:	0923      	lsrs	r3, r4, #4
     a72:	ea43 7305 	orr.w	r3, r3, r5, lsl #28
     a76:	4615      	mov	r5, r2
     a78:	461c      	mov	r4, r3
/home/hsk/Desktop/devel/tee-tpm-hyp/optee_os/lib/libutils/ext/snprintk.c:527
     a7a:	ea54 0305 	orrs.w	r3, r4, r5
     a7e:	d1f0      	bne.n	a62 <__vsnprintf+0x552>
     a80:	e6a7      	b.n	7d2 <__vsnprintf+0x2c2>
/home/hsk/Desktop/devel/tee-tpm-hyp/optee_os/lib/libutils/ext/snprintk.c:460
     a82:	4650      	mov	r0, sl
     a84:	f005 fc9d 	bl	63c2 <strlen>
     a88:	e7d6      	b.n	a38 <__vsnprintf+0x528>
/home/hsk/Desktop/devel/tee-tpm-hyp/optee_os/lib/libutils/ext/snprintk.c:464
     a8a:	f046 0610 	orr.w	r6, r6, #16
     a8e:	e647      	b.n	720 <__vsnprintf+0x210>
/home/hsk/Desktop/devel/tee-tpm-hyp/optee_os/lib/libutils/ext/snprintk.c:467
     a90:	f416 7980 	ands.w	r9, r6, #256	; 0x100
     a94:	d004      	beq.n	aa0 <__vsnprintf+0x590>
     a96:	681c      	ldr	r4, [r3, #0]
     a98:	f103 0b04 	add.w	fp, r3, #4
     a9c:	2500      	movs	r5, #0
     a9e:	e64a      	b.n	736 <__vsnprintf+0x226>
     aa0:	f416 7200 	ands.w	r2, r6, #512	; 0x200
     aa4:	d004      	beq.n	ab0 <__vsnprintf+0x5a0>
     aa6:	f103 0b04 	add.w	fp, r3, #4
     aaa:	681c      	ldr	r4, [r3, #0]
     aac:	2500      	movs	r5, #0
     aae:	e749      	b.n	944 <__vsnprintf+0x434>
     ab0:	f016 0920 	ands.w	r9, r6, #32
     ab4:	f47f ae38 	bne.w	728 <__vsnprintf+0x218>
     ab8:	f103 0b04 	add.w	fp, r3, #4
     abc:	f016 0210 	ands.w	r2, r6, #16
     ac0:	d1f3      	bne.n	aaa <__vsnprintf+0x59a>
     ac2:	f016 0940 	ands.w	r9, r6, #64	; 0x40
     ac6:	d0f0      	beq.n	aaa <__vsnprintf+0x59a>
     ac8:	881c      	ldrh	r4, [r3, #0]
     aca:	e7e7      	b.n	a9c <__vsnprintf+0x58c>
/home/hsk/Desktop/devel/tee-tpm-hyp/optee_os/lib/libutils/ext/snprintk.c:474
     acc:	4a4e      	ldr	r2, [pc, #312]	; (c08 <__vsnprintf+0x6f8>)
     ace:	447a      	add	r2, pc
     ad0:	3211      	adds	r2, #17
     ad2:	e636      	b.n	742 <__vsnprintf+0x232>
/home/hsk/Desktop/devel/tee-tpm-hyp/optee_os/lib/libutils/ext/snprintk.c:475
     ad4:	05f0      	lsls	r0, r6, #23
     ad6:	d503      	bpl.n	ae0 <__vsnprintf+0x5d0>
     ad8:	f103 0b04 	add.w	fp, r3, #4
     adc:	681c      	ldr	r4, [r3, #0]
     ade:	e00b      	b.n	af8 <__vsnprintf+0x5e8>
     ae0:	05b1      	lsls	r1, r6, #22
     ae2:	d4f9      	bmi.n	ad8 <__vsnprintf+0x5c8>
     ae4:	06b2      	lsls	r2, r6, #26
     ae6:	f53f ae30 	bmi.w	74a <__vsnprintf+0x23a>
     aea:	f103 0b04 	add.w	fp, r3, #4
     aee:	06f5      	lsls	r5, r6, #27
     af0:	d4f4      	bmi.n	adc <__vsnprintf+0x5cc>
     af2:	0674      	lsls	r4, r6, #25
     af4:	d5f2      	bpl.n	adc <__vsnprintf+0x5cc>
     af6:	881c      	ldrh	r4, [r3, #0]
     af8:	2500      	movs	r5, #0
     afa:	e62d      	b.n	758 <__vsnprintf+0x248>
/home/hsk/Desktop/devel/tee-tpm-hyp/optee_os/lib/libutils/ext/snprintk.c:488
     afc:	2301      	movs	r3, #1
     afe:	e63b      	b.n	778 <__vsnprintf+0x268>
/home/hsk/Desktop/devel/tee-tpm-hyp/optee_os/lib/libutils/ext/snprintk.c:508
     b00:	4653      	mov	r3, sl
     b02:	e64c      	b.n	79e <__vsnprintf+0x28e>
/home/hsk/Desktop/devel/tee-tpm-hyp/optee_os/lib/libutils/ext/snprintk.c:517
     b04:	4620      	mov	r0, r4
     b06:	4629      	mov	r1, r5
     b08:	220a      	movs	r2, #10
     b0a:	2300      	movs	r3, #0
     b0c:	f000 e89e 	blx	c4c <__aeabi_uldivmod>
     b10:	9b11      	ldr	r3, [sp, #68]	; 0x44
     b12:	3230      	adds	r2, #48	; 0x30
/home/hsk/Desktop/devel/tee-tpm-hyp/optee_os/lib/libutils/ext/snprintk.c:518
     b14:	4620      	mov	r0, r4
     b16:	4629      	mov	r1, r5
/home/hsk/Desktop/devel/tee-tpm-hyp/optee_os/lib/libutils/ext/snprintk.c:517
     b18:	f803 2c01 	strb.w	r2, [r3, #-1]
/home/hsk/Desktop/devel/tee-tpm-hyp/optee_os/lib/libutils/ext/snprintk.c:518
     b1c:	220a      	movs	r2, #10
     b1e:	2300      	movs	r3, #0
     b20:	f000 e894 	blx	c4c <__aeabi_uldivmod>
     b24:	4604      	mov	r4, r0
     b26:	460d      	mov	r5, r1
     b28:	f8cd a044 	str.w	sl, [sp, #68]	; 0x44
     b2c:	9b11      	ldr	r3, [sp, #68]	; 0x44
/home/hsk/Desktop/devel/tee-tpm-hyp/optee_os/lib/libutils/ext/snprintk.c:516
     b2e:	2d00      	cmp	r5, #0
     b30:	bf08      	it	eq
     b32:	2c0a      	cmpeq	r4, #10
     b34:	f103 3aff 	add.w	sl, r3, #4294967295	; 0xffffffff
     b38:	d2e4      	bcs.n	b04 <__vsnprintf+0x5f4>
/home/hsk/Desktop/devel/tee-tpm-hyp/optee_os/lib/libutils/ext/snprintk.c:520
     b3a:	3430      	adds	r4, #48	; 0x30
     b3c:	f803 4c01 	strb.w	r4, [r3, #-1]
     b40:	e647      	b.n	7d2 <__vsnprintf+0x2c2>
/home/hsk/Desktop/devel/tee-tpm-hyp/optee_os/lib/libutils/ext/snprintk.c:496
     b42:	f10d 0a75 	add.w	sl, sp, #117	; 0x75
     b46:	e644      	b.n	7d2 <__vsnprintf+0x2c2>
/home/hsk/Desktop/devel/tee-tpm-hyp/optee_os/lib/libutils/ext/snprintk.c:568
     b48:	07b5      	lsls	r5, r6, #30
/home/hsk/Desktop/devel/tee-tpm-hyp/optee_os/lib/libutils/ext/snprintk.c:569
     b4a:	bf48      	it	mi
     b4c:	3302      	addmi	r3, #2
     b4e:	e6a6      	b.n	89e <__vsnprintf+0x38e>
/home/hsk/Desktop/devel/tee-tpm-hyp/optee_os/lib/libutils/ext/snprintk.c:578
     b50:	b127      	cbz	r7, b5c <__vsnprintf+0x64c>
     b52:	9d0e      	ldr	r5, [sp, #56]	; 0x38
     b54:	42bd      	cmp	r5, r7
     b56:	d901      	bls.n	b5c <__vsnprintf+0x64c>
     b58:	703c      	strb	r4, [r7, #0]
     b5a:	3701      	adds	r7, #1
     b5c:	3a01      	subs	r2, #1
     b5e:	e6ad      	b.n	8bc <__vsnprintf+0x3ac>
/home/hsk/Desktop/devel/tee-tpm-hyp/optee_os/lib/libutils/ext/snprintk.c:583
     b60:	9a0e      	ldr	r2, [sp, #56]	; 0x38
     b62:	42ba      	cmp	r2, r7
     b64:	f67f aeb5 	bls.w	8d2 <__vsnprintf+0x3c2>
     b68:	f887 9000 	strb.w	r9, [r7]
     b6c:	3701      	adds	r7, #1
     b6e:	e6b0      	b.n	8d2 <__vsnprintf+0x3c2>
/home/hsk/Desktop/devel/tee-tpm-hyp/optee_os/lib/libutils/ext/snprintk.c:584
     b70:	07b4      	lsls	r4, r6, #30
     b72:	f57f aeae 	bpl.w	8d2 <__vsnprintf+0x3c2>
/home/hsk/Desktop/devel/tee-tpm-hyp/optee_os/lib/libutils/ext/snprintk.c:585
     b76:	2f00      	cmp	r7, #0
     b78:	f43f aeaa 	beq.w	8d0 <__vsnprintf+0x3c0>
     b7c:	9a0e      	ldr	r2, [sp, #56]	; 0x38
     b7e:	42ba      	cmp	r2, r7
     b80:	f67f aea7 	bls.w	8d2 <__vsnprintf+0x3c2>
     b84:	2230      	movs	r2, #48	; 0x30
     b86:	703a      	strb	r2, [r7, #0]
/home/hsk/Desktop/devel/tee-tpm-hyp/optee_os/lib/libutils/ext/snprintk.c:586
     b88:	1c7a      	adds	r2, r7, #1
     b8a:	f43f aea1 	beq.w	8d0 <__vsnprintf+0x3c0>
     b8e:	9c0e      	ldr	r4, [sp, #56]	; 0x38
     b90:	4294      	cmp	r4, r2
     b92:	d903      	bls.n	b9c <__vsnprintf+0x68c>
     b94:	f887 8001 	strb.w	r8, [r7, #1]
     b98:	3702      	adds	r7, #2
     b9a:	e69a      	b.n	8d2 <__vsnprintf+0x3c2>
     b9c:	4617      	mov	r7, r2
     b9e:	e698      	b.n	8d2 <__vsnprintf+0x3c2>
/home/hsk/Desktop/devel/tee-tpm-hyp/optee_os/lib/libutils/ext/snprintk.c:593
     ba0:	b127      	cbz	r7, bac <__vsnprintf+0x69c>
     ba2:	9c0e      	ldr	r4, [sp, #56]	; 0x38
     ba4:	42bc      	cmp	r4, r7
     ba6:	d901      	bls.n	bac <__vsnprintf+0x69c>
     ba8:	7039      	strb	r1, [r7, #0]
     baa:	3701      	adds	r7, #1
     bac:	3a01      	subs	r2, #1
     bae:	e696      	b.n	8de <__vsnprintf+0x3ce>
/home/hsk/Desktop/devel/tee-tpm-hyp/optee_os/lib/libutils/ext/snprintk.c:599
     bb0:	b127      	cbz	r7, bbc <__vsnprintf+0x6ac>
     bb2:	990e      	ldr	r1, [sp, #56]	; 0x38
     bb4:	42b9      	cmp	r1, r7
     bb6:	d901      	bls.n	bbc <__vsnprintf+0x6ac>
     bb8:	703a      	strb	r2, [r7, #0]
     bba:	3701      	adds	r7, #1
     bbc:	3801      	subs	r0, #1
     bbe:	e694      	b.n	8ea <__vsnprintf+0x3da>
/home/hsk/Desktop/devel/tee-tpm-hyp/optee_os/lib/libutils/ext/snprintk.c:603
     bc0:	b13f      	cbz	r7, bd2 <__vsnprintf+0x6c2>
     bc2:	990e      	ldr	r1, [sp, #56]	; 0x38
     bc4:	42b9      	cmp	r1, r7
     bc6:	d904      	bls.n	bd2 <__vsnprintf+0x6c2>
     bc8:	f81a 1002 	ldrb.w	r1, [sl, r2]
     bcc:	3701      	adds	r7, #1
     bce:	f807 1c01 	strb.w	r1, [r7, #-1]
     bd2:	3201      	adds	r2, #1
     bd4:	e68d      	b.n	8f2 <__vsnprintf+0x3e2>
__vsnprintf():
/home/hsk/Desktop/devel/tee-tpm-hyp/optee_os/lib/libutils/ext/snprintk.c:148
     bd6:	990c      	ldr	r1, [sp, #48]	; 0x30
     bd8:	5453      	strb	r3, [r2, r1]
/home/hsk/Desktop/devel/tee-tpm-hyp/optee_os/lib/libutils/ext/snprintk.c:150
     bda:	e4bf      	b.n	55c <__vsnprintf+0x4c>
kprintf():
/home/hsk/Desktop/devel/tee-tpm-hyp/optee_os/lib/libutils/ext/snprintk.c:489
     bdc:	f426 6680 	bic.w	r6, r6, #1024	; 0x400
/home/hsk/Desktop/devel/tee-tpm-hyp/optee_os/lib/libutils/ext/snprintk.c:482
     be0:	f04f 0900 	mov.w	r9, #0
/home/hsk/Desktop/devel/tee-tpm-hyp/optee_os/lib/libutils/ext/snprintk.c:476
     be4:	2302      	movs	r3, #2
     be6:	e5cc      	b.n	782 <__vsnprintf+0x272>
/home/hsk/Desktop/devel/tee-tpm-hyp/optee_os/lib/libutils/ext/snprintk.c:488
     be8:	9b0a      	ldr	r3, [sp, #40]	; 0x28
     bea:	3301      	adds	r3, #1
     bec:	d1f6      	bne.n	bdc <__vsnprintf+0x6cc>
     bee:	f04f 33ff 	mov.w	r3, #4294967295	; 0xffffffff
     bf2:	930a      	str	r3, [sp, #40]	; 0x28
     bf4:	e731      	b.n	a5a <__vsnprintf+0x54a>
     bf6:	bf00      	nop
     bf8:	000064cf 	.word	0x000064cf
     bfc:	0000644b 	.word	0x0000644b
     c00:	000061ac 	.word	0x000061ac
     c04:	0000613f 	.word	0x0000613f
     c08:	000060bd 	.word	0x000060bd

00000c0c <vsnprintk>:
vsnprintk():
/home/hsk/Desktop/devel/tee-tpm-hyp/optee_os/lib/libutils/ext/snprintk.c:129
     c0c:	b513      	push	{r0, r1, r4, lr}
/home/hsk/Desktop/devel/tee-tpm-hyp/optee_os/lib/libutils/ext/snprintk.c:130
     c0e:	2401      	movs	r4, #1
     c10:	9400      	str	r4, [sp, #0]
     c12:	f7ff fc7d 	bl	510 <__vsnprintf>
/home/hsk/Desktop/devel/tee-tpm-hyp/optee_os/lib/libutils/ext/snprintk.c:131
     c16:	b002      	add	sp, #8
     c18:	bd10      	pop	{r4, pc}

00000c1a <snprintk>:
snprintk():
/home/hsk/Desktop/devel/tee-tpm-hyp/optee_os/lib/libutils/ext/snprintk.c:112
     c1a:	b40c      	push	{r2, r3}
     c1c:	b507      	push	{r0, r1, r2, lr}
     c1e:	ab04      	add	r3, sp, #16
     c20:	f853 2b04 	ldr.w	r2, [r3], #4
/home/hsk/Desktop/devel/tee-tpm-hyp/optee_os/lib/libutils/ext/snprintk.c:116
     c24:	9301      	str	r3, [sp, #4]
/home/hsk/Desktop/devel/tee-tpm-hyp/optee_os/lib/libutils/ext/snprintk.c:117
     c26:	f7ff fff1 	bl	c0c <vsnprintk>
/home/hsk/Desktop/devel/tee-tpm-hyp/optee_os/lib/libutils/ext/snprintk.c:121
     c2a:	b003      	add	sp, #12
     c2c:	f85d eb04 	ldr.w	lr, [sp], #4
     c30:	b002      	add	sp, #8
     c32:	4770      	bx	lr

00000c34 <__aeabi_ldivmod>:
__aeabi_ldivmod():
/home/hsk/Desktop/devel/tee-tpm-hyp/optee_os/lib/libutils/isoc/arch/arm/arm32_aeabi_ldivmod_a32.S:24
     c34:	e92d5000 	push	{ip, lr}
/home/hsk/Desktop/devel/tee-tpm-hyp/optee_os/lib/libutils/isoc/arch/arm/arm32_aeabi_ldivmod_a32.S:26
     c38:	e92d000f 	push	{r0, r1, r2, r3}
/home/hsk/Desktop/devel/tee-tpm-hyp/optee_os/lib/libutils/isoc/arch/arm/arm32_aeabi_ldivmod_a32.S:28
     c3c:	e1a0000d 	mov	r0, sp
/home/hsk/Desktop/devel/tee-tpm-hyp/optee_os/lib/libutils/isoc/arch/arm/arm32_aeabi_ldivmod_a32.S:29
     c40:	fa001600 	blx	6448 <__l_divmod>
/home/hsk/Desktop/devel/tee-tpm-hyp/optee_os/lib/libutils/isoc/arch/arm/arm32_aeabi_ldivmod_a32.S:30
     c44:	e8bd000f 	pop	{r0, r1, r2, r3}
/home/hsk/Desktop/devel/tee-tpm-hyp/optee_os/lib/libutils/isoc/arch/arm/arm32_aeabi_ldivmod_a32.S:31
     c48:	e8bd9000 	pop	{ip, pc}

00000c4c <__aeabi_uldivmod>:
__aeabi_uldivmod():
/home/hsk/Desktop/devel/tee-tpm-hyp/optee_os/lib/libutils/isoc/arch/arm/arm32_aeabi_ldivmod_a32.S:42
     c4c:	e92d5000 	push	{ip, lr}
/home/hsk/Desktop/devel/tee-tpm-hyp/optee_os/lib/libutils/isoc/arch/arm/arm32_aeabi_ldivmod_a32.S:44
     c50:	e92d000f 	push	{r0, r1, r2, r3}
/home/hsk/Desktop/devel/tee-tpm-hyp/optee_os/lib/libutils/isoc/arch/arm/arm32_aeabi_ldivmod_a32.S:46
     c54:	e1a0000d 	mov	r0, sp
/home/hsk/Desktop/devel/tee-tpm-hyp/optee_os/lib/libutils/isoc/arch/arm/arm32_aeabi_ldivmod_a32.S:47
     c58:	fb0015dc 	blx	63d2 <__ul_divmod>
/home/hsk/Desktop/devel/tee-tpm-hyp/optee_os/lib/libutils/isoc/arch/arm/arm32_aeabi_ldivmod_a32.S:48
     c5c:	e8bd000f 	pop	{r0, r1, r2, r3}
/home/hsk/Desktop/devel/tee-tpm-hyp/optee_os/lib/libutils/isoc/arch/arm/arm32_aeabi_ldivmod_a32.S:49
     c60:	e8bd9000 	pop	{ip, pc}

00000c64 <trace_ext_puts>:
trace_ext_puts():
/home/hsk/Desktop/devel/tee-tpm-hyp/optee_os/lib/libutee/trace_ext.c:17
     c64:	b510      	push	{r4, lr}
     c66:	4604      	mov	r4, r0
/home/hsk/Desktop/devel/tee-tpm-hyp/optee_os/lib/libutee/trace_ext.c:18
     c68:	f005 fbab 	bl	63c2 <strlen>
     c6c:	4601      	mov	r1, r0
     c6e:	4620      	mov	r0, r4
/home/hsk/Desktop/devel/tee-tpm-hyp/optee_os/lib/libutee/trace_ext.c:19
     c70:	e8bd 4010 	ldmia.w	sp!, {r4, lr}
/home/hsk/Desktop/devel/tee-tpm-hyp/optee_os/lib/libutee/trace_ext.c:18
     c74:	f005 bcb0 	b.w	65d8 <__utee_log_from_thumb>

00000c78 <trace_ext_get_thread_id>:
trace_ext_get_thread_id():
/home/hsk/Desktop/devel/tee-tpm-hyp/optee_os/lib/libutee/trace_ext.c:24
     c78:	f04f 30ff 	mov.w	r0, #4294967295	; 0xffffffff
     c7c:	4770      	bx	lr

00000c7e <printf>:
printf():
/home/hsk/Desktop/devel/tee-tpm-hyp/optee_os/lib/libutee/trace_ext.c:32
     c7e:	b40f      	push	{r0, r1, r2, r3}
     c80:	b530      	push	{r4, r5, lr}
     c82:	b0c3      	sub	sp, #268	; 0x10c
/home/hsk/Desktop/devel/tee-tpm-hyp/optee_os/lib/libutee/trace_ext.c:37
     c84:	f7ff fb20 	bl	2c8 <trace_get_level>
     c88:	2800      	cmp	r0, #0
     c8a:	dd13      	ble.n	cb4 <printf+0x36>
/home/hsk/Desktop/devel/tee-tpm-hyp/optee_os/lib/libutee/trace_ext.c:41
     c8c:	ad02      	add	r5, sp, #8
/home/hsk/Desktop/devel/tee-tpm-hyp/optee_os/lib/libutee/trace_ext.c:40
     c8e:	ab47      	add	r3, sp, #284	; 0x11c
/home/hsk/Desktop/devel/tee-tpm-hyp/optee_os/lib/libutee/trace_ext.c:41
     c90:	9a46      	ldr	r2, [sp, #280]	; 0x118
     c92:	f44f 7180 	mov.w	r1, #256	; 0x100
     c96:	4628      	mov	r0, r5
/home/hsk/Desktop/devel/tee-tpm-hyp/optee_os/lib/libutee/trace_ext.c:40
     c98:	9301      	str	r3, [sp, #4]
/home/hsk/Desktop/devel/tee-tpm-hyp/optee_os/lib/libutee/trace_ext.c:41
     c9a:	f005 fc5a 	bl	6552 <vsnprintf>
/home/hsk/Desktop/devel/tee-tpm-hyp/optee_os/lib/libutee/trace_ext.c:44
     c9e:	1e04      	subs	r4, r0, #0
     ca0:	db02      	blt.n	ca8 <printf+0x2a>
/home/hsk/Desktop/devel/tee-tpm-hyp/optee_os/lib/libutee/trace_ext.c:47
     ca2:	4628      	mov	r0, r5
     ca4:	f7ff ffde 	bl	c64 <trace_ext_puts>
/home/hsk/Desktop/devel/tee-tpm-hyp/optee_os/lib/libutee/trace_ext.c:50
     ca8:	4620      	mov	r0, r4
     caa:	b043      	add	sp, #268	; 0x10c
     cac:	e8bd 4030 	ldmia.w	sp!, {r4, r5, lr}
     cb0:	b004      	add	sp, #16
     cb2:	4770      	bx	lr
/home/hsk/Desktop/devel/tee-tpm-hyp/optee_os/lib/libutee/trace_ext.c:38
     cb4:	2400      	movs	r4, #0
     cb6:	e7f7      	b.n	ca8 <printf+0x2a>

00000cb8 <puts>:
puts():
/home/hsk/Desktop/devel/tee-tpm-hyp/optee_os/lib/libutee/trace_ext.c:53
     cb8:	b510      	push	{r4, lr}
     cba:	4604      	mov	r4, r0
/home/hsk/Desktop/devel/tee-tpm-hyp/optee_os/lib/libutee/trace_ext.c:54
     cbc:	f7ff fb04 	bl	2c8 <trace_get_level>
     cc0:	2800      	cmp	r0, #0
     cc2:	dd06      	ble.n	cd2 <puts+0x1a>
/home/hsk/Desktop/devel/tee-tpm-hyp/optee_os/lib/libutee/trace_ext.c:55
     cc4:	4620      	mov	r0, r4
     cc6:	f7ff ffcd 	bl	c64 <trace_ext_puts>
/home/hsk/Desktop/devel/tee-tpm-hyp/optee_os/lib/libutee/trace_ext.c:56
     cca:	4803      	ldr	r0, [pc, #12]	; (cd8 <puts+0x20>)
     ccc:	4478      	add	r0, pc
     cce:	f7ff ffc9 	bl	c64 <trace_ext_puts>
/home/hsk/Desktop/devel/tee-tpm-hyp/optee_os/lib/libutee/trace_ext.c:59
     cd2:	2001      	movs	r0, #1
     cd4:	bd10      	pop	{r4, pc}
     cd6:	bf00      	nop
     cd8:	000065aa 	.word	0x000065aa

00000cdc <putchar>:
putchar():
/home/hsk/Desktop/devel/tee-tpm-hyp/optee_os/lib/libutee/trace_ext.c:62
     cdc:	b513      	push	{r0, r1, r4, lr}
/home/hsk/Desktop/devel/tee-tpm-hyp/optee_os/lib/libutee/trace_ext.c:63
     cde:	2300      	movs	r3, #0
/home/hsk/Desktop/devel/tee-tpm-hyp/optee_os/lib/libutee/trace_ext.c:62
     ce0:	4604      	mov	r4, r0
/home/hsk/Desktop/devel/tee-tpm-hyp/optee_os/lib/libutee/trace_ext.c:63
     ce2:	f88d 0004 	strb.w	r0, [sp, #4]
     ce6:	f88d 3005 	strb.w	r3, [sp, #5]
/home/hsk/Desktop/devel/tee-tpm-hyp/optee_os/lib/libutee/trace_ext.c:65
     cea:	f7ff faed 	bl	2c8 <trace_get_level>
     cee:	2800      	cmp	r0, #0
     cf0:	dd02      	ble.n	cf8 <putchar+0x1c>
/home/hsk/Desktop/devel/tee-tpm-hyp/optee_os/lib/libutee/trace_ext.c:66
     cf2:	a801      	add	r0, sp, #4
     cf4:	f7ff ffb6 	bl	c64 <trace_ext_puts>
/home/hsk/Desktop/devel/tee-tpm-hyp/optee_os/lib/libutee/trace_ext.c:73
     cf8:	b2e0      	uxtb	r0, r4
     cfa:	b002      	add	sp, #8
     cfc:	bd10      	pop	{r4, pc}
     cfe:	bf00      	nop

00000d00 <__utee_from_param>:
__utee_from_param():
/home/hsk/Desktop/devel/tee-tpm-hyp/optee_os/lib/libutee/tee_api.c:23
     d00:	2300      	movs	r3, #0
/home/hsk/Desktop/devel/tee-tpm-hyp/optee_os/lib/libutee/tee_api.c:20
     d02:	b5f0      	push	{r4, r5, r6, r7, lr}
/home/hsk/Desktop/devel/tee-tpm-hyp/optee_os/lib/libutee/tee_api.c:39
     d04:	2600      	movs	r6, #0
     d06:	2700      	movs	r7, #0
/home/hsk/Desktop/devel/tee-tpm-hyp/optee_os/lib/libutee/tee_api.c:35
     d08:	461d      	mov	r5, r3
/home/hsk/Desktop/devel/tee-tpm-hyp/optee_os/lib/libutee/tee_api.c:23
     d0a:	e9c0 1300 	strd	r1, r3, [r0]
/home/hsk/Desktop/devel/tee-tpm-hyp/optee_os/lib/libutee/tee_api.c:25
     d0e:	fa21 f403 	lsr.w	r4, r1, r3
     d12:	f004 040f 	and.w	r4, r4, #15
     d16:	3c01      	subs	r4, #1
     d18:	2c06      	cmp	r4, #6
     d1a:	d813      	bhi.n	d44 <__utee_from_param+0x44>
     d1c:	e8df f004 	tbb	[pc, r4]
     d20:	12040404 	.word	0x12040404
     d24:	0404      	.short	0x0404
     d26:	04          	.byte	0x04
     d27:	00          	.byte	0x00
/home/hsk/Desktop/devel/tee-tpm-hyp/optee_os/lib/libutee/tee_api.c:35
     d28:	f852 4013 	ldr.w	r4, [r2, r3, lsl #1]
     d2c:	e9c0 4502 	strd	r4, r5, [r0, #8]
/home/hsk/Desktop/devel/tee-tpm-hyp/optee_os/lib/libutee/tee_api.c:36
     d30:	eb02 0443 	add.w	r4, r2, r3, lsl #1
     d34:	6864      	ldr	r4, [r4, #4]
     d36:	e9c0 4504 	strd	r4, r5, [r0, #16]
     d3a:	3304      	adds	r3, #4
     d3c:	3010      	adds	r0, #16
/home/hsk/Desktop/devel/tee-tpm-hyp/optee_os/lib/libutee/tee_api.c:24 (discriminator 2)
     d3e:	2b10      	cmp	r3, #16
     d40:	d1e5      	bne.n	d0e <__utee_from_param+0xe>
/home/hsk/Desktop/devel/tee-tpm-hyp/optee_os/lib/libutee/tee_api.c:44
     d42:	bdf0      	pop	{r4, r5, r6, r7, pc}
/home/hsk/Desktop/devel/tee-tpm-hyp/optee_os/lib/libutee/tee_api.c:39
     d44:	e9c0 6702 	strd	r6, r7, [r0, #8]
/home/hsk/Desktop/devel/tee-tpm-hyp/optee_os/lib/libutee/tee_api.c:40
     d48:	e9c0 6704 	strd	r6, r7, [r0, #16]
/home/hsk/Desktop/devel/tee-tpm-hyp/optee_os/lib/libutee/tee_api.c:41
     d4c:	e7f5      	b.n	d3a <__utee_from_param+0x3a>

00000d4e <__utee_to_param>:
__utee_to_param():
/home/hsk/Desktop/devel/tee-tpm-hyp/optee_os/lib/libutee/tee_api.c:48
     d4e:	b5f0      	push	{r4, r5, r6, r7, lr}
/home/hsk/Desktop/devel/tee-tpm-hyp/optee_os/lib/libutee/tee_api.c:50
     d50:	2300      	movs	r3, #0
     d52:	6815      	ldr	r5, [r2, #0]
/home/hsk/Desktop/devel/tee-tpm-hyp/optee_os/lib/libutee/tee_api.c:56
     d54:	fa25 f403 	lsr.w	r4, r5, r3
/home/hsk/Desktop/devel/tee-tpm-hyp/optee_os/lib/libutee/tee_api.c:53
     d58:	6897      	ldr	r7, [r2, #8]
/home/hsk/Desktop/devel/tee-tpm-hyp/optee_os/lib/libutee/tee_api.c:56
     d5a:	f004 040f 	and.w	r4, r4, #15
/home/hsk/Desktop/devel/tee-tpm-hyp/optee_os/lib/libutee/tee_api.c:54
     d5e:	6916      	ldr	r6, [r2, #16]
/home/hsk/Desktop/devel/tee-tpm-hyp/optee_os/lib/libutee/tee_api.c:56
     d60:	3c01      	subs	r4, #1
     d62:	2c06      	cmp	r4, #6
     d64:	d80a      	bhi.n	d7c <__utee_to_param+0x2e>
     d66:	e8df f004 	tbb	[pc, r4]
     d6a:	0404      	.short	0x0404
     d6c:	04040904 	.word	0x04040904
     d70:	04          	.byte	0x04
     d71:	00          	.byte	0x00
/home/hsk/Desktop/devel/tee-tpm-hyp/optee_os/lib/libutee/tee_api.c:67
     d72:	eb00 0443 	add.w	r4, r0, r3, lsl #1
/home/hsk/Desktop/devel/tee-tpm-hyp/optee_os/lib/libutee/tee_api.c:66
     d76:	f840 7013 	str.w	r7, [r0, r3, lsl #1]
/home/hsk/Desktop/devel/tee-tpm-hyp/optee_os/lib/libutee/tee_api.c:67
     d7a:	6066      	str	r6, [r4, #4]
     d7c:	3304      	adds	r3, #4
     d7e:	3210      	adds	r2, #16
/home/hsk/Desktop/devel/tee-tpm-hyp/optee_os/lib/libutee/tee_api.c:52 (discriminator 2)
     d80:	2b10      	cmp	r3, #16
     d82:	d1e7      	bne.n	d54 <__utee_to_param+0x6>
/home/hsk/Desktop/devel/tee-tpm-hyp/optee_os/lib/libutee/tee_api.c:74
     d84:	b101      	cbz	r1, d88 <__utee_to_param+0x3a>
/home/hsk/Desktop/devel/tee-tpm-hyp/optee_os/lib/libutee/tee_api.c:75
     d86:	600d      	str	r5, [r1, #0]
/home/hsk/Desktop/devel/tee-tpm-hyp/optee_os/lib/libutee/tee_api.c:76
     d88:	bdf0      	pop	{r4, r5, r6, r7, pc}

00000d8a <TEE_OpenTASession>:
TEE_OpenTASession():
/home/hsk/Desktop/devel/tee-tpm-hyp/optee_os/lib/libutee/tee_api.c:84
     d8a:	b5f0      	push	{r4, r5, r6, r7, lr}
     d8c:	4605      	mov	r5, r0
     d8e:	460f      	mov	r7, r1
     d90:	b097      	sub	sp, #92	; 0x5c
     d92:	4611      	mov	r1, r2
/home/hsk/Desktop/devel/tee-tpm-hyp/optee_os/lib/libutee/tee_api.c:89
     d94:	ac04      	add	r4, sp, #16
     d96:	461a      	mov	r2, r3
     d98:	4620      	mov	r0, r4
/home/hsk/Desktop/devel/tee-tpm-hyp/optee_os/lib/libutee/tee_api.c:84
     d9a:	461e      	mov	r6, r3
/home/hsk/Desktop/devel/tee-tpm-hyp/optee_os/lib/libutee/tee_api.c:89
     d9c:	f7ff ffb0 	bl	d00 <__utee_from_param>
/home/hsk/Desktop/devel/tee-tpm-hyp/optee_os/lib/libutee/tee_api.c:90
     da0:	9b1d      	ldr	r3, [sp, #116]	; 0x74
     da2:	9300      	str	r3, [sp, #0]
     da4:	4622      	mov	r2, r4
     da6:	4639      	mov	r1, r7
     da8:	4628      	mov	r0, r5
     daa:	ab03      	add	r3, sp, #12
     dac:	f000 ee36 	blx	1a1c <utee_open_ta_session>
/home/hsk/Desktop/devel/tee-tpm-hyp/optee_os/lib/libutee/tee_api.c:92
     db0:	4622      	mov	r2, r4
/home/hsk/Desktop/devel/tee-tpm-hyp/optee_os/lib/libutee/tee_api.c:90
     db2:	4605      	mov	r5, r0
/home/hsk/Desktop/devel/tee-tpm-hyp/optee_os/lib/libutee/tee_api.c:92
     db4:	2100      	movs	r1, #0
     db6:	4630      	mov	r0, r6
     db8:	f7ff ffc9 	bl	d4e <__utee_to_param>
/home/hsk/Desktop/devel/tee-tpm-hyp/optee_os/lib/libutee/tee_api.c:98
     dbc:	b10d      	cbz	r5, dc2 <TEE_OpenTASession+0x38>
/home/hsk/Desktop/devel/tee-tpm-hyp/optee_os/lib/libutee/tee_api.c:99
     dbe:	2300      	movs	r3, #0
     dc0:	9303      	str	r3, [sp, #12]
/home/hsk/Desktop/devel/tee-tpm-hyp/optee_os/lib/libutee/tee_api.c:101
     dc2:	9b1c      	ldr	r3, [sp, #112]	; 0x70
/home/hsk/Desktop/devel/tee-tpm-hyp/optee_os/lib/libutee/tee_api.c:103
     dc4:	4628      	mov	r0, r5
/home/hsk/Desktop/devel/tee-tpm-hyp/optee_os/lib/libutee/tee_api.c:101
     dc6:	9a03      	ldr	r2, [sp, #12]
     dc8:	601a      	str	r2, [r3, #0]
/home/hsk/Desktop/devel/tee-tpm-hyp/optee_os/lib/libutee/tee_api.c:103
     dca:	b017      	add	sp, #92	; 0x5c
     dcc:	bdf0      	pop	{r4, r5, r6, r7, pc}

00000dce <TEE_CloseTASession>:
TEE_CloseTASession():
/home/hsk/Desktop/devel/tee-tpm-hyp/optee_os/lib/libutee/tee_api.c:106
     dce:	b508      	push	{r3, lr}
/home/hsk/Desktop/devel/tee-tpm-hyp/optee_os/lib/libutee/tee_api.c:107
     dd0:	b130      	cbz	r0, de0 <TEE_CloseTASession+0x12>
/home/hsk/Desktop/devel/tee-tpm-hyp/optee_os/lib/libutee/tee_api.c:108
     dd2:	f000 ee30 	blx	1a34 <utee_close_ta_session>
/home/hsk/Desktop/devel/tee-tpm-hyp/optee_os/lib/libutee/tee_api.c:110
     dd6:	b118      	cbz	r0, de0 <TEE_CloseTASession+0x12>
/home/hsk/Desktop/devel/tee-tpm-hyp/optee_os/lib/libutee/tee_api.c:113
     dd8:	e8bd 4008 	ldmia.w	sp!, {r3, lr}
/home/hsk/Desktop/devel/tee-tpm-hyp/optee_os/lib/libutee/tee_api.c:111
     ddc:	f005 bba8 	b.w	6530 <TEE_Panic>
/home/hsk/Desktop/devel/tee-tpm-hyp/optee_os/lib/libutee/tee_api.c:113
     de0:	bd08      	pop	{r3, pc}

00000de2 <TEE_InvokeTACommand>:
TEE_InvokeTACommand():
/home/hsk/Desktop/devel/tee-tpm-hyp/optee_os/lib/libutee/tee_api.c:120
     de2:	e92d 41f0 	stmdb	sp!, {r4, r5, r6, r7, r8, lr}
     de6:	4604      	mov	r4, r0
     de8:	460f      	mov	r7, r1
     dea:	b096      	sub	sp, #88	; 0x58
/home/hsk/Desktop/devel/tee-tpm-hyp/optee_os/lib/libutee/tee_api.c:125
     dec:	4619      	mov	r1, r3
     dee:	ad04      	add	r5, sp, #16
/home/hsk/Desktop/devel/tee-tpm-hyp/optee_os/lib/libutee/tee_api.c:120
     df0:	4690      	mov	r8, r2
/home/hsk/Desktop/devel/tee-tpm-hyp/optee_os/lib/libutee/tee_api.c:125
     df2:	4628      	mov	r0, r5
/home/hsk/Desktop/devel/tee-tpm-hyp/optee_os/lib/libutee/tee_api.c:120
     df4:	9e1d      	ldr	r6, [sp, #116]	; 0x74
/home/hsk/Desktop/devel/tee-tpm-hyp/optee_os/lib/libutee/tee_api.c:125
     df6:	9a1c      	ldr	r2, [sp, #112]	; 0x70
     df8:	f7ff ff82 	bl	d00 <__utee_from_param>
/home/hsk/Desktop/devel/tee-tpm-hyp/optee_os/lib/libutee/tee_api.c:126
     dfc:	ab03      	add	r3, sp, #12
     dfe:	4642      	mov	r2, r8
     e00:	9300      	str	r3, [sp, #0]
     e02:	4639      	mov	r1, r7
     e04:	462b      	mov	r3, r5
     e06:	4620      	mov	r0, r4
     e08:	f000 ee1e 	blx	1a48 <utee_invoke_ta_command>
/home/hsk/Desktop/devel/tee-tpm-hyp/optee_os/lib/libutee/tee_api.c:129
     e0c:	462a      	mov	r2, r5
/home/hsk/Desktop/devel/tee-tpm-hyp/optee_os/lib/libutee/tee_api.c:126
     e0e:	4604      	mov	r4, r0
/home/hsk/Desktop/devel/tee-tpm-hyp/optee_os/lib/libutee/tee_api.c:129
     e10:	2100      	movs	r1, #0
     e12:	981c      	ldr	r0, [sp, #112]	; 0x70
     e14:	f7ff ff9b 	bl	d4e <__utee_to_param>
     e18:	9b03      	ldr	r3, [sp, #12]
/home/hsk/Desktop/devel/tee-tpm-hyp/optee_os/lib/libutee/tee_api.c:131
     e1a:	b106      	cbz	r6, e1e <TEE_InvokeTACommand+0x3c>
/home/hsk/Desktop/devel/tee-tpm-hyp/optee_os/lib/libutee/tee_api.c:132
     e1c:	6033      	str	r3, [r6, #0]
/home/hsk/Desktop/devel/tee-tpm-hyp/optee_os/lib/libutee/tee_api.c:134
     e1e:	2b04      	cmp	r3, #4
     e20:	d009      	beq.n	e36 <TEE_InvokeTACommand+0x54>
/home/hsk/Desktop/devel/tee-tpm-hyp/optee_os/lib/libutee/tee_api.c:137
     e22:	b144      	cbz	r4, e36 <TEE_InvokeTACommand+0x54>
/home/hsk/Desktop/devel/tee-tpm-hyp/optee_os/lib/libutee/tee_api.c:137 (discriminator 1)
     e24:	4b06      	ldr	r3, [pc, #24]	; (e40 <TEE_InvokeTACommand+0x5e>)
     e26:	429c      	cmp	r4, r3
     e28:	d005      	beq.n	e36 <TEE_InvokeTACommand+0x54>
/home/hsk/Desktop/devel/tee-tpm-hyp/optee_os/lib/libutee/tee_api.c:138
     e2a:	4b06      	ldr	r3, [pc, #24]	; (e44 <TEE_InvokeTACommand+0x62>)
     e2c:	429c      	cmp	r4, r3
     e2e:	d002      	beq.n	e36 <TEE_InvokeTACommand+0x54>
/home/hsk/Desktop/devel/tee-tpm-hyp/optee_os/lib/libutee/tee_api.c:140
     e30:	4620      	mov	r0, r4
     e32:	f005 fb7d 	bl	6530 <TEE_Panic>
/home/hsk/Desktop/devel/tee-tpm-hyp/optee_os/lib/libutee/tee_api.c:143
     e36:	4620      	mov	r0, r4
     e38:	b016      	add	sp, #88	; 0x58
     e3a:	e8bd 81f0 	ldmia.w	sp!, {r4, r5, r6, r7, r8, pc}
     e3e:	bf00      	nop
     e40:	ffff000c 	.word	0xffff000c
     e44:	ffff3024 	.word	0xffff3024

00000e48 <TEE_GetCancellationFlag>:
TEE_GetCancellationFlag():
/home/hsk/Desktop/devel/tee-tpm-hyp/optee_os/lib/libutee/tee_api.c:148
     e48:	b507      	push	{r0, r1, r2, lr}
/home/hsk/Desktop/devel/tee-tpm-hyp/optee_os/lib/libutee/tee_api.c:150
     e4a:	a801      	add	r0, sp, #4
     e4c:	f000 ee08 	blx	1a60 <utee_get_cancellation_flag>
/home/hsk/Desktop/devel/tee-tpm-hyp/optee_os/lib/libutee/tee_api.c:152
     e50:	b108      	cbz	r0, e56 <TEE_GetCancellationFlag+0xe>
/home/hsk/Desktop/devel/tee-tpm-hyp/optee_os/lib/libutee/tee_api.c:153
     e52:	2300      	movs	r3, #0
     e54:	9301      	str	r3, [sp, #4]
/home/hsk/Desktop/devel/tee-tpm-hyp/optee_os/lib/libutee/tee_api.c:155
     e56:	9801      	ldr	r0, [sp, #4]
     e58:	3000      	adds	r0, #0
     e5a:	bf18      	it	ne
     e5c:	2001      	movne	r0, #1
     e5e:	b003      	add	sp, #12
     e60:	f85d fb04 	ldr.w	pc, [sp], #4

00000e64 <TEE_UnmaskCancellation>:
TEE_UnmaskCancellation():
/home/hsk/Desktop/devel/tee-tpm-hyp/optee_os/lib/libutee/tee_api.c:158
     e64:	b507      	push	{r0, r1, r2, lr}
/home/hsk/Desktop/devel/tee-tpm-hyp/optee_os/lib/libutee/tee_api.c:160
     e66:	a801      	add	r0, sp, #4
     e68:	f000 ee0e 	blx	1a88 <utee_unmask_cancellation>
/home/hsk/Desktop/devel/tee-tpm-hyp/optee_os/lib/libutee/tee_api.c:162
     e6c:	b108      	cbz	r0, e72 <TEE_UnmaskCancellation+0xe>
/home/hsk/Desktop/devel/tee-tpm-hyp/optee_os/lib/libutee/tee_api.c:163
     e6e:	f005 fb5f 	bl	6530 <TEE_Panic>
/home/hsk/Desktop/devel/tee-tpm-hyp/optee_os/lib/libutee/tee_api.c:165
     e72:	9801      	ldr	r0, [sp, #4]
     e74:	3000      	adds	r0, #0
     e76:	bf18      	it	ne
     e78:	2001      	movne	r0, #1
     e7a:	b003      	add	sp, #12
     e7c:	f85d fb04 	ldr.w	pc, [sp], #4

00000e80 <TEE_MaskCancellation>:
TEE_MaskCancellation():
/home/hsk/Desktop/devel/tee-tpm-hyp/optee_os/lib/libutee/tee_api.c:168
     e80:	b507      	push	{r0, r1, r2, lr}
/home/hsk/Desktop/devel/tee-tpm-hyp/optee_os/lib/libutee/tee_api.c:170
     e82:	a801      	add	r0, sp, #4
     e84:	f000 ee0a 	blx	1a9c <utee_mask_cancellation>
/home/hsk/Desktop/devel/tee-tpm-hyp/optee_os/lib/libutee/tee_api.c:172
     e88:	b108      	cbz	r0, e8e <TEE_MaskCancellation+0xe>
/home/hsk/Desktop/devel/tee-tpm-hyp/optee_os/lib/libutee/tee_api.c:173
     e8a:	f005 fb51 	bl	6530 <TEE_Panic>
/home/hsk/Desktop/devel/tee-tpm-hyp/optee_os/lib/libutee/tee_api.c:175
     e8e:	9801      	ldr	r0, [sp, #4]
     e90:	3000      	adds	r0, #0
     e92:	bf18      	it	ne
     e94:	2001      	movne	r0, #1
     e96:	b003      	add	sp, #12
     e98:	f85d fb04 	ldr.w	pc, [sp], #4

00000e9c <TEE_CheckMemoryAccessRights>:
TEE_CheckMemoryAccessRights():
/home/hsk/Desktop/devel/tee-tpm-hyp/optee_os/lib/libutee/tee_api.c:184
     e9c:	b10a      	cbz	r2, ea2 <TEE_CheckMemoryAccessRights+0x6>
/home/hsk/Desktop/devel/tee-tpm-hyp/optee_os/lib/libutee/tee_api.c:188
     e9e:	f005 bbab 	b.w	65f8 <__utee_check_access_rights_from_thumb>
/home/hsk/Desktop/devel/tee-tpm-hyp/optee_os/lib/libutee/tee_api.c:200
     ea2:	4610      	mov	r0, r2
     ea4:	4770      	bx	lr

00000ea6 <TEE_SetInstanceData>:
TEE_SetInstanceData():
/home/hsk/Desktop/devel/tee-tpm-hyp/optee_os/lib/libutee/tee_api.c:204
     ea6:	4b02      	ldr	r3, [pc, #8]	; (eb0 <TEE_SetInstanceData+0xa>)
     ea8:	447b      	add	r3, pc
     eaa:	6018      	str	r0, [r3, #0]
/home/hsk/Desktop/devel/tee-tpm-hyp/optee_os/lib/libutee/tee_api.c:205
     eac:	4770      	bx	lr
     eae:	bf00      	nop
     eb0:	000081ec 	.word	0x000081ec

00000eb4 <TEE_GetInstanceData>:
TEE_GetInstanceData():
/home/hsk/Desktop/devel/tee-tpm-hyp/optee_os/lib/libutee/tee_api.c:210
     eb4:	4b01      	ldr	r3, [pc, #4]	; (ebc <TEE_GetInstanceData+0x8>)
     eb6:	447b      	add	r3, pc
     eb8:	6818      	ldr	r0, [r3, #0]
     eba:	4770      	bx	lr
     ebc:	000081de 	.word	0x000081de

00000ec0 <TEE_MemMove>:
TEE_MemMove():
/home/hsk/Desktop/devel/tee-tpm-hyp/optee_os/lib/libutee/tee_api.c:214
     ec0:	f005 bb68 	b.w	6594 <memmove>

00000ec4 <TEE_MemCompare>:
TEE_MemCompare():
/home/hsk/Desktop/devel/tee-tpm-hyp/optee_os/lib/libutee/tee_api.c:219
     ec4:	f005 bb4c 	b.w	6560 <memcmp>

00000ec8 <TEE_MemFill>:
TEE_MemFill():
/home/hsk/Desktop/devel/tee-tpm-hyp/optee_os/lib/libutee/tee_api.c:224
     ec8:	f005 bb7d 	b.w	65c6 <memset>

00000ecc <TEE_GetSystemTime>:
TEE_GetSystemTime():
/home/hsk/Desktop/devel/tee-tpm-hyp/optee_os/lib/libutee/tee_api.c:230
     ecc:	b508      	push	{r3, lr}
/home/hsk/Desktop/devel/tee-tpm-hyp/optee_os/lib/libutee/tee_api.c:231
     ece:	4601      	mov	r1, r0
     ed0:	2000      	movs	r0, #0
     ed2:	f000 edf8 	blx	1ac4 <utee_get_time>
/home/hsk/Desktop/devel/tee-tpm-hyp/optee_os/lib/libutee/tee_api.c:233
     ed6:	b118      	cbz	r0, ee0 <TEE_GetSystemTime+0x14>
/home/hsk/Desktop/devel/tee-tpm-hyp/optee_os/lib/libutee/tee_api.c:235
     ed8:	e8bd 4008 	ldmia.w	sp!, {r3, lr}
/home/hsk/Desktop/devel/tee-tpm-hyp/optee_os/lib/libutee/tee_api.c:234
     edc:	f005 bb28 	b.w	6530 <TEE_Panic>
/home/hsk/Desktop/devel/tee-tpm-hyp/optee_os/lib/libutee/tee_api.c:235
     ee0:	bd08      	pop	{r3, pc}

00000ee2 <TEE_Wait>:
TEE_Wait():
/home/hsk/Desktop/devel/tee-tpm-hyp/optee_os/lib/libutee/tee_api.c:238
     ee2:	b510      	push	{r4, lr}
/home/hsk/Desktop/devel/tee-tpm-hyp/optee_os/lib/libutee/tee_api.c:239
     ee4:	f000 ede4 	blx	1ab0 <utee_wait>
/home/hsk/Desktop/devel/tee-tpm-hyp/optee_os/lib/libutee/tee_api.c:241
     ee8:	4604      	mov	r4, r0
     eea:	b120      	cbz	r0, ef6 <TEE_Wait+0x14>
/home/hsk/Desktop/devel/tee-tpm-hyp/optee_os/lib/libutee/tee_api.c:241 (discriminator 1)
     eec:	4b03      	ldr	r3, [pc, #12]	; (efc <TEE_Wait+0x1a>)
     eee:	4298      	cmp	r0, r3
     ef0:	d001      	beq.n	ef6 <TEE_Wait+0x14>
/home/hsk/Desktop/devel/tee-tpm-hyp/optee_os/lib/libutee/tee_api.c:242
     ef2:	f005 fb1d 	bl	6530 <TEE_Panic>
/home/hsk/Desktop/devel/tee-tpm-hyp/optee_os/lib/libutee/tee_api.c:245
     ef6:	4620      	mov	r0, r4
     ef8:	bd10      	pop	{r4, pc}
     efa:	bf00      	nop
     efc:	ffff0002 	.word	0xffff0002

00000f00 <TEE_GetTAPersistentTime>:
TEE_GetTAPersistentTime():
/home/hsk/Desktop/devel/tee-tpm-hyp/optee_os/lib/libutee/tee_api.c:248
     f00:	b538      	push	{r3, r4, r5, lr}
/home/hsk/Desktop/devel/tee-tpm-hyp/optee_os/lib/libutee/tee_api.c:251
     f02:	4601      	mov	r1, r0
/home/hsk/Desktop/devel/tee-tpm-hyp/optee_os/lib/libutee/tee_api.c:248
     f04:	4605      	mov	r5, r0
/home/hsk/Desktop/devel/tee-tpm-hyp/optee_os/lib/libutee/tee_api.c:251
     f06:	2001      	movs	r0, #1
     f08:	f000 eddc 	blx	1ac4 <utee_get_time>
/home/hsk/Desktop/devel/tee-tpm-hyp/optee_os/lib/libutee/tee_api.c:253
     f0c:	4604      	mov	r4, r0
     f0e:	b170      	cbz	r0, f2e <TEE_GetTAPersistentTime+0x2e>
/home/hsk/Desktop/devel/tee-tpm-hyp/optee_os/lib/libutee/tee_api.c:253 (discriminator 1)
     f10:	4b08      	ldr	r3, [pc, #32]	; (f34 <TEE_GetTAPersistentTime+0x34>)
     f12:	4298      	cmp	r0, r3
     f14:	d00b      	beq.n	f2e <TEE_GetTAPersistentTime+0x2e>
/home/hsk/Desktop/devel/tee-tpm-hyp/optee_os/lib/libutee/tee_api.c:254
     f16:	2300      	movs	r3, #0
     f18:	602b      	str	r3, [r5, #0]
/home/hsk/Desktop/devel/tee-tpm-hyp/optee_os/lib/libutee/tee_api.c:255
     f1a:	606b      	str	r3, [r5, #4]
/home/hsk/Desktop/devel/tee-tpm-hyp/optee_os/lib/libutee/tee_api.c:258
     f1c:	f500 4330 	add.w	r3, r0, #45056	; 0xb000
     f20:	2b01      	cmp	r3, #1
     f22:	d904      	bls.n	f2e <TEE_GetTAPersistentTime+0x2e>
/home/hsk/Desktop/devel/tee-tpm-hyp/optee_os/lib/libutee/tee_api.c:261
     f24:	4b04      	ldr	r3, [pc, #16]	; (f38 <TEE_GetTAPersistentTime+0x38>)
     f26:	4298      	cmp	r0, r3
     f28:	d001      	beq.n	f2e <TEE_GetTAPersistentTime+0x2e>
/home/hsk/Desktop/devel/tee-tpm-hyp/optee_os/lib/libutee/tee_api.c:263
     f2a:	f005 fb01 	bl	6530 <TEE_Panic>
/home/hsk/Desktop/devel/tee-tpm-hyp/optee_os/lib/libutee/tee_api.c:266
     f2e:	4620      	mov	r0, r4
     f30:	bd38      	pop	{r3, r4, r5, pc}
     f32:	bf00      	nop
     f34:	ffff300f 	.word	0xffff300f
     f38:	ffff000c 	.word	0xffff000c

00000f3c <TEE_SetTAPersistentTime>:
TEE_SetTAPersistentTime():
/home/hsk/Desktop/devel/tee-tpm-hyp/optee_os/lib/libutee/tee_api.c:269
     f3c:	b510      	push	{r4, lr}
/home/hsk/Desktop/devel/tee-tpm-hyp/optee_os/lib/libutee/tee_api.c:272
     f3e:	f000 edcc 	blx	1ad8 <utee_set_ta_time>
/home/hsk/Desktop/devel/tee-tpm-hyp/optee_os/lib/libutee/tee_api.c:274
     f42:	4604      	mov	r4, r0
     f44:	b138      	cbz	r0, f56 <TEE_SetTAPersistentTime+0x1a>
/home/hsk/Desktop/devel/tee-tpm-hyp/optee_os/lib/libutee/tee_api.c:274 (discriminator 1)
     f46:	4b05      	ldr	r3, [pc, #20]	; (f5c <TEE_SetTAPersistentTime+0x20>)
     f48:	4298      	cmp	r0, r3
     f4a:	d004      	beq.n	f56 <TEE_SetTAPersistentTime+0x1a>
/home/hsk/Desktop/devel/tee-tpm-hyp/optee_os/lib/libutee/tee_api.c:275
     f4c:	4b04      	ldr	r3, [pc, #16]	; (f60 <TEE_SetTAPersistentTime+0x24>)
     f4e:	4298      	cmp	r0, r3
     f50:	d001      	beq.n	f56 <TEE_SetTAPersistentTime+0x1a>
/home/hsk/Desktop/devel/tee-tpm-hyp/optee_os/lib/libutee/tee_api.c:277
     f52:	f005 faed 	bl	6530 <TEE_Panic>
/home/hsk/Desktop/devel/tee-tpm-hyp/optee_os/lib/libutee/tee_api.c:280
     f56:	4620      	mov	r0, r4
     f58:	bd10      	pop	{r4, pc}
     f5a:	bf00      	nop
     f5c:	ffff000c 	.word	0xffff000c
     f60:	ffff3041 	.word	0xffff3041

00000f64 <TEE_GetREETime>:
TEE_GetREETime():
/home/hsk/Desktop/devel/tee-tpm-hyp/optee_os/lib/libutee/tee_api.c:283
     f64:	b508      	push	{r3, lr}
/home/hsk/Desktop/devel/tee-tpm-hyp/optee_os/lib/libutee/tee_api.c:284
     f66:	4601      	mov	r1, r0
     f68:	2002      	movs	r0, #2
     f6a:	f000 edac 	blx	1ac4 <utee_get_time>
/home/hsk/Desktop/devel/tee-tpm-hyp/optee_os/lib/libutee/tee_api.c:286
     f6e:	b118      	cbz	r0, f78 <TEE_GetREETime+0x14>
/home/hsk/Desktop/devel/tee-tpm-hyp/optee_os/lib/libutee/tee_api.c:288
     f70:	e8bd 4008 	ldmia.w	sp!, {r3, lr}
/home/hsk/Desktop/devel/tee-tpm-hyp/optee_os/lib/libutee/tee_api.c:287
     f74:	f005 badc 	b.w	6530 <TEE_Panic>
/home/hsk/Desktop/devel/tee-tpm-hyp/optee_os/lib/libutee/tee_api.c:288
     f78:	bd08      	pop	{r3, pc}

00000f7a <TEE_Malloc>:
TEE_Malloc():
/home/hsk/Desktop/devel/tee-tpm-hyp/optee_os/lib/libutee/tee_api.c:291
     f7a:	b507      	push	{r0, r1, r2, lr}
/home/hsk/Desktop/devel/tee-tpm-hyp/optee_os/lib/libutee/tee_api.c:292
     f7c:	b931      	cbnz	r1, f8c <TEE_Malloc+0x12>
/home/hsk/Desktop/devel/tee-tpm-hyp/optee_os/lib/libutee/tee_api.c:293
     f7e:	4601      	mov	r1, r0
     f80:	2001      	movs	r0, #1
/home/hsk/Desktop/devel/tee-tpm-hyp/optee_os/lib/libutee/tee_api.c:300
     f82:	b003      	add	sp, #12
     f84:	f85d eb04 	ldr.w	lr, [sp], #4
/home/hsk/Desktop/devel/tee-tpm-hyp/optee_os/lib/libutee/tee_api.c:293
     f88:	f004 beb2 	b.w	5cf0 <calloc>
/home/hsk/Desktop/devel/tee-tpm-hyp/optee_os/lib/libutee/tee_api.c:294
     f8c:	f1b1 4f00 	cmp.w	r1, #2147483648	; 0x80000000
     f90:	d104      	bne.n	f9c <TEE_Malloc+0x22>
/home/hsk/Desktop/devel/tee-tpm-hyp/optee_os/lib/libutee/tee_api.c:300
     f92:	b003      	add	sp, #12
     f94:	f85d eb04 	ldr.w	lr, [sp], #4
/home/hsk/Desktop/devel/tee-tpm-hyp/optee_os/lib/libutee/tee_api.c:295
     f98:	f004 be86 	b.w	5ca8 <malloc>
/home/hsk/Desktop/devel/tee-tpm-hyp/optee_os/lib/libutee/tee_api.c:297
     f9c:	4b07      	ldr	r3, [pc, #28]	; (fbc <TEE_Malloc+0x42>)
     f9e:	4808      	ldr	r0, [pc, #32]	; (fc0 <TEE_Malloc+0x46>)
     fa0:	447b      	add	r3, pc
     fa2:	9300      	str	r3, [sp, #0]
     fa4:	2301      	movs	r3, #1
     fa6:	9101      	str	r1, [sp, #4]
     fa8:	461a      	mov	r2, r3
     faa:	f240 1129 	movw	r1, #297	; 0x129
     fae:	4478      	add	r0, pc
     fb0:	f7ff f994 	bl	2dc <trace_printf>
/home/hsk/Desktop/devel/tee-tpm-hyp/optee_os/lib/libutee/tee_api.c:300
     fb4:	2000      	movs	r0, #0
     fb6:	b003      	add	sp, #12
     fb8:	f85d fb04 	ldr.w	pc, [sp], #4
     fbc:	00005c50 	.word	0x00005c50
     fc0:	00005c37 	.word	0x00005c37

00000fc4 <TEE_Realloc>:
TEE_Realloc():
/home/hsk/Desktop/devel/tee-tpm-hyp/optee_os/lib/libutee/tee_api.c:304
     fc4:	f004 beb8 	b.w	5d38 <realloc>

00000fc8 <TEE_Free>:
TEE_Free():
/home/hsk/Desktop/devel/tee-tpm-hyp/optee_os/lib/libutee/tee_api.c:309
     fc8:	f004 be8a 	b.w	5ce0 <free>

00000fcc <TEE_CacheClean>:
TEE_CacheClean():
/home/hsk/Desktop/devel/tee-tpm-hyp/optee_os/lib/libutee/tee_api.c:315
     fcc:	2200      	movs	r2, #0
     fce:	f005 bb1b 	b.w	6608 <__utee_cache_operation_from_thumb>

00000fd2 <TEE_CacheFlush>:
TEE_CacheFlush():
/home/hsk/Desktop/devel/tee-tpm-hyp/optee_os/lib/libutee/tee_api.c:319
     fd2:	2201      	movs	r2, #1
     fd4:	f005 bb18 	b.w	6608 <__utee_cache_operation_from_thumb>

00000fd8 <TEE_CacheInvalidate>:
TEE_CacheInvalidate():
/home/hsk/Desktop/devel/tee-tpm-hyp/optee_os/lib/libutee/tee_api.c:324
     fd8:	2202      	movs	r2, #2
     fda:	f005 bb15 	b.w	6608 <__utee_cache_operation_from_thumb>
     fde:	bf00      	nop

00000fe0 <__utee_from_attr>:
__utee_from_attr():
/home/hsk/Desktop/devel/tee-tpm-hyp/optee_os/lib/libutee/tee_api_objects.c:19
     fe0:	2318      	movs	r3, #24
     fe2:	b570      	push	{r4, r5, r6, lr}
     fe4:	2400      	movs	r4, #0
     fe6:	fb03 0202 	mla	r2, r3, r2, r0
/home/hsk/Desktop/devel/tee-tpm-hyp/optee_os/lib/libutee/tee_api_objects.c:22 (discriminator 1)
     fea:	4290      	cmp	r0, r2
     fec:	d100      	bne.n	ff0 <__utee_from_attr+0x10>
/home/hsk/Desktop/devel/tee-tpm-hyp/optee_os/lib/libutee/tee_api_objects.c:32
     fee:	bd70      	pop	{r4, r5, r6, pc}
/home/hsk/Desktop/devel/tee-tpm-hyp/optee_os/lib/libutee/tee_api_objects.c:23
     ff0:	680b      	ldr	r3, [r1, #0]
     ff2:	6103      	str	r3, [r0, #16]
/home/hsk/Desktop/devel/tee-tpm-hyp/optee_os/lib/libutee/tee_api_objects.c:24
     ff4:	f013 5300 	ands.w	r3, r3, #536870912	; 0x20000000
     ff8:	688d      	ldr	r5, [r1, #8]
     ffa:	d007      	beq.n	100c <__utee_from_attr+0x2c>
/home/hsk/Desktop/devel/tee-tpm-hyp/optee_os/lib/libutee/tee_api_objects.c:25
     ffc:	684b      	ldr	r3, [r1, #4]
     ffe:	e9c0 3400 	strd	r3, r4, [r0]
/home/hsk/Desktop/devel/tee-tpm-hyp/optee_os/lib/libutee/tee_api_objects.c:26
    1002:	e9c0 5402 	strd	r5, r4, [r0, #8]
    1006:	310c      	adds	r1, #12
    1008:	3018      	adds	r0, #24
    100a:	e7ee      	b.n	fea <__utee_from_attr+0xa>
/home/hsk/Desktop/devel/tee-tpm-hyp/optee_os/lib/libutee/tee_api_objects.c:28
    100c:	684e      	ldr	r6, [r1, #4]
    100e:	e9c0 6300 	strd	r6, r3, [r0]
/home/hsk/Desktop/devel/tee-tpm-hyp/optee_os/lib/libutee/tee_api_objects.c:29
    1012:	e9c0 5302 	strd	r5, r3, [r0, #8]
    1016:	e7f6      	b.n	1006 <__utee_from_attr+0x26>

00001018 <TEE_GetObjectInfo>:
TEE_GetObjectInfo():
/home/hsk/Desktop/devel/tee-tpm-hyp/optee_os/lib/libutee/tee_api_objects.c:42
    1018:	b510      	push	{r4, lr}
    101a:	460c      	mov	r4, r1
/home/hsk/Desktop/devel/tee-tpm-hyp/optee_os/lib/libutee/tee_api_objects.c:45
    101c:	f000 edc8 	blx	1bb0 <utee_cryp_obj_get_info>
/home/hsk/Desktop/devel/tee-tpm-hyp/optee_os/lib/libutee/tee_api_objects.c:47
    1020:	b108      	cbz	r0, 1026 <TEE_GetObjectInfo+0xe>
/home/hsk/Desktop/devel/tee-tpm-hyp/optee_os/lib/libutee/tee_api_objects.c:48
    1022:	f005 fa85 	bl	6530 <TEE_Panic>
/home/hsk/Desktop/devel/tee-tpm-hyp/optee_os/lib/libutee/tee_api_objects.c:50
    1026:	6822      	ldr	r2, [r4, #0]
    1028:	4b05      	ldr	r3, [pc, #20]	; (1040 <TEE_GetObjectInfo+0x28>)
    102a:	429a      	cmp	r2, r3
    102c:	d106      	bne.n	103c <TEE_GetObjectInfo+0x24>
/home/hsk/Desktop/devel/tee-tpm-hyp/optee_os/lib/libutee/tee_api_objects.c:51
    102e:	2300      	movs	r3, #0
    1030:	6063      	str	r3, [r4, #4]
/home/hsk/Desktop/devel/tee-tpm-hyp/optee_os/lib/libutee/tee_api_objects.c:52
    1032:	60a3      	str	r3, [r4, #8]
/home/hsk/Desktop/devel/tee-tpm-hyp/optee_os/lib/libutee/tee_api_objects.c:53
    1034:	60e3      	str	r3, [r4, #12]
/home/hsk/Desktop/devel/tee-tpm-hyp/optee_os/lib/libutee/tee_api_objects.c:54
    1036:	6123      	str	r3, [r4, #16]
/home/hsk/Desktop/devel/tee-tpm-hyp/optee_os/lib/libutee/tee_api_objects.c:55
    1038:	6163      	str	r3, [r4, #20]
/home/hsk/Desktop/devel/tee-tpm-hyp/optee_os/lib/libutee/tee_api_objects.c:56
    103a:	61a3      	str	r3, [r4, #24]
/home/hsk/Desktop/devel/tee-tpm-hyp/optee_os/lib/libutee/tee_api_objects.c:58
    103c:	bd10      	pop	{r4, pc}
    103e:	bf00      	nop
    1040:	a00000be 	.word	0xa00000be

00001044 <TEE_GetObjectInfo1>:
TEE_GetObjectInfo1():
/home/hsk/Desktop/devel/tee-tpm-hyp/optee_os/lib/libutee/tee_api_objects.c:61
    1044:	b510      	push	{r4, lr}
/home/hsk/Desktop/devel/tee-tpm-hyp/optee_os/lib/libutee/tee_api_objects.c:64
    1046:	f000 edb4 	blx	1bb0 <utee_cryp_obj_get_info>
/home/hsk/Desktop/devel/tee-tpm-hyp/optee_os/lib/libutee/tee_api_objects.c:66
    104a:	4604      	mov	r4, r0
    104c:	b130      	cbz	r0, 105c <TEE_GetObjectInfo1+0x18>
/home/hsk/Desktop/devel/tee-tpm-hyp/optee_os/lib/libutee/tee_api_objects.c:66 (discriminator 1)
    104e:	4b04      	ldr	r3, [pc, #16]	; (1060 <TEE_GetObjectInfo1+0x1c>)
    1050:	f020 0202 	bic.w	r2, r0, #2
    1054:	429a      	cmp	r2, r3
    1056:	d001      	beq.n	105c <TEE_GetObjectInfo1+0x18>
/home/hsk/Desktop/devel/tee-tpm-hyp/optee_os/lib/libutee/tee_api_objects.c:69
    1058:	f005 fa6a 	bl	6530 <TEE_Panic>
/home/hsk/Desktop/devel/tee-tpm-hyp/optee_os/lib/libutee/tee_api_objects.c:72
    105c:	4620      	mov	r0, r4
    105e:	bd10      	pop	{r4, pc}
    1060:	f0100001 	.word	0xf0100001

00001064 <TEE_RestrictObjectUsage1>:
TEE_RestrictObjectUsage1():
/home/hsk/Desktop/devel/tee-tpm-hyp/optee_os/lib/libutee/tee_api_objects.c:96
    1064:	b510      	push	{r4, lr}
/home/hsk/Desktop/devel/tee-tpm-hyp/optee_os/lib/libutee/tee_api_objects.c:99
    1066:	f000 edae 	blx	1bc4 <utee_cryp_obj_restrict_usage>
/home/hsk/Desktop/devel/tee-tpm-hyp/optee_os/lib/libutee/tee_api_objects.c:101
    106a:	4604      	mov	r4, r0
    106c:	b130      	cbz	r0, 107c <TEE_RestrictObjectUsage1+0x18>
/home/hsk/Desktop/devel/tee-tpm-hyp/optee_os/lib/libutee/tee_api_objects.c:101 (discriminator 1)
    106e:	4b04      	ldr	r3, [pc, #16]	; (1080 <TEE_RestrictObjectUsage1+0x1c>)
    1070:	f020 0202 	bic.w	r2, r0, #2
    1074:	429a      	cmp	r2, r3
    1076:	d001      	beq.n	107c <TEE_RestrictObjectUsage1+0x18>
/home/hsk/Desktop/devel/tee-tpm-hyp/optee_os/lib/libutee/tee_api_objects.c:104
    1078:	f005 fa5a 	bl	6530 <TEE_Panic>
/home/hsk/Desktop/devel/tee-tpm-hyp/optee_os/lib/libutee/tee_api_objects.c:107
    107c:	4620      	mov	r0, r4
    107e:	bd10      	pop	{r4, pc}
    1080:	f0100001 	.word	0xf0100001

00001084 <TEE_RestrictObjectUsage>:
TEE_RestrictObjectUsage():
/home/hsk/Desktop/devel/tee-tpm-hyp/optee_os/lib/libutee/tee_api_objects.c:81
    1084:	b530      	push	{r4, r5, lr}
    1086:	460d      	mov	r5, r1
    1088:	4604      	mov	r4, r0
    108a:	b089      	sub	sp, #36	; 0x24
/home/hsk/Desktop/devel/tee-tpm-hyp/optee_os/lib/libutee/tee_api_objects.c:85
    108c:	a901      	add	r1, sp, #4
    108e:	f000 ed90 	blx	1bb0 <utee_cryp_obj_get_info>
/home/hsk/Desktop/devel/tee-tpm-hyp/optee_os/lib/libutee/tee_api_objects.c:86
    1092:	4b06      	ldr	r3, [pc, #24]	; (10ac <TEE_RestrictObjectUsage+0x28>)
    1094:	9a01      	ldr	r2, [sp, #4]
    1096:	429a      	cmp	r2, r3
    1098:	d006      	beq.n	10a8 <TEE_RestrictObjectUsage+0x24>
/home/hsk/Desktop/devel/tee-tpm-hyp/optee_os/lib/libutee/tee_api_objects.c:89
    109a:	4629      	mov	r1, r5
    109c:	4620      	mov	r0, r4
    109e:	f7ff ffe1 	bl	1064 <TEE_RestrictObjectUsage1>
/home/hsk/Desktop/devel/tee-tpm-hyp/optee_os/lib/libutee/tee_api_objects.c:91
    10a2:	b108      	cbz	r0, 10a8 <TEE_RestrictObjectUsage+0x24>
/home/hsk/Desktop/devel/tee-tpm-hyp/optee_os/lib/libutee/tee_api_objects.c:92
    10a4:	f005 fa44 	bl	6530 <TEE_Panic>
/home/hsk/Desktop/devel/tee-tpm-hyp/optee_os/lib/libutee/tee_api_objects.c:93
    10a8:	b009      	add	sp, #36	; 0x24
    10aa:	bd30      	pop	{r4, r5, pc}
    10ac:	a00000be 	.word	0xa00000be

000010b0 <TEE_GetObjectBufferAttribute>:
TEE_GetObjectBufferAttribute():
/home/hsk/Desktop/devel/tee-tpm-hyp/optee_os/lib/libutee/tee_api_objects.c:112
    10b0:	e92d 41f0 	stmdb	sp!, {r4, r5, r6, r7, r8, lr}
    10b4:	460e      	mov	r6, r1
    10b6:	4607      	mov	r7, r0
    10b8:	b08a      	sub	sp, #40	; 0x28
    10ba:	4690      	mov	r8, r2
/home/hsk/Desktop/devel/tee-tpm-hyp/optee_os/lib/libutee/tee_api_objects.c:117
    10bc:	a903      	add	r1, sp, #12
/home/hsk/Desktop/devel/tee-tpm-hyp/optee_os/lib/libutee/tee_api_objects.c:112
    10be:	461d      	mov	r5, r3
/home/hsk/Desktop/devel/tee-tpm-hyp/optee_os/lib/libutee/tee_api_objects.c:117
    10c0:	f000 ed76 	blx	1bb0 <utee_cryp_obj_get_info>
/home/hsk/Desktop/devel/tee-tpm-hyp/optee_os/lib/libutee/tee_api_objects.c:118
    10c4:	4604      	mov	r4, r0
    10c6:	b970      	cbnz	r0, 10e6 <TEE_GetObjectBufferAttribute+0x36>
/home/hsk/Desktop/devel/tee-tpm-hyp/optee_os/lib/libutee/tee_api_objects.c:122
    10c8:	00b3      	lsls	r3, r6, #2
    10ca:	d422      	bmi.n	1112 <TEE_GetObjectBufferAttribute+0x62>
/home/hsk/Desktop/devel/tee-tpm-hyp/optee_os/lib/libutee/tee_api_objects.c:127
    10cc:	682b      	ldr	r3, [r5, #0]
/home/hsk/Desktop/devel/tee-tpm-hyp/optee_os/lib/libutee/tee_api_objects.c:128
    10ce:	4642      	mov	r2, r8
/home/hsk/Desktop/devel/tee-tpm-hyp/optee_os/lib/libutee/tee_api_objects.c:127
    10d0:	e9cd 3000 	strd	r3, r0, [sp]
/home/hsk/Desktop/devel/tee-tpm-hyp/optee_os/lib/libutee/tee_api_objects.c:128
    10d4:	4631      	mov	r1, r6
    10d6:	466b      	mov	r3, sp
    10d8:	4638      	mov	r0, r7
    10da:	f000 ed7e 	blx	1bd8 <utee_cryp_obj_get_attr>
/home/hsk/Desktop/devel/tee-tpm-hyp/optee_os/lib/libutee/tee_api_objects.c:130
    10de:	9b00      	ldr	r3, [sp, #0]
    10e0:	602b      	str	r3, [r5, #0]
/home/hsk/Desktop/devel/tee-tpm-hyp/optee_os/lib/libutee/tee_api_objects.c:133
    10e2:	4604      	mov	r4, r0
    10e4:	b188      	cbz	r0, 110a <TEE_GetObjectBufferAttribute+0x5a>
/home/hsk/Desktop/devel/tee-tpm-hyp/optee_os/lib/libutee/tee_api_objects.c:133 (discriminator 1)
    10e6:	4b0c      	ldr	r3, [pc, #48]	; (1118 <TEE_GetObjectBufferAttribute+0x68>)
    10e8:	429c      	cmp	r4, r3
    10ea:	d00e      	beq.n	110a <TEE_GetObjectBufferAttribute+0x5a>
/home/hsk/Desktop/devel/tee-tpm-hyp/optee_os/lib/libutee/tee_api_objects.c:134
    10ec:	3308      	adds	r3, #8
    10ee:	429c      	cmp	r4, r3
    10f0:	d00b      	beq.n	110a <TEE_GetObjectBufferAttribute+0x5a>
/home/hsk/Desktop/devel/tee-tpm-hyp/optee_os/lib/libutee/tee_api_objects.c:135
    10f2:	f1a3 637e 	sub.w	r3, r3, #266338304	; 0xfe00000
    10f6:	f1a3 130f 	sub.w	r3, r3, #983055	; 0xf000f
    10fa:	429c      	cmp	r4, r3
    10fc:	d005      	beq.n	110a <TEE_GetObjectBufferAttribute+0x5a>
/home/hsk/Desktop/devel/tee-tpm-hyp/optee_os/lib/libutee/tee_api_objects.c:136
    10fe:	3302      	adds	r3, #2
    1100:	429c      	cmp	r4, r3
    1102:	d002      	beq.n	110a <TEE_GetObjectBufferAttribute+0x5a>
/home/hsk/Desktop/devel/tee-tpm-hyp/optee_os/lib/libutee/tee_api_objects.c:138
    1104:	4620      	mov	r0, r4
    1106:	f005 fa13 	bl	6530 <TEE_Panic>
/home/hsk/Desktop/devel/tee-tpm-hyp/optee_os/lib/libutee/tee_api_objects.c:141
    110a:	4620      	mov	r0, r4
    110c:	b00a      	add	sp, #40	; 0x28
    110e:	e8bd 81f0 	ldmia.w	sp!, {r4, r5, r6, r7, r8, pc}
/home/hsk/Desktop/devel/tee-tpm-hyp/optee_os/lib/libutee/tee_api_objects.c:123
    1112:	4c02      	ldr	r4, [pc, #8]	; (111c <TEE_GetObjectBufferAttribute+0x6c>)
    1114:	e7f6      	b.n	1104 <TEE_GetObjectBufferAttribute+0x54>
    1116:	bf00      	nop
    1118:	ffff0008 	.word	0xffff0008
    111c:	ffff0006 	.word	0xffff0006

00001120 <TEE_GetObjectValueAttribute>:
TEE_GetObjectValueAttribute():
/home/hsk/Desktop/devel/tee-tpm-hyp/optee_os/lib/libutee/tee_api_objects.c:146
    1120:	e92d 41f0 	stmdb	sp!, {r4, r5, r6, r7, r8, lr}
    1124:	460f      	mov	r7, r1
    1126:	4680      	mov	r8, r0
    1128:	b08c      	sub	sp, #48	; 0x30
    112a:	4616      	mov	r6, r2
/home/hsk/Desktop/devel/tee-tpm-hyp/optee_os/lib/libutee/tee_api_objects.c:152
    112c:	a905      	add	r1, sp, #20
/home/hsk/Desktop/devel/tee-tpm-hyp/optee_os/lib/libutee/tee_api_objects.c:150
    112e:	2208      	movs	r2, #8
/home/hsk/Desktop/devel/tee-tpm-hyp/optee_os/lib/libutee/tee_api_objects.c:146
    1130:	461d      	mov	r5, r3
/home/hsk/Desktop/devel/tee-tpm-hyp/optee_os/lib/libutee/tee_api_objects.c:150
    1132:	2300      	movs	r3, #0
    1134:	e9cd 2300 	strd	r2, r3, [sp]
/home/hsk/Desktop/devel/tee-tpm-hyp/optee_os/lib/libutee/tee_api_objects.c:152
    1138:	f000 ed3a 	blx	1bb0 <utee_cryp_obj_get_info>
/home/hsk/Desktop/devel/tee-tpm-hyp/optee_os/lib/libutee/tee_api_objects.c:153
    113c:	4604      	mov	r4, r0
    113e:	b948      	cbnz	r0, 1154 <TEE_GetObjectValueAttribute+0x34>
/home/hsk/Desktop/devel/tee-tpm-hyp/optee_os/lib/libutee/tee_api_objects.c:157
    1140:	00bb      	lsls	r3, r7, #2
    1142:	d527      	bpl.n	1194 <TEE_GetObjectValueAttribute+0x74>
/home/hsk/Desktop/devel/tee-tpm-hyp/optee_os/lib/libutee/tee_api_objects.c:162
    1144:	466b      	mov	r3, sp
    1146:	aa03      	add	r2, sp, #12
    1148:	4639      	mov	r1, r7
    114a:	4640      	mov	r0, r8
    114c:	f000 ed44 	blx	1bd8 <utee_cryp_obj_get_attr>
/home/hsk/Desktop/devel/tee-tpm-hyp/optee_os/lib/libutee/tee_api_objects.c:166
    1150:	4604      	mov	r4, r0
    1152:	b158      	cbz	r0, 116c <TEE_GetObjectValueAttribute+0x4c>
/home/hsk/Desktop/devel/tee-tpm-hyp/optee_os/lib/libutee/tee_api_objects.c:166 (discriminator 1)
    1154:	4b10      	ldr	r3, [pc, #64]	; (1198 <TEE_GetObjectValueAttribute+0x78>)
    1156:	429c      	cmp	r4, r3
    1158:	d008      	beq.n	116c <TEE_GetObjectValueAttribute+0x4c>
/home/hsk/Desktop/devel/tee-tpm-hyp/optee_os/lib/libutee/tee_api_objects.c:167
    115a:	4b10      	ldr	r3, [pc, #64]	; (119c <TEE_GetObjectValueAttribute+0x7c>)
    115c:	429c      	cmp	r4, r3
    115e:	d005      	beq.n	116c <TEE_GetObjectValueAttribute+0x4c>
/home/hsk/Desktop/devel/tee-tpm-hyp/optee_os/lib/libutee/tee_api_objects.c:168
    1160:	3302      	adds	r3, #2
    1162:	429c      	cmp	r4, r3
    1164:	d002      	beq.n	116c <TEE_GetObjectValueAttribute+0x4c>
/home/hsk/Desktop/devel/tee-tpm-hyp/optee_os/lib/libutee/tee_api_objects.c:170
    1166:	4620      	mov	r0, r4
    1168:	f005 f9e2 	bl	6530 <TEE_Panic>
/home/hsk/Desktop/devel/tee-tpm-hyp/optee_os/lib/libutee/tee_api_objects.c:172
    116c:	e9dd 2300 	ldrd	r2, r3, [sp]
    1170:	2b00      	cmp	r3, #0
    1172:	bf08      	it	eq
    1174:	2a08      	cmpeq	r2, #8
    1176:	d002      	beq.n	117e <TEE_GetObjectValueAttribute+0x5e>
/home/hsk/Desktop/devel/tee-tpm-hyp/optee_os/lib/libutee/tee_api_objects.c:173
    1178:	2000      	movs	r0, #0
    117a:	f005 f9d9 	bl	6530 <TEE_Panic>
/home/hsk/Desktop/devel/tee-tpm-hyp/optee_os/lib/libutee/tee_api_objects.c:175
    117e:	b92c      	cbnz	r4, 118c <TEE_GetObjectValueAttribute+0x6c>
/home/hsk/Desktop/devel/tee-tpm-hyp/optee_os/lib/libutee/tee_api_objects.c:176
    1180:	b10e      	cbz	r6, 1186 <TEE_GetObjectValueAttribute+0x66>
/home/hsk/Desktop/devel/tee-tpm-hyp/optee_os/lib/libutee/tee_api_objects.c:177
    1182:	9b03      	ldr	r3, [sp, #12]
    1184:	6033      	str	r3, [r6, #0]
/home/hsk/Desktop/devel/tee-tpm-hyp/optee_os/lib/libutee/tee_api_objects.c:178
    1186:	b10d      	cbz	r5, 118c <TEE_GetObjectValueAttribute+0x6c>
/home/hsk/Desktop/devel/tee-tpm-hyp/optee_os/lib/libutee/tee_api_objects.c:179
    1188:	9b04      	ldr	r3, [sp, #16]
    118a:	602b      	str	r3, [r5, #0]
/home/hsk/Desktop/devel/tee-tpm-hyp/optee_os/lib/libutee/tee_api_objects.c:183
    118c:	4620      	mov	r0, r4
    118e:	b00c      	add	sp, #48	; 0x30
    1190:	e8bd 81f0 	ldmia.w	sp!, {r4, r5, r6, r7, r8, pc}
/home/hsk/Desktop/devel/tee-tpm-hyp/optee_os/lib/libutee/tee_api_objects.c:158
    1194:	4c02      	ldr	r4, [pc, #8]	; (11a0 <TEE_GetObjectValueAttribute+0x80>)
    1196:	e7e6      	b.n	1166 <TEE_GetObjectValueAttribute+0x46>
    1198:	ffff0008 	.word	0xffff0008
    119c:	f0100001 	.word	0xf0100001
    11a0:	ffff0006 	.word	0xffff0006

000011a4 <TEE_CloseObject>:
TEE_CloseObject():
/home/hsk/Desktop/devel/tee-tpm-hyp/optee_os/lib/libutee/tee_api_objects.c:186
    11a4:	b508      	push	{r3, lr}
/home/hsk/Desktop/devel/tee-tpm-hyp/optee_os/lib/libutee/tee_api_objects.c:189
    11a6:	b130      	cbz	r0, 11b6 <TEE_CloseObject+0x12>
/home/hsk/Desktop/devel/tee-tpm-hyp/optee_os/lib/libutee/tee_api_objects.c:192
    11a8:	f000 ed2a 	blx	1c00 <utee_cryp_obj_close>
/home/hsk/Desktop/devel/tee-tpm-hyp/optee_os/lib/libutee/tee_api_objects.c:193
    11ac:	b118      	cbz	r0, 11b6 <TEE_CloseObject+0x12>
/home/hsk/Desktop/devel/tee-tpm-hyp/optee_os/lib/libutee/tee_api_objects.c:195
    11ae:	e8bd 4008 	ldmia.w	sp!, {r3, lr}
/home/hsk/Desktop/devel/tee-tpm-hyp/optee_os/lib/libutee/tee_api_objects.c:194
    11b2:	f005 b9bd 	b.w	6530 <TEE_Panic>
/home/hsk/Desktop/devel/tee-tpm-hyp/optee_os/lib/libutee/tee_api_objects.c:195
    11b6:	bd08      	pop	{r3, pc}

000011b8 <TEE_AllocateTransientObject>:
TEE_AllocateTransientObject():
/home/hsk/Desktop/devel/tee-tpm-hyp/optee_os/lib/libutee/tee_api_objects.c:202
    11b8:	b537      	push	{r0, r1, r2, r4, r5, lr}
    11ba:	4615      	mov	r5, r2
/home/hsk/Desktop/devel/tee-tpm-hyp/optee_os/lib/libutee/tee_api_objects.c:206
    11bc:	aa01      	add	r2, sp, #4
    11be:	f000 ed16 	blx	1bec <utee_cryp_obj_alloc>
/home/hsk/Desktop/devel/tee-tpm-hyp/optee_os/lib/libutee/tee_api_objects.c:208
    11c2:	4604      	mov	r4, r0
    11c4:	b150      	cbz	r0, 11dc <TEE_AllocateTransientObject+0x24>
/home/hsk/Desktop/devel/tee-tpm-hyp/optee_os/lib/libutee/tee_api_objects.c:208 (discriminator 1)
    11c6:	4b07      	ldr	r3, [pc, #28]	; (11e4 <TEE_AllocateTransientObject+0x2c>)
    11c8:	4298      	cmp	r0, r3
    11ca:	d004      	beq.n	11d6 <TEE_AllocateTransientObject+0x1e>
/home/hsk/Desktop/devel/tee-tpm-hyp/optee_os/lib/libutee/tee_api_objects.c:209
    11cc:	3b02      	subs	r3, #2
    11ce:	4298      	cmp	r0, r3
    11d0:	d001      	beq.n	11d6 <TEE_AllocateTransientObject+0x1e>
/home/hsk/Desktop/devel/tee-tpm-hyp/optee_os/lib/libutee/tee_api_objects.c:211
    11d2:	f005 f9ad 	bl	6530 <TEE_Panic>
/home/hsk/Desktop/devel/tee-tpm-hyp/optee_os/lib/libutee/tee_api_objects.c:217
    11d6:	4620      	mov	r0, r4
    11d8:	b003      	add	sp, #12
    11da:	bd30      	pop	{r4, r5, pc}
/home/hsk/Desktop/devel/tee-tpm-hyp/optee_os/lib/libutee/tee_api_objects.c:214
    11dc:	9b01      	ldr	r3, [sp, #4]
    11de:	602b      	str	r3, [r5, #0]
    11e0:	e7f9      	b.n	11d6 <TEE_AllocateTransientObject+0x1e>
    11e2:	bf00      	nop
    11e4:	ffff000c 	.word	0xffff000c

000011e8 <TEE_FreeTransientObject>:
TEE_FreeTransientObject():
/home/hsk/Desktop/devel/tee-tpm-hyp/optee_os/lib/libutee/tee_api_objects.c:220
    11e8:	b510      	push	{r4, lr}
/home/hsk/Desktop/devel/tee-tpm-hyp/optee_os/lib/libutee/tee_api_objects.c:224
    11ea:	4604      	mov	r4, r0
/home/hsk/Desktop/devel/tee-tpm-hyp/optee_os/lib/libutee/tee_api_objects.c:220
    11ec:	b088      	sub	sp, #32
/home/hsk/Desktop/devel/tee-tpm-hyp/optee_os/lib/libutee/tee_api_objects.c:224
    11ee:	b188      	cbz	r0, 1214 <TEE_FreeTransientObject+0x2c>
/home/hsk/Desktop/devel/tee-tpm-hyp/optee_os/lib/libutee/tee_api_objects.c:227
    11f0:	a901      	add	r1, sp, #4
    11f2:	f000 ecde 	blx	1bb0 <utee_cryp_obj_get_info>
/home/hsk/Desktop/devel/tee-tpm-hyp/optee_os/lib/libutee/tee_api_objects.c:228
    11f6:	b108      	cbz	r0, 11fc <TEE_FreeTransientObject+0x14>
/home/hsk/Desktop/devel/tee-tpm-hyp/optee_os/lib/libutee/tee_api_objects.c:229
    11f8:	f005 f99a 	bl	6530 <TEE_Panic>
/home/hsk/Desktop/devel/tee-tpm-hyp/optee_os/lib/libutee/tee_api_objects.c:231
    11fc:	9b07      	ldr	r3, [sp, #28]
    11fe:	03db      	lsls	r3, r3, #15
    1200:	d502      	bpl.n	1208 <TEE_FreeTransientObject+0x20>
/home/hsk/Desktop/devel/tee-tpm-hyp/optee_os/lib/libutee/tee_api_objects.c:232
    1202:	2000      	movs	r0, #0
    1204:	f005 f994 	bl	6530 <TEE_Panic>
/home/hsk/Desktop/devel/tee-tpm-hyp/optee_os/lib/libutee/tee_api_objects.c:234
    1208:	4620      	mov	r0, r4
    120a:	f000 ecfa 	blx	1c00 <utee_cryp_obj_close>
/home/hsk/Desktop/devel/tee-tpm-hyp/optee_os/lib/libutee/tee_api_objects.c:235
    120e:	b108      	cbz	r0, 1214 <TEE_FreeTransientObject+0x2c>
/home/hsk/Desktop/devel/tee-tpm-hyp/optee_os/lib/libutee/tee_api_objects.c:236
    1210:	f005 f98e 	bl	6530 <TEE_Panic>
/home/hsk/Desktop/devel/tee-tpm-hyp/optee_os/lib/libutee/tee_api_objects.c:237
    1214:	b008      	add	sp, #32
    1216:	bd10      	pop	{r4, pc}

00001218 <TEE_ResetTransientObject>:
TEE_ResetTransientObject():
/home/hsk/Desktop/devel/tee-tpm-hyp/optee_os/lib/libutee/tee_api_objects.c:240
    1218:	b510      	push	{r4, lr}
/home/hsk/Desktop/devel/tee-tpm-hyp/optee_os/lib/libutee/tee_api_objects.c:244
    121a:	4604      	mov	r4, r0
/home/hsk/Desktop/devel/tee-tpm-hyp/optee_os/lib/libutee/tee_api_objects.c:240
    121c:	b088      	sub	sp, #32
/home/hsk/Desktop/devel/tee-tpm-hyp/optee_os/lib/libutee/tee_api_objects.c:244
    121e:	b188      	cbz	r0, 1244 <TEE_ResetTransientObject+0x2c>
/home/hsk/Desktop/devel/tee-tpm-hyp/optee_os/lib/libutee/tee_api_objects.c:247
    1220:	a901      	add	r1, sp, #4
    1222:	f000 ecc6 	blx	1bb0 <utee_cryp_obj_get_info>
/home/hsk/Desktop/devel/tee-tpm-hyp/optee_os/lib/libutee/tee_api_objects.c:248
    1226:	b108      	cbz	r0, 122c <TEE_ResetTransientObject+0x14>
/home/hsk/Desktop/devel/tee-tpm-hyp/optee_os/lib/libutee/tee_api_objects.c:249
    1228:	f005 f982 	bl	6530 <TEE_Panic>
/home/hsk/Desktop/devel/tee-tpm-hyp/optee_os/lib/libutee/tee_api_objects.c:251
    122c:	9b07      	ldr	r3, [sp, #28]
    122e:	03db      	lsls	r3, r3, #15
    1230:	d502      	bpl.n	1238 <TEE_ResetTransientObject+0x20>
/home/hsk/Desktop/devel/tee-tpm-hyp/optee_os/lib/libutee/tee_api_objects.c:252
    1232:	2000      	movs	r0, #0
    1234:	f005 f97c 	bl	6530 <TEE_Panic>
/home/hsk/Desktop/devel/tee-tpm-hyp/optee_os/lib/libutee/tee_api_objects.c:254
    1238:	4620      	mov	r0, r4
    123a:	f000 ecec 	blx	1c14 <utee_cryp_obj_reset>
/home/hsk/Desktop/devel/tee-tpm-hyp/optee_os/lib/libutee/tee_api_objects.c:255
    123e:	b108      	cbz	r0, 1244 <TEE_ResetTransientObject+0x2c>
/home/hsk/Desktop/devel/tee-tpm-hyp/optee_os/lib/libutee/tee_api_objects.c:256
    1240:	f005 f976 	bl	6530 <TEE_Panic>
/home/hsk/Desktop/devel/tee-tpm-hyp/optee_os/lib/libutee/tee_api_objects.c:257
    1244:	b008      	add	sp, #32
    1246:	bd10      	pop	{r4, pc}

00001248 <TEE_PopulateTransientObject>:
TEE_PopulateTransientObject():
/home/hsk/Desktop/devel/tee-tpm-hyp/optee_os/lib/libutee/tee_api_objects.c:265
    1248:	2318      	movs	r3, #24
/home/hsk/Desktop/devel/tee-tpm-hyp/optee_os/lib/libutee/tee_api_objects.c:262
    124a:	e92d 41f0 	stmdb	sp!, {r4, r5, r6, r7, r8, lr}
    124e:	4688      	mov	r8, r1
    1250:	b088      	sub	sp, #32
/home/hsk/Desktop/devel/tee-tpm-hyp/optee_os/lib/libutee/tee_api_objects.c:265
    1252:	4353      	muls	r3, r2
/home/hsk/Desktop/devel/tee-tpm-hyp/optee_os/lib/libutee/tee_api_objects.c:262
    1254:	af00      	add	r7, sp, #0
/home/hsk/Desktop/devel/tee-tpm-hyp/optee_os/lib/libutee/tee_api_objects.c:267
    1256:	1d39      	adds	r1, r7, #4
/home/hsk/Desktop/devel/tee-tpm-hyp/optee_os/lib/libutee/tee_api_objects.c:262
    1258:	4606      	mov	r6, r0
/home/hsk/Desktop/devel/tee-tpm-hyp/optee_os/lib/libutee/tee_api_objects.c:265
    125a:	3308      	adds	r3, #8
/home/hsk/Desktop/devel/tee-tpm-hyp/optee_os/lib/libutee/tee_api_objects.c:262
    125c:	4614      	mov	r4, r2
/home/hsk/Desktop/devel/tee-tpm-hyp/optee_os/lib/libutee/tee_api_objects.c:265
    125e:	ebad 0d03 	sub.w	sp, sp, r3
    1262:	466d      	mov	r5, sp
/home/hsk/Desktop/devel/tee-tpm-hyp/optee_os/lib/libutee/tee_api_objects.c:267
    1264:	f000 eca4 	blx	1bb0 <utee_cryp_obj_get_info>
/home/hsk/Desktop/devel/tee-tpm-hyp/optee_os/lib/libutee/tee_api_objects.c:268
    1268:	b108      	cbz	r0, 126e <TEE_PopulateTransientObject+0x26>
/home/hsk/Desktop/devel/tee-tpm-hyp/optee_os/lib/libutee/tee_api_objects.c:269
    126a:	f005 f961 	bl	6530 <TEE_Panic>
/home/hsk/Desktop/devel/tee-tpm-hyp/optee_os/lib/libutee/tee_api_objects.c:272
    126e:	69fb      	ldr	r3, [r7, #28]
    1270:	03da      	lsls	r2, r3, #15
    1272:	d502      	bpl.n	127a <TEE_PopulateTransientObject+0x32>
/home/hsk/Desktop/devel/tee-tpm-hyp/optee_os/lib/libutee/tee_api_objects.c:273
    1274:	2000      	movs	r0, #0
    1276:	f005 f95b 	bl	6530 <TEE_Panic>
/home/hsk/Desktop/devel/tee-tpm-hyp/optee_os/lib/libutee/tee_api_objects.c:276
    127a:	69fb      	ldr	r3, [r7, #28]
    127c:	039b      	lsls	r3, r3, #14
    127e:	d502      	bpl.n	1286 <TEE_PopulateTransientObject+0x3e>
/home/hsk/Desktop/devel/tee-tpm-hyp/optee_os/lib/libutee/tee_api_objects.c:277
    1280:	2000      	movs	r0, #0
    1282:	f005 f955 	bl	6530 <TEE_Panic>
/home/hsk/Desktop/devel/tee-tpm-hyp/optee_os/lib/libutee/tee_api_objects.c:279
    1286:	4622      	mov	r2, r4
    1288:	4641      	mov	r1, r8
    128a:	4628      	mov	r0, r5
    128c:	f7ff fea8 	bl	fe0 <__utee_from_attr>
/home/hsk/Desktop/devel/tee-tpm-hyp/optee_os/lib/libutee/tee_api_objects.c:280
    1290:	4622      	mov	r2, r4
    1292:	4629      	mov	r1, r5
    1294:	4630      	mov	r0, r6
    1296:	f000 ecc8 	blx	1c28 <utee_cryp_obj_populate>
/home/hsk/Desktop/devel/tee-tpm-hyp/optee_os/lib/libutee/tee_api_objects.c:281
    129a:	4604      	mov	r4, r0
    129c:	b120      	cbz	r0, 12a8 <TEE_PopulateTransientObject+0x60>
/home/hsk/Desktop/devel/tee-tpm-hyp/optee_os/lib/libutee/tee_api_objects.c:281 (discriminator 1)
    129e:	4b05      	ldr	r3, [pc, #20]	; (12b4 <TEE_PopulateTransientObject+0x6c>)
    12a0:	4298      	cmp	r0, r3
    12a2:	d001      	beq.n	12a8 <TEE_PopulateTransientObject+0x60>
/home/hsk/Desktop/devel/tee-tpm-hyp/optee_os/lib/libutee/tee_api_objects.c:282
    12a4:	f005 f944 	bl	6530 <TEE_Panic>
/home/hsk/Desktop/devel/tee-tpm-hyp/optee_os/lib/libutee/tee_api_objects.c:284
    12a8:	4620      	mov	r0, r4
    12aa:	3720      	adds	r7, #32
    12ac:	46bd      	mov	sp, r7
    12ae:	e8bd 81f0 	ldmia.w	sp!, {r4, r5, r6, r7, r8, pc}
    12b2:	bf00      	nop
    12b4:	ffff0006 	.word	0xffff0006

000012b8 <TEE_InitRefAttribute>:
TEE_InitRefAttribute():
/home/hsk/Desktop/devel/tee-tpm-hyp/optee_os/lib/libutee/tee_api_objects.c:288
    12b8:	b5f8      	push	{r3, r4, r5, r6, r7, lr}
    12ba:	460d      	mov	r5, r1
    12bc:	4617      	mov	r7, r2
    12be:	461e      	mov	r6, r3
/home/hsk/Desktop/devel/tee-tpm-hyp/optee_os/lib/libutee/tee_api_objects.c:289
    12c0:	4604      	mov	r4, r0
    12c2:	b908      	cbnz	r0, 12c8 <TEE_InitRefAttribute+0x10>
/home/hsk/Desktop/devel/tee-tpm-hyp/optee_os/lib/libutee/tee_api_objects.c:290
    12c4:	f005 f934 	bl	6530 <TEE_Panic>
/home/hsk/Desktop/devel/tee-tpm-hyp/optee_os/lib/libutee/tee_api_objects.c:291
    12c8:	00ab      	lsls	r3, r5, #2
    12ca:	d502      	bpl.n	12d2 <TEE_InitRefAttribute+0x1a>
/home/hsk/Desktop/devel/tee-tpm-hyp/optee_os/lib/libutee/tee_api_objects.c:292
    12cc:	2000      	movs	r0, #0
    12ce:	f005 f92f 	bl	6530 <TEE_Panic>
/home/hsk/Desktop/devel/tee-tpm-hyp/optee_os/lib/libutee/tee_api_objects.c:294
    12d2:	e9c4 5700 	strd	r5, r7, [r4]
/home/hsk/Desktop/devel/tee-tpm-hyp/optee_os/lib/libutee/tee_api_objects.c:295
    12d6:	60a6      	str	r6, [r4, #8]
/home/hsk/Desktop/devel/tee-tpm-hyp/optee_os/lib/libutee/tee_api_objects.c:296
    12d8:	bdf8      	pop	{r3, r4, r5, r6, r7, pc}

000012da <TEE_InitValueAttribute>:
TEE_InitValueAttribute():
/home/hsk/Desktop/devel/tee-tpm-hyp/optee_os/lib/libutee/tee_api_objects.c:300
    12da:	b5f8      	push	{r3, r4, r5, r6, r7, lr}
    12dc:	460d      	mov	r5, r1
    12de:	4617      	mov	r7, r2
    12e0:	461e      	mov	r6, r3
/home/hsk/Desktop/devel/tee-tpm-hyp/optee_os/lib/libutee/tee_api_objects.c:301
    12e2:	4604      	mov	r4, r0
    12e4:	b908      	cbnz	r0, 12ea <TEE_InitValueAttribute+0x10>
/home/hsk/Desktop/devel/tee-tpm-hyp/optee_os/lib/libutee/tee_api_objects.c:302
    12e6:	f005 f923 	bl	6530 <TEE_Panic>
/home/hsk/Desktop/devel/tee-tpm-hyp/optee_os/lib/libutee/tee_api_objects.c:303
    12ea:	f015 5000 	ands.w	r0, r5, #536870912	; 0x20000000
    12ee:	d101      	bne.n	12f4 <TEE_InitValueAttribute+0x1a>
/home/hsk/Desktop/devel/tee-tpm-hyp/optee_os/lib/libutee/tee_api_objects.c:304
    12f0:	f005 f91e 	bl	6530 <TEE_Panic>
/home/hsk/Desktop/devel/tee-tpm-hyp/optee_os/lib/libutee/tee_api_objects.c:306
    12f4:	e9c4 5700 	strd	r5, r7, [r4]
/home/hsk/Desktop/devel/tee-tpm-hyp/optee_os/lib/libutee/tee_api_objects.c:307
    12f8:	60a6      	str	r6, [r4, #8]
/home/hsk/Desktop/devel/tee-tpm-hyp/optee_os/lib/libutee/tee_api_objects.c:308
    12fa:	bdf8      	pop	{r3, r4, r5, r6, r7, pc}

000012fc <TEE_CopyObjectAttributes1>:
TEE_CopyObjectAttributes1():
/home/hsk/Desktop/devel/tee-tpm-hyp/optee_os/lib/libutee/tee_api_objects.c:333
    12fc:	b570      	push	{r4, r5, r6, lr}
    12fe:	460d      	mov	r5, r1
    1300:	4606      	mov	r6, r0
    1302:	b08e      	sub	sp, #56	; 0x38
/home/hsk/Desktop/devel/tee-tpm-hyp/optee_os/lib/libutee/tee_api_objects.c:338
    1304:	4669      	mov	r1, sp
    1306:	f000 ec54 	blx	1bb0 <utee_cryp_obj_get_info>
/home/hsk/Desktop/devel/tee-tpm-hyp/optee_os/lib/libutee/tee_api_objects.c:339
    130a:	4604      	mov	r4, r0
    130c:	b9e0      	cbnz	r0, 1348 <TEE_CopyObjectAttributes1+0x4c>
/home/hsk/Desktop/devel/tee-tpm-hyp/optee_os/lib/libutee/tee_api_objects.c:342
    130e:	a907      	add	r1, sp, #28
    1310:	4628      	mov	r0, r5
    1312:	f000 ec4e 	blx	1bb0 <utee_cryp_obj_get_info>
/home/hsk/Desktop/devel/tee-tpm-hyp/optee_os/lib/libutee/tee_api_objects.c:343
    1316:	4604      	mov	r4, r0
    1318:	b9b0      	cbnz	r0, 1348 <TEE_CopyObjectAttributes1+0x4c>
/home/hsk/Desktop/devel/tee-tpm-hyp/optee_os/lib/libutee/tee_api_objects.c:346
    131a:	9b0d      	ldr	r3, [sp, #52]	; 0x34
    131c:	0399      	lsls	r1, r3, #14
    131e:	d401      	bmi.n	1324 <TEE_CopyObjectAttributes1+0x28>
/home/hsk/Desktop/devel/tee-tpm-hyp/optee_os/lib/libutee/tee_api_objects.c:347
    1320:	f005 f906 	bl	6530 <TEE_Panic>
/home/hsk/Desktop/devel/tee-tpm-hyp/optee_os/lib/libutee/tee_api_objects.c:349
    1324:	9b06      	ldr	r3, [sp, #24]
    1326:	03da      	lsls	r2, r3, #15
    1328:	d502      	bpl.n	1330 <TEE_CopyObjectAttributes1+0x34>
/home/hsk/Desktop/devel/tee-tpm-hyp/optee_os/lib/libutee/tee_api_objects.c:350
    132a:	2000      	movs	r0, #0
    132c:	f005 f900 	bl	6530 <TEE_Panic>
/home/hsk/Desktop/devel/tee-tpm-hyp/optee_os/lib/libutee/tee_api_objects.c:352
    1330:	9b06      	ldr	r3, [sp, #24]
    1332:	039b      	lsls	r3, r3, #14
    1334:	d502      	bpl.n	133c <TEE_CopyObjectAttributes1+0x40>
/home/hsk/Desktop/devel/tee-tpm-hyp/optee_os/lib/libutee/tee_api_objects.c:353
    1336:	2000      	movs	r0, #0
    1338:	f005 f8fa 	bl	6530 <TEE_Panic>
/home/hsk/Desktop/devel/tee-tpm-hyp/optee_os/lib/libutee/tee_api_objects.c:355
    133c:	4629      	mov	r1, r5
    133e:	4630      	mov	r0, r6
    1340:	f000 ec7c 	blx	1c3c <utee_cryp_obj_copy>
/home/hsk/Desktop/devel/tee-tpm-hyp/optee_os/lib/libutee/tee_api_objects.c:359
    1344:	4604      	mov	r4, r0
    1346:	b140      	cbz	r0, 135a <TEE_CopyObjectAttributes1+0x5e>
/home/hsk/Desktop/devel/tee-tpm-hyp/optee_os/lib/libutee/tee_api_objects.c:359 (discriminator 1)
    1348:	4b05      	ldr	r3, [pc, #20]	; (1360 <TEE_CopyObjectAttributes1+0x64>)
    134a:	429c      	cmp	r4, r3
    134c:	d005      	beq.n	135a <TEE_CopyObjectAttributes1+0x5e>
/home/hsk/Desktop/devel/tee-tpm-hyp/optee_os/lib/libutee/tee_api_objects.c:360
    134e:	3302      	adds	r3, #2
    1350:	429c      	cmp	r4, r3
    1352:	d002      	beq.n	135a <TEE_CopyObjectAttributes1+0x5e>
/home/hsk/Desktop/devel/tee-tpm-hyp/optee_os/lib/libutee/tee_api_objects.c:362
    1354:	4620      	mov	r0, r4
    1356:	f005 f8eb 	bl	6530 <TEE_Panic>
/home/hsk/Desktop/devel/tee-tpm-hyp/optee_os/lib/libutee/tee_api_objects.c:365
    135a:	4620      	mov	r0, r4
    135c:	b00e      	add	sp, #56	; 0x38
    135e:	bd70      	pop	{r4, r5, r6, pc}
    1360:	f0100001 	.word	0xf0100001

00001364 <TEE_CopyObjectAttributes>:
TEE_CopyObjectAttributes():
/home/hsk/Desktop/devel/tee-tpm-hyp/optee_os/lib/libutee/tee_api_objects.c:318
    1364:	b530      	push	{r4, r5, lr}
    1366:	460c      	mov	r4, r1
    1368:	4605      	mov	r5, r0
    136a:	b089      	sub	sp, #36	; 0x24
/home/hsk/Desktop/devel/tee-tpm-hyp/optee_os/lib/libutee/tee_api_objects.c:322
    136c:	4620      	mov	r0, r4
    136e:	a901      	add	r1, sp, #4
    1370:	f000 ec1e 	blx	1bb0 <utee_cryp_obj_get_info>
/home/hsk/Desktop/devel/tee-tpm-hyp/optee_os/lib/libutee/tee_api_objects.c:323
    1374:	4b06      	ldr	r3, [pc, #24]	; (1390 <TEE_CopyObjectAttributes+0x2c>)
    1376:	9a01      	ldr	r2, [sp, #4]
    1378:	429a      	cmp	r2, r3
    137a:	d006      	beq.n	138a <TEE_CopyObjectAttributes+0x26>
/home/hsk/Desktop/devel/tee-tpm-hyp/optee_os/lib/libutee/tee_api_objects.c:326
    137c:	4621      	mov	r1, r4
    137e:	4628      	mov	r0, r5
    1380:	f7ff ffbc 	bl	12fc <TEE_CopyObjectAttributes1>
/home/hsk/Desktop/devel/tee-tpm-hyp/optee_os/lib/libutee/tee_api_objects.c:327
    1384:	b108      	cbz	r0, 138a <TEE_CopyObjectAttributes+0x26>
/home/hsk/Desktop/devel/tee-tpm-hyp/optee_os/lib/libutee/tee_api_objects.c:328
    1386:	f005 f8d3 	bl	6530 <TEE_Panic>
/home/hsk/Desktop/devel/tee-tpm-hyp/optee_os/lib/libutee/tee_api_objects.c:329
    138a:	b009      	add	sp, #36	; 0x24
    138c:	bd30      	pop	{r4, r5, pc}
    138e:	bf00      	nop
    1390:	a00000be 	.word	0xa00000be

00001394 <TEE_GenerateKey>:
TEE_GenerateKey():
/home/hsk/Desktop/devel/tee-tpm-hyp/optee_os/lib/libutee/tee_api_objects.c:369
    1394:	e92d 41f0 	stmdb	sp!, {r4, r5, r6, r7, r8, lr}
    1398:	461c      	mov	r4, r3
/home/hsk/Desktop/devel/tee-tpm-hyp/optee_os/lib/libutee/tee_api_objects.c:371
    139a:	2318      	movs	r3, #24
/home/hsk/Desktop/devel/tee-tpm-hyp/optee_os/lib/libutee/tee_api_objects.c:369
    139c:	b082      	sub	sp, #8
    139e:	af02      	add	r7, sp, #8
    13a0:	4605      	mov	r5, r0
/home/hsk/Desktop/devel/tee-tpm-hyp/optee_os/lib/libutee/tee_api_objects.c:371
    13a2:	4363      	muls	r3, r4
/home/hsk/Desktop/devel/tee-tpm-hyp/optee_os/lib/libutee/tee_api_objects.c:369
    13a4:	4688      	mov	r8, r1
    13a6:	4611      	mov	r1, r2
/home/hsk/Desktop/devel/tee-tpm-hyp/optee_os/lib/libutee/tee_api_objects.c:373
    13a8:	4622      	mov	r2, r4
/home/hsk/Desktop/devel/tee-tpm-hyp/optee_os/lib/libutee/tee_api_objects.c:371
    13aa:	3308      	adds	r3, #8
    13ac:	ebad 0d03 	sub.w	sp, sp, r3
    13b0:	ae02      	add	r6, sp, #8
/home/hsk/Desktop/devel/tee-tpm-hyp/optee_os/lib/libutee/tee_api_objects.c:373
    13b2:	4630      	mov	r0, r6
    13b4:	f7ff fe14 	bl	fe0 <__utee_from_attr>
/home/hsk/Desktop/devel/tee-tpm-hyp/optee_os/lib/libutee/tee_api_objects.c:374
    13b8:	4b0f      	ldr	r3, [pc, #60]	; (13f8 <TEE_GenerateKey+0x64>)
    13ba:	4810      	ldr	r0, [pc, #64]	; (13fc <TEE_GenerateKey+0x68>)
    13bc:	2203      	movs	r2, #3
    13be:	447b      	add	r3, pc
    13c0:	f44f 71bb 	mov.w	r1, #374	; 0x176
    13c4:	9300      	str	r3, [sp, #0]
    13c6:	4478      	add	r0, pc
    13c8:	2301      	movs	r3, #1
    13ca:	9501      	str	r5, [sp, #4]
    13cc:	f7fe ff86 	bl	2dc <trace_printf>
/home/hsk/Desktop/devel/tee-tpm-hyp/optee_os/lib/libutee/tee_api_objects.c:375
    13d0:	4623      	mov	r3, r4
    13d2:	4632      	mov	r2, r6
    13d4:	4641      	mov	r1, r8
    13d6:	4628      	mov	r0, r5
    13d8:	f000 ed26 	blx	1e28 <utee_cryp_obj_generate_key>
/home/hsk/Desktop/devel/tee-tpm-hyp/optee_os/lib/libutee/tee_api_objects.c:378
    13dc:	4604      	mov	r4, r0
    13de:	b120      	cbz	r0, 13ea <TEE_GenerateKey+0x56>
/home/hsk/Desktop/devel/tee-tpm-hyp/optee_os/lib/libutee/tee_api_objects.c:378 (discriminator 1)
    13e0:	4b04      	ldr	r3, [pc, #16]	; (13f4 <TEE_GenerateKey+0x60>)
    13e2:	4298      	cmp	r0, r3
    13e4:	d001      	beq.n	13ea <TEE_GenerateKey+0x56>
/home/hsk/Desktop/devel/tee-tpm-hyp/optee_os/lib/libutee/tee_api_objects.c:379
    13e6:	f005 f8a3 	bl	6530 <TEE_Panic>
/home/hsk/Desktop/devel/tee-tpm-hyp/optee_os/lib/libutee/tee_api_objects.c:382
    13ea:	4620      	mov	r0, r4
    13ec:	46bd      	mov	sp, r7
    13ee:	e8bd 81f0 	ldmia.w	sp!, {r4, r5, r6, r7, r8, pc}
    13f2:	bf00      	nop
    13f4:	ffff0006 	.word	0xffff0006
    13f8:	00005853 	.word	0x00005853
    13fc:	0000583b 	.word	0x0000583b

00001400 <TEE_OpenPersistentObject>:
TEE_OpenPersistentObject():
/home/hsk/Desktop/devel/tee-tpm-hyp/optee_os/lib/libutee/tee_api_objects.c:389
    1400:	b530      	push	{r4, r5, lr}
    1402:	b085      	sub	sp, #20
    1404:	9d08      	ldr	r5, [sp, #32]
/home/hsk/Desktop/devel/tee-tpm-hyp/optee_os/lib/libutee/tee_api_objects.c:393
    1406:	b919      	cbnz	r1, 1410 <TEE_OpenPersistentObject+0x10>
/home/hsk/Desktop/devel/tee-tpm-hyp/optee_os/lib/libutee/tee_api_objects.c:394
    1408:	4c12      	ldr	r4, [pc, #72]	; (1454 <TEE_OpenPersistentObject+0x54>)
/home/hsk/Desktop/devel/tee-tpm-hyp/optee_os/lib/libutee/tee_api_objects.c:423
    140a:	4620      	mov	r0, r4
    140c:	b005      	add	sp, #20
    140e:	bd30      	pop	{r4, r5, pc}
/home/hsk/Desktop/devel/tee-tpm-hyp/optee_os/lib/libutee/tee_api_objects.c:398
    1410:	2a40      	cmp	r2, #64	; 0x40
    1412:	d809      	bhi.n	1428 <TEE_OpenPersistentObject+0x28>
/home/hsk/Desktop/devel/tee-tpm-hyp/optee_os/lib/libutee/tee_api_objects.c:403
    1414:	b145      	cbz	r5, 1428 <TEE_OpenPersistentObject+0x28>
/home/hsk/Desktop/devel/tee-tpm-hyp/optee_os/lib/libutee/tee_api_objects.c:408
    1416:	ac03      	add	r4, sp, #12
    1418:	9400      	str	r4, [sp, #0]
    141a:	f000 ec80 	blx	1d1c <utee_storage_obj_open>
/home/hsk/Desktop/devel/tee-tpm-hyp/optee_os/lib/libutee/tee_api_objects.c:410
    141e:	4604      	mov	r4, r0
    1420:	b920      	cbnz	r0, 142c <TEE_OpenPersistentObject+0x2c>
/home/hsk/Desktop/devel/tee-tpm-hyp/optee_os/lib/libutee/tee_api_objects.c:411
    1422:	9b03      	ldr	r3, [sp, #12]
    1424:	602b      	str	r3, [r5, #0]
    1426:	e7f0      	b.n	140a <TEE_OpenPersistentObject+0xa>
    1428:	4c0b      	ldr	r4, [pc, #44]	; (1458 <TEE_OpenPersistentObject+0x58>)
    142a:	e00e      	b.n	144a <TEE_OpenPersistentObject+0x4a>
/home/hsk/Desktop/devel/tee-tpm-hyp/optee_os/lib/libutee/tee_api_objects.c:414
    142c:	4b09      	ldr	r3, [pc, #36]	; (1454 <TEE_OpenPersistentObject+0x54>)
    142e:	4298      	cmp	r0, r3
    1430:	d0ea      	beq.n	1408 <TEE_OpenPersistentObject+0x8>
/home/hsk/Desktop/devel/tee-tpm-hyp/optee_os/lib/libutee/tee_api_objects.c:415
    1432:	4b0a      	ldr	r3, [pc, #40]	; (145c <TEE_OpenPersistentObject+0x5c>)
    1434:	429c      	cmp	r4, r3
    1436:	d0e8      	beq.n	140a <TEE_OpenPersistentObject+0xa>
/home/hsk/Desktop/devel/tee-tpm-hyp/optee_os/lib/libutee/tee_api_objects.c:416
    1438:	3309      	adds	r3, #9
    143a:	429c      	cmp	r4, r3
    143c:	d0e5      	beq.n	140a <TEE_OpenPersistentObject+0xa>
/home/hsk/Desktop/devel/tee-tpm-hyp/optee_os/lib/libutee/tee_api_objects.c:417
    143e:	4b08      	ldr	r3, [pc, #32]	; (1460 <TEE_OpenPersistentObject+0x60>)
    1440:	429c      	cmp	r4, r3
    1442:	d0e2      	beq.n	140a <TEE_OpenPersistentObject+0xa>
/home/hsk/Desktop/devel/tee-tpm-hyp/optee_os/lib/libutee/tee_api_objects.c:418
    1444:	3302      	adds	r3, #2
    1446:	429c      	cmp	r4, r3
    1448:	d0df      	beq.n	140a <TEE_OpenPersistentObject+0xa>
/home/hsk/Desktop/devel/tee-tpm-hyp/optee_os/lib/libutee/tee_api_objects.c:420
    144a:	4620      	mov	r0, r4
    144c:	f005 f870 	bl	6530 <TEE_Panic>
/home/hsk/Desktop/devel/tee-tpm-hyp/optee_os/lib/libutee/tee_api_objects.c:422
    1450:	e7db      	b.n	140a <TEE_OpenPersistentObject+0xa>
    1452:	bf00      	nop
    1454:	ffff0008 	.word	0xffff0008
    1458:	ffff0006 	.word	0xffff0006
    145c:	ffff0003 	.word	0xffff0003
    1460:	f0100001 	.word	0xf0100001

00001464 <TEE_CreatePersistentObject>:
TEE_CreatePersistentObject():
/home/hsk/Desktop/devel/tee-tpm-hyp/optee_os/lib/libutee/tee_api_objects.c:431
    1464:	b570      	push	{r4, r5, r6, lr}
    1466:	b086      	sub	sp, #24
    1468:	9c0d      	ldr	r4, [sp, #52]	; 0x34
/home/hsk/Desktop/devel/tee-tpm-hyp/optee_os/lib/libutee/tee_api_objects.c:435
    146a:	2900      	cmp	r1, #0
    146c:	d033      	beq.n	14d6 <TEE_CreatePersistentObject+0x72>
/home/hsk/Desktop/devel/tee-tpm-hyp/optee_os/lib/libutee/tee_api_objects.c:440
    146e:	2a40      	cmp	r2, #64	; 0x40
    1470:	d835      	bhi.n	14de <TEE_CreatePersistentObject+0x7a>
/home/hsk/Desktop/devel/tee-tpm-hyp/optee_os/lib/libutee/tee_api_objects.c:445
    1472:	ad05      	add	r5, sp, #20
    1474:	9503      	str	r5, [sp, #12]
    1476:	9d0c      	ldr	r5, [sp, #48]	; 0x30
    1478:	9502      	str	r5, [sp, #8]
    147a:	9d0b      	ldr	r5, [sp, #44]	; 0x2c
    147c:	9501      	str	r5, [sp, #4]
    147e:	9d0a      	ldr	r5, [sp, #40]	; 0x28
    1480:	9500      	str	r5, [sp, #0]
    1482:	f000 ec58 	blx	1d34 <utee_storage_obj_create>
/home/hsk/Desktop/devel/tee-tpm-hyp/optee_os/lib/libutee/tee_api_objects.c:448
    1486:	b970      	cbnz	r0, 14a6 <TEE_CreatePersistentObject+0x42>
    1488:	9b05      	ldr	r3, [sp, #20]
/home/hsk/Desktop/devel/tee-tpm-hyp/optee_os/lib/libutee/tee_api_objects.c:449
    148a:	b114      	cbz	r4, 1492 <TEE_CreatePersistentObject+0x2e>
/home/hsk/Desktop/devel/tee-tpm-hyp/optee_os/lib/libutee/tee_api_objects.c:450
    148c:	6023      	str	r3, [r4, #0]
/home/hsk/Desktop/devel/tee-tpm-hyp/optee_os/lib/libutee/tee_api_objects.c:469
    148e:	b006      	add	sp, #24
    1490:	bd70      	pop	{r4, r5, r6, pc}
/home/hsk/Desktop/devel/tee-tpm-hyp/optee_os/lib/libutee/tee_api_objects.c:452
    1492:	4618      	mov	r0, r3
    1494:	f000 ebb4 	blx	1c00 <utee_cryp_obj_close>
/home/hsk/Desktop/devel/tee-tpm-hyp/optee_os/lib/libutee/tee_api_objects.c:453
    1498:	2800      	cmp	r0, #0
    149a:	d0f8      	beq.n	148e <TEE_CreatePersistentObject+0x2a>
/home/hsk/Desktop/devel/tee-tpm-hyp/optee_os/lib/libutee/tee_api_objects.c:459
    149c:	4b12      	ldr	r3, [pc, #72]	; (14e8 <TEE_CreatePersistentObject+0x84>)
    149e:	4298      	cmp	r0, r3
    14a0:	d106      	bne.n	14b0 <TEE_CreatePersistentObject+0x4c>
/home/hsk/Desktop/devel/tee-tpm-hyp/optee_os/lib/libutee/tee_api_objects.c:458
    14a2:	4811      	ldr	r0, [pc, #68]	; (14e8 <TEE_CreatePersistentObject+0x84>)
    14a4:	e7f3      	b.n	148e <TEE_CreatePersistentObject+0x2a>
/home/hsk/Desktop/devel/tee-tpm-hyp/optee_os/lib/libutee/tee_api_objects.c:457
    14a6:	2c00      	cmp	r4, #0
    14a8:	d0f8      	beq.n	149c <TEE_CreatePersistentObject+0x38>
/home/hsk/Desktop/devel/tee-tpm-hyp/optee_os/lib/libutee/tee_api_objects.c:458
    14aa:	2300      	movs	r3, #0
    14ac:	6023      	str	r3, [r4, #0]
    14ae:	e7f5      	b.n	149c <TEE_CreatePersistentObject+0x38>
/home/hsk/Desktop/devel/tee-tpm-hyp/optee_os/lib/libutee/tee_api_objects.c:459 (discriminator 1)
    14b0:	4b0e      	ldr	r3, [pc, #56]	; (14ec <TEE_CreatePersistentObject+0x88>)
    14b2:	4298      	cmp	r0, r3
    14b4:	d0eb      	beq.n	148e <TEE_CreatePersistentObject+0x2a>
/home/hsk/Desktop/devel/tee-tpm-hyp/optee_os/lib/libutee/tee_api_objects.c:460
    14b6:	3309      	adds	r3, #9
    14b8:	4298      	cmp	r0, r3
    14ba:	d0e8      	beq.n	148e <TEE_CreatePersistentObject+0x2a>
/home/hsk/Desktop/devel/tee-tpm-hyp/optee_os/lib/libutee/tee_api_objects.c:461
    14bc:	4b0c      	ldr	r3, [pc, #48]	; (14f0 <TEE_CreatePersistentObject+0x8c>)
    14be:	4298      	cmp	r0, r3
    14c0:	d0e5      	beq.n	148e <TEE_CreatePersistentObject+0x2a>
/home/hsk/Desktop/devel/tee-tpm-hyp/optee_os/lib/libutee/tee_api_objects.c:462
    14c2:	4b0c      	ldr	r3, [pc, #48]	; (14f4 <TEE_CreatePersistentObject+0x90>)
    14c4:	4298      	cmp	r0, r3
    14c6:	d0e2      	beq.n	148e <TEE_CreatePersistentObject+0x2a>
/home/hsk/Desktop/devel/tee-tpm-hyp/optee_os/lib/libutee/tee_api_objects.c:463
    14c8:	3302      	adds	r3, #2
    14ca:	4298      	cmp	r0, r3
    14cc:	d0df      	beq.n	148e <TEE_CreatePersistentObject+0x2a>
/home/hsk/Desktop/devel/tee-tpm-hyp/optee_os/lib/libutee/tee_api_objects.c:466
    14ce:	f005 f82f 	bl	6530 <TEE_Panic>
/home/hsk/Desktop/devel/tee-tpm-hyp/optee_os/lib/libutee/tee_api_objects.c:468
    14d2:	2000      	movs	r0, #0
    14d4:	e7db      	b.n	148e <TEE_CreatePersistentObject+0x2a>
/home/hsk/Desktop/devel/tee-tpm-hyp/optee_os/lib/libutee/tee_api_objects.c:457
    14d6:	2c00      	cmp	r4, #0
    14d8:	d0e3      	beq.n	14a2 <TEE_CreatePersistentObject+0x3e>
/home/hsk/Desktop/devel/tee-tpm-hyp/optee_os/lib/libutee/tee_api_objects.c:458
    14da:	6021      	str	r1, [r4, #0]
    14dc:	e7e1      	b.n	14a2 <TEE_CreatePersistentObject+0x3e>
/home/hsk/Desktop/devel/tee-tpm-hyp/optee_os/lib/libutee/tee_api_objects.c:457
    14de:	b10c      	cbz	r4, 14e4 <TEE_CreatePersistentObject+0x80>
/home/hsk/Desktop/devel/tee-tpm-hyp/optee_os/lib/libutee/tee_api_objects.c:458
    14e0:	2300      	movs	r3, #0
    14e2:	6023      	str	r3, [r4, #0]
/home/hsk/Desktop/devel/tee-tpm-hyp/optee_os/lib/libutee/tee_api_objects.c:441
    14e4:	4804      	ldr	r0, [pc, #16]	; (14f8 <TEE_CreatePersistentObject+0x94>)
    14e6:	e7f2      	b.n	14ce <TEE_CreatePersistentObject+0x6a>
    14e8:	ffff0008 	.word	0xffff0008
    14ec:	ffff0003 	.word	0xffff0003
    14f0:	ffff3041 	.word	0xffff3041
    14f4:	f0100001 	.word	0xf0100001
    14f8:	ffff0006 	.word	0xffff0006

000014fc <TEE_CloseAndDeletePersistentObject1>:
TEE_CloseAndDeletePersistentObject1():
/home/hsk/Desktop/devel/tee-tpm-hyp/optee_os/lib/libutee/tee_api_objects.c:491
    14fc:	b510      	push	{r4, lr}
/home/hsk/Desktop/devel/tee-tpm-hyp/optee_os/lib/libutee/tee_api_objects.c:494
    14fe:	b150      	cbz	r0, 1516 <TEE_CloseAndDeletePersistentObject1+0x1a>
/home/hsk/Desktop/devel/tee-tpm-hyp/optee_os/lib/libutee/tee_api_objects.c:497
    1500:	f000 ec24 	blx	1d4c <utee_storage_obj_del>
/home/hsk/Desktop/devel/tee-tpm-hyp/optee_os/lib/libutee/tee_api_objects.c:499
    1504:	4604      	mov	r4, r0
    1506:	b120      	cbz	r0, 1512 <TEE_CloseAndDeletePersistentObject1+0x16>
/home/hsk/Desktop/devel/tee-tpm-hyp/optee_os/lib/libutee/tee_api_objects.c:499 (discriminator 1)
    1508:	4b04      	ldr	r3, [pc, #16]	; (151c <TEE_CloseAndDeletePersistentObject1+0x20>)
    150a:	4298      	cmp	r0, r3
    150c:	d001      	beq.n	1512 <TEE_CloseAndDeletePersistentObject1+0x16>
/home/hsk/Desktop/devel/tee-tpm-hyp/optee_os/lib/libutee/tee_api_objects.c:500
    150e:	f005 f80f 	bl	6530 <TEE_Panic>
/home/hsk/Desktop/devel/tee-tpm-hyp/optee_os/lib/libutee/tee_api_objects.c:503
    1512:	4620      	mov	r0, r4
    1514:	bd10      	pop	{r4, pc}
/home/hsk/Desktop/devel/tee-tpm-hyp/optee_os/lib/libutee/tee_api_objects.c:495
    1516:	4c01      	ldr	r4, [pc, #4]	; (151c <TEE_CloseAndDeletePersistentObject1+0x20>)
    1518:	e7fb      	b.n	1512 <TEE_CloseAndDeletePersistentObject1+0x16>
    151a:	bf00      	nop
    151c:	f0100003 	.word	0xf0100003

00001520 <TEE_CloseAndDeletePersistentObject>:
TEE_CloseAndDeletePersistentObject():
/home/hsk/Desktop/devel/tee-tpm-hyp/optee_os/lib/libutee/tee_api_objects.c:478
    1520:	b508      	push	{r3, lr}
/home/hsk/Desktop/devel/tee-tpm-hyp/optee_os/lib/libutee/tee_api_objects.c:481
    1522:	b138      	cbz	r0, 1534 <TEE_CloseAndDeletePersistentObject+0x14>
/home/hsk/Desktop/devel/tee-tpm-hyp/optee_os/lib/libutee/tee_api_objects.c:484
    1524:	f7ff ffea 	bl	14fc <TEE_CloseAndDeletePersistentObject1>
/home/hsk/Desktop/devel/tee-tpm-hyp/optee_os/lib/libutee/tee_api_objects.c:486
    1528:	b120      	cbz	r0, 1534 <TEE_CloseAndDeletePersistentObject+0x14>
/home/hsk/Desktop/devel/tee-tpm-hyp/optee_os/lib/libutee/tee_api_objects.c:487
    152a:	2000      	movs	r0, #0
/home/hsk/Desktop/devel/tee-tpm-hyp/optee_os/lib/libutee/tee_api_objects.c:488
    152c:	e8bd 4008 	ldmia.w	sp!, {r3, lr}
/home/hsk/Desktop/devel/tee-tpm-hyp/optee_os/lib/libutee/tee_api_objects.c:487
    1530:	f004 bffe 	b.w	6530 <TEE_Panic>
/home/hsk/Desktop/devel/tee-tpm-hyp/optee_os/lib/libutee/tee_api_objects.c:488
    1534:	bd08      	pop	{r3, pc}

00001536 <TEE_RenamePersistentObject>:
TEE_RenamePersistentObject():
/home/hsk/Desktop/devel/tee-tpm-hyp/optee_os/lib/libutee/tee_api_objects.c:509
    1536:	b510      	push	{r4, lr}
/home/hsk/Desktop/devel/tee-tpm-hyp/optee_os/lib/libutee/tee_api_objects.c:512
    1538:	b1a0      	cbz	r0, 1564 <TEE_RenamePersistentObject+0x2e>
/home/hsk/Desktop/devel/tee-tpm-hyp/optee_os/lib/libutee/tee_api_objects.c:517
    153a:	b1a9      	cbz	r1, 1568 <TEE_RenamePersistentObject+0x32>
/home/hsk/Desktop/devel/tee-tpm-hyp/optee_os/lib/libutee/tee_api_objects.c:522
    153c:	2a40      	cmp	r2, #64	; 0x40
    153e:	d813      	bhi.n	1568 <TEE_RenamePersistentObject+0x32>
/home/hsk/Desktop/devel/tee-tpm-hyp/optee_os/lib/libutee/tee_api_objects.c:527
    1540:	f000 ec0e 	blx	1d60 <utee_storage_obj_rename>
/home/hsk/Desktop/devel/tee-tpm-hyp/optee_os/lib/libutee/tee_api_objects.c:531
    1544:	4604      	mov	r4, r0
    1546:	b158      	cbz	r0, 1560 <TEE_RenamePersistentObject+0x2a>
/home/hsk/Desktop/devel/tee-tpm-hyp/optee_os/lib/libutee/tee_api_objects.c:531 (discriminator 1)
    1548:	4b08      	ldr	r3, [pc, #32]	; (156c <TEE_RenamePersistentObject+0x36>)
    154a:	4298      	cmp	r0, r3
    154c:	d008      	beq.n	1560 <TEE_RenamePersistentObject+0x2a>
/home/hsk/Desktop/devel/tee-tpm-hyp/optee_os/lib/libutee/tee_api_objects.c:532
    154e:	4b08      	ldr	r3, [pc, #32]	; (1570 <TEE_RenamePersistentObject+0x3a>)
    1550:	4298      	cmp	r0, r3
    1552:	d005      	beq.n	1560 <TEE_RenamePersistentObject+0x2a>
/home/hsk/Desktop/devel/tee-tpm-hyp/optee_os/lib/libutee/tee_api_objects.c:533
    1554:	3302      	adds	r3, #2
    1556:	4298      	cmp	r0, r3
    1558:	d002      	beq.n	1560 <TEE_RenamePersistentObject+0x2a>
/home/hsk/Desktop/devel/tee-tpm-hyp/optee_os/lib/libutee/tee_api_objects.c:535
    155a:	4620      	mov	r0, r4
    155c:	f004 ffe8 	bl	6530 <TEE_Panic>
/home/hsk/Desktop/devel/tee-tpm-hyp/optee_os/lib/libutee/tee_api_objects.c:538
    1560:	4620      	mov	r0, r4
    1562:	bd10      	pop	{r4, pc}
/home/hsk/Desktop/devel/tee-tpm-hyp/optee_os/lib/libutee/tee_api_objects.c:513
    1564:	4c03      	ldr	r4, [pc, #12]	; (1574 <TEE_RenamePersistentObject+0x3e>)
    1566:	e7f8      	b.n	155a <TEE_RenamePersistentObject+0x24>
/home/hsk/Desktop/devel/tee-tpm-hyp/optee_os/lib/libutee/tee_api_objects.c:518
    1568:	4c03      	ldr	r4, [pc, #12]	; (1578 <TEE_RenamePersistentObject+0x42>)
    156a:	e7f6      	b.n	155a <TEE_RenamePersistentObject+0x24>
    156c:	ffff0003 	.word	0xffff0003
    1570:	f0100001 	.word	0xf0100001
    1574:	ffff0008 	.word	0xffff0008
    1578:	ffff0006 	.word	0xffff0006

0000157c <TEE_AllocatePersistentObjectEnumerator>:
TEE_AllocatePersistentObjectEnumerator():
/home/hsk/Desktop/devel/tee-tpm-hyp/optee_os/lib/libutee/tee_api_objects.c:542
    157c:	b537      	push	{r0, r1, r2, r4, r5, lr}
/home/hsk/Desktop/devel/tee-tpm-hyp/optee_os/lib/libutee/tee_api_objects.c:546
    157e:	4605      	mov	r5, r0
    1580:	b190      	cbz	r0, 15a8 <TEE_AllocatePersistentObjectEnumerator+0x2c>
/home/hsk/Desktop/devel/tee-tpm-hyp/optee_os/lib/libutee/tee_api_objects.c:549
    1582:	a801      	add	r0, sp, #4
    1584:	f000 ebf6 	blx	1d74 <utee_storage_alloc_enum>
/home/hsk/Desktop/devel/tee-tpm-hyp/optee_os/lib/libutee/tee_api_objects.c:551
    1588:	4604      	mov	r4, r0
    158a:	b108      	cbz	r0, 1590 <TEE_AllocatePersistentObjectEnumerator+0x14>
/home/hsk/Desktop/devel/tee-tpm-hyp/optee_os/lib/libutee/tee_api_objects.c:552
    158c:	2300      	movs	r3, #0
    158e:	9301      	str	r3, [sp, #4]
/home/hsk/Desktop/devel/tee-tpm-hyp/optee_os/lib/libutee/tee_api_objects.c:554
    1590:	9b01      	ldr	r3, [sp, #4]
    1592:	602b      	str	r3, [r5, #0]
/home/hsk/Desktop/devel/tee-tpm-hyp/optee_os/lib/libutee/tee_api_objects.c:556
    1594:	b12c      	cbz	r4, 15a2 <TEE_AllocatePersistentObjectEnumerator+0x26>
/home/hsk/Desktop/devel/tee-tpm-hyp/optee_os/lib/libutee/tee_api_objects.c:556 (discriminator 1)
    1596:	4b05      	ldr	r3, [pc, #20]	; (15ac <TEE_AllocatePersistentObjectEnumerator+0x30>)
    1598:	429c      	cmp	r4, r3
    159a:	d002      	beq.n	15a2 <TEE_AllocatePersistentObjectEnumerator+0x26>
/home/hsk/Desktop/devel/tee-tpm-hyp/optee_os/lib/libutee/tee_api_objects.c:558
    159c:	4620      	mov	r0, r4
    159e:	f004 ffc7 	bl	6530 <TEE_Panic>
/home/hsk/Desktop/devel/tee-tpm-hyp/optee_os/lib/libutee/tee_api_objects.c:561
    15a2:	4620      	mov	r0, r4
    15a4:	b003      	add	sp, #12
    15a6:	bd30      	pop	{r4, r5, pc}
/home/hsk/Desktop/devel/tee-tpm-hyp/optee_os/lib/libutee/tee_api_objects.c:547
    15a8:	4c01      	ldr	r4, [pc, #4]	; (15b0 <TEE_AllocatePersistentObjectEnumerator+0x34>)
    15aa:	e7fa      	b.n	15a2 <TEE_AllocatePersistentObjectEnumerator+0x26>
    15ac:	ffff0003 	.word	0xffff0003
    15b0:	ffff0006 	.word	0xffff0006

000015b4 <TEE_FreePersistentObjectEnumerator>:
TEE_FreePersistentObjectEnumerator():
/home/hsk/Desktop/devel/tee-tpm-hyp/optee_os/lib/libutee/tee_api_objects.c:564
    15b4:	b508      	push	{r3, lr}
/home/hsk/Desktop/devel/tee-tpm-hyp/optee_os/lib/libutee/tee_api_objects.c:567
    15b6:	b130      	cbz	r0, 15c6 <TEE_FreePersistentObjectEnumerator+0x12>
/home/hsk/Desktop/devel/tee-tpm-hyp/optee_os/lib/libutee/tee_api_objects.c:570
    15b8:	f000 ebe6 	blx	1d88 <utee_storage_free_enum>
/home/hsk/Desktop/devel/tee-tpm-hyp/optee_os/lib/libutee/tee_api_objects.c:572
    15bc:	b118      	cbz	r0, 15c6 <TEE_FreePersistentObjectEnumerator+0x12>
/home/hsk/Desktop/devel/tee-tpm-hyp/optee_os/lib/libutee/tee_api_objects.c:574
    15be:	e8bd 4008 	ldmia.w	sp!, {r3, lr}
/home/hsk/Desktop/devel/tee-tpm-hyp/optee_os/lib/libutee/tee_api_objects.c:573
    15c2:	f004 bfb5 	b.w	6530 <TEE_Panic>
/home/hsk/Desktop/devel/tee-tpm-hyp/optee_os/lib/libutee/tee_api_objects.c:574
    15c6:	bd08      	pop	{r3, pc}

000015c8 <TEE_ResetPersistentObjectEnumerator>:
TEE_ResetPersistentObjectEnumerator():
/home/hsk/Desktop/devel/tee-tpm-hyp/optee_os/lib/libutee/tee_api_objects.c:577
    15c8:	b508      	push	{r3, lr}
/home/hsk/Desktop/devel/tee-tpm-hyp/optee_os/lib/libutee/tee_api_objects.c:580
    15ca:	b130      	cbz	r0, 15da <TEE_ResetPersistentObjectEnumerator+0x12>
/home/hsk/Desktop/devel/tee-tpm-hyp/optee_os/lib/libutee/tee_api_objects.c:583
    15cc:	f000 ebe6 	blx	1d9c <utee_storage_reset_enum>
/home/hsk/Desktop/devel/tee-tpm-hyp/optee_os/lib/libutee/tee_api_objects.c:585
    15d0:	b118      	cbz	r0, 15da <TEE_ResetPersistentObjectEnumerator+0x12>
/home/hsk/Desktop/devel/tee-tpm-hyp/optee_os/lib/libutee/tee_api_objects.c:587
    15d2:	e8bd 4008 	ldmia.w	sp!, {r3, lr}
/home/hsk/Desktop/devel/tee-tpm-hyp/optee_os/lib/libutee/tee_api_objects.c:586
    15d6:	f004 bfab 	b.w	6530 <TEE_Panic>
/home/hsk/Desktop/devel/tee-tpm-hyp/optee_os/lib/libutee/tee_api_objects.c:587
    15da:	bd08      	pop	{r3, pc}

000015dc <TEE_StartPersistentObjectEnumerator>:
TEE_StartPersistentObjectEnumerator():
/home/hsk/Desktop/devel/tee-tpm-hyp/optee_os/lib/libutee/tee_api_objects.c:592
    15dc:	b510      	push	{r4, lr}
/home/hsk/Desktop/devel/tee-tpm-hyp/optee_os/lib/libutee/tee_api_objects.c:595
    15de:	f000 ebe8 	blx	1db0 <utee_storage_start_enum>
/home/hsk/Desktop/devel/tee-tpm-hyp/optee_os/lib/libutee/tee_api_objects.c:598
    15e2:	4604      	mov	r4, r0
    15e4:	b148      	cbz	r0, 15fa <TEE_StartPersistentObjectEnumerator+0x1e>
/home/hsk/Desktop/devel/tee-tpm-hyp/optee_os/lib/libutee/tee_api_objects.c:598 (discriminator 1)
    15e6:	4b06      	ldr	r3, [pc, #24]	; (1600 <TEE_StartPersistentObjectEnumerator+0x24>)
    15e8:	4298      	cmp	r0, r3
    15ea:	d006      	beq.n	15fa <TEE_StartPersistentObjectEnumerator+0x1e>
/home/hsk/Desktop/devel/tee-tpm-hyp/optee_os/lib/libutee/tee_api_objects.c:599
    15ec:	4b05      	ldr	r3, [pc, #20]	; (1604 <TEE_StartPersistentObjectEnumerator+0x28>)
    15ee:	f020 0202 	bic.w	r2, r0, #2
    15f2:	429a      	cmp	r2, r3
    15f4:	d001      	beq.n	15fa <TEE_StartPersistentObjectEnumerator+0x1e>
/home/hsk/Desktop/devel/tee-tpm-hyp/optee_os/lib/libutee/tee_api_objects.c:602
    15f6:	f004 ff9b 	bl	6530 <TEE_Panic>
/home/hsk/Desktop/devel/tee-tpm-hyp/optee_os/lib/libutee/tee_api_objects.c:605
    15fa:	4620      	mov	r0, r4
    15fc:	bd10      	pop	{r4, pc}
    15fe:	bf00      	nop
    1600:	ffff0008 	.word	0xffff0008
    1604:	f0100001 	.word	0xf0100001

00001608 <TEE_GetNextPersistentObject>:
TEE_GetNextPersistentObject():
/home/hsk/Desktop/devel/tee-tpm-hyp/optee_os/lib/libutee/tee_api_objects.c:610
    1608:	b510      	push	{r4, lr}
    160a:	461c      	mov	r4, r3
    160c:	b08a      	sub	sp, #40	; 0x28
/home/hsk/Desktop/devel/tee-tpm-hyp/optee_os/lib/libutee/tee_api_objects.c:616
    160e:	b1e2      	cbz	r2, 164a <TEE_GetNextPersistentObject+0x42>
/home/hsk/Desktop/devel/tee-tpm-hyp/optee_os/lib/libutee/tee_api_objects.c:621
    1610:	b1db      	cbz	r3, 164a <TEE_GetNextPersistentObject+0x42>
/home/hsk/Desktop/devel/tee-tpm-hyp/optee_os/lib/libutee/tee_api_objects.c:626
    1612:	b901      	cbnz	r1, 1616 <TEE_GetNextPersistentObject+0xe>
/home/hsk/Desktop/devel/tee-tpm-hyp/optee_os/lib/libutee/tee_api_objects.c:629
    1614:	a903      	add	r1, sp, #12
/home/hsk/Desktop/devel/tee-tpm-hyp/optee_os/lib/libutee/tee_api_objects.c:630
    1616:	6823      	ldr	r3, [r4, #0]
    1618:	9300      	str	r3, [sp, #0]
    161a:	2300      	movs	r3, #0
    161c:	9301      	str	r3, [sp, #4]
/home/hsk/Desktop/devel/tee-tpm-hyp/optee_os/lib/libutee/tee_api_objects.c:631
    161e:	466b      	mov	r3, sp
    1620:	f000 ebd0 	blx	1dc4 <utee_storage_next_enum>
/home/hsk/Desktop/devel/tee-tpm-hyp/optee_os/lib/libutee/tee_api_objects.c:633
    1624:	9b00      	ldr	r3, [sp, #0]
    1626:	6023      	str	r3, [r4, #0]
/home/hsk/Desktop/devel/tee-tpm-hyp/optee_os/lib/libutee/tee_api_objects.c:636
    1628:	4604      	mov	r4, r0
    162a:	b158      	cbz	r0, 1644 <TEE_GetNextPersistentObject+0x3c>
/home/hsk/Desktop/devel/tee-tpm-hyp/optee_os/lib/libutee/tee_api_objects.c:636 (discriminator 1)
    162c:	4b08      	ldr	r3, [pc, #32]	; (1650 <TEE_GetNextPersistentObject+0x48>)
    162e:	4298      	cmp	r0, r3
    1630:	d008      	beq.n	1644 <TEE_GetNextPersistentObject+0x3c>
/home/hsk/Desktop/devel/tee-tpm-hyp/optee_os/lib/libutee/tee_api_objects.c:637
    1632:	4b08      	ldr	r3, [pc, #32]	; (1654 <TEE_GetNextPersistentObject+0x4c>)
    1634:	4298      	cmp	r0, r3
    1636:	d005      	beq.n	1644 <TEE_GetNextPersistentObject+0x3c>
/home/hsk/Desktop/devel/tee-tpm-hyp/optee_os/lib/libutee/tee_api_objects.c:638
    1638:	3302      	adds	r3, #2
    163a:	4298      	cmp	r0, r3
    163c:	d002      	beq.n	1644 <TEE_GetNextPersistentObject+0x3c>
/home/hsk/Desktop/devel/tee-tpm-hyp/optee_os/lib/libutee/tee_api_objects.c:640
    163e:	4620      	mov	r0, r4
    1640:	f004 ff76 	bl	6530 <TEE_Panic>
/home/hsk/Desktop/devel/tee-tpm-hyp/optee_os/lib/libutee/tee_api_objects.c:643
    1644:	4620      	mov	r0, r4
    1646:	b00a      	add	sp, #40	; 0x28
    1648:	bd10      	pop	{r4, pc}
    164a:	4c03      	ldr	r4, [pc, #12]	; (1658 <TEE_GetNextPersistentObject+0x50>)
    164c:	e7f7      	b.n	163e <TEE_GetNextPersistentObject+0x36>
    164e:	bf00      	nop
    1650:	ffff0008 	.word	0xffff0008
    1654:	f0100001 	.word	0xf0100001
    1658:	ffff0006 	.word	0xffff0006

0000165c <TEE_ReadObjectData>:
TEE_ReadObjectData():
/home/hsk/Desktop/devel/tee-tpm-hyp/optee_os/lib/libutee/tee_api_objects.c:649
    165c:	b513      	push	{r0, r1, r4, lr}
    165e:	461c      	mov	r4, r3
/home/hsk/Desktop/devel/tee-tpm-hyp/optee_os/lib/libutee/tee_api_objects.c:653
    1660:	b1b0      	cbz	r0, 1690 <TEE_ReadObjectData+0x34>
/home/hsk/Desktop/devel/tee-tpm-hyp/optee_os/lib/libutee/tee_api_objects.c:658
    1662:	681b      	ldr	r3, [r3, #0]
    1664:	9300      	str	r3, [sp, #0]
    1666:	2300      	movs	r3, #0
    1668:	9301      	str	r3, [sp, #4]
/home/hsk/Desktop/devel/tee-tpm-hyp/optee_os/lib/libutee/tee_api_objects.c:659
    166a:	466b      	mov	r3, sp
    166c:	f000 ebb4 	blx	1dd8 <utee_storage_obj_read>
/home/hsk/Desktop/devel/tee-tpm-hyp/optee_os/lib/libutee/tee_api_objects.c:661
    1670:	9b00      	ldr	r3, [sp, #0]
    1672:	6023      	str	r3, [r4, #0]
/home/hsk/Desktop/devel/tee-tpm-hyp/optee_os/lib/libutee/tee_api_objects.c:664
    1674:	4604      	mov	r4, r0
    1676:	b140      	cbz	r0, 168a <TEE_ReadObjectData+0x2e>
/home/hsk/Desktop/devel/tee-tpm-hyp/optee_os/lib/libutee/tee_api_objects.c:664 (discriminator 1)
    1678:	4b06      	ldr	r3, [pc, #24]	; (1694 <TEE_ReadObjectData+0x38>)
    167a:	4298      	cmp	r0, r3
    167c:	d005      	beq.n	168a <TEE_ReadObjectData+0x2e>
/home/hsk/Desktop/devel/tee-tpm-hyp/optee_os/lib/libutee/tee_api_objects.c:665
    167e:	3302      	adds	r3, #2
    1680:	4298      	cmp	r0, r3
    1682:	d002      	beq.n	168a <TEE_ReadObjectData+0x2e>
/home/hsk/Desktop/devel/tee-tpm-hyp/optee_os/lib/libutee/tee_api_objects.c:667
    1684:	4620      	mov	r0, r4
    1686:	f004 ff53 	bl	6530 <TEE_Panic>
/home/hsk/Desktop/devel/tee-tpm-hyp/optee_os/lib/libutee/tee_api_objects.c:670
    168a:	4620      	mov	r0, r4
    168c:	b002      	add	sp, #8
    168e:	bd10      	pop	{r4, pc}
/home/hsk/Desktop/devel/tee-tpm-hyp/optee_os/lib/libutee/tee_api_objects.c:654
    1690:	4c01      	ldr	r4, [pc, #4]	; (1698 <TEE_ReadObjectData+0x3c>)
    1692:	e7f7      	b.n	1684 <TEE_ReadObjectData+0x28>
    1694:	f0100001 	.word	0xf0100001
    1698:	ffff0006 	.word	0xffff0006

0000169c <TEE_WriteObjectData>:
TEE_WriteObjectData():
/home/hsk/Desktop/devel/tee-tpm-hyp/optee_os/lib/libutee/tee_api_objects.c:674
    169c:	b510      	push	{r4, lr}
/home/hsk/Desktop/devel/tee-tpm-hyp/optee_os/lib/libutee/tee_api_objects.c:677
    169e:	b1a0      	cbz	r0, 16ca <TEE_WriteObjectData+0x2e>
/home/hsk/Desktop/devel/tee-tpm-hyp/optee_os/lib/libutee/tee_api_objects.c:687
    16a0:	f000 eba4 	blx	1dec <utee_storage_obj_write>
/home/hsk/Desktop/devel/tee-tpm-hyp/optee_os/lib/libutee/tee_api_objects.c:690
    16a4:	4604      	mov	r4, r0
    16a6:	b170      	cbz	r0, 16c6 <TEE_WriteObjectData+0x2a>
/home/hsk/Desktop/devel/tee-tpm-hyp/optee_os/lib/libutee/tee_api_objects.c:690 (discriminator 1)
    16a8:	4b09      	ldr	r3, [pc, #36]	; (16d0 <TEE_WriteObjectData+0x34>)
    16aa:	4298      	cmp	r0, r3
    16ac:	d00b      	beq.n	16c6 <TEE_WriteObjectData+0x2a>
/home/hsk/Desktop/devel/tee-tpm-hyp/optee_os/lib/libutee/tee_api_objects.c:691
    16ae:	3b32      	subs	r3, #50	; 0x32
    16b0:	4298      	cmp	r0, r3
    16b2:	d008      	beq.n	16c6 <TEE_WriteObjectData+0x2a>
/home/hsk/Desktop/devel/tee-tpm-hyp/optee_os/lib/libutee/tee_api_objects.c:692
    16b4:	4b07      	ldr	r3, [pc, #28]	; (16d4 <TEE_WriteObjectData+0x38>)
    16b6:	4298      	cmp	r0, r3
    16b8:	d005      	beq.n	16c6 <TEE_WriteObjectData+0x2a>
/home/hsk/Desktop/devel/tee-tpm-hyp/optee_os/lib/libutee/tee_api_objects.c:693
    16ba:	3302      	adds	r3, #2
    16bc:	4298      	cmp	r0, r3
    16be:	d002      	beq.n	16c6 <TEE_WriteObjectData+0x2a>
/home/hsk/Desktop/devel/tee-tpm-hyp/optee_os/lib/libutee/tee_api_objects.c:695
    16c0:	4620      	mov	r0, r4
    16c2:	f004 ff35 	bl	6530 <TEE_Panic>
/home/hsk/Desktop/devel/tee-tpm-hyp/optee_os/lib/libutee/tee_api_objects.c:698
    16c6:	4620      	mov	r0, r4
    16c8:	bd10      	pop	{r4, pc}
/home/hsk/Desktop/devel/tee-tpm-hyp/optee_os/lib/libutee/tee_api_objects.c:678
    16ca:	4c03      	ldr	r4, [pc, #12]	; (16d8 <TEE_WriteObjectData+0x3c>)
    16cc:	e7f8      	b.n	16c0 <TEE_WriteObjectData+0x24>
    16ce:	bf00      	nop
    16d0:	ffff3041 	.word	0xffff3041
    16d4:	f0100001 	.word	0xf0100001
    16d8:	ffff0006 	.word	0xffff0006

000016dc <TEE_TruncateObjectData>:
TEE_TruncateObjectData():
/home/hsk/Desktop/devel/tee-tpm-hyp/optee_os/lib/libutee/tee_api_objects.c:701
    16dc:	b510      	push	{r4, lr}
/home/hsk/Desktop/devel/tee-tpm-hyp/optee_os/lib/libutee/tee_api_objects.c:704
    16de:	b170      	cbz	r0, 16fe <TEE_TruncateObjectData+0x22>
/home/hsk/Desktop/devel/tee-tpm-hyp/optee_os/lib/libutee/tee_api_objects.c:709
    16e0:	f000 eb8e 	blx	1e00 <utee_storage_obj_trunc>
/home/hsk/Desktop/devel/tee-tpm-hyp/optee_os/lib/libutee/tee_api_objects.c:712
    16e4:	4604      	mov	r4, r0
    16e6:	b140      	cbz	r0, 16fa <TEE_TruncateObjectData+0x1e>
/home/hsk/Desktop/devel/tee-tpm-hyp/optee_os/lib/libutee/tee_api_objects.c:712 (discriminator 1)
    16e8:	4b07      	ldr	r3, [pc, #28]	; (1708 <TEE_TruncateObjectData+0x2c>)
    16ea:	4298      	cmp	r0, r3
    16ec:	d005      	beq.n	16fa <TEE_TruncateObjectData+0x1e>
/home/hsk/Desktop/devel/tee-tpm-hyp/optee_os/lib/libutee/tee_api_objects.c:713
    16ee:	4b07      	ldr	r3, [pc, #28]	; (170c <TEE_TruncateObjectData+0x30>)
    16f0:	4298      	cmp	r0, r3
    16f2:	d002      	beq.n	16fa <TEE_TruncateObjectData+0x1e>
/home/hsk/Desktop/devel/tee-tpm-hyp/optee_os/lib/libutee/tee_api_objects.c:714
    16f4:	3302      	adds	r3, #2
    16f6:	4298      	cmp	r0, r3
    16f8:	d102      	bne.n	1700 <TEE_TruncateObjectData+0x24>
/home/hsk/Desktop/devel/tee-tpm-hyp/optee_os/lib/libutee/tee_api_objects.c:719
    16fa:	4620      	mov	r0, r4
    16fc:	bd10      	pop	{r4, pc}
/home/hsk/Desktop/devel/tee-tpm-hyp/optee_os/lib/libutee/tee_api_objects.c:705
    16fe:	4c04      	ldr	r4, [pc, #16]	; (1710 <TEE_TruncateObjectData+0x34>)
/home/hsk/Desktop/devel/tee-tpm-hyp/optee_os/lib/libutee/tee_api_objects.c:716
    1700:	4620      	mov	r0, r4
    1702:	f004 ff15 	bl	6530 <TEE_Panic>
/home/hsk/Desktop/devel/tee-tpm-hyp/optee_os/lib/libutee/tee_api_objects.c:718
    1706:	e7f8      	b.n	16fa <TEE_TruncateObjectData+0x1e>
    1708:	ffff3041 	.word	0xffff3041
    170c:	f0100001 	.word	0xf0100001
    1710:	ffff0006 	.word	0xffff0006

00001714 <TEE_SeekObjectData>:
TEE_SeekObjectData():
/home/hsk/Desktop/devel/tee-tpm-hyp/optee_os/lib/libutee/tee_api_objects.c:723
    1714:	b5f0      	push	{r4, r5, r6, r7, lr}
    1716:	460d      	mov	r5, r1
    1718:	4616      	mov	r6, r2
    171a:	b089      	sub	sp, #36	; 0x24
/home/hsk/Desktop/devel/tee-tpm-hyp/optee_os/lib/libutee/tee_api_objects.c:727
    171c:	4607      	mov	r7, r0
    171e:	b368      	cbz	r0, 177c <TEE_SeekObjectData+0x68>
/home/hsk/Desktop/devel/tee-tpm-hyp/optee_os/lib/libutee/tee_api_objects.c:732
    1720:	a901      	add	r1, sp, #4
    1722:	f000 ea46 	blx	1bb0 <utee_cryp_obj_get_info>
/home/hsk/Desktop/devel/tee-tpm-hyp/optee_os/lib/libutee/tee_api_objects.c:733
    1726:	4604      	mov	r4, r0
    1728:	b9d8      	cbnz	r0, 1762 <TEE_SeekObjectData+0x4e>
/home/hsk/Desktop/devel/tee-tpm-hyp/optee_os/lib/libutee/tee_api_objects.c:736
    172a:	2e01      	cmp	r6, #1
    172c:	d004      	beq.n	1738 <TEE_SeekObjectData+0x24>
    172e:	d310      	bcc.n	1752 <TEE_SeekObjectData+0x3e>
    1730:	2e02      	cmp	r6, #2
    1732:	d00a      	beq.n	174a <TEE_SeekObjectData+0x36>
/home/hsk/Desktop/devel/tee-tpm-hyp/optee_os/lib/libutee/tee_api_objects.c:762
    1734:	4c12      	ldr	r4, [pc, #72]	; (1780 <TEE_SeekObjectData+0x6c>)
    1736:	e01d      	b.n	1774 <TEE_SeekObjectData+0x60>
/home/hsk/Desktop/devel/tee-tpm-hyp/optee_os/lib/libutee/tee_api_objects.c:744
    1738:	2d00      	cmp	r5, #0
    173a:	dd0a      	ble.n	1752 <TEE_SeekObjectData+0x3e>
/home/hsk/Desktop/devel/tee-tpm-hyp/optee_os/lib/libutee/tee_api_objects.c:744 (discriminator 1)
    173c:	9b06      	ldr	r3, [sp, #24]
    173e:	42dd      	cmn	r5, r3
    1740:	d307      	bcc.n	1752 <TEE_SeekObjectData+0x3e>
/home/hsk/Desktop/devel/tee-tpm-hyp/optee_os/lib/libutee/tee_api_objects.c:749
    1742:	4c10      	ldr	r4, [pc, #64]	; (1784 <TEE_SeekObjectData+0x70>)
/home/hsk/Desktop/devel/tee-tpm-hyp/optee_os/lib/libutee/tee_api_objects.c:776
    1744:	4620      	mov	r0, r4
    1746:	b009      	add	sp, #36	; 0x24
    1748:	bdf0      	pop	{r4, r5, r6, r7, pc}
/home/hsk/Desktop/devel/tee-tpm-hyp/optee_os/lib/libutee/tee_api_objects.c:754
    174a:	2d00      	cmp	r5, #0
    174c:	dd01      	ble.n	1752 <TEE_SeekObjectData+0x3e>
/home/hsk/Desktop/devel/tee-tpm-hyp/optee_os/lib/libutee/tee_api_objects.c:754 (discriminator 1)
    174e:	9b05      	ldr	r3, [sp, #20]
    1750:	e7f5      	b.n	173e <TEE_SeekObjectData+0x2a>
/home/hsk/Desktop/devel/tee-tpm-hyp/optee_os/lib/libutee/tee_api_objects.c:766
    1752:	4632      	mov	r2, r6
    1754:	4629      	mov	r1, r5
    1756:	4638      	mov	r0, r7
    1758:	f000 eb5c 	blx	1e14 <utee_storage_obj_seek>
/home/hsk/Desktop/devel/tee-tpm-hyp/optee_os/lib/libutee/tee_api_objects.c:769
    175c:	4604      	mov	r4, r0
    175e:	2800      	cmp	r0, #0
    1760:	d0f0      	beq.n	1744 <TEE_SeekObjectData+0x30>
/home/hsk/Desktop/devel/tee-tpm-hyp/optee_os/lib/libutee/tee_api_objects.c:769 (discriminator 1)
    1762:	4b08      	ldr	r3, [pc, #32]	; (1784 <TEE_SeekObjectData+0x70>)
    1764:	429c      	cmp	r4, r3
    1766:	d0ec      	beq.n	1742 <TEE_SeekObjectData+0x2e>
/home/hsk/Desktop/devel/tee-tpm-hyp/optee_os/lib/libutee/tee_api_objects.c:770
    1768:	4b07      	ldr	r3, [pc, #28]	; (1788 <TEE_SeekObjectData+0x74>)
    176a:	429c      	cmp	r4, r3
    176c:	d0ea      	beq.n	1744 <TEE_SeekObjectData+0x30>
/home/hsk/Desktop/devel/tee-tpm-hyp/optee_os/lib/libutee/tee_api_objects.c:771
    176e:	3302      	adds	r3, #2
    1770:	429c      	cmp	r4, r3
    1772:	d0e7      	beq.n	1744 <TEE_SeekObjectData+0x30>
/home/hsk/Desktop/devel/tee-tpm-hyp/optee_os/lib/libutee/tee_api_objects.c:773
    1774:	4620      	mov	r0, r4
    1776:	f004 fedb 	bl	6530 <TEE_Panic>
/home/hsk/Desktop/devel/tee-tpm-hyp/optee_os/lib/libutee/tee_api_objects.c:775
    177a:	e7e3      	b.n	1744 <TEE_SeekObjectData+0x30>
/home/hsk/Desktop/devel/tee-tpm-hyp/optee_os/lib/libutee/tee_api_objects.c:728
    177c:	4c03      	ldr	r4, [pc, #12]	; (178c <TEE_SeekObjectData+0x78>)
    177e:	e7f9      	b.n	1774 <TEE_SeekObjectData+0x60>
    1780:	ffff0008 	.word	0xffff0008
    1784:	ffff300f 	.word	0xffff300f
    1788:	f0100001 	.word	0xf0100001
    178c:	ffff0006 	.word	0xffff0006

00001790 <ta_header_get_session>:
ta_header_get_session():
/home/hsk/Desktop/devel/tee-tpm-hyp/optee_os/lib/libutee/arch/arm/user_ta_entry.c:81
    1790:	4b05      	ldr	r3, [pc, #20]	; (17a8 <ta_header_get_session+0x18>)
    1792:	447b      	add	r3, pc
    1794:	681b      	ldr	r3, [r3, #0]
/home/hsk/Desktop/devel/tee-tpm-hyp/optee_os/lib/libutee/arch/arm/user_ta_entry.c:81 (discriminator 1)
    1796:	b90b      	cbnz	r3, 179c <ta_header_get_session+0xc>
/home/hsk/Desktop/devel/tee-tpm-hyp/optee_os/lib/libutee/arch/arm/user_ta_entry.c:86
    1798:	4618      	mov	r0, r3
    179a:	4770      	bx	lr
/home/hsk/Desktop/devel/tee-tpm-hyp/optee_os/lib/libutee/arch/arm/user_ta_entry.c:82
    179c:	681a      	ldr	r2, [r3, #0]
    179e:	4282      	cmp	r2, r0
    17a0:	d0fa      	beq.n	1798 <ta_header_get_session+0x8>
/home/hsk/Desktop/devel/tee-tpm-hyp/optee_os/lib/libutee/arch/arm/user_ta_entry.c:81 (discriminator 2)
    17a2:	689b      	ldr	r3, [r3, #8]
    17a4:	e7f7      	b.n	1796 <ta_header_get_session+0x6>
    17a6:	bf00      	nop
    17a8:	000078de 	.word	0x000078de

000017ac <ta_header_remove_session>:
ta_header_remove_session():
/home/hsk/Desktop/devel/tee-tpm-hyp/optee_os/lib/libutee/arch/arm/user_ta_entry.c:119
    17ac:	4b14      	ldr	r3, [pc, #80]	; (1800 <ta_header_remove_session+0x54>)
/home/hsk/Desktop/devel/tee-tpm-hyp/optee_os/lib/libutee/arch/arm/user_ta_entry.c:115
    17ae:	b510      	push	{r4, lr}
/home/hsk/Desktop/devel/tee-tpm-hyp/optee_os/lib/libutee/arch/arm/user_ta_entry.c:119
    17b0:	447b      	add	r3, pc
/home/hsk/Desktop/devel/tee-tpm-hyp/optee_os/lib/libutee/arch/arm/user_ta_entry.c:115
    17b2:	4c14      	ldr	r4, [pc, #80]	; (1804 <ta_header_remove_session+0x58>)
/home/hsk/Desktop/devel/tee-tpm-hyp/optee_os/lib/libutee/arch/arm/user_ta_entry.c:119
    17b4:	681b      	ldr	r3, [r3, #0]
/home/hsk/Desktop/devel/tee-tpm-hyp/optee_os/lib/libutee/arch/arm/user_ta_entry.c:115
    17b6:	447c      	add	r4, pc
/home/hsk/Desktop/devel/tee-tpm-hyp/optee_os/lib/libutee/arch/arm/user_ta_entry.c:119 (discriminator 1)
    17b8:	b903      	cbnz	r3, 17bc <ta_header_remove_session+0x10>
/home/hsk/Desktop/devel/tee-tpm-hyp/optee_os/lib/libutee/arch/arm/user_ta_entry.c:133
    17ba:	bd10      	pop	{r4, pc}
/home/hsk/Desktop/devel/tee-tpm-hyp/optee_os/lib/libutee/arch/arm/user_ta_entry.c:120
    17bc:	6819      	ldr	r1, [r3, #0]
    17be:	689a      	ldr	r2, [r3, #8]
    17c0:	4281      	cmp	r1, r0
    17c2:	d11b      	bne.n	17fc <ta_header_remove_session+0x50>
    17c4:	68d9      	ldr	r1, [r3, #12]
/home/hsk/Desktop/devel/tee-tpm-hyp/optee_os/lib/libutee/arch/arm/user_ta_entry.c:121
    17c6:	b1aa      	cbz	r2, 17f4 <ta_header_remove_session+0x48>
/home/hsk/Desktop/devel/tee-tpm-hyp/optee_os/lib/libutee/arch/arm/user_ta_entry.c:121 (discriminator 1)
    17c8:	60d1      	str	r1, [r2, #12]
/home/hsk/Desktop/devel/tee-tpm-hyp/optee_os/lib/libutee/arch/arm/user_ta_entry.c:121 (discriminator 4)
    17ca:	68d9      	ldr	r1, [r3, #12]
/home/hsk/Desktop/devel/tee-tpm-hyp/optee_os/lib/libutee/arch/arm/user_ta_entry.c:122 (discriminator 4)
    17cc:	4618      	mov	r0, r3
/home/hsk/Desktop/devel/tee-tpm-hyp/optee_os/lib/libutee/arch/arm/user_ta_entry.c:121 (discriminator 4)
    17ce:	600a      	str	r2, [r1, #0]
/home/hsk/Desktop/devel/tee-tpm-hyp/optee_os/lib/libutee/arch/arm/user_ta_entry.c:122 (discriminator 4)
    17d0:	f7ff fbfa 	bl	fc8 <TEE_Free>
/home/hsk/Desktop/devel/tee-tpm-hyp/optee_os/lib/libutee/arch/arm/user_ta_entry.c:127 (discriminator 4)
    17d4:	4b0c      	ldr	r3, [pc, #48]	; (1808 <ta_header_remove_session+0x5c>)
    17d6:	447b      	add	r3, pc
    17d8:	681b      	ldr	r3, [r3, #0]
    17da:	2b00      	cmp	r3, #0
    17dc:	d1ed      	bne.n	17ba <ta_header_remove_session+0xe>
/home/hsk/Desktop/devel/tee-tpm-hyp/optee_os/lib/libutee/arch/arm/user_ta_entry.c:125 (discriminator 1)
    17de:	4b0b      	ldr	r3, [pc, #44]	; (180c <ta_header_remove_session+0x60>)
    17e0:	58e3      	ldr	r3, [r4, r3]
    17e2:	695b      	ldr	r3, [r3, #20]
    17e4:	f003 0314 	and.w	r3, r3, #20
/home/hsk/Desktop/devel/tee-tpm-hyp/optee_os/lib/libutee/arch/arm/user_ta_entry.c:127 (discriminator 1)
    17e8:	2b14      	cmp	r3, #20
    17ea:	d0e6      	beq.n	17ba <ta_header_remove_session+0xe>
/home/hsk/Desktop/devel/tee-tpm-hyp/optee_os/lib/libutee/arch/arm/user_ta_entry.c:133
    17ec:	e8bd 4010 	ldmia.w	sp!, {r4, lr}
uninit_instance():
/home/hsk/Desktop/devel/tee-tpm-hyp/optee_os/lib/libutee/arch/arm/user_ta_entry.c:63
    17f0:	f7fe bc18 	b.w	24 <TA_DestroyEntryPoint>
ta_header_remove_session():
/home/hsk/Desktop/devel/tee-tpm-hyp/optee_os/lib/libutee/arch/arm/user_ta_entry.c:121 (discriminator 2)
    17f4:	4806      	ldr	r0, [pc, #24]	; (1810 <ta_header_remove_session+0x64>)
    17f6:	4478      	add	r0, pc
    17f8:	6041      	str	r1, [r0, #4]
    17fa:	e7e6      	b.n	17ca <ta_header_remove_session+0x1e>
    17fc:	4613      	mov	r3, r2
    17fe:	e7db      	b.n	17b8 <ta_header_remove_session+0xc>
    1800:	000078c0 	.word	0x000078c0
    1804:	00006696 	.word	0x00006696
    1808:	0000789a 	.word	0x0000789a
    180c:	0000002c 	.word	0x0000002c
    1810:	0000787a 	.word	0x0000787a

00001814 <__utee_entry>:
__utee_entry():
/home/hsk/Desktop/devel/tee-tpm-hyp/optee_os/lib/libutee/arch/arm/user_ta_entry.c:200
    1814:	b580      	push	{r7, lr}
    1816:	4616      	mov	r6, r2
    1818:	4c59      	ldr	r4, [pc, #356]	; (1980 <__utee_entry+0x16c>)
    181a:	b08c      	sub	sp, #48	; 0x30
    181c:	460f      	mov	r7, r1
    181e:	447c      	add	r4, pc
    1820:	4698      	mov	r8, r3
/home/hsk/Desktop/devel/tee-tpm-hyp/optee_os/lib/libutee/arch/arm/user_ta_entry.c:211
    1822:	2801      	cmp	r0, #1
    1824:	d073      	beq.n	190e <__utee_entry+0xfa>
    1826:	d307      	bcc.n	1838 <__utee_entry+0x24>
    1828:	2802      	cmp	r0, #2
    182a:	d07c      	beq.n	1926 <__utee_entry+0x112>
/home/hsk/Desktop/devel/tee-tpm-hyp/optee_os/lib/libutee/arch/arm/user_ta_entry.c:223
    182c:	2000      	movs	r0, #0
/home/hsk/Desktop/devel/tee-tpm-hyp/optee_os/lib/libutee/arch/arm/user_ta_entry.c:222
    182e:	f04f 34ff 	mov.w	r4, #4294967295	; 0xffffffff
/home/hsk/Desktop/devel/tee-tpm-hyp/optee_os/lib/libutee/arch/arm/user_ta_entry.c:223
    1832:	f004 fe7d 	bl	6530 <TEE_Panic>
/home/hsk/Desktop/devel/tee-tpm-hyp/optee_os/lib/libutee/arch/arm/user_ta_entry.c:224
    1836:	e026      	b.n	1886 <__utee_entry+0x72>
ta_header_add_session():
/home/hsk/Desktop/devel/tee-tpm-hyp/optee_os/lib/libutee/arch/arm/user_ta_entry.c:90
    1838:	4608      	mov	r0, r1
    183a:	f7ff ffa9 	bl	1790 <ta_header_get_session>
/home/hsk/Desktop/devel/tee-tpm-hyp/optee_os/lib/libutee/arch/arm/user_ta_entry.c:93
    183e:	2800      	cmp	r0, #0
    1840:	d138      	bne.n	18b4 <__utee_entry+0xa0>
/home/hsk/Desktop/devel/tee-tpm-hyp/optee_os/lib/libutee/arch/arm/user_ta_entry.c:96
    1842:	4b50      	ldr	r3, [pc, #320]	; (1984 <__utee_entry+0x170>)
    1844:	447b      	add	r3, pc
    1846:	781a      	ldrb	r2, [r3, #0]
    1848:	b13a      	cbz	r2, 185a <__utee_entry+0x46>
/home/hsk/Desktop/devel/tee-tpm-hyp/optee_os/lib/libutee/arch/arm/user_ta_entry.c:103
    184a:	f04f 4100 	mov.w	r1, #2147483648	; 0x80000000
    184e:	2010      	movs	r0, #16
    1850:	f7ff fb93 	bl	f7a <TEE_Malloc>
/home/hsk/Desktop/devel/tee-tpm-hyp/optee_os/lib/libutee/arch/arm/user_ta_entry.c:105
    1854:	bb18      	cbnz	r0, 189e <__utee_entry+0x8a>
/home/hsk/Desktop/devel/tee-tpm-hyp/optee_os/lib/libutee/arch/arm/user_ta_entry.c:106
    1856:	4c48      	ldr	r4, [pc, #288]	; (1978 <__utee_entry+0x164>)
    1858:	e015      	b.n	1886 <__utee_entry+0x72>
/home/hsk/Desktop/devel/tee-tpm-hyp/optee_os/lib/libutee/arch/arm/user_ta_entry.c:97
    185a:	2201      	movs	r2, #1
    185c:	701a      	strb	r2, [r3, #0]
init_instance():
/home/hsk/Desktop/devel/tee-tpm-hyp/optee_os/lib/libutee/arch/arm/user_ta_entry.c:53
    185e:	f004 fd9d 	bl	639c <tahead_get_trace_level>
    1862:	f7fe fd22 	bl	2aa <trace_set_level>
/home/hsk/Desktop/devel/tee-tpm-hyp/optee_os/lib/libutee/arch/arm/user_ta_entry.c:55
    1866:	4b48      	ldr	r3, [pc, #288]	; (1988 <__utee_entry+0x174>)
    1868:	4a48      	ldr	r2, [pc, #288]	; (198c <__utee_entry+0x178>)
    186a:	58e3      	ldr	r3, [r4, r3]
    186c:	58a2      	ldr	r2, [r4, r2]
    186e:	9201      	str	r2, [sp, #4]
    1870:	6819      	ldr	r1, [r3, #0]
    1872:	4610      	mov	r0, r2
    1874:	f004 fbe4 	bl	6040 <malloc_add_pool>
/home/hsk/Desktop/devel/tee-tpm-hyp/optee_os/lib/libutee/arch/arm/user_ta_entry.c:56
    1878:	f000 fdc6 	bl	2408 <_TEE_MathAPI_Init>
/home/hsk/Desktop/devel/tee-tpm-hyp/optee_os/lib/libutee/arch/arm/user_ta_entry.c:57
    187c:	f7fe fbd0 	bl	20 <TA_CreateEntryPoint>
ta_header_add_session():
/home/hsk/Desktop/devel/tee-tpm-hyp/optee_os/lib/libutee/arch/arm/user_ta_entry.c:99
    1880:	4604      	mov	r4, r0
    1882:	2800      	cmp	r0, #0
    1884:	d0e1      	beq.n	184a <__utee_entry+0x36>
ta_header_save_params():
/home/hsk/Desktop/devel/tee-tpm-hyp/optee_os/lib/libutee/arch/arm/user_ta_entry.c:69
    1886:	4842      	ldr	r0, [pc, #264]	; (1990 <__utee_entry+0x17c>)
    1888:	2100      	movs	r1, #0
/home/hsk/Desktop/devel/tee-tpm-hyp/optee_os/lib/libutee/arch/arm/user_ta_entry.c:74
    188a:	2220      	movs	r2, #32
/home/hsk/Desktop/devel/tee-tpm-hyp/optee_os/lib/libutee/arch/arm/user_ta_entry.c:69
    188c:	4478      	add	r0, pc
/home/hsk/Desktop/devel/tee-tpm-hyp/optee_os/lib/libutee/arch/arm/user_ta_entry.c:74
    188e:	3008      	adds	r0, #8
/home/hsk/Desktop/devel/tee-tpm-hyp/optee_os/lib/libutee/arch/arm/user_ta_entry.c:69
    1890:	f840 1c04 	str.w	r1, [r0, #-4]
/home/hsk/Desktop/devel/tee-tpm-hyp/optee_os/lib/libutee/arch/arm/user_ta_entry.c:74
    1894:	f004 fe97 	bl	65c6 <memset>
__utee_entry():
/home/hsk/Desktop/devel/tee-tpm-hyp/optee_os/lib/libutee/arch/arm/user_ta_entry.c:227
    1898:	4620      	mov	r0, r4
    189a:	f000 e88c 	blx	19b4 <utee_return>
ta_header_add_session():
/home/hsk/Desktop/devel/tee-tpm-hyp/optee_os/lib/libutee/arch/arm/user_ta_entry.c:108
    189e:	2300      	movs	r3, #0
    18a0:	6043      	str	r3, [r0, #4]
/home/hsk/Desktop/devel/tee-tpm-hyp/optee_os/lib/libutee/arch/arm/user_ta_entry.c:109
    18a2:	6083      	str	r3, [r0, #8]
    18a4:	4b3b      	ldr	r3, [pc, #236]	; (1994 <__utee_entry+0x180>)
/home/hsk/Desktop/devel/tee-tpm-hyp/optee_os/lib/libutee/arch/arm/user_ta_entry.c:107
    18a6:	6007      	str	r7, [r0, #0]
/home/hsk/Desktop/devel/tee-tpm-hyp/optee_os/lib/libutee/arch/arm/user_ta_entry.c:109
    18a8:	447b      	add	r3, pc
    18aa:	685a      	ldr	r2, [r3, #4]
    18ac:	60c2      	str	r2, [r0, #12]
    18ae:	6010      	str	r0, [r2, #0]
    18b0:	3008      	adds	r0, #8
    18b2:	6058      	str	r0, [r3, #4]
entry_open_session():
/home/hsk/Desktop/devel/tee-tpm-hyp/optee_os/lib/libutee/arch/arm/user_ta_entry.c:147
    18b4:	4638      	mov	r0, r7
    18b6:	f7ff ff6b 	bl	1790 <ta_header_get_session>
/home/hsk/Desktop/devel/tee-tpm-hyp/optee_os/lib/libutee/arch/arm/user_ta_entry.c:148
    18ba:	4681      	mov	r9, r0
    18bc:	2800      	cmp	r0, #0
    18be:	d059      	beq.n	1974 <__utee_entry+0x160>
/home/hsk/Desktop/devel/tee-tpm-hyp/optee_os/lib/libutee/arch/arm/user_ta_entry.c:151
    18c0:	f10d 0810 	add.w	r8, sp, #16
ta_header_save_params():
/home/hsk/Desktop/devel/tee-tpm-hyp/optee_os/lib/libutee/arch/arm/user_ta_entry.c:69
    18c4:	4c34      	ldr	r4, [pc, #208]	; (1998 <__utee_entry+0x184>)
/home/hsk/Desktop/devel/tee-tpm-hyp/optee_os/lib/libutee/arch/arm/user_ta_entry.c:72
    18c6:	4645      	mov	r5, r8
entry_open_session():
/home/hsk/Desktop/devel/tee-tpm-hyp/optee_os/lib/libutee/arch/arm/user_ta_entry.c:151
    18c8:	4632      	mov	r2, r6
    18ca:	a903      	add	r1, sp, #12
    18cc:	4640      	mov	r0, r8
ta_header_save_params():
/home/hsk/Desktop/devel/tee-tpm-hyp/optee_os/lib/libutee/arch/arm/user_ta_entry.c:69
    18ce:	447c      	add	r4, pc
entry_open_session():
/home/hsk/Desktop/devel/tee-tpm-hyp/optee_os/lib/libutee/arch/arm/user_ta_entry.c:151
    18d0:	f7ff fa3d 	bl	d4e <__utee_to_param>
ta_header_save_params():
/home/hsk/Desktop/devel/tee-tpm-hyp/optee_os/lib/libutee/arch/arm/user_ta_entry.c:72
    18d4:	cd0f      	ldmia	r5!, {r0, r1, r2, r3}
    18d6:	3408      	adds	r4, #8
entry_open_session():
/home/hsk/Desktop/devel/tee-tpm-hyp/optee_os/lib/libutee/arch/arm/user_ta_entry.c:152
    18d8:	f8dd c00c 	ldr.w	ip, [sp, #12]
ta_header_save_params():
/home/hsk/Desktop/devel/tee-tpm-hyp/optee_os/lib/libutee/arch/arm/user_ta_entry.c:69
    18dc:	f844 cc04 	str.w	ip, [r4, #-4]
/home/hsk/Desktop/devel/tee-tpm-hyp/optee_os/lib/libutee/arch/arm/user_ta_entry.c:72
    18e0:	c40f      	stmia	r4!, {r0, r1, r2, r3}
    18e2:	e895 000f 	ldmia.w	r5, {r0, r1, r2, r3}
    18e6:	e884 000f 	stmia.w	r4, {r0, r1, r2, r3}
entry_open_session():
/home/hsk/Desktop/devel/tee-tpm-hyp/optee_os/lib/libutee/arch/arm/user_ta_entry.c:154
    18ea:	f109 0204 	add.w	r2, r9, #4
    18ee:	4641      	mov	r1, r8
    18f0:	4660      	mov	r0, ip
    18f2:	f7fe fb98 	bl	26 <TA_OpenSessionEntryPoint>
/home/hsk/Desktop/devel/tee-tpm-hyp/optee_os/lib/libutee/arch/arm/user_ta_entry.c:157
    18f6:	4642      	mov	r2, r8
/home/hsk/Desktop/devel/tee-tpm-hyp/optee_os/lib/libutee/arch/arm/user_ta_entry.c:154
    18f8:	4604      	mov	r4, r0
/home/hsk/Desktop/devel/tee-tpm-hyp/optee_os/lib/libutee/arch/arm/user_ta_entry.c:157
    18fa:	9903      	ldr	r1, [sp, #12]
    18fc:	4630      	mov	r0, r6
    18fe:	f7ff f9ff 	bl	d00 <__utee_from_param>
/home/hsk/Desktop/devel/tee-tpm-hyp/optee_os/lib/libutee/arch/arm/user_ta_entry.c:159
    1902:	2c00      	cmp	r4, #0
    1904:	d0bf      	beq.n	1886 <__utee_entry+0x72>
/home/hsk/Desktop/devel/tee-tpm-hyp/optee_os/lib/libutee/arch/arm/user_ta_entry.c:160
    1906:	4638      	mov	r0, r7
    1908:	f7ff ff50 	bl	17ac <ta_header_remove_session>
    190c:	e7bb      	b.n	1886 <__utee_entry+0x72>
entry_close_session():
/home/hsk/Desktop/devel/tee-tpm-hyp/optee_os/lib/libutee/arch/arm/user_ta_entry.c:166
    190e:	4608      	mov	r0, r1
    1910:	f7ff ff3e 	bl	1790 <ta_header_get_session>
/home/hsk/Desktop/devel/tee-tpm-hyp/optee_os/lib/libutee/arch/arm/user_ta_entry.c:168
    1914:	b370      	cbz	r0, 1974 <__utee_entry+0x160>
/home/hsk/Desktop/devel/tee-tpm-hyp/optee_os/lib/libutee/arch/arm/user_ta_entry.c:171
    1916:	6840      	ldr	r0, [r0, #4]
/home/hsk/Desktop/devel/tee-tpm-hyp/optee_os/lib/libutee/arch/arm/user_ta_entry.c:174
    1918:	2400      	movs	r4, #0
/home/hsk/Desktop/devel/tee-tpm-hyp/optee_os/lib/libutee/arch/arm/user_ta_entry.c:171
    191a:	f7fe fb86 	bl	2a <TA_CloseSessionEntryPoint>
/home/hsk/Desktop/devel/tee-tpm-hyp/optee_os/lib/libutee/arch/arm/user_ta_entry.c:173
    191e:	4638      	mov	r0, r7
    1920:	f7ff ff44 	bl	17ac <ta_header_remove_session>
    1924:	e7af      	b.n	1886 <__utee_entry+0x72>
entry_invoke_command():
/home/hsk/Desktop/devel/tee-tpm-hyp/optee_os/lib/libutee/arch/arm/user_ta_entry.c:183
    1926:	4608      	mov	r0, r1
    1928:	f7ff ff32 	bl	1790 <ta_header_get_session>
/home/hsk/Desktop/devel/tee-tpm-hyp/optee_os/lib/libutee/arch/arm/user_ta_entry.c:185
    192c:	4681      	mov	r9, r0
    192e:	b308      	cbz	r0, 1974 <__utee_entry+0x160>
/home/hsk/Desktop/devel/tee-tpm-hyp/optee_os/lib/libutee/arch/arm/user_ta_entry.c:188
    1930:	af04      	add	r7, sp, #16
ta_header_save_params():
/home/hsk/Desktop/devel/tee-tpm-hyp/optee_os/lib/libutee/arch/arm/user_ta_entry.c:69
    1932:	4c1a      	ldr	r4, [pc, #104]	; (199c <__utee_entry+0x188>)
/home/hsk/Desktop/devel/tee-tpm-hyp/optee_os/lib/libutee/arch/arm/user_ta_entry.c:72
    1934:	463d      	mov	r5, r7
entry_invoke_command():
/home/hsk/Desktop/devel/tee-tpm-hyp/optee_os/lib/libutee/arch/arm/user_ta_entry.c:188
    1936:	4632      	mov	r2, r6
    1938:	a903      	add	r1, sp, #12
    193a:	4638      	mov	r0, r7
ta_header_save_params():
/home/hsk/Desktop/devel/tee-tpm-hyp/optee_os/lib/libutee/arch/arm/user_ta_entry.c:69
    193c:	447c      	add	r4, pc
entry_invoke_command():
/home/hsk/Desktop/devel/tee-tpm-hyp/optee_os/lib/libutee/arch/arm/user_ta_entry.c:188
    193e:	f7ff fa06 	bl	d4e <__utee_to_param>
ta_header_save_params():
/home/hsk/Desktop/devel/tee-tpm-hyp/optee_os/lib/libutee/arch/arm/user_ta_entry.c:72
    1942:	cd0f      	ldmia	r5!, {r0, r1, r2, r3}
    1944:	3408      	adds	r4, #8
entry_invoke_command():
/home/hsk/Desktop/devel/tee-tpm-hyp/optee_os/lib/libutee/arch/arm/user_ta_entry.c:189
    1946:	f8dd c00c 	ldr.w	ip, [sp, #12]
ta_header_save_params():
/home/hsk/Desktop/devel/tee-tpm-hyp/optee_os/lib/libutee/arch/arm/user_ta_entry.c:69
    194a:	f844 cc04 	str.w	ip, [r4, #-4]
/home/hsk/Desktop/devel/tee-tpm-hyp/optee_os/lib/libutee/arch/arm/user_ta_entry.c:72
    194e:	c40f      	stmia	r4!, {r0, r1, r2, r3}
    1950:	e895 000f 	ldmia.w	r5, {r0, r1, r2, r3}
    1954:	e884 000f 	stmia.w	r4, {r0, r1, r2, r3}
entry_invoke_command():
/home/hsk/Desktop/devel/tee-tpm-hyp/optee_os/lib/libutee/arch/arm/user_ta_entry.c:191
    1958:	4662      	mov	r2, ip
    195a:	4641      	mov	r1, r8
    195c:	463b      	mov	r3, r7
    195e:	f8d9 0004 	ldr.w	r0, [r9, #4]
    1962:	f7fe fb63 	bl	2c <TA_InvokeCommandEntryPoint>
/home/hsk/Desktop/devel/tee-tpm-hyp/optee_os/lib/libutee/arch/arm/user_ta_entry.c:194
    1966:	463a      	mov	r2, r7
/home/hsk/Desktop/devel/tee-tpm-hyp/optee_os/lib/libutee/arch/arm/user_ta_entry.c:191
    1968:	4604      	mov	r4, r0
/home/hsk/Desktop/devel/tee-tpm-hyp/optee_os/lib/libutee/arch/arm/user_ta_entry.c:194
    196a:	9903      	ldr	r1, [sp, #12]
    196c:	4630      	mov	r0, r6
    196e:	f7ff f9c7 	bl	d00 <__utee_from_param>
    1972:	e788      	b.n	1886 <__utee_entry+0x72>
entry_close_session():
/home/hsk/Desktop/devel/tee-tpm-hyp/optee_os/lib/libutee/arch/arm/user_ta_entry.c:169
    1974:	4c01      	ldr	r4, [pc, #4]	; (197c <__utee_entry+0x168>)
    1976:	e786      	b.n	1886 <__utee_entry+0x72>
    1978:	ffff000c 	.word	0xffff000c
    197c:	ffff0007 	.word	0xffff0007
    1980:	0000662e 	.word	0x0000662e
    1984:	00007854 	.word	0x00007854
    1988:	0000000c 	.word	0x0000000c
    198c:	00000020 	.word	0x00000020
    1990:	0000780c 	.word	0x0000780c
    1994:	000077c8 	.word	0x000077c8
    1998:	000077ca 	.word	0x000077ca
    199c:	0000775c 	.word	0x0000775c

000019a0 <utee_panic>:
utee_panic():
/home/hsk/Desktop/devel/tee-tpm-hyp/optee_os/lib/libutee/arch/arm/utee_syscalls_a32.S:47
    19a0:	e92d4fff 	push	{r0, r1, r2, r3, r4, r5, r6, r7, r8, r9, sl, fp, lr}
/home/hsk/Desktop/devel/tee-tpm-hyp/optee_os/lib/libutee/arch/arm/utee_syscalls_a32.S:49
    19a4:	e1a0e00f 	mov	lr, pc
/home/hsk/Desktop/devel/tee-tpm-hyp/optee_os/lib/libutee/arch/arm/utee_syscalls_a32.S:50
    19a8:	e52de004 	push	{lr}		; (str lr, [sp, #-4]!)
/home/hsk/Desktop/devel/tee-tpm-hyp/optee_os/lib/libutee/arch/arm/utee_syscalls_a32.S:52
    19ac:	e1a0100d 	mov	r1, sp
/home/hsk/Desktop/devel/tee-tpm-hyp/optee_os/lib/libutee/arch/arm/utee_syscalls_a32.S:53
    19b0:	eb000009 	bl	19dc <__utee_panic>

000019b4 <utee_return>:
utee_return():
/home/hsk/Desktop/devel/tee-tpm-hyp/optee_os/lib/libutee/arch/arm/utee_syscalls_asm.S:8
    19b4:	e92d40e0 	push	{r5, r6, r7, lr}
    19b8:	e3a07000 	mov	r7, #0
    19bc:	e3a06000 	mov	r6, #0
    19c0:	ef000000 	svc	0x00000000
    19c4:	e8bd80e0 	pop	{r5, r6, r7, pc}

000019c8 <utee_log>:
utee_log():
/home/hsk/Desktop/devel/tee-tpm-hyp/optee_os/lib/libutee/arch/arm/utee_syscalls_asm.S:10
    19c8:	e92d40e0 	push	{r5, r6, r7, lr}
    19cc:	e3a07001 	mov	r7, #1
    19d0:	e3a06000 	mov	r6, #0
    19d4:	ef000000 	svc	0x00000000
    19d8:	e8bd80e0 	pop	{r5, r6, r7, pc}

000019dc <__utee_panic>:
__utee_panic():
/home/hsk/Desktop/devel/tee-tpm-hyp/optee_os/lib/libutee/arch/arm/utee_syscalls_asm.S:12
    19dc:	e92d40e0 	push	{r5, r6, r7, lr}
    19e0:	e3a07002 	mov	r7, #2
    19e4:	e3a06000 	mov	r6, #0
    19e8:	ef000000 	svc	0x00000000
    19ec:	e8bd80e0 	pop	{r5, r6, r7, pc}

000019f0 <utee_get_property>:
utee_get_property():
/home/hsk/Desktop/devel/tee-tpm-hyp/optee_os/lib/libutee/arch/arm/utee_syscalls_asm.S:14
    19f0:	e92d40e0 	push	{r5, r6, r7, lr}
    19f4:	e3a07003 	mov	r7, #3
    19f8:	e3a06003 	mov	r6, #3
    19fc:	e28d5010 	add	r5, sp, #16
    1a00:	ef000000 	svc	0x00000000
    1a04:	e8bd80e0 	pop	{r5, r6, r7, pc}

00001a08 <utee_get_property_name_to_index>:
utee_get_property_name_to_index():
/home/hsk/Desktop/devel/tee-tpm-hyp/optee_os/lib/libutee/arch/arm/utee_syscalls_asm.S:16
    1a08:	e92d40e0 	push	{r5, r6, r7, lr}
    1a0c:	e3a07004 	mov	r7, #4
    1a10:	e3a06000 	mov	r6, #0
    1a14:	ef000000 	svc	0x00000000
    1a18:	e8bd80e0 	pop	{r5, r6, r7, pc}

00001a1c <utee_open_ta_session>:
utee_open_ta_session():
/home/hsk/Desktop/devel/tee-tpm-hyp/optee_os/lib/libutee/arch/arm/utee_syscalls_asm.S:19
    1a1c:	e92d40e0 	push	{r5, r6, r7, lr}
    1a20:	e3a07005 	mov	r7, #5
    1a24:	e3a06001 	mov	r6, #1
    1a28:	e28d5010 	add	r5, sp, #16
    1a2c:	ef000000 	svc	0x00000000
    1a30:	e8bd80e0 	pop	{r5, r6, r7, pc}

00001a34 <utee_close_ta_session>:
utee_close_ta_session():
/home/hsk/Desktop/devel/tee-tpm-hyp/optee_os/lib/libutee/arch/arm/utee_syscalls_asm.S:21
    1a34:	e92d40e0 	push	{r5, r6, r7, lr}
    1a38:	e3a07006 	mov	r7, #6
    1a3c:	e3a06000 	mov	r6, #0
    1a40:	ef000000 	svc	0x00000000
    1a44:	e8bd80e0 	pop	{r5, r6, r7, pc}

00001a48 <utee_invoke_ta_command>:
utee_invoke_ta_command():
/home/hsk/Desktop/devel/tee-tpm-hyp/optee_os/lib/libutee/arch/arm/utee_syscalls_asm.S:23
    1a48:	e92d40e0 	push	{r5, r6, r7, lr}
    1a4c:	e3a07007 	mov	r7, #7
    1a50:	e3a06001 	mov	r6, #1
    1a54:	e28d5010 	add	r5, sp, #16
    1a58:	ef000000 	svc	0x00000000
    1a5c:	e8bd80e0 	pop	{r5, r6, r7, pc}

00001a60 <utee_get_cancellation_flag>:
utee_get_cancellation_flag():
/home/hsk/Desktop/devel/tee-tpm-hyp/optee_os/lib/libutee/arch/arm/utee_syscalls_asm.S:25
    1a60:	e92d40e0 	push	{r5, r6, r7, lr}
    1a64:	e3a07009 	mov	r7, #9
    1a68:	e3a06000 	mov	r6, #0
    1a6c:	ef000000 	svc	0x00000000
    1a70:	e8bd80e0 	pop	{r5, r6, r7, pc}

00001a74 <utee_check_access_rights>:
utee_check_access_rights():
/home/hsk/Desktop/devel/tee-tpm-hyp/optee_os/lib/libutee/arch/arm/utee_syscalls_asm.S:28
    1a74:	e92d40e0 	push	{r5, r6, r7, lr}
    1a78:	e3a07008 	mov	r7, #8
    1a7c:	e3a06000 	mov	r6, #0
    1a80:	ef000000 	svc	0x00000000
    1a84:	e8bd80e0 	pop	{r5, r6, r7, pc}

00001a88 <utee_unmask_cancellation>:
utee_unmask_cancellation():
/home/hsk/Desktop/devel/tee-tpm-hyp/optee_os/lib/libutee/arch/arm/utee_syscalls_asm.S:30
    1a88:	e92d40e0 	push	{r5, r6, r7, lr}
    1a8c:	e3a0700a 	mov	r7, #10
    1a90:	e3a06000 	mov	r6, #0
    1a94:	ef000000 	svc	0x00000000
    1a98:	e8bd80e0 	pop	{r5, r6, r7, pc}

00001a9c <utee_mask_cancellation>:
utee_mask_cancellation():
/home/hsk/Desktop/devel/tee-tpm-hyp/optee_os/lib/libutee/arch/arm/utee_syscalls_asm.S:32
    1a9c:	e92d40e0 	push	{r5, r6, r7, lr}
    1aa0:	e3a0700b 	mov	r7, #11
    1aa4:	e3a06000 	mov	r6, #0
    1aa8:	ef000000 	svc	0x00000000
    1aac:	e8bd80e0 	pop	{r5, r6, r7, pc}

00001ab0 <utee_wait>:
utee_wait():
/home/hsk/Desktop/devel/tee-tpm-hyp/optee_os/lib/libutee/arch/arm/utee_syscalls_asm.S:34
    1ab0:	e92d40e0 	push	{r5, r6, r7, lr}
    1ab4:	e3a0700c 	mov	r7, #12
    1ab8:	e3a06000 	mov	r6, #0
    1abc:	ef000000 	svc	0x00000000
    1ac0:	e8bd80e0 	pop	{r5, r6, r7, pc}

00001ac4 <utee_get_time>:
utee_get_time():
/home/hsk/Desktop/devel/tee-tpm-hyp/optee_os/lib/libutee/arch/arm/utee_syscalls_asm.S:36
    1ac4:	e92d40e0 	push	{r5, r6, r7, lr}
    1ac8:	e3a0700d 	mov	r7, #13
    1acc:	e3a06000 	mov	r6, #0
    1ad0:	ef000000 	svc	0x00000000
    1ad4:	e8bd80e0 	pop	{r5, r6, r7, pc}

00001ad8 <utee_set_ta_time>:
utee_set_ta_time():
/home/hsk/Desktop/devel/tee-tpm-hyp/optee_os/lib/libutee/arch/arm/utee_syscalls_asm.S:38
    1ad8:	e92d40e0 	push	{r5, r6, r7, lr}
    1adc:	e3a0700e 	mov	r7, #14
    1ae0:	e3a06000 	mov	r6, #0
    1ae4:	ef000000 	svc	0x00000000
    1ae8:	e8bd80e0 	pop	{r5, r6, r7, pc}

00001aec <utee_cryp_state_alloc>:
utee_cryp_state_alloc():
/home/hsk/Desktop/devel/tee-tpm-hyp/optee_os/lib/libutee/arch/arm/utee_syscalls_asm.S:40
    1aec:	e92d40e0 	push	{r5, r6, r7, lr}
    1af0:	e3a0700f 	mov	r7, #15
    1af4:	e3a06001 	mov	r6, #1
    1af8:	e28d5010 	add	r5, sp, #16
    1afc:	ef000000 	svc	0x00000000
    1b00:	e8bd80e0 	pop	{r5, r6, r7, pc}

00001b04 <utee_cryp_state_copy>:
utee_cryp_state_copy():
/home/hsk/Desktop/devel/tee-tpm-hyp/optee_os/lib/libutee/arch/arm/utee_syscalls_asm.S:42
    1b04:	e92d40e0 	push	{r5, r6, r7, lr}
    1b08:	e3a07010 	mov	r7, #16
    1b0c:	e3a06000 	mov	r6, #0
    1b10:	ef000000 	svc	0x00000000
    1b14:	e8bd80e0 	pop	{r5, r6, r7, pc}

00001b18 <utee_cryp_state_free>:
utee_cryp_state_free():
/home/hsk/Desktop/devel/tee-tpm-hyp/optee_os/lib/libutee/arch/arm/utee_syscalls_asm.S:44
    1b18:	e92d40e0 	push	{r5, r6, r7, lr}
    1b1c:	e3a07011 	mov	r7, #17
    1b20:	e3a06000 	mov	r6, #0
    1b24:	ef000000 	svc	0x00000000
    1b28:	e8bd80e0 	pop	{r5, r6, r7, pc}

00001b2c <utee_hash_init>:
utee_hash_init():
/home/hsk/Desktop/devel/tee-tpm-hyp/optee_os/lib/libutee/arch/arm/utee_syscalls_asm.S:46
    1b2c:	e92d40e0 	push	{r5, r6, r7, lr}
    1b30:	e3a07012 	mov	r7, #18
    1b34:	e3a06000 	mov	r6, #0
    1b38:	ef000000 	svc	0x00000000
    1b3c:	e8bd80e0 	pop	{r5, r6, r7, pc}

00001b40 <utee_hash_update>:
utee_hash_update():
/home/hsk/Desktop/devel/tee-tpm-hyp/optee_os/lib/libutee/arch/arm/utee_syscalls_asm.S:48
    1b40:	e92d40e0 	push	{r5, r6, r7, lr}
    1b44:	e3a07013 	mov	r7, #19
    1b48:	e3a06000 	mov	r6, #0
    1b4c:	ef000000 	svc	0x00000000
    1b50:	e8bd80e0 	pop	{r5, r6, r7, pc}

00001b54 <utee_hash_final>:
utee_hash_final():
/home/hsk/Desktop/devel/tee-tpm-hyp/optee_os/lib/libutee/arch/arm/utee_syscalls_asm.S:50
    1b54:	e92d40e0 	push	{r5, r6, r7, lr}
    1b58:	e3a07014 	mov	r7, #20
    1b5c:	e3a06001 	mov	r6, #1
    1b60:	e28d5010 	add	r5, sp, #16
    1b64:	ef000000 	svc	0x00000000
    1b68:	e8bd80e0 	pop	{r5, r6, r7, pc}

00001b6c <utee_cipher_init>:
utee_cipher_init():
/home/hsk/Desktop/devel/tee-tpm-hyp/optee_os/lib/libutee/arch/arm/utee_syscalls_asm.S:52
    1b6c:	e92d40e0 	push	{r5, r6, r7, lr}
    1b70:	e3a07015 	mov	r7, #21
    1b74:	e3a06000 	mov	r6, #0
    1b78:	ef000000 	svc	0x00000000
    1b7c:	e8bd80e0 	pop	{r5, r6, r7, pc}

00001b80 <utee_cipher_update>:
utee_cipher_update():
/home/hsk/Desktop/devel/tee-tpm-hyp/optee_os/lib/libutee/arch/arm/utee_syscalls_asm.S:54
    1b80:	e92d40e0 	push	{r5, r6, r7, lr}
    1b84:	e3a07016 	mov	r7, #22
    1b88:	e3a06001 	mov	r6, #1
    1b8c:	e28d5010 	add	r5, sp, #16
    1b90:	ef000000 	svc	0x00000000
    1b94:	e8bd80e0 	pop	{r5, r6, r7, pc}

00001b98 <utee_cipher_final>:
utee_cipher_final():
/home/hsk/Desktop/devel/tee-tpm-hyp/optee_os/lib/libutee/arch/arm/utee_syscalls_asm.S:56
    1b98:	e92d40e0 	push	{r5, r6, r7, lr}
    1b9c:	e3a07017 	mov	r7, #23
    1ba0:	e3a06001 	mov	r6, #1
    1ba4:	e28d5010 	add	r5, sp, #16
    1ba8:	ef000000 	svc	0x00000000
    1bac:	e8bd80e0 	pop	{r5, r6, r7, pc}

00001bb0 <utee_cryp_obj_get_info>:
utee_cryp_obj_get_info():
/home/hsk/Desktop/devel/tee-tpm-hyp/optee_os/lib/libutee/arch/arm/utee_syscalls_asm.S:58
    1bb0:	e92d40e0 	push	{r5, r6, r7, lr}
    1bb4:	e3a07018 	mov	r7, #24
    1bb8:	e3a06000 	mov	r6, #0
    1bbc:	ef000000 	svc	0x00000000
    1bc0:	e8bd80e0 	pop	{r5, r6, r7, pc}

00001bc4 <utee_cryp_obj_restrict_usage>:
utee_cryp_obj_restrict_usage():
/home/hsk/Desktop/devel/tee-tpm-hyp/optee_os/lib/libutee/arch/arm/utee_syscalls_asm.S:60
    1bc4:	e92d40e0 	push	{r5, r6, r7, lr}
    1bc8:	e3a07019 	mov	r7, #25
    1bcc:	e3a06000 	mov	r6, #0
    1bd0:	ef000000 	svc	0x00000000
    1bd4:	e8bd80e0 	pop	{r5, r6, r7, pc}

00001bd8 <utee_cryp_obj_get_attr>:
utee_cryp_obj_get_attr():
/home/hsk/Desktop/devel/tee-tpm-hyp/optee_os/lib/libutee/arch/arm/utee_syscalls_asm.S:63
    1bd8:	e92d40e0 	push	{r5, r6, r7, lr}
    1bdc:	e3a0701a 	mov	r7, #26
    1be0:	e3a06000 	mov	r6, #0
    1be4:	ef000000 	svc	0x00000000
    1be8:	e8bd80e0 	pop	{r5, r6, r7, pc}

00001bec <utee_cryp_obj_alloc>:
utee_cryp_obj_alloc():
/home/hsk/Desktop/devel/tee-tpm-hyp/optee_os/lib/libutee/arch/arm/utee_syscalls_asm.S:65
    1bec:	e92d40e0 	push	{r5, r6, r7, lr}
    1bf0:	e3a0701b 	mov	r7, #27
    1bf4:	e3a06000 	mov	r6, #0
    1bf8:	ef000000 	svc	0x00000000
    1bfc:	e8bd80e0 	pop	{r5, r6, r7, pc}

00001c00 <utee_cryp_obj_close>:
utee_cryp_obj_close():
/home/hsk/Desktop/devel/tee-tpm-hyp/optee_os/lib/libutee/arch/arm/utee_syscalls_asm.S:67
    1c00:	e92d40e0 	push	{r5, r6, r7, lr}
    1c04:	e3a0701c 	mov	r7, #28
    1c08:	e3a06000 	mov	r6, #0
    1c0c:	ef000000 	svc	0x00000000
    1c10:	e8bd80e0 	pop	{r5, r6, r7, pc}

00001c14 <utee_cryp_obj_reset>:
utee_cryp_obj_reset():
/home/hsk/Desktop/devel/tee-tpm-hyp/optee_os/lib/libutee/arch/arm/utee_syscalls_asm.S:69
    1c14:	e92d40e0 	push	{r5, r6, r7, lr}
    1c18:	e3a0701d 	mov	r7, #29
    1c1c:	e3a06000 	mov	r6, #0
    1c20:	ef000000 	svc	0x00000000
    1c24:	e8bd80e0 	pop	{r5, r6, r7, pc}

00001c28 <utee_cryp_obj_populate>:
utee_cryp_obj_populate():
/home/hsk/Desktop/devel/tee-tpm-hyp/optee_os/lib/libutee/arch/arm/utee_syscalls_asm.S:71
    1c28:	e92d40e0 	push	{r5, r6, r7, lr}
    1c2c:	e3a0701e 	mov	r7, #30
    1c30:	e3a06000 	mov	r6, #0
    1c34:	ef000000 	svc	0x00000000
    1c38:	e8bd80e0 	pop	{r5, r6, r7, pc}

00001c3c <utee_cryp_obj_copy>:
utee_cryp_obj_copy():
/home/hsk/Desktop/devel/tee-tpm-hyp/optee_os/lib/libutee/arch/arm/utee_syscalls_asm.S:73
    1c3c:	e92d40e0 	push	{r5, r6, r7, lr}
    1c40:	e3a0701f 	mov	r7, #31
    1c44:	e3a06000 	mov	r6, #0
    1c48:	ef000000 	svc	0x00000000
    1c4c:	e8bd80e0 	pop	{r5, r6, r7, pc}

00001c50 <utee_cryp_derive_key>:
utee_cryp_derive_key():
/home/hsk/Desktop/devel/tee-tpm-hyp/optee_os/lib/libutee/arch/arm/utee_syscalls_asm.S:75
    1c50:	e92d40e0 	push	{r5, r6, r7, lr}
    1c54:	e3a07020 	mov	r7, #32
    1c58:	e3a06000 	mov	r6, #0
    1c5c:	ef000000 	svc	0x00000000
    1c60:	e8bd80e0 	pop	{r5, r6, r7, pc}

00001c64 <utee_cryp_random_number_generate>:
utee_cryp_random_number_generate():
/home/hsk/Desktop/devel/tee-tpm-hyp/optee_os/lib/libutee/arch/arm/utee_syscalls_asm.S:77
    1c64:	e92d40e0 	push	{r5, r6, r7, lr}
    1c68:	e3a07021 	mov	r7, #33	; 0x21
    1c6c:	e3a06000 	mov	r6, #0
    1c70:	ef000000 	svc	0x00000000
    1c74:	e8bd80e0 	pop	{r5, r6, r7, pc}

00001c78 <utee_authenc_init>:
utee_authenc_init():
/home/hsk/Desktop/devel/tee-tpm-hyp/optee_os/lib/libutee/arch/arm/utee_syscalls_asm.S:80
    1c78:	e92d40e0 	push	{r5, r6, r7, lr}
    1c7c:	e3a07022 	mov	r7, #34	; 0x22
    1c80:	e3a06002 	mov	r6, #2
    1c84:	e28d5010 	add	r5, sp, #16
    1c88:	ef000000 	svc	0x00000000
    1c8c:	e8bd80e0 	pop	{r5, r6, r7, pc}

00001c90 <utee_authenc_update_aad>:
utee_authenc_update_aad():
/home/hsk/Desktop/devel/tee-tpm-hyp/optee_os/lib/libutee/arch/arm/utee_syscalls_asm.S:82
    1c90:	e92d40e0 	push	{r5, r6, r7, lr}
    1c94:	e3a07023 	mov	r7, #35	; 0x23
    1c98:	e3a06000 	mov	r6, #0
    1c9c:	ef000000 	svc	0x00000000
    1ca0:	e8bd80e0 	pop	{r5, r6, r7, pc}

00001ca4 <utee_authenc_update_payload>:
utee_authenc_update_payload():
/home/hsk/Desktop/devel/tee-tpm-hyp/optee_os/lib/libutee/arch/arm/utee_syscalls_asm.S:84
    1ca4:	e92d40e0 	push	{r5, r6, r7, lr}
    1ca8:	e3a07024 	mov	r7, #36	; 0x24
    1cac:	e3a06001 	mov	r6, #1
    1cb0:	e28d5010 	add	r5, sp, #16
    1cb4:	ef000000 	svc	0x00000000
    1cb8:	e8bd80e0 	pop	{r5, r6, r7, pc}

00001cbc <utee_authenc_enc_final>:
utee_authenc_enc_final():
/home/hsk/Desktop/devel/tee-tpm-hyp/optee_os/lib/libutee/arch/arm/utee_syscalls_asm.S:87
    1cbc:	e92d40e0 	push	{r5, r6, r7, lr}
    1cc0:	e3a07025 	mov	r7, #37	; 0x25
    1cc4:	e3a06003 	mov	r6, #3
    1cc8:	e28d5010 	add	r5, sp, #16
    1ccc:	ef000000 	svc	0x00000000
    1cd0:	e8bd80e0 	pop	{r5, r6, r7, pc}

00001cd4 <utee_authenc_dec_final>:
utee_authenc_dec_final():
/home/hsk/Desktop/devel/tee-tpm-hyp/optee_os/lib/libutee/arch/arm/utee_syscalls_asm.S:89
    1cd4:	e92d40e0 	push	{r5, r6, r7, lr}
    1cd8:	e3a07026 	mov	r7, #38	; 0x26
    1cdc:	e3a06003 	mov	r6, #3
    1ce0:	e28d5010 	add	r5, sp, #16
    1ce4:	ef000000 	svc	0x00000000
    1ce8:	e8bd80e0 	pop	{r5, r6, r7, pc}

00001cec <utee_asymm_operate>:
utee_asymm_operate():
/home/hsk/Desktop/devel/tee-tpm-hyp/optee_os/lib/libutee/arch/arm/utee_syscalls_asm.S:91
    1cec:	e92d40e0 	push	{r5, r6, r7, lr}
    1cf0:	e3a07027 	mov	r7, #39	; 0x27
    1cf4:	e3a06003 	mov	r6, #3
    1cf8:	e28d5010 	add	r5, sp, #16
    1cfc:	ef000000 	svc	0x00000000
    1d00:	e8bd80e0 	pop	{r5, r6, r7, pc}

00001d04 <utee_asymm_verify>:
utee_asymm_verify():
/home/hsk/Desktop/devel/tee-tpm-hyp/optee_os/lib/libutee/arch/arm/utee_syscalls_asm.S:93
    1d04:	e92d40e0 	push	{r5, r6, r7, lr}
    1d08:	e3a07028 	mov	r7, #40	; 0x28
    1d0c:	e3a06003 	mov	r6, #3
    1d10:	e28d5010 	add	r5, sp, #16
    1d14:	ef000000 	svc	0x00000000
    1d18:	e8bd80e0 	pop	{r5, r6, r7, pc}

00001d1c <utee_storage_obj_open>:
utee_storage_obj_open():
/home/hsk/Desktop/devel/tee-tpm-hyp/optee_os/lib/libutee/arch/arm/utee_syscalls_asm.S:95
    1d1c:	e92d40e0 	push	{r5, r6, r7, lr}
    1d20:	e3a07029 	mov	r7, #41	; 0x29
    1d24:	e3a06001 	mov	r6, #1
    1d28:	e28d5010 	add	r5, sp, #16
    1d2c:	ef000000 	svc	0x00000000
    1d30:	e8bd80e0 	pop	{r5, r6, r7, pc}

00001d34 <utee_storage_obj_create>:
utee_storage_obj_create():
/home/hsk/Desktop/devel/tee-tpm-hyp/optee_os/lib/libutee/arch/arm/utee_syscalls_asm.S:97
    1d34:	e92d40e0 	push	{r5, r6, r7, lr}
    1d38:	e3a0702a 	mov	r7, #42	; 0x2a
    1d3c:	e3a06004 	mov	r6, #4
    1d40:	e28d5010 	add	r5, sp, #16
    1d44:	ef000000 	svc	0x00000000
    1d48:	e8bd80e0 	pop	{r5, r6, r7, pc}

00001d4c <utee_storage_obj_del>:
utee_storage_obj_del():
/home/hsk/Desktop/devel/tee-tpm-hyp/optee_os/lib/libutee/arch/arm/utee_syscalls_asm.S:99
    1d4c:	e92d40e0 	push	{r5, r6, r7, lr}
    1d50:	e3a0702b 	mov	r7, #43	; 0x2b
    1d54:	e3a06000 	mov	r6, #0
    1d58:	ef000000 	svc	0x00000000
    1d5c:	e8bd80e0 	pop	{r5, r6, r7, pc}

00001d60 <utee_storage_obj_rename>:
utee_storage_obj_rename():
/home/hsk/Desktop/devel/tee-tpm-hyp/optee_os/lib/libutee/arch/arm/utee_syscalls_asm.S:101
    1d60:	e92d40e0 	push	{r5, r6, r7, lr}
    1d64:	e3a0702c 	mov	r7, #44	; 0x2c
    1d68:	e3a06000 	mov	r6, #0
    1d6c:	ef000000 	svc	0x00000000
    1d70:	e8bd80e0 	pop	{r5, r6, r7, pc}

00001d74 <utee_storage_alloc_enum>:
utee_storage_alloc_enum():
/home/hsk/Desktop/devel/tee-tpm-hyp/optee_os/lib/libutee/arch/arm/utee_syscalls_asm.S:103
    1d74:	e92d40e0 	push	{r5, r6, r7, lr}
    1d78:	e3a0702d 	mov	r7, #45	; 0x2d
    1d7c:	e3a06000 	mov	r6, #0
    1d80:	ef000000 	svc	0x00000000
    1d84:	e8bd80e0 	pop	{r5, r6, r7, pc}

00001d88 <utee_storage_free_enum>:
utee_storage_free_enum():
/home/hsk/Desktop/devel/tee-tpm-hyp/optee_os/lib/libutee/arch/arm/utee_syscalls_asm.S:105
    1d88:	e92d40e0 	push	{r5, r6, r7, lr}
    1d8c:	e3a0702e 	mov	r7, #46	; 0x2e
    1d90:	e3a06000 	mov	r6, #0
    1d94:	ef000000 	svc	0x00000000
    1d98:	e8bd80e0 	pop	{r5, r6, r7, pc}

00001d9c <utee_storage_reset_enum>:
utee_storage_reset_enum():
/home/hsk/Desktop/devel/tee-tpm-hyp/optee_os/lib/libutee/arch/arm/utee_syscalls_asm.S:107
    1d9c:	e92d40e0 	push	{r5, r6, r7, lr}
    1da0:	e3a0702f 	mov	r7, #47	; 0x2f
    1da4:	e3a06000 	mov	r6, #0
    1da8:	ef000000 	svc	0x00000000
    1dac:	e8bd80e0 	pop	{r5, r6, r7, pc}

00001db0 <utee_storage_start_enum>:
utee_storage_start_enum():
/home/hsk/Desktop/devel/tee-tpm-hyp/optee_os/lib/libutee/arch/arm/utee_syscalls_asm.S:109
    1db0:	e92d40e0 	push	{r5, r6, r7, lr}
    1db4:	e3a07030 	mov	r7, #48	; 0x30
    1db8:	e3a06000 	mov	r6, #0
    1dbc:	ef000000 	svc	0x00000000
    1dc0:	e8bd80e0 	pop	{r5, r6, r7, pc}

00001dc4 <utee_storage_next_enum>:
utee_storage_next_enum():
/home/hsk/Desktop/devel/tee-tpm-hyp/optee_os/lib/libutee/arch/arm/utee_syscalls_asm.S:111
    1dc4:	e92d40e0 	push	{r5, r6, r7, lr}
    1dc8:	e3a07031 	mov	r7, #49	; 0x31
    1dcc:	e3a06000 	mov	r6, #0
    1dd0:	ef000000 	svc	0x00000000
    1dd4:	e8bd80e0 	pop	{r5, r6, r7, pc}

00001dd8 <utee_storage_obj_read>:
utee_storage_obj_read():
/home/hsk/Desktop/devel/tee-tpm-hyp/optee_os/lib/libutee/arch/arm/utee_syscalls_asm.S:113
    1dd8:	e92d40e0 	push	{r5, r6, r7, lr}
    1ddc:	e3a07032 	mov	r7, #50	; 0x32
    1de0:	e3a06000 	mov	r6, #0
    1de4:	ef000000 	svc	0x00000000
    1de8:	e8bd80e0 	pop	{r5, r6, r7, pc}

00001dec <utee_storage_obj_write>:
utee_storage_obj_write():
/home/hsk/Desktop/devel/tee-tpm-hyp/optee_os/lib/libutee/arch/arm/utee_syscalls_asm.S:115
    1dec:	e92d40e0 	push	{r5, r6, r7, lr}
    1df0:	e3a07033 	mov	r7, #51	; 0x33
    1df4:	e3a06000 	mov	r6, #0
    1df8:	ef000000 	svc	0x00000000
    1dfc:	e8bd80e0 	pop	{r5, r6, r7, pc}

00001e00 <utee_storage_obj_trunc>:
utee_storage_obj_trunc():
/home/hsk/Desktop/devel/tee-tpm-hyp/optee_os/lib/libutee/arch/arm/utee_syscalls_asm.S:117
    1e00:	e92d40e0 	push	{r5, r6, r7, lr}
    1e04:	e3a07034 	mov	r7, #52	; 0x34
    1e08:	e3a06000 	mov	r6, #0
    1e0c:	ef000000 	svc	0x00000000
    1e10:	e8bd80e0 	pop	{r5, r6, r7, pc}

00001e14 <utee_storage_obj_seek>:
utee_storage_obj_seek():
/home/hsk/Desktop/devel/tee-tpm-hyp/optee_os/lib/libutee/arch/arm/utee_syscalls_asm.S:119
    1e14:	e92d40e0 	push	{r5, r6, r7, lr}
    1e18:	e3a07035 	mov	r7, #53	; 0x35
    1e1c:	e3a06000 	mov	r6, #0
    1e20:	ef000000 	svc	0x00000000
    1e24:	e8bd80e0 	pop	{r5, r6, r7, pc}

00001e28 <utee_cryp_obj_generate_key>:
utee_cryp_obj_generate_key():
/home/hsk/Desktop/devel/tee-tpm-hyp/optee_os/lib/libutee/arch/arm/utee_syscalls_asm.S:121
    1e28:	e92d40e0 	push	{r5, r6, r7, lr}
    1e2c:	e3a07036 	mov	r7, #54	; 0x36
    1e30:	e3a06000 	mov	r6, #0
    1e34:	ef000000 	svc	0x00000000
    1e38:	e8bd80e0 	pop	{r5, r6, r7, pc}

00001e3c <utee_cache_operation>:
utee_cache_operation():
/home/hsk/Desktop/devel/tee-tpm-hyp/optee_os/lib/libutee/arch/arm/utee_syscalls_asm.S:124
    1e3c:	e92d40e0 	push	{r5, r6, r7, lr}
    1e40:	e3a07046 	mov	r7, #70	; 0x46
    1e44:	e3a06000 	mov	r6, #0
    1e48:	ef000000 	svc	0x00000000
    1e4c:	e8bd80e0 	pop	{r5, r6, r7, pc}

00001e50 <__utee_mcount>:
__utee_mcount():
/home/hsk/Desktop/devel/tee-tpm-hyp/optee_os/lib/libutee/arch/arm/gprof/gprof_a32.S:49
    1e50:	e52de004 	push	{lr}		; (str lr, [sp, #-4]!)
/home/hsk/Desktop/devel/tee-tpm-hyp/optee_os/lib/libutee/arch/arm/gprof/gprof_a32.S:50
    1e54:	e8bd5000 	pop	{ip, lr}
/home/hsk/Desktop/devel/tee-tpm-hyp/optee_os/lib/libutee/arch/arm/gprof/gprof_a32.S:51
    1e58:	e12fff1c 	bx	ip

00001e5c <mpi_panic>:
mpi_panic():
/home/hsk/Desktop/devel/tee-tpm-hyp/optee_os/lib/libutee/tee_api_arith_mpi.c:29
    1e5c:	b508      	push	{r3, lr}
/home/hsk/Desktop/devel/tee-tpm-hyp/optee_os/lib/libutee/tee_api_arith_mpi.c:30
    1e5e:	4613      	mov	r3, r2
    1e60:	460a      	mov	r2, r1
    1e62:	4601      	mov	r1, r0
    1e64:	4804      	ldr	r0, [pc, #16]	; (1e78 <mpi_panic+0x1c>)
    1e66:	4478      	add	r0, pc
    1e68:	f7fe ff09 	bl	c7e <printf>
/home/hsk/Desktop/devel/tee-tpm-hyp/optee_os/lib/libutee/tee_api_arith_mpi.c:31
    1e6c:	4801      	ldr	r0, [pc, #4]	; (1e74 <mpi_panic+0x18>)
    1e6e:	f004 fb5f 	bl	6530 <TEE_Panic>
    1e72:	e7fe      	b.n	1e72 <mpi_panic+0x16>
    1e74:	00b16127 	.word	0x00b16127
    1e78:	00004f1e 	.word	0x00004f1e

00001e7c <get_mpi>:
get_mpi():
/home/hsk/Desktop/devel/tee-tpm-hyp/optee_os/lib/libutee/tee_api_arith_mpi.c:81
    1e7c:	b507      	push	{r0, r1, r2, lr}
/home/hsk/Desktop/devel/tee-tpm-hyp/optee_os/lib/libutee/tee_api_arith_mpi.c:96
    1e7e:	b151      	cbz	r1, 1e96 <get_mpi+0x1a>
init_static_mpi():
/home/hsk/Desktop/devel/tee-tpm-hyp/optee_os/lib/libutee/tee_api_arith_mpi.c:65
    1e80:	88ca      	ldrh	r2, [r1, #6]
    1e82:	888b      	ldrh	r3, [r1, #4]
    1e84:	3108      	adds	r1, #8
    1e86:	9200      	str	r2, [sp, #0]
    1e88:	f851 2c08 	ldr.w	r2, [r1, #-8]
    1e8c:	f001 fad2 	bl	3434 <mbedtls_mpi_init_static>
get_mpi():
/home/hsk/Desktop/devel/tee-tpm-hyp/optee_os/lib/libutee/tee_api_arith_mpi.c:100
    1e90:	b003      	add	sp, #12
    1e92:	f85d fb04 	ldr.w	pc, [sp], #4
    1e96:	b003      	add	sp, #12
    1e98:	f85d eb04 	ldr.w	lr, [sp], #4
/home/hsk/Desktop/devel/tee-tpm-hyp/optee_os/lib/libutee/tee_api_arith_mpi.c:99
    1e9c:	f001 bab8 	b.w	3410 <mbedtls_mpi_init_mempool>

00001ea0 <mpi_is_odd>:
mpi_is_odd():
/home/hsk/Desktop/devel/tee-tpm-hyp/optee_os/lib/libutee/tee_api_arith_mpi.c:599
    1ea0:	b508      	push	{r3, lr}
/home/hsk/Desktop/devel/tee-tpm-hyp/optee_os/lib/libutee/tee_api_arith_mpi.c:600
    1ea2:	2100      	movs	r1, #0
    1ea4:	f001 fc87 	bl	37b6 <mbedtls_mpi_get_bit>
/home/hsk/Desktop/devel/tee-tpm-hyp/optee_os/lib/libutee/tee_api_arith_mpi.c:601
    1ea8:	3000      	adds	r0, #0
    1eaa:	bf18      	it	ne
    1eac:	2001      	movne	r0, #1
    1eae:	bd08      	pop	{r3, pc}

00001eb0 <rng_read>:
rng_read():
/home/hsk/Desktop/devel/tee-tpm-hyp/optee_os/lib/libutee/tee_api_arith_mpi.c:763
    1eb0:	b508      	push	{r3, lr}
    1eb2:	4608      	mov	r0, r1
/home/hsk/Desktop/devel/tee-tpm-hyp/optee_os/lib/libutee/tee_api_arith_mpi.c:764
    1eb4:	4611      	mov	r1, r2
    1eb6:	f7ff eed6 	blx	1c64 <utee_cryp_random_number_generate>
    1eba:	2800      	cmp	r0, #0
/home/hsk/Desktop/devel/tee-tpm-hyp/optee_os/lib/libutee/tee_api_arith_mpi.c:767
    1ebc:	f06f 0001 	mvn.w	r0, #1
    1ec0:	bf08      	it	eq
    1ec2:	2000      	moveq	r0, #0
    1ec4:	bd08      	pop	{r3, pc}

00001ec6 <put_mpi>:
put_mpi():
/home/hsk/Desktop/devel/tee-tpm-hyp/optee_os/lib/libutee/tee_api_arith_mpi.c:128
    1ec6:	7842      	ldrb	r2, [r0, #1]
    1ec8:	2a02      	cmp	r2, #2
    1eca:	d108      	bne.n	1ede <put_mpi+0x18>
/home/hsk/Desktop/devel/tee-tpm-hyp/optee_os/lib/libutee/tee_api_arith_mpi.c:129
    1ecc:	6882      	ldr	r2, [r0, #8]
/home/hsk/Desktop/devel/tee-tpm-hyp/optee_os/lib/libutee/tee_api_arith_mpi.c:131
    1ece:	f990 1000 	ldrsb.w	r1, [r0]
/home/hsk/Desktop/devel/tee-tpm-hyp/optee_os/lib/libutee/tee_api_arith_mpi.c:132
    1ed2:	8883      	ldrh	r3, [r0, #4]
/home/hsk/Desktop/devel/tee-tpm-hyp/optee_os/lib/libutee/tee_api_arith_mpi.c:131
    1ed4:	f842 1c08 	str.w	r1, [r2, #-8]
/home/hsk/Desktop/devel/tee-tpm-hyp/optee_os/lib/libutee/tee_api_arith_mpi.c:132
    1ed8:	f822 3c02 	strh.w	r3, [r2, #-2]
/home/hsk/Desktop/devel/tee-tpm-hyp/optee_os/lib/libutee/tee_api_arith_mpi.c:136
    1edc:	4770      	bx	lr
/home/hsk/Desktop/devel/tee-tpm-hyp/optee_os/lib/libutee/tee_api_arith_mpi.c:134
    1ede:	f001 bab2 	b.w	3446 <mbedtls_mpi_free>

00001ee2 <mpi_egcd>:
mpi_egcd():
/home/hsk/Desktop/devel/tee-tpm-hyp/optee_os/lib/libutee/tee_api_arith_mpi.c:614
    1ee2:	e92d 4ff0 	stmdb	sp!, {r4, r5, r6, r7, r8, r9, sl, fp, lr}
    1ee6:	4681      	mov	r9, r0
    1ee8:	b09b      	sub	sp, #108	; 0x6c
get_mpi():
/home/hsk/Desktop/devel/tee-tpm-hyp/optee_os/lib/libutee/tee_api_arith_mpi.c:99
    1eea:	f10d 0814 	add.w	r8, sp, #20
    1eee:	af08      	add	r7, sp, #32
    1ef0:	4640      	mov	r0, r8
    1ef2:	ad0b      	add	r5, sp, #44	; 0x2c
mpi_egcd():
/home/hsk/Desktop/devel/tee-tpm-hyp/optee_os/lib/libutee/tee_api_arith_mpi.c:614
    1ef4:	9102      	str	r1, [sp, #8]
get_mpi():
/home/hsk/Desktop/devel/tee-tpm-hyp/optee_os/lib/libutee/tee_api_arith_mpi.c:99
    1ef6:	ac0e      	add	r4, sp, #56	; 0x38
mpi_egcd():
/home/hsk/Desktop/devel/tee-tpm-hyp/optee_os/lib/libutee/tee_api_arith_mpi.c:614
    1ef8:	9203      	str	r2, [sp, #12]
get_mpi():
/home/hsk/Desktop/devel/tee-tpm-hyp/optee_os/lib/libutee/tee_api_arith_mpi.c:99
    1efa:	f10d 0a44 	add.w	sl, sp, #68	; 0x44
mpi_egcd():
/home/hsk/Desktop/devel/tee-tpm-hyp/optee_os/lib/libutee/tee_api_arith_mpi.c:614
    1efe:	9301      	str	r3, [sp, #4]
get_mpi():
/home/hsk/Desktop/devel/tee-tpm-hyp/optee_os/lib/libutee/tee_api_arith_mpi.c:99
    1f00:	f001 fa86 	bl	3410 <mbedtls_mpi_init_mempool>
    1f04:	4638      	mov	r0, r7
    1f06:	f10d 0b50 	add.w	fp, sp, #80	; 0x50
    1f0a:	f001 fa81 	bl	3410 <mbedtls_mpi_init_mempool>
    1f0e:	4628      	mov	r0, r5
    1f10:	f001 fa7e 	bl	3410 <mbedtls_mpi_init_mempool>
    1f14:	4620      	mov	r0, r4
    1f16:	f001 fa7b 	bl	3410 <mbedtls_mpi_init_mempool>
    1f1a:	4650      	mov	r0, sl
    1f1c:	f001 fa78 	bl	3410 <mbedtls_mpi_init_mempool>
    1f20:	ae17      	add	r6, sp, #92	; 0x5c
    1f22:	4658      	mov	r0, fp
    1f24:	f001 fa74 	bl	3410 <mbedtls_mpi_init_mempool>
    1f28:	4630      	mov	r0, r6
    1f2a:	f001 fa71 	bl	3410 <mbedtls_mpi_init_mempool>
mpi_egcd():
/home/hsk/Desktop/devel/tee-tpm-hyp/optee_os/lib/libutee/tee_api_arith_mpi.c:633
    1f2e:	2100      	movs	r1, #0
    1f30:	9824      	ldr	r0, [sp, #144]	; 0x90
    1f32:	f001 fe12 	bl	3b5a <mbedtls_mpi_cmp_int>
    1f36:	bb18      	cbnz	r0, 1f80 <mpi_egcd+0x9e>
/home/hsk/Desktop/devel/tee-tpm-hyp/optee_os/lib/libutee/tee_api_arith_mpi.c:634
    1f38:	2101      	movs	r1, #1
    1f3a:	9802      	ldr	r0, [sp, #8]
    1f3c:	f001 fc1f 	bl	377e <mbedtls_mpi_lset>
    1f40:	4602      	mov	r2, r0
    1f42:	b128      	cbz	r0, 1f50 <mpi_egcd+0x6e>
/home/hsk/Desktop/devel/tee-tpm-hyp/optee_os/lib/libutee/tee_api_arith_mpi.c:634 (discriminator 1)
    1f44:	48dd      	ldr	r0, [pc, #884]	; (22bc <mpi_egcd+0x3da>)
    1f46:	f240 217a 	movw	r1, #634	; 0x27a
    1f4a:	4478      	add	r0, pc
/home/hsk/Desktop/devel/tee-tpm-hyp/optee_os/lib/libutee/tee_api_arith_mpi.c:635 (discriminator 1)
    1f4c:	f7ff ff86 	bl	1e5c <mpi_panic>
/home/hsk/Desktop/devel/tee-tpm-hyp/optee_os/lib/libutee/tee_api_arith_mpi.c:635
    1f50:	4601      	mov	r1, r0
    1f52:	9803      	ldr	r0, [sp, #12]
    1f54:	f001 fc13 	bl	377e <mbedtls_mpi_lset>
    1f58:	4602      	mov	r2, r0
    1f5a:	b120      	cbz	r0, 1f66 <mpi_egcd+0x84>
/home/hsk/Desktop/devel/tee-tpm-hyp/optee_os/lib/libutee/tee_api_arith_mpi.c:635 (discriminator 1)
    1f5c:	48d8      	ldr	r0, [pc, #864]	; (22c0 <mpi_egcd+0x3de>)
    1f5e:	f240 217b 	movw	r1, #635	; 0x27b
    1f62:	4478      	add	r0, pc
    1f64:	e7f2      	b.n	1f4c <mpi_egcd+0x6a>
/home/hsk/Desktop/devel/tee-tpm-hyp/optee_os/lib/libutee/tee_api_arith_mpi.c:636
    1f66:	9901      	ldr	r1, [sp, #4]
    1f68:	4648      	mov	r0, r9
    1f6a:	f001 fb4d 	bl	3608 <mbedtls_mpi_copy>
    1f6e:	4602      	mov	r2, r0
    1f70:	2800      	cmp	r0, #0
    1f72:	f000 818a 	beq.w	228a <mpi_egcd+0x3a8>
/home/hsk/Desktop/devel/tee-tpm-hyp/optee_os/lib/libutee/tee_api_arith_mpi.c:636 (discriminator 1)
    1f76:	48d3      	ldr	r0, [pc, #844]	; (22c4 <mpi_egcd+0x3e2>)
    1f78:	f44f 711f 	mov.w	r1, #636	; 0x27c
    1f7c:	4478      	add	r0, pc
    1f7e:	e7e5      	b.n	1f4c <mpi_egcd+0x6a>
/home/hsk/Desktop/devel/tee-tpm-hyp/optee_os/lib/libutee/tee_api_arith_mpi.c:640
    1f80:	9901      	ldr	r1, [sp, #4]
    1f82:	4650      	mov	r0, sl
    1f84:	f001 fb40 	bl	3608 <mbedtls_mpi_copy>
    1f88:	4602      	mov	r2, r0
    1f8a:	b120      	cbz	r0, 1f96 <mpi_egcd+0xb4>
/home/hsk/Desktop/devel/tee-tpm-hyp/optee_os/lib/libutee/tee_api_arith_mpi.c:640 (discriminator 1)
    1f8c:	48ce      	ldr	r0, [pc, #824]	; (22c8 <mpi_egcd+0x3e6>)
    1f8e:	f44f 7120 	mov.w	r1, #640	; 0x280
    1f92:	4478      	add	r0, pc
    1f94:	e7da      	b.n	1f4c <mpi_egcd+0x6a>
/home/hsk/Desktop/devel/tee-tpm-hyp/optee_os/lib/libutee/tee_api_arith_mpi.c:641
    1f96:	9924      	ldr	r1, [sp, #144]	; 0x90
    1f98:	4658      	mov	r0, fp
    1f9a:	f001 fb35 	bl	3608 <mbedtls_mpi_copy>
    1f9e:	4602      	mov	r2, r0
    1fa0:	b178      	cbz	r0, 1fc2 <mpi_egcd+0xe0>
/home/hsk/Desktop/devel/tee-tpm-hyp/optee_os/lib/libutee/tee_api_arith_mpi.c:641 (discriminator 1)
    1fa2:	48ca      	ldr	r0, [pc, #808]	; (22cc <mpi_egcd+0x3ea>)
    1fa4:	f240 2181 	movw	r1, #641	; 0x281
    1fa8:	4478      	add	r0, pc
    1faa:	e7cf      	b.n	1f4c <mpi_egcd+0x6a>
/home/hsk/Desktop/devel/tee-tpm-hyp/optee_os/lib/libutee/tee_api_arith_mpi.c:647
    1fac:	2101      	movs	r1, #1
    1fae:	4658      	mov	r0, fp
    1fb0:	f001 fd18 	bl	39e4 <mbedtls_mpi_shift_r>
    1fb4:	4602      	mov	r2, r0
    1fb6:	b128      	cbz	r0, 1fc4 <mpi_egcd+0xe2>
/home/hsk/Desktop/devel/tee-tpm-hyp/optee_os/lib/libutee/tee_api_arith_mpi.c:647 (discriminator 1)
    1fb8:	48c5      	ldr	r0, [pc, #788]	; (22d0 <mpi_egcd+0x3ee>)
    1fba:	f240 2187 	movw	r1, #647	; 0x287
    1fbe:	4478      	add	r0, pc
    1fc0:	e7c4      	b.n	1f4c <mpi_egcd+0x6a>
/home/hsk/Desktop/devel/tee-tpm-hyp/optee_os/lib/libutee/tee_api_arith_mpi.c:643
    1fc2:	9001      	str	r0, [sp, #4]
mpi_is_even():
/home/hsk/Desktop/devel/tee-tpm-hyp/optee_os/lib/libutee/tee_api_arith_mpi.c:605
    1fc4:	4650      	mov	r0, sl
    1fc6:	f7ff ff6b 	bl	1ea0 <mpi_is_odd>
mpi_egcd():
/home/hsk/Desktop/devel/tee-tpm-hyp/optee_os/lib/libutee/tee_api_arith_mpi.c:644
    1fca:	b150      	cbz	r0, 1fe2 <mpi_egcd+0x100>
/home/hsk/Desktop/devel/tee-tpm-hyp/optee_os/lib/libutee/tee_api_arith_mpi.c:650
    1fcc:	4651      	mov	r1, sl
    1fce:	4630      	mov	r0, r6
    1fd0:	f001 fb1a 	bl	3608 <mbedtls_mpi_copy>
    1fd4:	4602      	mov	r2, r0
    1fd6:	b1c0      	cbz	r0, 200a <mpi_egcd+0x128>
/home/hsk/Desktop/devel/tee-tpm-hyp/optee_os/lib/libutee/tee_api_arith_mpi.c:650 (discriminator 1)
    1fd8:	48be      	ldr	r0, [pc, #760]	; (22d4 <mpi_egcd+0x3f2>)
    1fda:	f240 218a 	movw	r1, #650	; 0x28a
    1fde:	4478      	add	r0, pc
    1fe0:	e7b4      	b.n	1f4c <mpi_egcd+0x6a>
mpi_is_even():
/home/hsk/Desktop/devel/tee-tpm-hyp/optee_os/lib/libutee/tee_api_arith_mpi.c:605
    1fe2:	4658      	mov	r0, fp
    1fe4:	f7ff ff5c 	bl	1ea0 <mpi_is_odd>
mpi_egcd():
/home/hsk/Desktop/devel/tee-tpm-hyp/optee_os/lib/libutee/tee_api_arith_mpi.c:644
    1fe8:	2800      	cmp	r0, #0
    1fea:	d1ef      	bne.n	1fcc <mpi_egcd+0xea>
/home/hsk/Desktop/devel/tee-tpm-hyp/optee_os/lib/libutee/tee_api_arith_mpi.c:645
    1fec:	9b01      	ldr	r3, [sp, #4]
/home/hsk/Desktop/devel/tee-tpm-hyp/optee_os/lib/libutee/tee_api_arith_mpi.c:646
    1fee:	2101      	movs	r1, #1
    1ff0:	4650      	mov	r0, sl
/home/hsk/Desktop/devel/tee-tpm-hyp/optee_os/lib/libutee/tee_api_arith_mpi.c:645
    1ff2:	3301      	adds	r3, #1
    1ff4:	9301      	str	r3, [sp, #4]
/home/hsk/Desktop/devel/tee-tpm-hyp/optee_os/lib/libutee/tee_api_arith_mpi.c:646
    1ff6:	f001 fcf5 	bl	39e4 <mbedtls_mpi_shift_r>
    1ffa:	4602      	mov	r2, r0
    1ffc:	2800      	cmp	r0, #0
    1ffe:	d0d5      	beq.n	1fac <mpi_egcd+0xca>
/home/hsk/Desktop/devel/tee-tpm-hyp/optee_os/lib/libutee/tee_api_arith_mpi.c:646 (discriminator 1)
    2000:	48b5      	ldr	r0, [pc, #724]	; (22d8 <mpi_egcd+0x3f6>)
    2002:	f240 2186 	movw	r1, #646	; 0x286
    2006:	4478      	add	r0, pc
    2008:	e7a0      	b.n	1f4c <mpi_egcd+0x6a>
/home/hsk/Desktop/devel/tee-tpm-hyp/optee_os/lib/libutee/tee_api_arith_mpi.c:651
    200a:	4659      	mov	r1, fp
    200c:	4648      	mov	r0, r9
    200e:	f001 fafb 	bl	3608 <mbedtls_mpi_copy>
    2012:	4602      	mov	r2, r0
    2014:	b120      	cbz	r0, 2020 <mpi_egcd+0x13e>
/home/hsk/Desktop/devel/tee-tpm-hyp/optee_os/lib/libutee/tee_api_arith_mpi.c:651 (discriminator 1)
    2016:	48b1      	ldr	r0, [pc, #708]	; (22dc <mpi_egcd+0x3fa>)
    2018:	f240 218b 	movw	r1, #651	; 0x28b
    201c:	4478      	add	r0, pc
    201e:	e795      	b.n	1f4c <mpi_egcd+0x6a>
/home/hsk/Desktop/devel/tee-tpm-hyp/optee_os/lib/libutee/tee_api_arith_mpi.c:652
    2020:	2101      	movs	r1, #1
    2022:	4640      	mov	r0, r8
    2024:	f001 fbab 	bl	377e <mbedtls_mpi_lset>
    2028:	4602      	mov	r2, r0
    202a:	b120      	cbz	r0, 2036 <mpi_egcd+0x154>
/home/hsk/Desktop/devel/tee-tpm-hyp/optee_os/lib/libutee/tee_api_arith_mpi.c:652 (discriminator 1)
    202c:	48ac      	ldr	r0, [pc, #688]	; (22e0 <mpi_egcd+0x3fe>)
    202e:	f44f 7123 	mov.w	r1, #652	; 0x28c
    2032:	4478      	add	r0, pc
    2034:	e78a      	b.n	1f4c <mpi_egcd+0x6a>
/home/hsk/Desktop/devel/tee-tpm-hyp/optee_os/lib/libutee/tee_api_arith_mpi.c:653
    2036:	4601      	mov	r1, r0
    2038:	4638      	mov	r0, r7
    203a:	f001 fba0 	bl	377e <mbedtls_mpi_lset>
    203e:	4602      	mov	r2, r0
    2040:	b120      	cbz	r0, 204c <mpi_egcd+0x16a>
/home/hsk/Desktop/devel/tee-tpm-hyp/optee_os/lib/libutee/tee_api_arith_mpi.c:653 (discriminator 1)
    2042:	48a8      	ldr	r0, [pc, #672]	; (22e4 <mpi_egcd+0x402>)
    2044:	f240 218d 	movw	r1, #653	; 0x28d
    2048:	4478      	add	r0, pc
    204a:	e77f      	b.n	1f4c <mpi_egcd+0x6a>
/home/hsk/Desktop/devel/tee-tpm-hyp/optee_os/lib/libutee/tee_api_arith_mpi.c:654
    204c:	4601      	mov	r1, r0
    204e:	4628      	mov	r0, r5
    2050:	f001 fb95 	bl	377e <mbedtls_mpi_lset>
    2054:	4602      	mov	r2, r0
    2056:	b120      	cbz	r0, 2062 <mpi_egcd+0x180>
/home/hsk/Desktop/devel/tee-tpm-hyp/optee_os/lib/libutee/tee_api_arith_mpi.c:654 (discriminator 1)
    2058:	48a3      	ldr	r0, [pc, #652]	; (22e8 <mpi_egcd+0x406>)
    205a:	f240 218e 	movw	r1, #654	; 0x28e
    205e:	4478      	add	r0, pc
    2060:	e774      	b.n	1f4c <mpi_egcd+0x6a>
/home/hsk/Desktop/devel/tee-tpm-hyp/optee_os/lib/libutee/tee_api_arith_mpi.c:655
    2062:	2101      	movs	r1, #1
    2064:	4620      	mov	r0, r4
    2066:	f001 fb8a 	bl	377e <mbedtls_mpi_lset>
    206a:	4602      	mov	r2, r0
    206c:	2800      	cmp	r0, #0
    206e:	f000 80e4 	beq.w	223a <mpi_egcd+0x358>
/home/hsk/Desktop/devel/tee-tpm-hyp/optee_os/lib/libutee/tee_api_arith_mpi.c:655 (discriminator 1)
    2072:	489e      	ldr	r0, [pc, #632]	; (22ec <mpi_egcd+0x40a>)
    2074:	f240 218f 	movw	r1, #655	; 0x28f
    2078:	4478      	add	r0, pc
    207a:	e767      	b.n	1f4c <mpi_egcd+0x6a>
/home/hsk/Desktop/devel/tee-tpm-hyp/optee_os/lib/libutee/tee_api_arith_mpi.c:659
    207c:	2101      	movs	r1, #1
    207e:	4630      	mov	r0, r6
    2080:	f001 fcb0 	bl	39e4 <mbedtls_mpi_shift_r>
    2084:	4602      	mov	r2, r0
    2086:	b120      	cbz	r0, 2092 <mpi_egcd+0x1b0>
/home/hsk/Desktop/devel/tee-tpm-hyp/optee_os/lib/libutee/tee_api_arith_mpi.c:659 (discriminator 1)
    2088:	4899      	ldr	r0, [pc, #612]	; (22f0 <mpi_egcd+0x40e>)
    208a:	f240 2193 	movw	r1, #659	; 0x293
    208e:	4478      	add	r0, pc
    2090:	e75c      	b.n	1f4c <mpi_egcd+0x6a>
/home/hsk/Desktop/devel/tee-tpm-hyp/optee_os/lib/libutee/tee_api_arith_mpi.c:660
    2092:	4640      	mov	r0, r8
    2094:	f7ff ff04 	bl	1ea0 <mpi_is_odd>
    2098:	b158      	cbz	r0, 20b2 <mpi_egcd+0x1d0>
/home/hsk/Desktop/devel/tee-tpm-hyp/optee_os/lib/libutee/tee_api_arith_mpi.c:661
    209a:	465a      	mov	r2, fp
    209c:	4641      	mov	r1, r8
    209e:	4640      	mov	r0, r8
    20a0:	f001 fe0c 	bl	3cbc <mbedtls_mpi_add_mpi>
    20a4:	4602      	mov	r2, r0
    20a6:	b1a0      	cbz	r0, 20d2 <mpi_egcd+0x1f0>
/home/hsk/Desktop/devel/tee-tpm-hyp/optee_os/lib/libutee/tee_api_arith_mpi.c:661 (discriminator 1)
    20a8:	4892      	ldr	r0, [pc, #584]	; (22f4 <mpi_egcd+0x412>)
    20aa:	f240 2195 	movw	r1, #661	; 0x295
    20ae:	4478      	add	r0, pc
    20b0:	e74c      	b.n	1f4c <mpi_egcd+0x6a>
/home/hsk/Desktop/devel/tee-tpm-hyp/optee_os/lib/libutee/tee_api_arith_mpi.c:660 (discriminator 1)
    20b2:	4638      	mov	r0, r7
    20b4:	f7ff fef4 	bl	1ea0 <mpi_is_odd>
    20b8:	2800      	cmp	r0, #0
    20ba:	d1ee      	bne.n	209a <mpi_egcd+0x1b8>
/home/hsk/Desktop/devel/tee-tpm-hyp/optee_os/lib/libutee/tee_api_arith_mpi.c:664
    20bc:	2101      	movs	r1, #1
    20be:	4640      	mov	r0, r8
    20c0:	f001 fc90 	bl	39e4 <mbedtls_mpi_shift_r>
    20c4:	4602      	mov	r2, r0
    20c6:	b188      	cbz	r0, 20ec <mpi_egcd+0x20a>
/home/hsk/Desktop/devel/tee-tpm-hyp/optee_os/lib/libutee/tee_api_arith_mpi.c:664 (discriminator 1)
    20c8:	488b      	ldr	r0, [pc, #556]	; (22f8 <mpi_egcd+0x416>)
    20ca:	f44f 7126 	mov.w	r1, #664	; 0x298
    20ce:	4478      	add	r0, pc
    20d0:	e73c      	b.n	1f4c <mpi_egcd+0x6a>
/home/hsk/Desktop/devel/tee-tpm-hyp/optee_os/lib/libutee/tee_api_arith_mpi.c:662
    20d2:	4652      	mov	r2, sl
    20d4:	4639      	mov	r1, r7
    20d6:	4638      	mov	r0, r7
    20d8:	f001 fe13 	bl	3d02 <mbedtls_mpi_sub_mpi>
    20dc:	4602      	mov	r2, r0
    20de:	2800      	cmp	r0, #0
    20e0:	d0ec      	beq.n	20bc <mpi_egcd+0x1da>
/home/hsk/Desktop/devel/tee-tpm-hyp/optee_os/lib/libutee/tee_api_arith_mpi.c:662 (discriminator 1)
    20e2:	4886      	ldr	r0, [pc, #536]	; (22fc <mpi_egcd+0x41a>)
    20e4:	f240 2196 	movw	r1, #662	; 0x296
    20e8:	4478      	add	r0, pc
    20ea:	e72f      	b.n	1f4c <mpi_egcd+0x6a>
/home/hsk/Desktop/devel/tee-tpm-hyp/optee_os/lib/libutee/tee_api_arith_mpi.c:665
    20ec:	2101      	movs	r1, #1
    20ee:	4638      	mov	r0, r7
    20f0:	f001 fc78 	bl	39e4 <mbedtls_mpi_shift_r>
    20f4:	4602      	mov	r2, r0
    20f6:	b120      	cbz	r0, 2102 <mpi_egcd+0x220>
/home/hsk/Desktop/devel/tee-tpm-hyp/optee_os/lib/libutee/tee_api_arith_mpi.c:665 (discriminator 1)
    20f8:	4881      	ldr	r0, [pc, #516]	; (2300 <mpi_egcd+0x41e>)
    20fa:	f240 2199 	movw	r1, #665	; 0x299
    20fe:	4478      	add	r0, pc
    2100:	e724      	b.n	1f4c <mpi_egcd+0x6a>
mpi_is_even():
/home/hsk/Desktop/devel/tee-tpm-hyp/optee_os/lib/libutee/tee_api_arith_mpi.c:605
    2102:	4630      	mov	r0, r6
    2104:	f7ff fecc 	bl	1ea0 <mpi_is_odd>
mpi_egcd():
/home/hsk/Desktop/devel/tee-tpm-hyp/optee_os/lib/libutee/tee_api_arith_mpi.c:658
    2108:	2800      	cmp	r0, #0
    210a:	d0b7      	beq.n	207c <mpi_egcd+0x19a>
mpi_is_even():
/home/hsk/Desktop/devel/tee-tpm-hyp/optee_os/lib/libutee/tee_api_arith_mpi.c:605
    210c:	4648      	mov	r0, r9
    210e:	f7ff fec7 	bl	1ea0 <mpi_is_odd>
mpi_egcd():
/home/hsk/Desktop/devel/tee-tpm-hyp/optee_os/lib/libutee/tee_api_arith_mpi.c:668
    2112:	b190      	cbz	r0, 213a <mpi_egcd+0x258>
/home/hsk/Desktop/devel/tee-tpm-hyp/optee_os/lib/libutee/tee_api_arith_mpi.c:679
    2114:	4649      	mov	r1, r9
    2116:	4630      	mov	r0, r6
    2118:	f001 fcd6 	bl	3ac8 <mbedtls_mpi_cmp_mpi>
    211c:	2800      	cmp	r0, #0
    211e:	db68      	blt.n	21f2 <mpi_egcd+0x310>
/home/hsk/Desktop/devel/tee-tpm-hyp/optee_os/lib/libutee/tee_api_arith_mpi.c:680
    2120:	464a      	mov	r2, r9
    2122:	4631      	mov	r1, r6
    2124:	4630      	mov	r0, r6
    2126:	f001 fdec 	bl	3d02 <mbedtls_mpi_sub_mpi>
    212a:	4602      	mov	r2, r0
    212c:	2800      	cmp	r0, #0
    212e:	d048      	beq.n	21c2 <mpi_egcd+0x2e0>
/home/hsk/Desktop/devel/tee-tpm-hyp/optee_os/lib/libutee/tee_api_arith_mpi.c:680 (discriminator 1)
    2130:	4874      	ldr	r0, [pc, #464]	; (2304 <mpi_egcd+0x422>)
    2132:	f44f 712a 	mov.w	r1, #680	; 0x2a8
    2136:	4478      	add	r0, pc
    2138:	e708      	b.n	1f4c <mpi_egcd+0x6a>
/home/hsk/Desktop/devel/tee-tpm-hyp/optee_os/lib/libutee/tee_api_arith_mpi.c:669
    213a:	2101      	movs	r1, #1
    213c:	4648      	mov	r0, r9
    213e:	f001 fc51 	bl	39e4 <mbedtls_mpi_shift_r>
    2142:	4602      	mov	r2, r0
    2144:	b120      	cbz	r0, 2150 <mpi_egcd+0x26e>
/home/hsk/Desktop/devel/tee-tpm-hyp/optee_os/lib/libutee/tee_api_arith_mpi.c:669 (discriminator 1)
    2146:	4870      	ldr	r0, [pc, #448]	; (2308 <mpi_egcd+0x426>)
    2148:	f240 219d 	movw	r1, #669	; 0x29d
    214c:	4478      	add	r0, pc
    214e:	e6fd      	b.n	1f4c <mpi_egcd+0x6a>
/home/hsk/Desktop/devel/tee-tpm-hyp/optee_os/lib/libutee/tee_api_arith_mpi.c:670
    2150:	4628      	mov	r0, r5
    2152:	f7ff fea5 	bl	1ea0 <mpi_is_odd>
    2156:	b158      	cbz	r0, 2170 <mpi_egcd+0x28e>
/home/hsk/Desktop/devel/tee-tpm-hyp/optee_os/lib/libutee/tee_api_arith_mpi.c:671
    2158:	465a      	mov	r2, fp
    215a:	4629      	mov	r1, r5
    215c:	4628      	mov	r0, r5
    215e:	f001 fdad 	bl	3cbc <mbedtls_mpi_add_mpi>
    2162:	4602      	mov	r2, r0
    2164:	b1a0      	cbz	r0, 2190 <mpi_egcd+0x2ae>
/home/hsk/Desktop/devel/tee-tpm-hyp/optee_os/lib/libutee/tee_api_arith_mpi.c:671 (discriminator 1)
    2166:	4869      	ldr	r0, [pc, #420]	; (230c <mpi_egcd+0x42a>)
    2168:	f240 219f 	movw	r1, #671	; 0x29f
    216c:	4478      	add	r0, pc
    216e:	e6ed      	b.n	1f4c <mpi_egcd+0x6a>
/home/hsk/Desktop/devel/tee-tpm-hyp/optee_os/lib/libutee/tee_api_arith_mpi.c:670 (discriminator 1)
    2170:	4620      	mov	r0, r4
    2172:	f7ff fe95 	bl	1ea0 <mpi_is_odd>
    2176:	2800      	cmp	r0, #0
    2178:	d1ee      	bne.n	2158 <mpi_egcd+0x276>
/home/hsk/Desktop/devel/tee-tpm-hyp/optee_os/lib/libutee/tee_api_arith_mpi.c:674
    217a:	2101      	movs	r1, #1
    217c:	4628      	mov	r0, r5
    217e:	f001 fc31 	bl	39e4 <mbedtls_mpi_shift_r>
    2182:	4602      	mov	r2, r0
    2184:	b188      	cbz	r0, 21aa <mpi_egcd+0x2c8>
/home/hsk/Desktop/devel/tee-tpm-hyp/optee_os/lib/libutee/tee_api_arith_mpi.c:674 (discriminator 1)
    2186:	4862      	ldr	r0, [pc, #392]	; (2310 <mpi_egcd+0x42e>)
    2188:	f240 21a2 	movw	r1, #674	; 0x2a2
    218c:	4478      	add	r0, pc
    218e:	e6dd      	b.n	1f4c <mpi_egcd+0x6a>
/home/hsk/Desktop/devel/tee-tpm-hyp/optee_os/lib/libutee/tee_api_arith_mpi.c:672
    2190:	4652      	mov	r2, sl
    2192:	4621      	mov	r1, r4
    2194:	4620      	mov	r0, r4
    2196:	f001 fdb4 	bl	3d02 <mbedtls_mpi_sub_mpi>
    219a:	4602      	mov	r2, r0
    219c:	2800      	cmp	r0, #0
    219e:	d0ec      	beq.n	217a <mpi_egcd+0x298>
/home/hsk/Desktop/devel/tee-tpm-hyp/optee_os/lib/libutee/tee_api_arith_mpi.c:672 (discriminator 1)
    21a0:	485c      	ldr	r0, [pc, #368]	; (2314 <mpi_egcd+0x432>)
    21a2:	f44f 7128 	mov.w	r1, #672	; 0x2a0
    21a6:	4478      	add	r0, pc
    21a8:	e6d0      	b.n	1f4c <mpi_egcd+0x6a>
/home/hsk/Desktop/devel/tee-tpm-hyp/optee_os/lib/libutee/tee_api_arith_mpi.c:675
    21aa:	2101      	movs	r1, #1
    21ac:	4620      	mov	r0, r4
    21ae:	f001 fc19 	bl	39e4 <mbedtls_mpi_shift_r>
    21b2:	4602      	mov	r2, r0
    21b4:	2800      	cmp	r0, #0
    21b6:	d0a9      	beq.n	210c <mpi_egcd+0x22a>
/home/hsk/Desktop/devel/tee-tpm-hyp/optee_os/lib/libutee/tee_api_arith_mpi.c:675 (discriminator 1)
    21b8:	4857      	ldr	r0, [pc, #348]	; (2318 <mpi_egcd+0x436>)
    21ba:	f240 21a3 	movw	r1, #675	; 0x2a3
    21be:	4478      	add	r0, pc
    21c0:	e6c4      	b.n	1f4c <mpi_egcd+0x6a>
/home/hsk/Desktop/devel/tee-tpm-hyp/optee_os/lib/libutee/tee_api_arith_mpi.c:681
    21c2:	462a      	mov	r2, r5
    21c4:	4641      	mov	r1, r8
    21c6:	4640      	mov	r0, r8
    21c8:	f001 fd9b 	bl	3d02 <mbedtls_mpi_sub_mpi>
    21cc:	4602      	mov	r2, r0
    21ce:	b120      	cbz	r0, 21da <mpi_egcd+0x2f8>
/home/hsk/Desktop/devel/tee-tpm-hyp/optee_os/lib/libutee/tee_api_arith_mpi.c:681 (discriminator 1)
    21d0:	4852      	ldr	r0, [pc, #328]	; (231c <mpi_egcd+0x43a>)
    21d2:	f240 21a9 	movw	r1, #681	; 0x2a9
    21d6:	4478      	add	r0, pc
    21d8:	e6b8      	b.n	1f4c <mpi_egcd+0x6a>
/home/hsk/Desktop/devel/tee-tpm-hyp/optee_os/lib/libutee/tee_api_arith_mpi.c:682
    21da:	4622      	mov	r2, r4
    21dc:	4639      	mov	r1, r7
    21de:	4638      	mov	r0, r7
    21e0:	f001 fd8f 	bl	3d02 <mbedtls_mpi_sub_mpi>
    21e4:	4602      	mov	r2, r0
    21e6:	b340      	cbz	r0, 223a <mpi_egcd+0x358>
/home/hsk/Desktop/devel/tee-tpm-hyp/optee_os/lib/libutee/tee_api_arith_mpi.c:682 (discriminator 1)
    21e8:	484d      	ldr	r0, [pc, #308]	; (2320 <mpi_egcd+0x43e>)
    21ea:	f240 21aa 	movw	r1, #682	; 0x2aa
    21ee:	4478      	add	r0, pc
    21f0:	e6ac      	b.n	1f4c <mpi_egcd+0x6a>
/home/hsk/Desktop/devel/tee-tpm-hyp/optee_os/lib/libutee/tee_api_arith_mpi.c:684
    21f2:	4632      	mov	r2, r6
    21f4:	4649      	mov	r1, r9
    21f6:	4648      	mov	r0, r9
    21f8:	f001 fd83 	bl	3d02 <mbedtls_mpi_sub_mpi>
    21fc:	4602      	mov	r2, r0
    21fe:	b120      	cbz	r0, 220a <mpi_egcd+0x328>
/home/hsk/Desktop/devel/tee-tpm-hyp/optee_os/lib/libutee/tee_api_arith_mpi.c:684 (discriminator 1)
    2200:	4848      	ldr	r0, [pc, #288]	; (2324 <mpi_egcd+0x442>)
    2202:	f44f 712b 	mov.w	r1, #684	; 0x2ac
    2206:	4478      	add	r0, pc
    2208:	e6a0      	b.n	1f4c <mpi_egcd+0x6a>
/home/hsk/Desktop/devel/tee-tpm-hyp/optee_os/lib/libutee/tee_api_arith_mpi.c:685
    220a:	4642      	mov	r2, r8
    220c:	4629      	mov	r1, r5
    220e:	4628      	mov	r0, r5
    2210:	f001 fd77 	bl	3d02 <mbedtls_mpi_sub_mpi>
    2214:	4602      	mov	r2, r0
    2216:	b120      	cbz	r0, 2222 <mpi_egcd+0x340>
/home/hsk/Desktop/devel/tee-tpm-hyp/optee_os/lib/libutee/tee_api_arith_mpi.c:685 (discriminator 1)
    2218:	4843      	ldr	r0, [pc, #268]	; (2328 <mpi_egcd+0x446>)
    221a:	f240 21ad 	movw	r1, #685	; 0x2ad
    221e:	4478      	add	r0, pc
    2220:	e694      	b.n	1f4c <mpi_egcd+0x6a>
/home/hsk/Desktop/devel/tee-tpm-hyp/optee_os/lib/libutee/tee_api_arith_mpi.c:686
    2222:	463a      	mov	r2, r7
    2224:	4621      	mov	r1, r4
    2226:	4620      	mov	r0, r4
    2228:	f001 fd6b 	bl	3d02 <mbedtls_mpi_sub_mpi>
    222c:	4602      	mov	r2, r0
    222e:	b120      	cbz	r0, 223a <mpi_egcd+0x358>
/home/hsk/Desktop/devel/tee-tpm-hyp/optee_os/lib/libutee/tee_api_arith_mpi.c:686 (discriminator 1)
    2230:	483e      	ldr	r0, [pc, #248]	; (232c <mpi_egcd+0x44a>)
    2232:	f240 21ae 	movw	r1, #686	; 0x2ae
    2236:	4478      	add	r0, pc
    2238:	e688      	b.n	1f4c <mpi_egcd+0x6a>
/home/hsk/Desktop/devel/tee-tpm-hyp/optee_os/lib/libutee/tee_api_arith_mpi.c:657
    223a:	2100      	movs	r1, #0
    223c:	4630      	mov	r0, r6
    223e:	f001 fc8c 	bl	3b5a <mbedtls_mpi_cmp_int>
    2242:	2800      	cmp	r0, #0
    2244:	f47f af5d 	bne.w	2102 <mpi_egcd+0x220>
/home/hsk/Desktop/devel/tee-tpm-hyp/optee_os/lib/libutee/tee_api_arith_mpi.c:690
    2248:	4629      	mov	r1, r5
    224a:	9802      	ldr	r0, [sp, #8]
    224c:	f001 f9dc 	bl	3608 <mbedtls_mpi_copy>
    2250:	4602      	mov	r2, r0
    2252:	b120      	cbz	r0, 225e <mpi_egcd+0x37c>
/home/hsk/Desktop/devel/tee-tpm-hyp/optee_os/lib/libutee/tee_api_arith_mpi.c:690 (discriminator 1)
    2254:	4836      	ldr	r0, [pc, #216]	; (2330 <mpi_egcd+0x44e>)
    2256:	f240 21b2 	movw	r1, #690	; 0x2b2
    225a:	4478      	add	r0, pc
    225c:	e676      	b.n	1f4c <mpi_egcd+0x6a>
/home/hsk/Desktop/devel/tee-tpm-hyp/optee_os/lib/libutee/tee_api_arith_mpi.c:691
    225e:	4621      	mov	r1, r4
    2260:	9803      	ldr	r0, [sp, #12]
    2262:	f001 f9d1 	bl	3608 <mbedtls_mpi_copy>
    2266:	4602      	mov	r2, r0
    2268:	b120      	cbz	r0, 2274 <mpi_egcd+0x392>
/home/hsk/Desktop/devel/tee-tpm-hyp/optee_os/lib/libutee/tee_api_arith_mpi.c:691 (discriminator 1)
    226a:	4832      	ldr	r0, [pc, #200]	; (2334 <mpi_egcd+0x452>)
    226c:	f240 21b3 	movw	r1, #691	; 0x2b3
    2270:	4478      	add	r0, pc
    2272:	e66b      	b.n	1f4c <mpi_egcd+0x6a>
/home/hsk/Desktop/devel/tee-tpm-hyp/optee_os/lib/libutee/tee_api_arith_mpi.c:692
    2274:	9901      	ldr	r1, [sp, #4]
    2276:	4648      	mov	r0, r9
    2278:	f001 fb6c 	bl	3954 <mbedtls_mpi_shift_l>
    227c:	4602      	mov	r2, r0
    227e:	b120      	cbz	r0, 228a <mpi_egcd+0x3a8>
/home/hsk/Desktop/devel/tee-tpm-hyp/optee_os/lib/libutee/tee_api_arith_mpi.c:692 (discriminator 1)
    2280:	482d      	ldr	r0, [pc, #180]	; (2338 <mpi_egcd+0x456>)
    2282:	f44f 712d 	mov.w	r1, #692	; 0x2b4
    2286:	4478      	add	r0, pc
    2288:	e660      	b.n	1f4c <mpi_egcd+0x6a>
/home/hsk/Desktop/devel/tee-tpm-hyp/optee_os/lib/libutee/tee_api_arith_mpi.c:695
    228a:	4640      	mov	r0, r8
    228c:	f7ff fe1b 	bl	1ec6 <put_mpi>
/home/hsk/Desktop/devel/tee-tpm-hyp/optee_os/lib/libutee/tee_api_arith_mpi.c:696
    2290:	4638      	mov	r0, r7
    2292:	f7ff fe18 	bl	1ec6 <put_mpi>
/home/hsk/Desktop/devel/tee-tpm-hyp/optee_os/lib/libutee/tee_api_arith_mpi.c:697
    2296:	4628      	mov	r0, r5
    2298:	f7ff fe15 	bl	1ec6 <put_mpi>
/home/hsk/Desktop/devel/tee-tpm-hyp/optee_os/lib/libutee/tee_api_arith_mpi.c:698
    229c:	4620      	mov	r0, r4
    229e:	f7ff fe12 	bl	1ec6 <put_mpi>
/home/hsk/Desktop/devel/tee-tpm-hyp/optee_os/lib/libutee/tee_api_arith_mpi.c:699
    22a2:	4650      	mov	r0, sl
    22a4:	f7ff fe0f 	bl	1ec6 <put_mpi>
/home/hsk/Desktop/devel/tee-tpm-hyp/optee_os/lib/libutee/tee_api_arith_mpi.c:700
    22a8:	4658      	mov	r0, fp
    22aa:	f7ff fe0c 	bl	1ec6 <put_mpi>
/home/hsk/Desktop/devel/tee-tpm-hyp/optee_os/lib/libutee/tee_api_arith_mpi.c:701
    22ae:	4630      	mov	r0, r6
    22b0:	f7ff fe09 	bl	1ec6 <put_mpi>
/home/hsk/Desktop/devel/tee-tpm-hyp/optee_os/lib/libutee/tee_api_arith_mpi.c:702
    22b4:	b01b      	add	sp, #108	; 0x6c
    22b6:	e8bd 8ff0 	ldmia.w	sp!, {r4, r5, r6, r7, r8, r9, sl, fp, pc}
    22ba:	bf00      	nop
    22bc:	00004cd7 	.word	0x00004cd7
    22c0:	00004cbf 	.word	0x00004cbf
    22c4:	00004ca5 	.word	0x00004ca5
    22c8:	00004c8f 	.word	0x00004c8f
    22cc:	00004c79 	.word	0x00004c79
    22d0:	00004c63 	.word	0x00004c63
    22d4:	00004c43 	.word	0x00004c43
    22d8:	00004c1b 	.word	0x00004c1b
    22dc:	00004c05 	.word	0x00004c05
    22e0:	00004bef 	.word	0x00004bef
    22e4:	00004bd9 	.word	0x00004bd9
    22e8:	00004bc3 	.word	0x00004bc3
    22ec:	00004ba9 	.word	0x00004ba9
    22f0:	00004b93 	.word	0x00004b93
    22f4:	00004b73 	.word	0x00004b73
    22f8:	00004b53 	.word	0x00004b53
    22fc:	00004b39 	.word	0x00004b39
    2300:	00004b23 	.word	0x00004b23
    2304:	00004aeb 	.word	0x00004aeb
    2308:	00004ad5 	.word	0x00004ad5
    230c:	00004ab5 	.word	0x00004ab5
    2310:	00004a95 	.word	0x00004a95
    2314:	00004a7b 	.word	0x00004a7b
    2318:	00004a63 	.word	0x00004a63
    231c:	00004a4b 	.word	0x00004a4b
    2320:	00004a33 	.word	0x00004a33
    2324:	00004a1b 	.word	0x00004a1b
    2328:	00004a03 	.word	0x00004a03
    232c:	000049eb 	.word	0x000049eb
    2330:	000049c7 	.word	0x000049c7
    2334:	000049b1 	.word	0x000049b1
    2338:	0000499b 	.word	0x0000499b

0000233c <get_const_mpi>:
get_const_mpi():
/home/hsk/Desktop/devel/tee-tpm-hyp/optee_os/lib/libutee/tee_api_arith_mpi.c:110
    233c:	b530      	push	{r4, r5, lr}
init_static_mpi():
/home/hsk/Desktop/devel/tee-tpm-hyp/optee_os/lib/libutee/tee_api_arith_mpi.c:65
    233e:	3108      	adds	r1, #8
    2340:	f831 2c02 	ldrh.w	r2, [r1, #-2]
get_const_mpi():
/home/hsk/Desktop/devel/tee-tpm-hyp/optee_os/lib/libutee/tee_api_arith_mpi.c:110
    2344:	b087      	sub	sp, #28
init_static_mpi():
/home/hsk/Desktop/devel/tee-tpm-hyp/optee_os/lib/libutee/tee_api_arith_mpi.c:65
    2346:	f831 3c04 	ldrh.w	r3, [r1, #-4]
    234a:	ac03      	add	r4, sp, #12
get_const_mpi():
/home/hsk/Desktop/devel/tee-tpm-hyp/optee_os/lib/libutee/tee_api_arith_mpi.c:110
    234c:	4605      	mov	r5, r0
init_static_mpi():
/home/hsk/Desktop/devel/tee-tpm-hyp/optee_os/lib/libutee/tee_api_arith_mpi.c:65
    234e:	4620      	mov	r0, r4
    2350:	9200      	str	r2, [sp, #0]
    2352:	f851 2c08 	ldr.w	r2, [r1, #-8]
    2356:	f001 f86d 	bl	3434 <mbedtls_mpi_init_static>
get_mpi():
/home/hsk/Desktop/devel/tee-tpm-hyp/optee_os/lib/libutee/tee_api_arith_mpi.c:99
    235a:	4628      	mov	r0, r5
    235c:	f001 f858 	bl	3410 <mbedtls_mpi_init_mempool>
get_const_mpi():
/home/hsk/Desktop/devel/tee-tpm-hyp/optee_os/lib/libutee/tee_api_arith_mpi.c:115
    2360:	4621      	mov	r1, r4
    2362:	4628      	mov	r0, r5
    2364:	f001 f950 	bl	3608 <mbedtls_mpi_copy>
    2368:	4602      	mov	r2, r0
    236a:	b128      	cbz	r0, 2378 <get_const_mpi+0x3c>
/home/hsk/Desktop/devel/tee-tpm-hyp/optee_os/lib/libutee/tee_api_arith_mpi.c:115 (discriminator 1)
    236c:	4803      	ldr	r0, [pc, #12]	; (237c <get_const_mpi+0x40>)
    236e:	2173      	movs	r1, #115	; 0x73
    2370:	4478      	add	r0, pc
    2372:	3009      	adds	r0, #9
    2374:	f7ff fd72 	bl	1e5c <mpi_panic>
/home/hsk/Desktop/devel/tee-tpm-hyp/optee_os/lib/libutee/tee_api_arith_mpi.c:116
    2378:	b007      	add	sp, #28
    237a:	bd30      	pop	{r4, r5, pc}
    237c:	000048b1 	.word	0x000048b1

00002380 <bigint_binary>:
bigint_binary():
/home/hsk/Desktop/devel/tee-tpm-hyp/optee_os/lib/libutee/tee_api_arith_mpi.c:336
    2380:	e92d 47f0 	stmdb	sp!, {r4, r5, r6, r7, r8, r9, sl, lr}
    2384:	4682      	mov	sl, r0
    2386:	4688      	mov	r8, r1
    2388:	b08a      	sub	sp, #40	; 0x28
/home/hsk/Desktop/devel/tee-tpm-hyp/optee_os/lib/libutee/tee_api_arith_mpi.c:343
    238a:	4601      	mov	r1, r0
    238c:	ae01      	add	r6, sp, #4
/home/hsk/Desktop/devel/tee-tpm-hyp/optee_os/lib/libutee/tee_api_arith_mpi.c:336
    238e:	4614      	mov	r4, r2
/home/hsk/Desktop/devel/tee-tpm-hyp/optee_os/lib/libutee/tee_api_arith_mpi.c:343
    2390:	4630      	mov	r0, r6
/home/hsk/Desktop/devel/tee-tpm-hyp/optee_os/lib/libutee/tee_api_arith_mpi.c:336
    2392:	4699      	mov	r9, r3
    2394:	af04      	add	r7, sp, #16
/home/hsk/Desktop/devel/tee-tpm-hyp/optee_os/lib/libutee/tee_api_arith_mpi.c:343
    2396:	f7ff fd71 	bl	1e7c <get_mpi>
/home/hsk/Desktop/devel/tee-tpm-hyp/optee_os/lib/libutee/tee_api_arith_mpi.c:345
    239a:	45c2      	cmp	sl, r8
    239c:	d01a      	beq.n	23d4 <bigint_binary+0x54>
/home/hsk/Desktop/devel/tee-tpm-hyp/optee_os/lib/libutee/tee_api_arith_mpi.c:340
    239e:	463d      	mov	r5, r7
/home/hsk/Desktop/devel/tee-tpm-hyp/optee_os/lib/libutee/tee_api_arith_mpi.c:348
    23a0:	4641      	mov	r1, r8
    23a2:	4638      	mov	r0, r7
    23a4:	f7ff ffca 	bl	233c <get_const_mpi>
/home/hsk/Desktop/devel/tee-tpm-hyp/optee_os/lib/libutee/tee_api_arith_mpi.c:350
    23a8:	45a2      	cmp	sl, r4
    23aa:	d015      	beq.n	23d8 <bigint_binary+0x58>
/home/hsk/Desktop/devel/tee-tpm-hyp/optee_os/lib/libutee/tee_api_arith_mpi.c:352
    23ac:	45a0      	cmp	r8, r4
    23ae:	d015      	beq.n	23dc <bigint_binary+0x5c>
/home/hsk/Desktop/devel/tee-tpm-hyp/optee_os/lib/libutee/tee_api_arith_mpi.c:355
    23b0:	4621      	mov	r1, r4
    23b2:	ac07      	add	r4, sp, #28
    23b4:	4620      	mov	r0, r4
    23b6:	f7ff ffc1 	bl	233c <get_const_mpi>
/home/hsk/Desktop/devel/tee-tpm-hyp/optee_os/lib/libutee/tee_api_arith_mpi.c:357
    23ba:	4622      	mov	r2, r4
    23bc:	4629      	mov	r1, r5
    23be:	4630      	mov	r0, r6
    23c0:	47c8      	blx	r9
    23c2:	4602      	mov	r2, r0
    23c4:	b160      	cbz	r0, 23e0 <bigint_binary+0x60>
/home/hsk/Desktop/devel/tee-tpm-hyp/optee_os/lib/libutee/tee_api_arith_mpi.c:357 (discriminator 1)
    23c6:	480f      	ldr	r0, [pc, #60]	; (2404 <bigint_binary+0x84>)
    23c8:	f240 1165 	movw	r1, #357	; 0x165
    23cc:	4478      	add	r0, pc
    23ce:	3017      	adds	r0, #23
    23d0:	f7ff fd44 	bl	1e5c <mpi_panic>
/home/hsk/Desktop/devel/tee-tpm-hyp/optee_os/lib/libutee/tee_api_arith_mpi.c:346
    23d4:	4635      	mov	r5, r6
    23d6:	e7e7      	b.n	23a8 <bigint_binary+0x28>
/home/hsk/Desktop/devel/tee-tpm-hyp/optee_os/lib/libutee/tee_api_arith_mpi.c:351
    23d8:	4634      	mov	r4, r6
    23da:	e7ee      	b.n	23ba <bigint_binary+0x3a>
/home/hsk/Desktop/devel/tee-tpm-hyp/optee_os/lib/libutee/tee_api_arith_mpi.c:353
    23dc:	462c      	mov	r4, r5
    23de:	e7ec      	b.n	23ba <bigint_binary+0x3a>
/home/hsk/Desktop/devel/tee-tpm-hyp/optee_os/lib/libutee/tee_api_arith_mpi.c:359
    23e0:	4630      	mov	r0, r6
    23e2:	f7ff fd70 	bl	1ec6 <put_mpi>
/home/hsk/Desktop/devel/tee-tpm-hyp/optee_os/lib/libutee/tee_api_arith_mpi.c:360
    23e6:	42bd      	cmp	r5, r7
    23e8:	d102      	bne.n	23f0 <bigint_binary+0x70>
/home/hsk/Desktop/devel/tee-tpm-hyp/optee_os/lib/libutee/tee_api_arith_mpi.c:361
    23ea:	4628      	mov	r0, r5
    23ec:	f7ff fd6b 	bl	1ec6 <put_mpi>
/home/hsk/Desktop/devel/tee-tpm-hyp/optee_os/lib/libutee/tee_api_arith_mpi.c:362
    23f0:	ab07      	add	r3, sp, #28
    23f2:	429c      	cmp	r4, r3
    23f4:	d102      	bne.n	23fc <bigint_binary+0x7c>
/home/hsk/Desktop/devel/tee-tpm-hyp/optee_os/lib/libutee/tee_api_arith_mpi.c:363
    23f6:	4620      	mov	r0, r4
    23f8:	f7ff fd65 	bl	1ec6 <put_mpi>
/home/hsk/Desktop/devel/tee-tpm-hyp/optee_os/lib/libutee/tee_api_arith_mpi.c:364
    23fc:	b00a      	add	sp, #40	; 0x28
    23fe:	e8bd 87f0 	ldmia.w	sp!, {r4, r5, r6, r7, r8, r9, sl, pc}
    2402:	bf00      	nop
    2404:	00004855 	.word	0x00004855

00002408 <_TEE_MathAPI_Init>:
_TEE_MathAPI_Init():
/home/hsk/Desktop/devel/tee-tpm-hyp/optee_os/lib/libutee/tee_api_arith_mpi.c:48
    2408:	480b      	ldr	r0, [pc, #44]	; (2438 <_TEE_MathAPI_Init+0x30>)
    240a:	2200      	movs	r2, #0
/home/hsk/Desktop/devel/tee-tpm-hyp/optee_os/lib/libutee/tee_api_arith_mpi.c:44
    240c:	b510      	push	{r4, lr}
/home/hsk/Desktop/devel/tee-tpm-hyp/optee_os/lib/libutee/tee_api_arith_mpi.c:48
    240e:	f44f 5100 	mov.w	r1, #8192	; 0x2000
/home/hsk/Desktop/devel/tee-tpm-hyp/optee_os/lib/libutee/tee_api_arith_mpi.c:44
    2412:	4c0a      	ldr	r4, [pc, #40]	; (243c <_TEE_MathAPI_Init+0x34>)
/home/hsk/Desktop/devel/tee-tpm-hyp/optee_os/lib/libutee/tee_api_arith_mpi.c:48
    2414:	4478      	add	r0, pc
    2416:	f003 ff23 	bl	6260 <mempool_alloc_pool>
    241a:	4b09      	ldr	r3, [pc, #36]	; (2440 <_TEE_MathAPI_Init+0x38>)
/home/hsk/Desktop/devel/tee-tpm-hyp/optee_os/lib/libutee/tee_api_arith_mpi.c:44
    241c:	447c      	add	r4, pc
/home/hsk/Desktop/devel/tee-tpm-hyp/optee_os/lib/libutee/tee_api_arith_mpi.c:48
    241e:	58e3      	ldr	r3, [r4, r3]
    2420:	6018      	str	r0, [r3, #0]
/home/hsk/Desktop/devel/tee-tpm-hyp/optee_os/lib/libutee/tee_api_arith_mpi.c:49
    2422:	b938      	cbnz	r0, 2434 <_TEE_MathAPI_Init+0x2c>
/home/hsk/Desktop/devel/tee-tpm-hyp/optee_os/lib/libutee/tee_api_arith_mpi.c:50
    2424:	4807      	ldr	r0, [pc, #28]	; (2444 <_TEE_MathAPI_Init+0x3c>)
    2426:	2132      	movs	r1, #50	; 0x32
    2428:	4a07      	ldr	r2, [pc, #28]	; (2448 <_TEE_MathAPI_Init+0x40>)
    242a:	4478      	add	r0, pc
    242c:	447a      	add	r2, pc
    242e:	3025      	adds	r0, #37	; 0x25
    2430:	f000 fd1c 	bl	2e6c <api_panic>
/home/hsk/Desktop/devel/tee-tpm-hyp/optee_os/lib/libutee/tee_api_arith_mpi.c:51
    2434:	bd10      	pop	{r4, pc}
    2436:	bf00      	nop
    2438:	00006cac 	.word	0x00006cac
    243c:	00005a30 	.word	0x00005a30
    2440:	00000030 	.word	0x00000030
    2444:	000047f7 	.word	0x000047f7
    2448:	0000497d 	.word	0x0000497d

0000244c <TEE_BigIntInit>:
TEE_BigIntInit():
/home/hsk/Desktop/devel/tee-tpm-hyp/optee_os/lib/libutee/tee_api_arith_mpi.c:140
    244c:	f101 021f 	add.w	r2, r1, #31
/home/hsk/Desktop/devel/tee-tpm-hyp/optee_os/lib/libutee/tee_api_arith_mpi.c:139
    2450:	b510      	push	{r4, lr}
    2452:	460c      	mov	r4, r1
/home/hsk/Desktop/devel/tee-tpm-hyp/optee_os/lib/libutee/tee_api_arith_mpi.c:140
    2454:	0952      	lsrs	r2, r2, #5
    2456:	2100      	movs	r1, #0
    2458:	3202      	adds	r2, #2
/home/hsk/Desktop/devel/tee-tpm-hyp/optee_os/lib/libutee/tee_api_arith_mpi.c:146
    245a:	3c02      	subs	r4, #2
/home/hsk/Desktop/devel/tee-tpm-hyp/optee_os/lib/libutee/tee_api_arith_mpi.c:140
    245c:	0092      	lsls	r2, r2, #2
    245e:	f004 f8b2 	bl	65c6 <memset>
/home/hsk/Desktop/devel/tee-tpm-hyp/optee_os/lib/libutee/tee_api_arith_mpi.c:145
    2462:	2201      	movs	r2, #1
    2464:	6002      	str	r2, [r0, #0]
/home/hsk/Desktop/devel/tee-tpm-hyp/optee_os/lib/libutee/tee_api_arith_mpi.c:146
    2466:	f242 7210 	movw	r2, #10000	; 0x2710
    246a:	4294      	cmp	r4, r2
    246c:	d907      	bls.n	247e <TEE_BigIntInit+0x32>
/home/hsk/Desktop/devel/tee-tpm-hyp/optee_os/lib/libutee/tee_api_arith_mpi.c:147
    246e:	4805      	ldr	r0, [pc, #20]	; (2484 <TEE_BigIntInit+0x38>)
    2470:	2193      	movs	r1, #147	; 0x93
    2472:	4a05      	ldr	r2, [pc, #20]	; (2488 <TEE_BigIntInit+0x3c>)
    2474:	4478      	add	r0, pc
    2476:	447a      	add	r2, pc
    2478:	3037      	adds	r0, #55	; 0x37
    247a:	f000 fcf7 	bl	2e6c <api_panic>
/home/hsk/Desktop/devel/tee-tpm-hyp/optee_os/lib/libutee/tee_api_arith_mpi.c:148
    247e:	8084      	strh	r4, [r0, #4]
/home/hsk/Desktop/devel/tee-tpm-hyp/optee_os/lib/libutee/tee_api_arith_mpi.c:149
    2480:	bd10      	pop	{r4, pc}
    2482:	bf00      	nop
    2484:	000047ad 	.word	0x000047ad
    2488:	00004954 	.word	0x00004954

0000248c <TEE_BigIntConvertFromOctetString>:
TEE_BigIntConvertFromOctetString():
/home/hsk/Desktop/devel/tee-tpm-hyp/optee_os/lib/libutee/tee_api_arith_mpi.c:154
    248c:	b5f0      	push	{r4, r5, r6, r7, lr}
    248e:	460c      	mov	r4, r1
    2490:	4617      	mov	r7, r2
    2492:	b085      	sub	sp, #20
/home/hsk/Desktop/devel/tee-tpm-hyp/optee_os/lib/libutee/tee_api_arith_mpi.c:158
    2494:	4601      	mov	r1, r0
    2496:	ad01      	add	r5, sp, #4
/home/hsk/Desktop/devel/tee-tpm-hyp/optee_os/lib/libutee/tee_api_arith_mpi.c:154
    2498:	461e      	mov	r6, r3
/home/hsk/Desktop/devel/tee-tpm-hyp/optee_os/lib/libutee/tee_api_arith_mpi.c:158
    249a:	4628      	mov	r0, r5
    249c:	f7ff fcee 	bl	1e7c <get_mpi>
/home/hsk/Desktop/devel/tee-tpm-hyp/optee_os/lib/libutee/tee_api_arith_mpi.c:160
    24a0:	4621      	mov	r1, r4
    24a2:	463a      	mov	r2, r7
    24a4:	4628      	mov	r0, r5
    24a6:	f001 f9ff 	bl	38a8 <mbedtls_mpi_read_binary>
/home/hsk/Desktop/devel/tee-tpm-hyp/optee_os/lib/libutee/tee_api_arith_mpi.c:163
    24aa:	2800      	cmp	r0, #0
    24ac:	4c06      	ldr	r4, [pc, #24]	; (24c8 <TEE_BigIntConvertFromOctetString+0x3c>)
    24ae:	bf08      	it	eq
    24b0:	2400      	moveq	r4, #0
/home/hsk/Desktop/devel/tee-tpm-hyp/optee_os/lib/libutee/tee_api_arith_mpi.c:165
    24b2:	2e00      	cmp	r6, #0
    24b4:	da02      	bge.n	24bc <TEE_BigIntConvertFromOctetString+0x30>
/home/hsk/Desktop/devel/tee-tpm-hyp/optee_os/lib/libutee/tee_api_arith_mpi.c:166
    24b6:	23ff      	movs	r3, #255	; 0xff
    24b8:	f88d 3004 	strb.w	r3, [sp, #4]
/home/hsk/Desktop/devel/tee-tpm-hyp/optee_os/lib/libutee/tee_api_arith_mpi.c:168
    24bc:	4628      	mov	r0, r5
    24be:	f7ff fd02 	bl	1ec6 <put_mpi>
/home/hsk/Desktop/devel/tee-tpm-hyp/optee_os/lib/libutee/tee_api_arith_mpi.c:171
    24c2:	4620      	mov	r0, r4
    24c4:	b005      	add	sp, #20
    24c6:	bdf0      	pop	{r4, r5, r6, r7, pc}
    24c8:	ffff300f 	.word	0xffff300f

000024cc <TEE_BigIntConvertToOctetString>:
TEE_BigIntConvertToOctetString():
/home/hsk/Desktop/devel/tee-tpm-hyp/optee_os/lib/libutee/tee_api_arith_mpi.c:175
    24cc:	b5f0      	push	{r4, r5, r6, r7, lr}
    24ce:	460f      	mov	r7, r1
    24d0:	4604      	mov	r4, r0
    24d2:	b085      	sub	sp, #20
/home/hsk/Desktop/devel/tee-tpm-hyp/optee_os/lib/libutee/tee_api_arith_mpi.c:180
    24d4:	4611      	mov	r1, r2
    24d6:	ad01      	add	r5, sp, #4
    24d8:	4628      	mov	r0, r5
    24da:	f7ff ff2f 	bl	233c <get_const_mpi>
/home/hsk/Desktop/devel/tee-tpm-hyp/optee_os/lib/libutee/tee_api_arith_mpi.c:182
    24de:	4628      	mov	r0, r5
    24e0:	f001 f9dc 	bl	389c <mbedtls_mpi_size>
/home/hsk/Desktop/devel/tee-tpm-hyp/optee_os/lib/libutee/tee_api_arith_mpi.c:183
    24e4:	683b      	ldr	r3, [r7, #0]
/home/hsk/Desktop/devel/tee-tpm-hyp/optee_os/lib/libutee/tee_api_arith_mpi.c:182
    24e6:	4606      	mov	r6, r0
/home/hsk/Desktop/devel/tee-tpm-hyp/optee_os/lib/libutee/tee_api_arith_mpi.c:183
    24e8:	4283      	cmp	r3, r0
    24ea:	d30c      	bcc.n	2506 <TEE_BigIntConvertToOctetString+0x3a>
/home/hsk/Desktop/devel/tee-tpm-hyp/optee_os/lib/libutee/tee_api_arith_mpi.c:184
    24ec:	4602      	mov	r2, r0
    24ee:	4621      	mov	r1, r4
    24f0:	4628      	mov	r0, r5
    24f2:	f001 fa0c 	bl	390e <mbedtls_mpi_write_binary>
    24f6:	b170      	cbz	r0, 2516 <TEE_BigIntConvertToOctetString+0x4a>
/home/hsk/Desktop/devel/tee-tpm-hyp/optee_os/lib/libutee/tee_api_arith_mpi.c:184 (discriminator 1)
    24f8:	4602      	mov	r2, r0
    24fa:	4809      	ldr	r0, [pc, #36]	; (2520 <TEE_BigIntConvertToOctetString+0x54>)
    24fc:	21b8      	movs	r1, #184	; 0xb8
    24fe:	4478      	add	r0, pc
    2500:	3046      	adds	r0, #70	; 0x46
    2502:	f7ff fcab 	bl	1e5c <mpi_panic>
/home/hsk/Desktop/devel/tee-tpm-hyp/optee_os/lib/libutee/tee_api_arith_mpi.c:186
    2506:	4c05      	ldr	r4, [pc, #20]	; (251c <TEE_BigIntConvertToOctetString+0x50>)
/home/hsk/Desktop/devel/tee-tpm-hyp/optee_os/lib/libutee/tee_api_arith_mpi.c:190
    2508:	4628      	mov	r0, r5
/home/hsk/Desktop/devel/tee-tpm-hyp/optee_os/lib/libutee/tee_api_arith_mpi.c:188
    250a:	603e      	str	r6, [r7, #0]
/home/hsk/Desktop/devel/tee-tpm-hyp/optee_os/lib/libutee/tee_api_arith_mpi.c:190
    250c:	f7ff fcdb 	bl	1ec6 <put_mpi>
/home/hsk/Desktop/devel/tee-tpm-hyp/optee_os/lib/libutee/tee_api_arith_mpi.c:193
    2510:	4620      	mov	r0, r4
    2512:	b005      	add	sp, #20
    2514:	bdf0      	pop	{r4, r5, r6, r7, pc}
/home/hsk/Desktop/devel/tee-tpm-hyp/optee_os/lib/libutee/tee_api_arith_mpi.c:176
    2516:	4604      	mov	r4, r0
    2518:	e7f6      	b.n	2508 <TEE_BigIntConvertToOctetString+0x3c>
    251a:	bf00      	nop
    251c:	ffff0010 	.word	0xffff0010
    2520:	00004723 	.word	0x00004723

00002524 <TEE_BigIntConvertFromS32>:
TEE_BigIntConvertFromS32():
/home/hsk/Desktop/devel/tee-tpm-hyp/optee_os/lib/libutee/tee_api_arith_mpi.c:196
    2524:	b530      	push	{r4, r5, lr}
    2526:	460d      	mov	r5, r1
/home/hsk/Desktop/devel/tee-tpm-hyp/optee_os/lib/libutee/tee_api_arith_mpi.c:199
    2528:	4601      	mov	r1, r0
/home/hsk/Desktop/devel/tee-tpm-hyp/optee_os/lib/libutee/tee_api_arith_mpi.c:196
    252a:	b085      	sub	sp, #20
/home/hsk/Desktop/devel/tee-tpm-hyp/optee_os/lib/libutee/tee_api_arith_mpi.c:199
    252c:	ac01      	add	r4, sp, #4
    252e:	4620      	mov	r0, r4
    2530:	f7ff fca4 	bl	1e7c <get_mpi>
/home/hsk/Desktop/devel/tee-tpm-hyp/optee_os/lib/libutee/tee_api_arith_mpi.c:201
    2534:	4629      	mov	r1, r5
    2536:	4620      	mov	r0, r4
    2538:	f001 f921 	bl	377e <mbedtls_mpi_lset>
    253c:	4602      	mov	r2, r0
    253e:	b128      	cbz	r0, 254c <TEE_BigIntConvertFromS32+0x28>
/home/hsk/Desktop/devel/tee-tpm-hyp/optee_os/lib/libutee/tee_api_arith_mpi.c:201 (discriminator 1)
    2540:	4805      	ldr	r0, [pc, #20]	; (2558 <TEE_BigIntConvertFromS32+0x34>)
    2542:	21c9      	movs	r1, #201	; 0xc9
    2544:	4478      	add	r0, pc
    2546:	3065      	adds	r0, #101	; 0x65
    2548:	f7ff fc88 	bl	1e5c <mpi_panic>
/home/hsk/Desktop/devel/tee-tpm-hyp/optee_os/lib/libutee/tee_api_arith_mpi.c:203
    254c:	4620      	mov	r0, r4
    254e:	f7ff fcba 	bl	1ec6 <put_mpi>
/home/hsk/Desktop/devel/tee-tpm-hyp/optee_os/lib/libutee/tee_api_arith_mpi.c:204
    2552:	b005      	add	sp, #20
    2554:	bd30      	pop	{r4, r5, pc}
    2556:	bf00      	nop
    2558:	000046dd 	.word	0x000046dd

0000255c <TEE_BigIntConvertToS32>:
TEE_BigIntConvertToS32():
/home/hsk/Desktop/devel/tee-tpm-hyp/optee_os/lib/libutee/tee_api_arith_mpi.c:207
    255c:	b530      	push	{r4, r5, lr}
    255e:	4605      	mov	r5, r0
    2560:	b085      	sub	sp, #20
/home/hsk/Desktop/devel/tee-tpm-hyp/optee_os/lib/libutee/tee_api_arith_mpi.c:212
    2562:	ac01      	add	r4, sp, #4
    2564:	4620      	mov	r0, r4
    2566:	f7ff fee9 	bl	233c <get_const_mpi>
/home/hsk/Desktop/devel/tee-tpm-hyp/optee_os/lib/libutee/tee_api_arith_mpi.c:214
    256a:	2204      	movs	r2, #4
    256c:	4669      	mov	r1, sp
    256e:	4620      	mov	r0, r4
    2570:	f001 f9cd 	bl	390e <mbedtls_mpi_write_binary>
    2574:	b9d0      	cbnz	r0, 25ac <TEE_BigIntConvertToS32+0x50>
    2576:	9b00      	ldr	r3, [sp, #0]
/home/hsk/Desktop/devel/tee-tpm-hyp/optee_os/lib/libutee/tee_api_arith_mpi.c:219
    2578:	f99d 2004 	ldrsb.w	r2, [sp, #4]
    257c:	ba1b      	rev	r3, r3
    257e:	2a00      	cmp	r2, #0
    2580:	dd09      	ble.n	2596 <TEE_BigIntConvertToS32+0x3a>
/home/hsk/Desktop/devel/tee-tpm-hyp/optee_os/lib/libutee/tee_api_arith_mpi.c:220
    2582:	602b      	str	r3, [r5, #0]
    2584:	2b00      	cmp	r3, #0
    2586:	db11      	blt.n	25ac <TEE_BigIntConvertToS32+0x50>
/home/hsk/Desktop/devel/tee-tpm-hyp/optee_os/lib/libutee/tee_api_arith_mpi.c:208
    2588:	2500      	movs	r5, #0
/home/hsk/Desktop/devel/tee-tpm-hyp/optee_os/lib/libutee/tee_api_arith_mpi.c:228
    258a:	4620      	mov	r0, r4
    258c:	f7ff fc9b 	bl	1ec6 <put_mpi>
/home/hsk/Desktop/devel/tee-tpm-hyp/optee_os/lib/libutee/tee_api_arith_mpi.c:231
    2590:	4628      	mov	r0, r5
    2592:	b005      	add	sp, #20
    2594:	bd30      	pop	{r4, r5, pc}
/home/hsk/Desktop/devel/tee-tpm-hyp/optee_os/lib/libutee/tee_api_arith_mpi.c:223
    2596:	425a      	negs	r2, r3
    2598:	b11b      	cbz	r3, 25a2 <TEE_BigIntConvertToS32+0x46>
    259a:	2a00      	cmp	r2, #0
    259c:	db03      	blt.n	25a6 <TEE_BigIntConvertToS32+0x4a>
    259e:	2001      	movs	r0, #1
    25a0:	e001      	b.n	25a6 <TEE_BigIntConvertToS32+0x4a>
    25a2:	2a00      	cmp	r2, #0
    25a4:	dbfb      	blt.n	259e <TEE_BigIntConvertToS32+0x42>
    25a6:	602a      	str	r2, [r5, #0]
    25a8:	2800      	cmp	r0, #0
    25aa:	d0ed      	beq.n	2588 <TEE_BigIntConvertToS32+0x2c>
/home/hsk/Desktop/devel/tee-tpm-hyp/optee_os/lib/libutee/tee_api_arith_mpi.c:221
    25ac:	4d00      	ldr	r5, [pc, #0]	; (25b0 <TEE_BigIntConvertToS32+0x54>)
    25ae:	e7ec      	b.n	258a <TEE_BigIntConvertToS32+0x2e>
    25b0:	ffff300f 	.word	0xffff300f

000025b4 <TEE_BigIntCmp>:
TEE_BigIntCmp():
/home/hsk/Desktop/devel/tee-tpm-hyp/optee_os/lib/libutee/tee_api_arith_mpi.c:234
    25b4:	b570      	push	{r4, r5, r6, lr}
    25b6:	460c      	mov	r4, r1
/home/hsk/Desktop/devel/tee-tpm-hyp/optee_os/lib/libutee/tee_api_arith_mpi.c:239
    25b8:	4601      	mov	r1, r0
/home/hsk/Desktop/devel/tee-tpm-hyp/optee_os/lib/libutee/tee_api_arith_mpi.c:234
    25ba:	b086      	sub	sp, #24
/home/hsk/Desktop/devel/tee-tpm-hyp/optee_os/lib/libutee/tee_api_arith_mpi.c:239
    25bc:	466d      	mov	r5, sp
    25be:	4628      	mov	r0, r5
    25c0:	f7ff febc 	bl	233c <get_const_mpi>
/home/hsk/Desktop/devel/tee-tpm-hyp/optee_os/lib/libutee/tee_api_arith_mpi.c:240
    25c4:	4621      	mov	r1, r4
    25c6:	ac03      	add	r4, sp, #12
    25c8:	4620      	mov	r0, r4
    25ca:	f7ff feb7 	bl	233c <get_const_mpi>
/home/hsk/Desktop/devel/tee-tpm-hyp/optee_os/lib/libutee/tee_api_arith_mpi.c:242
    25ce:	4621      	mov	r1, r4
    25d0:	4628      	mov	r0, r5
    25d2:	f001 fa79 	bl	3ac8 <mbedtls_mpi_cmp_mpi>
    25d6:	4606      	mov	r6, r0
/home/hsk/Desktop/devel/tee-tpm-hyp/optee_os/lib/libutee/tee_api_arith_mpi.c:244
    25d8:	4628      	mov	r0, r5
    25da:	f7ff fc74 	bl	1ec6 <put_mpi>
/home/hsk/Desktop/devel/tee-tpm-hyp/optee_os/lib/libutee/tee_api_arith_mpi.c:245
    25de:	4620      	mov	r0, r4
    25e0:	f7ff fc71 	bl	1ec6 <put_mpi>
/home/hsk/Desktop/devel/tee-tpm-hyp/optee_os/lib/libutee/tee_api_arith_mpi.c:248
    25e4:	4630      	mov	r0, r6
    25e6:	b006      	add	sp, #24
    25e8:	bd70      	pop	{r4, r5, r6, pc}

000025ea <TEE_BigIntCmpS32>:
TEE_BigIntCmpS32():
/home/hsk/Desktop/devel/tee-tpm-hyp/optee_os/lib/libutee/tee_api_arith_mpi.c:251
    25ea:	b530      	push	{r4, r5, lr}
    25ec:	460d      	mov	r5, r1
/home/hsk/Desktop/devel/tee-tpm-hyp/optee_os/lib/libutee/tee_api_arith_mpi.c:255
    25ee:	4601      	mov	r1, r0
/home/hsk/Desktop/devel/tee-tpm-hyp/optee_os/lib/libutee/tee_api_arith_mpi.c:251
    25f0:	b085      	sub	sp, #20
/home/hsk/Desktop/devel/tee-tpm-hyp/optee_os/lib/libutee/tee_api_arith_mpi.c:255
    25f2:	ac01      	add	r4, sp, #4
    25f4:	4620      	mov	r0, r4
    25f6:	f7ff fea1 	bl	233c <get_const_mpi>
/home/hsk/Desktop/devel/tee-tpm-hyp/optee_os/lib/libutee/tee_api_arith_mpi.c:257
    25fa:	4629      	mov	r1, r5
    25fc:	4620      	mov	r0, r4
    25fe:	f001 faac 	bl	3b5a <mbedtls_mpi_cmp_int>
    2602:	4605      	mov	r5, r0
/home/hsk/Desktop/devel/tee-tpm-hyp/optee_os/lib/libutee/tee_api_arith_mpi.c:259
    2604:	4620      	mov	r0, r4
    2606:	f7ff fc5e 	bl	1ec6 <put_mpi>
/home/hsk/Desktop/devel/tee-tpm-hyp/optee_os/lib/libutee/tee_api_arith_mpi.c:262
    260a:	4628      	mov	r0, r5
    260c:	b005      	add	sp, #20
    260e:	bd30      	pop	{r4, r5, pc}

00002610 <bigint_binary_mod>:
bigint_binary_mod():
/home/hsk/Desktop/devel/tee-tpm-hyp/optee_os/lib/libutee/tee_api_arith_mpi.c:370
    2610:	e92d 47f0 	stmdb	sp!, {r4, r5, r6, r7, r8, r9, sl, lr}
    2614:	4680      	mov	r8, r0
    2616:	460f      	mov	r7, r1
    2618:	b090      	sub	sp, #64	; 0x40
/home/hsk/Desktop/devel/tee-tpm-hyp/optee_os/lib/libutee/tee_api_arith_mpi.c:371
    261a:	2102      	movs	r1, #2
    261c:	4618      	mov	r0, r3
/home/hsk/Desktop/devel/tee-tpm-hyp/optee_os/lib/libutee/tee_api_arith_mpi.c:370
    261e:	4614      	mov	r4, r2
    2620:	461d      	mov	r5, r3
/home/hsk/Desktop/devel/tee-tpm-hyp/optee_os/lib/libutee/tee_api_arith_mpi.c:371
    2622:	f7ff ffe2 	bl	25ea <TEE_BigIntCmpS32>
    2626:	2800      	cmp	r0, #0
    2628:	da08      	bge.n	263c <bigint_binary_mod+0x2c>
/home/hsk/Desktop/devel/tee-tpm-hyp/optee_os/lib/libutee/tee_api_arith_mpi.c:372
    262a:	482f      	ldr	r0, [pc, #188]	; (26e8 <bigint_binary_mod+0xd8>)
    262c:	f44f 71ba 	mov.w	r1, #372	; 0x174
    2630:	4a2e      	ldr	r2, [pc, #184]	; (26ec <bigint_binary_mod+0xdc>)
    2632:	4478      	add	r0, pc
    2634:	447a      	add	r2, pc
    2636:	307e      	adds	r0, #126	; 0x7e
    2638:	f000 fc18 	bl	2e6c <api_panic>
/home/hsk/Desktop/devel/tee-tpm-hyp/optee_os/lib/libutee/tee_api_arith_mpi.c:382
    263c:	ae01      	add	r6, sp, #4
    263e:	4641      	mov	r1, r8
    2640:	4630      	mov	r0, r6
/home/hsk/Desktop/devel/tee-tpm-hyp/optee_os/lib/libutee/tee_api_arith_mpi.c:383
    2642:	f10d 0a28 	add.w	sl, sp, #40	; 0x28
/home/hsk/Desktop/devel/tee-tpm-hyp/optee_os/lib/libutee/tee_api_arith_mpi.c:382
    2646:	f7ff fc19 	bl	1e7c <get_mpi>
/home/hsk/Desktop/devel/tee-tpm-hyp/optee_os/lib/libutee/tee_api_arith_mpi.c:383
    264a:	4629      	mov	r1, r5
    264c:	4650      	mov	r0, sl
    264e:	f10d 0910 	add.w	r9, sp, #16
    2652:	f7ff fe73 	bl	233c <get_const_mpi>
/home/hsk/Desktop/devel/tee-tpm-hyp/optee_os/lib/libutee/tee_api_arith_mpi.c:385
    2656:	45b8      	cmp	r8, r7
    2658:	d021      	beq.n	269e <bigint_binary_mod+0x8e>
/home/hsk/Desktop/devel/tee-tpm-hyp/optee_os/lib/libutee/tee_api_arith_mpi.c:378
    265a:	464d      	mov	r5, r9
/home/hsk/Desktop/devel/tee-tpm-hyp/optee_os/lib/libutee/tee_api_arith_mpi.c:388
    265c:	4639      	mov	r1, r7
    265e:	4648      	mov	r0, r9
    2660:	f7ff fe6c 	bl	233c <get_const_mpi>
/home/hsk/Desktop/devel/tee-tpm-hyp/optee_os/lib/libutee/tee_api_arith_mpi.c:390
    2664:	45a0      	cmp	r8, r4
    2666:	f10d 081c 	add.w	r8, sp, #28
    266a:	d01a      	beq.n	26a2 <bigint_binary_mod+0x92>
/home/hsk/Desktop/devel/tee-tpm-hyp/optee_os/lib/libutee/tee_api_arith_mpi.c:392
    266c:	42a7      	cmp	r7, r4
    266e:	d01a      	beq.n	26a6 <bigint_binary_mod+0x96>
/home/hsk/Desktop/devel/tee-tpm-hyp/optee_os/lib/libutee/tee_api_arith_mpi.c:395
    2670:	4621      	mov	r1, r4
/home/hsk/Desktop/devel/tee-tpm-hyp/optee_os/lib/libutee/tee_api_arith_mpi.c:379
    2672:	4644      	mov	r4, r8
/home/hsk/Desktop/devel/tee-tpm-hyp/optee_os/lib/libutee/tee_api_arith_mpi.c:395
    2674:	4640      	mov	r0, r8
    2676:	f7ff fe61 	bl	233c <get_const_mpi>
get_mpi():
/home/hsk/Desktop/devel/tee-tpm-hyp/optee_os/lib/libutee/tee_api_arith_mpi.c:99
    267a:	af0d      	add	r7, sp, #52	; 0x34
    267c:	4638      	mov	r0, r7
    267e:	f000 fec7 	bl	3410 <mbedtls_mpi_init_mempool>
bigint_binary_mod():
/home/hsk/Desktop/devel/tee-tpm-hyp/optee_os/lib/libutee/tee_api_arith_mpi.c:399
    2682:	4622      	mov	r2, r4
    2684:	4629      	mov	r1, r5
    2686:	4638      	mov	r0, r7
    2688:	9b18      	ldr	r3, [sp, #96]	; 0x60
    268a:	4798      	blx	r3
    268c:	4602      	mov	r2, r0
    268e:	b160      	cbz	r0, 26aa <bigint_binary_mod+0x9a>
/home/hsk/Desktop/devel/tee-tpm-hyp/optee_os/lib/libutee/tee_api_arith_mpi.c:399 (discriminator 1)
    2690:	4817      	ldr	r0, [pc, #92]	; (26f0 <bigint_binary_mod+0xe0>)
    2692:	f240 118f 	movw	r1, #399	; 0x18f
    2696:	4478      	add	r0, pc
/home/hsk/Desktop/devel/tee-tpm-hyp/optee_os/lib/libutee/tee_api_arith_mpi.c:400 (discriminator 1)
    2698:	307e      	adds	r0, #126	; 0x7e
    269a:	f7ff fbdf 	bl	1e5c <mpi_panic>
/home/hsk/Desktop/devel/tee-tpm-hyp/optee_os/lib/libutee/tee_api_arith_mpi.c:386
    269e:	4635      	mov	r5, r6
    26a0:	e7e0      	b.n	2664 <bigint_binary_mod+0x54>
/home/hsk/Desktop/devel/tee-tpm-hyp/optee_os/lib/libutee/tee_api_arith_mpi.c:391
    26a2:	4634      	mov	r4, r6
    26a4:	e7e9      	b.n	267a <bigint_binary_mod+0x6a>
/home/hsk/Desktop/devel/tee-tpm-hyp/optee_os/lib/libutee/tee_api_arith_mpi.c:393
    26a6:	462c      	mov	r4, r5
    26a8:	e7e7      	b.n	267a <bigint_binary_mod+0x6a>
/home/hsk/Desktop/devel/tee-tpm-hyp/optee_os/lib/libutee/tee_api_arith_mpi.c:400
    26aa:	4652      	mov	r2, sl
    26ac:	4639      	mov	r1, r7
    26ae:	4630      	mov	r0, r6
    26b0:	f001 fe6f 	bl	4392 <mbedtls_mpi_mod_mpi>
    26b4:	4602      	mov	r2, r0
    26b6:	b120      	cbz	r0, 26c2 <bigint_binary_mod+0xb2>
/home/hsk/Desktop/devel/tee-tpm-hyp/optee_os/lib/libutee/tee_api_arith_mpi.c:400 (discriminator 1)
    26b8:	480e      	ldr	r0, [pc, #56]	; (26f4 <bigint_binary_mod+0xe4>)
    26ba:	f44f 71c8 	mov.w	r1, #400	; 0x190
    26be:	4478      	add	r0, pc
    26c0:	e7ea      	b.n	2698 <bigint_binary_mod+0x88>
/home/hsk/Desktop/devel/tee-tpm-hyp/optee_os/lib/libutee/tee_api_arith_mpi.c:402
    26c2:	4630      	mov	r0, r6
    26c4:	f7ff fbff 	bl	1ec6 <put_mpi>
/home/hsk/Desktop/devel/tee-tpm-hyp/optee_os/lib/libutee/tee_api_arith_mpi.c:403
    26c8:	454d      	cmp	r5, r9
    26ca:	d102      	bne.n	26d2 <bigint_binary_mod+0xc2>
/home/hsk/Desktop/devel/tee-tpm-hyp/optee_os/lib/libutee/tee_api_arith_mpi.c:404
    26cc:	4628      	mov	r0, r5
    26ce:	f7ff fbfa 	bl	1ec6 <put_mpi>
/home/hsk/Desktop/devel/tee-tpm-hyp/optee_os/lib/libutee/tee_api_arith_mpi.c:405
    26d2:	4544      	cmp	r4, r8
    26d4:	d102      	bne.n	26dc <bigint_binary_mod+0xcc>
/home/hsk/Desktop/devel/tee-tpm-hyp/optee_os/lib/libutee/tee_api_arith_mpi.c:406
    26d6:	4620      	mov	r0, r4
    26d8:	f7ff fbf5 	bl	1ec6 <put_mpi>
/home/hsk/Desktop/devel/tee-tpm-hyp/optee_os/lib/libutee/tee_api_arith_mpi.c:407
    26dc:	4638      	mov	r0, r7
    26de:	f7ff fbf2 	bl	1ec6 <put_mpi>
/home/hsk/Desktop/devel/tee-tpm-hyp/optee_os/lib/libutee/tee_api_arith_mpi.c:408
    26e2:	b010      	add	sp, #64	; 0x40
    26e4:	e8bd 87f0 	ldmia.w	sp!, {r4, r5, r6, r7, r8, r9, sl, pc}
    26e8:	000045ef 	.word	0x000045ef
    26ec:	000047a7 	.word	0x000047a7
    26f0:	0000458b 	.word	0x0000458b
    26f4:	00004563 	.word	0x00004563

000026f8 <TEE_BigIntShiftRight>:
TEE_BigIntShiftRight():
/home/hsk/Desktop/devel/tee-tpm-hyp/optee_os/lib/libutee/tee_api_arith_mpi.c:265
    26f8:	b5f0      	push	{r4, r5, r6, r7, lr}
    26fa:	4605      	mov	r5, r0
    26fc:	460e      	mov	r6, r1
    26fe:	b08b      	sub	sp, #44	; 0x2c
/home/hsk/Desktop/devel/tee-tpm-hyp/optee_os/lib/libutee/tee_api_arith_mpi.c:269
    2700:	4601      	mov	r1, r0
    2702:	ac01      	add	r4, sp, #4
/home/hsk/Desktop/devel/tee-tpm-hyp/optee_os/lib/libutee/tee_api_arith_mpi.c:265
    2704:	4617      	mov	r7, r2
/home/hsk/Desktop/devel/tee-tpm-hyp/optee_os/lib/libutee/tee_api_arith_mpi.c:269
    2706:	4620      	mov	r0, r4
    2708:	f7ff fbb8 	bl	1e7c <get_mpi>
/home/hsk/Desktop/devel/tee-tpm-hyp/optee_os/lib/libutee/tee_api_arith_mpi.c:271
    270c:	42b5      	cmp	r5, r6
    270e:	d10d      	bne.n	272c <TEE_BigIntShiftRight+0x34>
/home/hsk/Desktop/devel/tee-tpm-hyp/optee_os/lib/libutee/tee_api_arith_mpi.c:272
    2710:	4639      	mov	r1, r7
    2712:	4620      	mov	r0, r4
    2714:	f001 f966 	bl	39e4 <mbedtls_mpi_shift_r>
    2718:	4602      	mov	r2, r0
    271a:	2800      	cmp	r0, #0
    271c:	d055      	beq.n	27ca <TEE_BigIntShiftRight+0xd2>
/home/hsk/Desktop/devel/tee-tpm-hyp/optee_os/lib/libutee/tee_api_arith_mpi.c:272 (discriminator 1)
    271e:	482d      	ldr	r0, [pc, #180]	; (27d4 <TEE_BigIntShiftRight+0xdc>)
    2720:	f44f 7188 	mov.w	r1, #272	; 0x110
    2724:	4478      	add	r0, pc
/home/hsk/Desktop/devel/tee-tpm-hyp/optee_os/lib/libutee/tee_api_arith_mpi.c:279 (discriminator 1)
    2726:	3090      	adds	r0, #144	; 0x90
    2728:	f7ff fb98 	bl	1e5c <mpi_panic>
/home/hsk/Desktop/devel/tee-tpm-hyp/optee_os/lib/libutee/tee_api_arith_mpi.c:276
    272c:	ad04      	add	r5, sp, #16
    272e:	4631      	mov	r1, r6
    2730:	4628      	mov	r0, r5
    2732:	f7ff fe03 	bl	233c <get_const_mpi>
/home/hsk/Desktop/devel/tee-tpm-hyp/optee_os/lib/libutee/tee_api_arith_mpi.c:278
    2736:	4620      	mov	r0, r4
    2738:	f001 f8b0 	bl	389c <mbedtls_mpi_size>
    273c:	4606      	mov	r6, r0
    273e:	4628      	mov	r0, r5
    2740:	f001 f8ac 	bl	389c <mbedtls_mpi_size>
    2744:	4286      	cmp	r6, r0
    2746:	d315      	bcc.n	2774 <TEE_BigIntShiftRight+0x7c>
/home/hsk/Desktop/devel/tee-tpm-hyp/optee_os/lib/libutee/tee_api_arith_mpi.c:279
    2748:	4629      	mov	r1, r5
    274a:	4620      	mov	r0, r4
    274c:	f000 ff5c 	bl	3608 <mbedtls_mpi_copy>
    2750:	4602      	mov	r2, r0
    2752:	b120      	cbz	r0, 275e <TEE_BigIntShiftRight+0x66>
/home/hsk/Desktop/devel/tee-tpm-hyp/optee_os/lib/libutee/tee_api_arith_mpi.c:279 (discriminator 1)
    2754:	4820      	ldr	r0, [pc, #128]	; (27d8 <TEE_BigIntShiftRight+0xe0>)
    2756:	f240 1117 	movw	r1, #279	; 0x117
    275a:	4478      	add	r0, pc
    275c:	e7e3      	b.n	2726 <TEE_BigIntShiftRight+0x2e>
/home/hsk/Desktop/devel/tee-tpm-hyp/optee_os/lib/libutee/tee_api_arith_mpi.c:280
    275e:	4639      	mov	r1, r7
    2760:	4620      	mov	r0, r4
    2762:	f001 f93f 	bl	39e4 <mbedtls_mpi_shift_r>
    2766:	4602      	mov	r2, r0
    2768:	b360      	cbz	r0, 27c4 <TEE_BigIntShiftRight+0xcc>
/home/hsk/Desktop/devel/tee-tpm-hyp/optee_os/lib/libutee/tee_api_arith_mpi.c:280 (discriminator 1)
    276a:	481c      	ldr	r0, [pc, #112]	; (27dc <TEE_BigIntShiftRight+0xe4>)
    276c:	f44f 718c 	mov.w	r1, #280	; 0x118
    2770:	4478      	add	r0, pc
    2772:	e7d8      	b.n	2726 <TEE_BigIntShiftRight+0x2e>
get_mpi():
/home/hsk/Desktop/devel/tee-tpm-hyp/optee_os/lib/libutee/tee_api_arith_mpi.c:99
    2774:	ae07      	add	r6, sp, #28
    2776:	4630      	mov	r0, r6
    2778:	f000 fe4a 	bl	3410 <mbedtls_mpi_init_mempool>
TEE_BigIntShiftRight():
/home/hsk/Desktop/devel/tee-tpm-hyp/optee_os/lib/libutee/tee_api_arith_mpi.c:291
    277c:	4629      	mov	r1, r5
    277e:	4630      	mov	r0, r6
    2780:	f000 ff42 	bl	3608 <mbedtls_mpi_copy>
    2784:	4602      	mov	r2, r0
    2786:	b120      	cbz	r0, 2792 <TEE_BigIntShiftRight+0x9a>
/home/hsk/Desktop/devel/tee-tpm-hyp/optee_os/lib/libutee/tee_api_arith_mpi.c:291 (discriminator 1)
    2788:	4815      	ldr	r0, [pc, #84]	; (27e0 <TEE_BigIntShiftRight+0xe8>)
    278a:	f240 1123 	movw	r1, #291	; 0x123
    278e:	4478      	add	r0, pc
    2790:	e7c9      	b.n	2726 <TEE_BigIntShiftRight+0x2e>
/home/hsk/Desktop/devel/tee-tpm-hyp/optee_os/lib/libutee/tee_api_arith_mpi.c:292
    2792:	4639      	mov	r1, r7
    2794:	4630      	mov	r0, r6
    2796:	f001 f925 	bl	39e4 <mbedtls_mpi_shift_r>
    279a:	4602      	mov	r2, r0
    279c:	b120      	cbz	r0, 27a8 <TEE_BigIntShiftRight+0xb0>
/home/hsk/Desktop/devel/tee-tpm-hyp/optee_os/lib/libutee/tee_api_arith_mpi.c:292 (discriminator 1)
    279e:	4811      	ldr	r0, [pc, #68]	; (27e4 <TEE_BigIntShiftRight+0xec>)
    27a0:	f44f 7192 	mov.w	r1, #292	; 0x124
    27a4:	4478      	add	r0, pc
    27a6:	e7be      	b.n	2726 <TEE_BigIntShiftRight+0x2e>
/home/hsk/Desktop/devel/tee-tpm-hyp/optee_os/lib/libutee/tee_api_arith_mpi.c:293
    27a8:	4631      	mov	r1, r6
    27aa:	4620      	mov	r0, r4
    27ac:	f000 ff2c 	bl	3608 <mbedtls_mpi_copy>
    27b0:	4602      	mov	r2, r0
    27b2:	b120      	cbz	r0, 27be <TEE_BigIntShiftRight+0xc6>
/home/hsk/Desktop/devel/tee-tpm-hyp/optee_os/lib/libutee/tee_api_arith_mpi.c:293 (discriminator 1)
    27b4:	480c      	ldr	r0, [pc, #48]	; (27e8 <TEE_BigIntShiftRight+0xf0>)
    27b6:	f240 1125 	movw	r1, #293	; 0x125
    27ba:	4478      	add	r0, pc
    27bc:	e7b3      	b.n	2726 <TEE_BigIntShiftRight+0x2e>
/home/hsk/Desktop/devel/tee-tpm-hyp/optee_os/lib/libutee/tee_api_arith_mpi.c:295
    27be:	4630      	mov	r0, r6
    27c0:	f7ff fb81 	bl	1ec6 <put_mpi>
/home/hsk/Desktop/devel/tee-tpm-hyp/optee_os/lib/libutee/tee_api_arith_mpi.c:298
    27c4:	4628      	mov	r0, r5
    27c6:	f7ff fb7e 	bl	1ec6 <put_mpi>
/home/hsk/Desktop/devel/tee-tpm-hyp/optee_os/lib/libutee/tee_api_arith_mpi.c:301
    27ca:	4620      	mov	r0, r4
    27cc:	f7ff fb7b 	bl	1ec6 <put_mpi>
/home/hsk/Desktop/devel/tee-tpm-hyp/optee_os/lib/libutee/tee_api_arith_mpi.c:302
    27d0:	b00b      	add	sp, #44	; 0x2c
    27d2:	bdf0      	pop	{r4, r5, r6, r7, pc}
    27d4:	000044fd 	.word	0x000044fd
    27d8:	000044c7 	.word	0x000044c7
    27dc:	000044b1 	.word	0x000044b1
    27e0:	00004493 	.word	0x00004493
    27e4:	0000447d 	.word	0x0000447d
    27e8:	00004467 	.word	0x00004467

000027ec <TEE_BigIntGetBit>:
TEE_BigIntGetBit():
/home/hsk/Desktop/devel/tee-tpm-hyp/optee_os/lib/libutee/tee_api_arith_mpi.c:305
    27ec:	b530      	push	{r4, r5, lr}
    27ee:	460d      	mov	r5, r1
/home/hsk/Desktop/devel/tee-tpm-hyp/optee_os/lib/libutee/tee_api_arith_mpi.c:309
    27f0:	4601      	mov	r1, r0
/home/hsk/Desktop/devel/tee-tpm-hyp/optee_os/lib/libutee/tee_api_arith_mpi.c:305
    27f2:	b085      	sub	sp, #20
/home/hsk/Desktop/devel/tee-tpm-hyp/optee_os/lib/libutee/tee_api_arith_mpi.c:309
    27f4:	ac01      	add	r4, sp, #4
    27f6:	4620      	mov	r0, r4
    27f8:	f7ff fda0 	bl	233c <get_const_mpi>
/home/hsk/Desktop/devel/tee-tpm-hyp/optee_os/lib/libutee/tee_api_arith_mpi.c:311
    27fc:	4629      	mov	r1, r5
    27fe:	4620      	mov	r0, r4
    2800:	f000 ffd9 	bl	37b6 <mbedtls_mpi_get_bit>
    2804:	4605      	mov	r5, r0
/home/hsk/Desktop/devel/tee-tpm-hyp/optee_os/lib/libutee/tee_api_arith_mpi.c:313
    2806:	4620      	mov	r0, r4
    2808:	f7ff fb5d 	bl	1ec6 <put_mpi>
/home/hsk/Desktop/devel/tee-tpm-hyp/optee_os/lib/libutee/tee_api_arith_mpi.c:316
    280c:	1c28      	adds	r0, r5, #0
    280e:	bf18      	it	ne
    2810:	2001      	movne	r0, #1
    2812:	b005      	add	sp, #20
    2814:	bd30      	pop	{r4, r5, pc}

00002816 <TEE_BigIntGetBitCount>:
TEE_BigIntGetBitCount():
/home/hsk/Desktop/devel/tee-tpm-hyp/optee_os/lib/libutee/tee_api_arith_mpi.c:319
    2816:	b530      	push	{r4, r5, lr}
/home/hsk/Desktop/devel/tee-tpm-hyp/optee_os/lib/libutee/tee_api_arith_mpi.c:323
    2818:	4601      	mov	r1, r0
/home/hsk/Desktop/devel/tee-tpm-hyp/optee_os/lib/libutee/tee_api_arith_mpi.c:319
    281a:	b085      	sub	sp, #20
/home/hsk/Desktop/devel/tee-tpm-hyp/optee_os/lib/libutee/tee_api_arith_mpi.c:323
    281c:	ac01      	add	r4, sp, #4
    281e:	4620      	mov	r0, r4
    2820:	f7ff fd8c 	bl	233c <get_const_mpi>
/home/hsk/Desktop/devel/tee-tpm-hyp/optee_os/lib/libutee/tee_api_arith_mpi.c:325
    2824:	4620      	mov	r0, r4
    2826:	f001 f818 	bl	385a <mbedtls_mpi_bitlen>
    282a:	4605      	mov	r5, r0
/home/hsk/Desktop/devel/tee-tpm-hyp/optee_os/lib/libutee/tee_api_arith_mpi.c:327
    282c:	4620      	mov	r0, r4
    282e:	f7ff fb4a 	bl	1ec6 <put_mpi>
/home/hsk/Desktop/devel/tee-tpm-hyp/optee_os/lib/libutee/tee_api_arith_mpi.c:330
    2832:	4628      	mov	r0, r5
    2834:	b005      	add	sp, #20
    2836:	bd30      	pop	{r4, r5, pc}

00002838 <TEE_BigIntAdd>:
TEE_BigIntAdd():
/home/hsk/Desktop/devel/tee-tpm-hyp/optee_os/lib/libutee/tee_api_arith_mpi.c:412
    2838:	4b04      	ldr	r3, [pc, #16]	; (284c <TEE_BigIntAdd+0x14>)
    283a:	b417      	push	{r0, r1, r2, r4}
/home/hsk/Desktop/devel/tee-tpm-hyp/optee_os/lib/libutee/tee_api_arith_mpi.c:413
    283c:	4c04      	ldr	r4, [pc, #16]	; (2850 <TEE_BigIntAdd+0x18>)
/home/hsk/Desktop/devel/tee-tpm-hyp/optee_os/lib/libutee/tee_api_arith_mpi.c:412
    283e:	447b      	add	r3, pc
/home/hsk/Desktop/devel/tee-tpm-hyp/optee_os/lib/libutee/tee_api_arith_mpi.c:413
    2840:	591b      	ldr	r3, [r3, r4]
    2842:	9301      	str	r3, [sp, #4]
/home/hsk/Desktop/devel/tee-tpm-hyp/optee_os/lib/libutee/tee_api_arith_mpi.c:414
    2844:	b003      	add	sp, #12
    2846:	f85d 4b04 	ldr.w	r4, [sp], #4
/home/hsk/Desktop/devel/tee-tpm-hyp/optee_os/lib/libutee/tee_api_arith_mpi.c:413
    284a:	e599      	b.n	2380 <bigint_binary>
    284c:	0000560e 	.word	0x0000560e
    2850:	0000001c 	.word	0x0000001c

00002854 <TEE_BigIntSub>:
TEE_BigIntSub():
/home/hsk/Desktop/devel/tee-tpm-hyp/optee_os/lib/libutee/tee_api_arith_mpi.c:418
    2854:	4b04      	ldr	r3, [pc, #16]	; (2868 <TEE_BigIntSub+0x14>)
    2856:	b417      	push	{r0, r1, r2, r4}
/home/hsk/Desktop/devel/tee-tpm-hyp/optee_os/lib/libutee/tee_api_arith_mpi.c:419
    2858:	4c04      	ldr	r4, [pc, #16]	; (286c <TEE_BigIntSub+0x18>)
/home/hsk/Desktop/devel/tee-tpm-hyp/optee_os/lib/libutee/tee_api_arith_mpi.c:418
    285a:	447b      	add	r3, pc
/home/hsk/Desktop/devel/tee-tpm-hyp/optee_os/lib/libutee/tee_api_arith_mpi.c:419
    285c:	591b      	ldr	r3, [r3, r4]
    285e:	9301      	str	r3, [sp, #4]
/home/hsk/Desktop/devel/tee-tpm-hyp/optee_os/lib/libutee/tee_api_arith_mpi.c:420
    2860:	b003      	add	sp, #12
    2862:	f85d 4b04 	ldr.w	r4, [sp], #4
/home/hsk/Desktop/devel/tee-tpm-hyp/optee_os/lib/libutee/tee_api_arith_mpi.c:419
    2866:	e58b      	b.n	2380 <bigint_binary>
    2868:	000055f2 	.word	0x000055f2
    286c:	00000024 	.word	0x00000024

00002870 <TEE_BigIntNeg>:
TEE_BigIntNeg():
/home/hsk/Desktop/devel/tee-tpm-hyp/optee_os/lib/libutee/tee_api_arith_mpi.c:423
    2870:	b570      	push	{r4, r5, r6, lr}
    2872:	4605      	mov	r5, r0
    2874:	460e      	mov	r6, r1
    2876:	b086      	sub	sp, #24
/home/hsk/Desktop/devel/tee-tpm-hyp/optee_os/lib/libutee/tee_api_arith_mpi.c:426
    2878:	4601      	mov	r1, r0
    287a:	466c      	mov	r4, sp
    287c:	4620      	mov	r0, r4
    287e:	f7ff fafd 	bl	1e7c <get_mpi>
/home/hsk/Desktop/devel/tee-tpm-hyp/optee_os/lib/libutee/tee_api_arith_mpi.c:428
    2882:	42b5      	cmp	r5, r6
    2884:	d014      	beq.n	28b0 <TEE_BigIntNeg+0x40>
/home/hsk/Desktop/devel/tee-tpm-hyp/optee_os/lib/libutee/tee_api_arith_mpi.c:431
    2886:	ad03      	add	r5, sp, #12
    2888:	4631      	mov	r1, r6
    288a:	4628      	mov	r0, r5
    288c:	f7ff fd56 	bl	233c <get_const_mpi>
/home/hsk/Desktop/devel/tee-tpm-hyp/optee_os/lib/libutee/tee_api_arith_mpi.c:433
    2890:	4629      	mov	r1, r5
    2892:	4620      	mov	r0, r4
    2894:	f000 feb8 	bl	3608 <mbedtls_mpi_copy>
    2898:	4602      	mov	r2, r0
    289a:	b130      	cbz	r0, 28aa <TEE_BigIntNeg+0x3a>
/home/hsk/Desktop/devel/tee-tpm-hyp/optee_os/lib/libutee/tee_api_arith_mpi.c:433 (discriminator 1)
    289c:	4809      	ldr	r0, [pc, #36]	; (28c4 <TEE_BigIntNeg+0x54>)
    289e:	f240 11b1 	movw	r1, #433	; 0x1b1
    28a2:	4478      	add	r0, pc
    28a4:	30a5      	adds	r0, #165	; 0xa5
    28a6:	f7ff fad9 	bl	1e5c <mpi_panic>
/home/hsk/Desktop/devel/tee-tpm-hyp/optee_os/lib/libutee/tee_api_arith_mpi.c:435
    28aa:	4628      	mov	r0, r5
    28ac:	f7ff fb0b 	bl	1ec6 <put_mpi>
/home/hsk/Desktop/devel/tee-tpm-hyp/optee_os/lib/libutee/tee_api_arith_mpi.c:438
    28b0:	f89d 3000 	ldrb.w	r3, [sp]
/home/hsk/Desktop/devel/tee-tpm-hyp/optee_os/lib/libutee/tee_api_arith_mpi.c:440
    28b4:	4620      	mov	r0, r4
/home/hsk/Desktop/devel/tee-tpm-hyp/optee_os/lib/libutee/tee_api_arith_mpi.c:438
    28b6:	425b      	negs	r3, r3
    28b8:	f88d 3000 	strb.w	r3, [sp]
/home/hsk/Desktop/devel/tee-tpm-hyp/optee_os/lib/libutee/tee_api_arith_mpi.c:440
    28bc:	f7ff fb03 	bl	1ec6 <put_mpi>
/home/hsk/Desktop/devel/tee-tpm-hyp/optee_os/lib/libutee/tee_api_arith_mpi.c:441
    28c0:	b006      	add	sp, #24
    28c2:	bd70      	pop	{r4, r5, r6, pc}
    28c4:	0000437f 	.word	0x0000437f

000028c8 <TEE_BigIntMul>:
TEE_BigIntMul():
/home/hsk/Desktop/devel/tee-tpm-hyp/optee_os/lib/libutee/tee_api_arith_mpi.c:445
    28c8:	e92d 4ff0 	stmdb	sp!, {r4, r5, r6, r7, r8, r9, sl, fp, lr}
    28cc:	4690      	mov	r8, r2
    28ce:	4681      	mov	r9, r0
    28d0:	b087      	sub	sp, #28
/home/hsk/Desktop/devel/tee-tpm-hyp/optee_os/lib/libutee/tee_api_arith_mpi.c:446
    28d2:	4608      	mov	r0, r1
/home/hsk/Desktop/devel/tee-tpm-hyp/optee_os/lib/libutee/tee_api_arith_mpi.c:445
    28d4:	460f      	mov	r7, r1
/home/hsk/Desktop/devel/tee-tpm-hyp/optee_os/lib/libutee/tee_api_arith_mpi.c:446
    28d6:	f7ff ff9e 	bl	2816 <TEE_BigIntGetBitCount>
    28da:	4604      	mov	r4, r0
/home/hsk/Desktop/devel/tee-tpm-hyp/optee_os/lib/libutee/tee_api_arith_mpi.c:447
    28dc:	4640      	mov	r0, r8
    28de:	f7ff ff9a 	bl	2816 <TEE_BigIntGetBitCount>
/home/hsk/Desktop/devel/tee-tpm-hyp/optee_os/lib/libutee/tee_api_arith_mpi.c:449
    28e2:	f10d 0a0c 	add.w	sl, sp, #12
/home/hsk/Desktop/devel/tee-tpm-hyp/optee_os/lib/libutee/tee_api_arith_mpi.c:448
    28e6:	f104 031f 	add.w	r3, r4, #31
    28ea:	f100 041f 	add.w	r4, r0, #31
/home/hsk/Desktop/devel/tee-tpm-hyp/optee_os/lib/libutee/tee_api_arith_mpi.c:445
    28ee:	4e1c      	ldr	r6, [pc, #112]	; (2960 <TEE_BigIntMul+0x98>)
/home/hsk/Desktop/devel/tee-tpm-hyp/optee_os/lib/libutee/tee_api_arith_mpi.c:448
    28f0:	0964      	lsrs	r4, r4, #5
    28f2:	eb04 1453 	add.w	r4, r4, r3, lsr #5
/home/hsk/Desktop/devel/tee-tpm-hyp/optee_os/lib/libutee/tee_api_arith_mpi.c:449
    28f6:	2300      	movs	r3, #0
    28f8:	9303      	str	r3, [sp, #12]
/home/hsk/Desktop/devel/tee-tpm-hyp/optee_os/lib/libutee/tee_api_arith_mpi.c:445
    28fa:	447e      	add	r6, pc
/home/hsk/Desktop/devel/tee-tpm-hyp/optee_os/lib/libutee/tee_api_arith_mpi.c:449
    28fc:	f8ca 3004 	str.w	r3, [sl, #4]
/home/hsk/Desktop/devel/tee-tpm-hyp/optee_os/lib/libutee/tee_api_arith_mpi.c:448
    2900:	3404      	adds	r4, #4
/home/hsk/Desktop/devel/tee-tpm-hyp/optee_os/lib/libutee/tee_api_arith_mpi.c:449
    2902:	f8ca 3008 	str.w	r3, [sl, #8]
/home/hsk/Desktop/devel/tee-tpm-hyp/optee_os/lib/libutee/tee_api_arith_mpi.c:452
    2906:	4b17      	ldr	r3, [pc, #92]	; (2964 <TEE_BigIntMul+0x9c>)
    2908:	00a1      	lsls	r1, r4, #2
    290a:	f856 b003 	ldr.w	fp, [r6, r3]
    290e:	f8db 0000 	ldr.w	r0, [fp]
    2912:	f003 fcc7 	bl	62a4 <mempool_alloc>
/home/hsk/Desktop/devel/tee-tpm-hyp/optee_os/lib/libutee/tee_api_arith_mpi.c:453
    2916:	4605      	mov	r5, r0
    2918:	b910      	cbnz	r0, 2920 <TEE_BigIntMul+0x58>
/home/hsk/Desktop/devel/tee-tpm-hyp/optee_os/lib/libutee/tee_api_arith_mpi.c:454
    291a:	4810      	ldr	r0, [pc, #64]	; (295c <TEE_BigIntMul+0x94>)
    291c:	f003 fe08 	bl	6530 <TEE_Panic>
/home/hsk/Desktop/devel/tee-tpm-hyp/optee_os/lib/libutee/tee_api_arith_mpi.c:456
    2920:	4621      	mov	r1, r4
    2922:	4628      	mov	r0, r5
    2924:	f7ff fd92 	bl	244c <TEE_BigIntInit>
/home/hsk/Desktop/devel/tee-tpm-hyp/optee_os/lib/libutee/tee_api_arith_mpi.c:457
    2928:	4650      	mov	r0, sl
    292a:	2103      	movs	r1, #3
    292c:	f7ff fd8e 	bl	244c <TEE_BigIntInit>
/home/hsk/Desktop/devel/tee-tpm-hyp/optee_os/lib/libutee/tee_api_arith_mpi.c:459
    2930:	4b0d      	ldr	r3, [pc, #52]	; (2968 <TEE_BigIntMul+0xa0>)
    2932:	4642      	mov	r2, r8
    2934:	4639      	mov	r1, r7
    2936:	4628      	mov	r0, r5
    2938:	58f3      	ldr	r3, [r6, r3]
    293a:	9301      	str	r3, [sp, #4]
    293c:	f7ff fd20 	bl	2380 <bigint_binary>
/home/hsk/Desktop/devel/tee-tpm-hyp/optee_os/lib/libutee/tee_api_arith_mpi.c:461
    2940:	4652      	mov	r2, sl
    2942:	4629      	mov	r1, r5
    2944:	4648      	mov	r0, r9
    2946:	f7ff ff77 	bl	2838 <TEE_BigIntAdd>
/home/hsk/Desktop/devel/tee-tpm-hyp/optee_os/lib/libutee/tee_api_arith_mpi.c:463
    294a:	4629      	mov	r1, r5
    294c:	f8db 0000 	ldr.w	r0, [fp]
    2950:	f003 fcf0 	bl	6334 <mempool_free>
/home/hsk/Desktop/devel/tee-tpm-hyp/optee_os/lib/libutee/tee_api_arith_mpi.c:464
    2954:	b007      	add	sp, #28
    2956:	e8bd 8ff0 	ldmia.w	sp!, {r4, r5, r6, r7, r8, r9, sl, fp, pc}
    295a:	bf00      	nop
    295c:	ffff000c 	.word	0xffff000c
    2960:	00005552 	.word	0x00005552
    2964:	00000030 	.word	0x00000030
    2968:	00000018 	.word	0x00000018

0000296c <TEE_BigIntSquare>:
TEE_BigIntSquare():
/home/hsk/Desktop/devel/tee-tpm-hyp/optee_os/lib/libutee/tee_api_arith_mpi.c:468
    296c:	460a      	mov	r2, r1
    296e:	f7ff bfab 	b.w	28c8 <TEE_BigIntMul>

00002972 <TEE_BigIntDiv>:
TEE_BigIntDiv():
/home/hsk/Desktop/devel/tee-tpm-hyp/optee_os/lib/libutee/tee_api_arith_mpi.c:473
    2972:	e92d 4ff0 	stmdb	sp!, {r4, r5, r6, r7, r8, r9, sl, fp, lr}
    2976:	4681      	mov	r9, r0
    2978:	468b      	mov	fp, r1
    297a:	b08d      	sub	sp, #52	; 0x34
/home/hsk/Desktop/devel/tee-tpm-hyp/optee_os/lib/libutee/tee_api_arith_mpi.c:481
    297c:	4601      	mov	r1, r0
    297e:	466f      	mov	r7, sp
/home/hsk/Desktop/devel/tee-tpm-hyp/optee_os/lib/libutee/tee_api_arith_mpi.c:482
    2980:	ae03      	add	r6, sp, #12
/home/hsk/Desktop/devel/tee-tpm-hyp/optee_os/lib/libutee/tee_api_arith_mpi.c:481
    2982:	4638      	mov	r0, r7
/home/hsk/Desktop/devel/tee-tpm-hyp/optee_os/lib/libutee/tee_api_arith_mpi.c:473
    2984:	4690      	mov	r8, r2
    2986:	461c      	mov	r4, r3
/home/hsk/Desktop/devel/tee-tpm-hyp/optee_os/lib/libutee/tee_api_arith_mpi.c:481
    2988:	f7ff fa78 	bl	1e7c <get_mpi>
/home/hsk/Desktop/devel/tee-tpm-hyp/optee_os/lib/libutee/tee_api_arith_mpi.c:482
    298c:	4659      	mov	r1, fp
    298e:	4630      	mov	r0, r6
    2990:	f7ff fa74 	bl	1e7c <get_mpi>
    2994:	f10d 0a18 	add.w	sl, sp, #24
/home/hsk/Desktop/devel/tee-tpm-hyp/optee_os/lib/libutee/tee_api_arith_mpi.c:484
    2998:	45c1      	cmp	r9, r8
    299a:	d022      	beq.n	29e2 <TEE_BigIntDiv+0x70>
/home/hsk/Desktop/devel/tee-tpm-hyp/optee_os/lib/libutee/tee_api_arith_mpi.c:486
    299c:	45c3      	cmp	fp, r8
    299e:	d022      	beq.n	29e6 <TEE_BigIntDiv+0x74>
/home/hsk/Desktop/devel/tee-tpm-hyp/optee_os/lib/libutee/tee_api_arith_mpi.c:478
    29a0:	4655      	mov	r5, sl
/home/hsk/Desktop/devel/tee-tpm-hyp/optee_os/lib/libutee/tee_api_arith_mpi.c:489
    29a2:	4641      	mov	r1, r8
    29a4:	4650      	mov	r0, sl
    29a6:	f7ff fcc9 	bl	233c <get_const_mpi>
/home/hsk/Desktop/devel/tee-tpm-hyp/optee_os/lib/libutee/tee_api_arith_mpi.c:491
    29aa:	45a1      	cmp	r9, r4
    29ac:	f10d 0924 	add.w	r9, sp, #36	; 0x24
    29b0:	d01b      	beq.n	29ea <TEE_BigIntDiv+0x78>
/home/hsk/Desktop/devel/tee-tpm-hyp/optee_os/lib/libutee/tee_api_arith_mpi.c:493
    29b2:	45a3      	cmp	fp, r4
    29b4:	d01b      	beq.n	29ee <TEE_BigIntDiv+0x7c>
/home/hsk/Desktop/devel/tee-tpm-hyp/optee_os/lib/libutee/tee_api_arith_mpi.c:495
    29b6:	45a0      	cmp	r8, r4
    29b8:	d01b      	beq.n	29f2 <TEE_BigIntDiv+0x80>
/home/hsk/Desktop/devel/tee-tpm-hyp/optee_os/lib/libutee/tee_api_arith_mpi.c:498
    29ba:	4621      	mov	r1, r4
/home/hsk/Desktop/devel/tee-tpm-hyp/optee_os/lib/libutee/tee_api_arith_mpi.c:479
    29bc:	464c      	mov	r4, r9
/home/hsk/Desktop/devel/tee-tpm-hyp/optee_os/lib/libutee/tee_api_arith_mpi.c:498
    29be:	4648      	mov	r0, r9
    29c0:	f7ff fcbc 	bl	233c <get_const_mpi>
/home/hsk/Desktop/devel/tee-tpm-hyp/optee_os/lib/libutee/tee_api_arith_mpi.c:500
    29c4:	462a      	mov	r2, r5
    29c6:	4623      	mov	r3, r4
    29c8:	4631      	mov	r1, r6
    29ca:	4638      	mov	r0, r7
    29cc:	f001 faff 	bl	3fce <mbedtls_mpi_div_mpi>
    29d0:	4602      	mov	r2, r0
    29d2:	b180      	cbz	r0, 29f6 <TEE_BigIntDiv+0x84>
/home/hsk/Desktop/devel/tee-tpm-hyp/optee_os/lib/libutee/tee_api_arith_mpi.c:500 (discriminator 1)
    29d4:	4811      	ldr	r0, [pc, #68]	; (2a1c <TEE_BigIntDiv+0xaa>)
    29d6:	f44f 71fa 	mov.w	r1, #500	; 0x1f4
    29da:	4478      	add	r0, pc
    29dc:	30b3      	adds	r0, #179	; 0xb3
    29de:	f7ff fa3d 	bl	1e5c <mpi_panic>
/home/hsk/Desktop/devel/tee-tpm-hyp/optee_os/lib/libutee/tee_api_arith_mpi.c:485
    29e2:	463d      	mov	r5, r7
    29e4:	e7e1      	b.n	29aa <TEE_BigIntDiv+0x38>
/home/hsk/Desktop/devel/tee-tpm-hyp/optee_os/lib/libutee/tee_api_arith_mpi.c:487
    29e6:	4635      	mov	r5, r6
    29e8:	e7df      	b.n	29aa <TEE_BigIntDiv+0x38>
/home/hsk/Desktop/devel/tee-tpm-hyp/optee_os/lib/libutee/tee_api_arith_mpi.c:492
    29ea:	463c      	mov	r4, r7
    29ec:	e7ea      	b.n	29c4 <TEE_BigIntDiv+0x52>
/home/hsk/Desktop/devel/tee-tpm-hyp/optee_os/lib/libutee/tee_api_arith_mpi.c:494
    29ee:	4634      	mov	r4, r6
    29f0:	e7e8      	b.n	29c4 <TEE_BigIntDiv+0x52>
/home/hsk/Desktop/devel/tee-tpm-hyp/optee_os/lib/libutee/tee_api_arith_mpi.c:496
    29f2:	462c      	mov	r4, r5
    29f4:	e7e6      	b.n	29c4 <TEE_BigIntDiv+0x52>
/home/hsk/Desktop/devel/tee-tpm-hyp/optee_os/lib/libutee/tee_api_arith_mpi.c:502
    29f6:	4638      	mov	r0, r7
    29f8:	f7ff fa65 	bl	1ec6 <put_mpi>
/home/hsk/Desktop/devel/tee-tpm-hyp/optee_os/lib/libutee/tee_api_arith_mpi.c:503
    29fc:	4630      	mov	r0, r6
    29fe:	f7ff fa62 	bl	1ec6 <put_mpi>
/home/hsk/Desktop/devel/tee-tpm-hyp/optee_os/lib/libutee/tee_api_arith_mpi.c:504
    2a02:	4555      	cmp	r5, sl
    2a04:	d102      	bne.n	2a0c <TEE_BigIntDiv+0x9a>
/home/hsk/Desktop/devel/tee-tpm-hyp/optee_os/lib/libutee/tee_api_arith_mpi.c:505
    2a06:	4628      	mov	r0, r5
    2a08:	f7ff fa5d 	bl	1ec6 <put_mpi>
/home/hsk/Desktop/devel/tee-tpm-hyp/optee_os/lib/libutee/tee_api_arith_mpi.c:506
    2a0c:	454c      	cmp	r4, r9
    2a0e:	d102      	bne.n	2a16 <TEE_BigIntDiv+0xa4>
/home/hsk/Desktop/devel/tee-tpm-hyp/optee_os/lib/libutee/tee_api_arith_mpi.c:507
    2a10:	4620      	mov	r0, r4
    2a12:	f7ff fa58 	bl	1ec6 <put_mpi>
/home/hsk/Desktop/devel/tee-tpm-hyp/optee_os/lib/libutee/tee_api_arith_mpi.c:508
    2a16:	b00d      	add	sp, #52	; 0x34
    2a18:	e8bd 8ff0 	ldmia.w	sp!, {r4, r5, r6, r7, r8, r9, sl, fp, pc}
    2a1c:	00004247 	.word	0x00004247

00002a20 <TEE_BigIntMod>:
TEE_BigIntMod():
/home/hsk/Desktop/devel/tee-tpm-hyp/optee_os/lib/libutee/tee_api_arith_mpi.c:511
    2a20:	b5f7      	push	{r0, r1, r2, r4, r5, r6, r7, lr}
    2a22:	4606      	mov	r6, r0
    2a24:	4d0e      	ldr	r5, [pc, #56]	; (2a60 <TEE_BigIntMod+0x40>)
    2a26:	460f      	mov	r7, r1
/home/hsk/Desktop/devel/tee-tpm-hyp/optee_os/lib/libutee/tee_api_arith_mpi.c:512
    2a28:	4610      	mov	r0, r2
    2a2a:	2102      	movs	r1, #2
/home/hsk/Desktop/devel/tee-tpm-hyp/optee_os/lib/libutee/tee_api_arith_mpi.c:511
    2a2c:	4614      	mov	r4, r2
    2a2e:	447d      	add	r5, pc
/home/hsk/Desktop/devel/tee-tpm-hyp/optee_os/lib/libutee/tee_api_arith_mpi.c:512
    2a30:	f7ff fddb 	bl	25ea <TEE_BigIntCmpS32>
    2a34:	2800      	cmp	r0, #0
    2a36:	da08      	bge.n	2a4a <TEE_BigIntMod+0x2a>
/home/hsk/Desktop/devel/tee-tpm-hyp/optee_os/lib/libutee/tee_api_arith_mpi.c:513
    2a38:	480a      	ldr	r0, [pc, #40]	; (2a64 <TEE_BigIntMod+0x44>)
    2a3a:	f240 2101 	movw	r1, #513	; 0x201
    2a3e:	4a0a      	ldr	r2, [pc, #40]	; (2a68 <TEE_BigIntMod+0x48>)
    2a40:	4478      	add	r0, pc
    2a42:	447a      	add	r2, pc
    2a44:	30c1      	adds	r0, #193	; 0xc1
    2a46:	f000 fa11 	bl	2e6c <api_panic>
/home/hsk/Desktop/devel/tee-tpm-hyp/optee_os/lib/libutee/tee_api_arith_mpi.c:515
    2a4a:	4b08      	ldr	r3, [pc, #32]	; (2a6c <TEE_BigIntMod+0x4c>)
    2a4c:	4622      	mov	r2, r4
    2a4e:	4639      	mov	r1, r7
    2a50:	4630      	mov	r0, r6
    2a52:	58eb      	ldr	r3, [r5, r3]
    2a54:	9301      	str	r3, [sp, #4]
/home/hsk/Desktop/devel/tee-tpm-hyp/optee_os/lib/libutee/tee_api_arith_mpi.c:516
    2a56:	b003      	add	sp, #12
    2a58:	e8bd 40f0 	ldmia.w	sp!, {r4, r5, r6, r7, lr}
/home/hsk/Desktop/devel/tee-tpm-hyp/optee_os/lib/libutee/tee_api_arith_mpi.c:515
    2a5c:	e490      	b.n	2380 <bigint_binary>
    2a5e:	bf00      	nop
    2a60:	0000541e 	.word	0x0000541e
    2a64:	000041e1 	.word	0x000041e1
    2a68:	00004399 	.word	0x00004399
    2a6c:	00000028 	.word	0x00000028

00002a70 <TEE_BigIntAddMod>:
TEE_BigIntAddMod():
/home/hsk/Desktop/devel/tee-tpm-hyp/optee_os/lib/libutee/tee_api_arith_mpi.c:520
    2a70:	b537      	push	{r0, r1, r2, r4, r5, lr}
    2a72:	4c04      	ldr	r4, [pc, #16]	; (2a84 <TEE_BigIntAddMod+0x14>)
/home/hsk/Desktop/devel/tee-tpm-hyp/optee_os/lib/libutee/tee_api_arith_mpi.c:521
    2a74:	4d04      	ldr	r5, [pc, #16]	; (2a88 <TEE_BigIntAddMod+0x18>)
/home/hsk/Desktop/devel/tee-tpm-hyp/optee_os/lib/libutee/tee_api_arith_mpi.c:520
    2a76:	447c      	add	r4, pc
/home/hsk/Desktop/devel/tee-tpm-hyp/optee_os/lib/libutee/tee_api_arith_mpi.c:521
    2a78:	5964      	ldr	r4, [r4, r5]
    2a7a:	9400      	str	r4, [sp, #0]
    2a7c:	f7ff fdc8 	bl	2610 <bigint_binary_mod>
/home/hsk/Desktop/devel/tee-tpm-hyp/optee_os/lib/libutee/tee_api_arith_mpi.c:522
    2a80:	b003      	add	sp, #12
    2a82:	bd30      	pop	{r4, r5, pc}
    2a84:	000053d6 	.word	0x000053d6
    2a88:	0000001c 	.word	0x0000001c

00002a8c <TEE_BigIntSubMod>:
TEE_BigIntSubMod():
/home/hsk/Desktop/devel/tee-tpm-hyp/optee_os/lib/libutee/tee_api_arith_mpi.c:526
    2a8c:	b537      	push	{r0, r1, r2, r4, r5, lr}
    2a8e:	4c04      	ldr	r4, [pc, #16]	; (2aa0 <TEE_BigIntSubMod+0x14>)
/home/hsk/Desktop/devel/tee-tpm-hyp/optee_os/lib/libutee/tee_api_arith_mpi.c:527
    2a90:	4d04      	ldr	r5, [pc, #16]	; (2aa4 <TEE_BigIntSubMod+0x18>)
/home/hsk/Desktop/devel/tee-tpm-hyp/optee_os/lib/libutee/tee_api_arith_mpi.c:526
    2a92:	447c      	add	r4, pc
/home/hsk/Desktop/devel/tee-tpm-hyp/optee_os/lib/libutee/tee_api_arith_mpi.c:527
    2a94:	5964      	ldr	r4, [r4, r5]
    2a96:	9400      	str	r4, [sp, #0]
    2a98:	f7ff fdba 	bl	2610 <bigint_binary_mod>
/home/hsk/Desktop/devel/tee-tpm-hyp/optee_os/lib/libutee/tee_api_arith_mpi.c:528
    2a9c:	b003      	add	sp, #12
    2a9e:	bd30      	pop	{r4, r5, pc}
    2aa0:	000053ba 	.word	0x000053ba
    2aa4:	00000024 	.word	0x00000024

00002aa8 <TEE_BigIntMulMod>:
TEE_BigIntMulMod():
/home/hsk/Desktop/devel/tee-tpm-hyp/optee_os/lib/libutee/tee_api_arith_mpi.c:532
    2aa8:	b537      	push	{r0, r1, r2, r4, r5, lr}
    2aaa:	4c04      	ldr	r4, [pc, #16]	; (2abc <TEE_BigIntMulMod+0x14>)
/home/hsk/Desktop/devel/tee-tpm-hyp/optee_os/lib/libutee/tee_api_arith_mpi.c:533
    2aac:	4d04      	ldr	r5, [pc, #16]	; (2ac0 <TEE_BigIntMulMod+0x18>)
/home/hsk/Desktop/devel/tee-tpm-hyp/optee_os/lib/libutee/tee_api_arith_mpi.c:532
    2aae:	447c      	add	r4, pc
/home/hsk/Desktop/devel/tee-tpm-hyp/optee_os/lib/libutee/tee_api_arith_mpi.c:533
    2ab0:	5964      	ldr	r4, [r4, r5]
    2ab2:	9400      	str	r4, [sp, #0]
    2ab4:	f7ff fdac 	bl	2610 <bigint_binary_mod>
/home/hsk/Desktop/devel/tee-tpm-hyp/optee_os/lib/libutee/tee_api_arith_mpi.c:534
    2ab8:	b003      	add	sp, #12
    2aba:	bd30      	pop	{r4, r5, pc}
    2abc:	0000539e 	.word	0x0000539e
    2ac0:	00000018 	.word	0x00000018

00002ac4 <TEE_BigIntSquareMod>:
TEE_BigIntSquareMod():
/home/hsk/Desktop/devel/tee-tpm-hyp/optee_os/lib/libutee/tee_api_arith_mpi.c:539
    2ac4:	4613      	mov	r3, r2
    2ac6:	460a      	mov	r2, r1
    2ac8:	f7ff bfee 	b.w	2aa8 <TEE_BigIntMulMod>

00002acc <TEE_BigIntInvMod>:
TEE_BigIntInvMod():
/home/hsk/Desktop/devel/tee-tpm-hyp/optee_os/lib/libutee/tee_api_arith_mpi.c:544
    2acc:	e92d 41f0 	stmdb	sp!, {r4, r5, r6, r7, r8, lr}
    2ad0:	4606      	mov	r6, r0
    2ad2:	460c      	mov	r4, r1
    2ad4:	b08a      	sub	sp, #40	; 0x28
/home/hsk/Desktop/devel/tee-tpm-hyp/optee_os/lib/libutee/tee_api_arith_mpi.c:545
    2ad6:	2102      	movs	r1, #2
    2ad8:	4610      	mov	r0, r2
/home/hsk/Desktop/devel/tee-tpm-hyp/optee_os/lib/libutee/tee_api_arith_mpi.c:544
    2ada:	4690      	mov	r8, r2
/home/hsk/Desktop/devel/tee-tpm-hyp/optee_os/lib/libutee/tee_api_arith_mpi.c:545
    2adc:	f7ff fd85 	bl	25ea <TEE_BigIntCmpS32>
    2ae0:	2800      	cmp	r0, #0
    2ae2:	da08      	bge.n	2af6 <TEE_BigIntInvMod+0x2a>
/home/hsk/Desktop/devel/tee-tpm-hyp/optee_os/lib/libutee/tee_api_arith_mpi.c:546
    2ae4:	481f      	ldr	r0, [pc, #124]	; (2b64 <TEE_BigIntInvMod+0x98>)
    2ae6:	f240 2122 	movw	r1, #546	; 0x222
    2aea:	4a1f      	ldr	r2, [pc, #124]	; (2b68 <TEE_BigIntInvMod+0x9c>)
    2aec:	4478      	add	r0, pc
    2aee:	447a      	add	r2, pc
    2af0:	30cf      	adds	r0, #207	; 0xcf
    2af2:	f000 f9bb 	bl	2e6c <api_panic>
/home/hsk/Desktop/devel/tee-tpm-hyp/optee_os/lib/libutee/tee_api_arith_mpi.c:545 (discriminator 1)
    2af6:	2100      	movs	r1, #0
    2af8:	4620      	mov	r0, r4
    2afa:	f7ff fd76 	bl	25ea <TEE_BigIntCmpS32>
    2afe:	2800      	cmp	r0, #0
    2b00:	d0f0      	beq.n	2ae4 <TEE_BigIntInvMod+0x18>
/home/hsk/Desktop/devel/tee-tpm-hyp/optee_os/lib/libutee/tee_api_arith_mpi.c:553
    2b02:	ad01      	add	r5, sp, #4
    2b04:	4631      	mov	r1, r6
    2b06:	4628      	mov	r0, r5
/home/hsk/Desktop/devel/tee-tpm-hyp/optee_os/lib/libutee/tee_api_arith_mpi.c:554
    2b08:	af07      	add	r7, sp, #28
/home/hsk/Desktop/devel/tee-tpm-hyp/optee_os/lib/libutee/tee_api_arith_mpi.c:553
    2b0a:	f7ff f9b7 	bl	1e7c <get_mpi>
/home/hsk/Desktop/devel/tee-tpm-hyp/optee_os/lib/libutee/tee_api_arith_mpi.c:554
    2b0e:	4641      	mov	r1, r8
    2b10:	4638      	mov	r0, r7
    2b12:	f7ff fc13 	bl	233c <get_const_mpi>
/home/hsk/Desktop/devel/tee-tpm-hyp/optee_os/lib/libutee/tee_api_arith_mpi.c:556
    2b16:	42b4      	cmp	r4, r6
    2b18:	ae04      	add	r6, sp, #16
    2b1a:	d012      	beq.n	2b42 <TEE_BigIntInvMod+0x76>
/home/hsk/Desktop/devel/tee-tpm-hyp/optee_os/lib/libutee/tee_api_arith_mpi.c:559
    2b1c:	4621      	mov	r1, r4
/home/hsk/Desktop/devel/tee-tpm-hyp/optee_os/lib/libutee/tee_api_arith_mpi.c:551
    2b1e:	4634      	mov	r4, r6
/home/hsk/Desktop/devel/tee-tpm-hyp/optee_os/lib/libutee/tee_api_arith_mpi.c:559
    2b20:	4630      	mov	r0, r6
    2b22:	f7ff fc0b 	bl	233c <get_const_mpi>
/home/hsk/Desktop/devel/tee-tpm-hyp/optee_os/lib/libutee/tee_api_arith_mpi.c:561
    2b26:	463a      	mov	r2, r7
    2b28:	4621      	mov	r1, r4
    2b2a:	4628      	mov	r0, r5
    2b2c:	f002 f9d6 	bl	4edc <mbedtls_mpi_inv_mod>
    2b30:	4602      	mov	r2, r0
    2b32:	b140      	cbz	r0, 2b46 <TEE_BigIntInvMod+0x7a>
/home/hsk/Desktop/devel/tee-tpm-hyp/optee_os/lib/libutee/tee_api_arith_mpi.c:561 (discriminator 1)
    2b34:	480d      	ldr	r0, [pc, #52]	; (2b6c <TEE_BigIntInvMod+0xa0>)
    2b36:	f240 2131 	movw	r1, #561	; 0x231
    2b3a:	4478      	add	r0, pc
    2b3c:	30cf      	adds	r0, #207	; 0xcf
    2b3e:	f7ff f98d 	bl	1e5c <mpi_panic>
/home/hsk/Desktop/devel/tee-tpm-hyp/optee_os/lib/libutee/tee_api_arith_mpi.c:557
    2b42:	462c      	mov	r4, r5
    2b44:	e7ef      	b.n	2b26 <TEE_BigIntInvMod+0x5a>
/home/hsk/Desktop/devel/tee-tpm-hyp/optee_os/lib/libutee/tee_api_arith_mpi.c:563
    2b46:	4628      	mov	r0, r5
    2b48:	f7ff f9bd 	bl	1ec6 <put_mpi>
/home/hsk/Desktop/devel/tee-tpm-hyp/optee_os/lib/libutee/tee_api_arith_mpi.c:564
    2b4c:	4638      	mov	r0, r7
    2b4e:	f7ff f9ba 	bl	1ec6 <put_mpi>
/home/hsk/Desktop/devel/tee-tpm-hyp/optee_os/lib/libutee/tee_api_arith_mpi.c:565
    2b52:	42b4      	cmp	r4, r6
    2b54:	d102      	bne.n	2b5c <TEE_BigIntInvMod+0x90>
/home/hsk/Desktop/devel/tee-tpm-hyp/optee_os/lib/libutee/tee_api_arith_mpi.c:566
    2b56:	4620      	mov	r0, r4
    2b58:	f7ff f9b5 	bl	1ec6 <put_mpi>
/home/hsk/Desktop/devel/tee-tpm-hyp/optee_os/lib/libutee/tee_api_arith_mpi.c:567
    2b5c:	b00a      	add	sp, #40	; 0x28
    2b5e:	e8bd 81f0 	ldmia.w	sp!, {r4, r5, r6, r7, r8, pc}
    2b62:	bf00      	nop
    2b64:	00004135 	.word	0x00004135
    2b68:	00004302 	.word	0x00004302
    2b6c:	000040e7 	.word	0x000040e7

00002b70 <TEE_BigIntRelativePrime>:
TEE_BigIntRelativePrime():
/home/hsk/Desktop/devel/tee-tpm-hyp/optee_os/lib/libutee/tee_api_arith_mpi.c:570
    2b70:	e92d 41f0 	stmdb	sp!, {r4, r5, r6, r7, r8, lr}
    2b74:	4604      	mov	r4, r0
    2b76:	460e      	mov	r6, r1
    2b78:	b08a      	sub	sp, #40	; 0x28
/home/hsk/Desktop/devel/tee-tpm-hyp/optee_os/lib/libutee/tee_api_arith_mpi.c:577
    2b7a:	4601      	mov	r1, r0
    2b7c:	ad01      	add	r5, sp, #4
    2b7e:	4628      	mov	r0, r5
    2b80:	f7ff fbdc 	bl	233c <get_const_mpi>
/home/hsk/Desktop/devel/tee-tpm-hyp/optee_os/lib/libutee/tee_api_arith_mpi.c:579
    2b84:	42b4      	cmp	r4, r6
    2b86:	ac04      	add	r4, sp, #16
    2b88:	d016      	beq.n	2bb8 <TEE_BigIntRelativePrime+0x48>
/home/hsk/Desktop/devel/tee-tpm-hyp/optee_os/lib/libutee/tee_api_arith_mpi.c:574
    2b8a:	46a0      	mov	r8, r4
/home/hsk/Desktop/devel/tee-tpm-hyp/optee_os/lib/libutee/tee_api_arith_mpi.c:582
    2b8c:	4631      	mov	r1, r6
    2b8e:	4620      	mov	r0, r4
    2b90:	f7ff fbd4 	bl	233c <get_const_mpi>
get_mpi():
/home/hsk/Desktop/devel/tee-tpm-hyp/optee_os/lib/libutee/tee_api_arith_mpi.c:99
    2b94:	ae07      	add	r6, sp, #28
    2b96:	4630      	mov	r0, r6
    2b98:	f000 fc3a 	bl	3410 <mbedtls_mpi_init_mempool>
TEE_BigIntRelativePrime():
/home/hsk/Desktop/devel/tee-tpm-hyp/optee_os/lib/libutee/tee_api_arith_mpi.c:586
    2b9c:	4622      	mov	r2, r4
    2b9e:	4629      	mov	r1, r5
    2ba0:	4630      	mov	r0, r6
    2ba2:	f001 ffed 	bl	4b80 <mbedtls_mpi_gcd>
    2ba6:	4602      	mov	r2, r0
    2ba8:	b140      	cbz	r0, 2bbc <TEE_BigIntRelativePrime+0x4c>
/home/hsk/Desktop/devel/tee-tpm-hyp/optee_os/lib/libutee/tee_api_arith_mpi.c:586 (discriminator 1)
    2baa:	480f      	ldr	r0, [pc, #60]	; (2be8 <TEE_BigIntRelativePrime+0x78>)
    2bac:	f240 214a 	movw	r1, #586	; 0x24a
    2bb0:	4478      	add	r0, pc
    2bb2:	30e0      	adds	r0, #224	; 0xe0
    2bb4:	f7ff f952 	bl	1e5c <mpi_panic>
/home/hsk/Desktop/devel/tee-tpm-hyp/optee_os/lib/libutee/tee_api_arith_mpi.c:580
    2bb8:	46a8      	mov	r8, r5
    2bba:	e7eb      	b.n	2b94 <TEE_BigIntRelativePrime+0x24>
/home/hsk/Desktop/devel/tee-tpm-hyp/optee_os/lib/libutee/tee_api_arith_mpi.c:588
    2bbc:	2101      	movs	r1, #1
    2bbe:	4630      	mov	r0, r6
    2bc0:	f000 ffcb 	bl	3b5a <mbedtls_mpi_cmp_int>
    2bc4:	fab0 f780 	clz	r7, r0
/home/hsk/Desktop/devel/tee-tpm-hyp/optee_os/lib/libutee/tee_api_arith_mpi.c:590
    2bc8:	4630      	mov	r0, r6
    2bca:	f7ff f97c 	bl	1ec6 <put_mpi>
/home/hsk/Desktop/devel/tee-tpm-hyp/optee_os/lib/libutee/tee_api_arith_mpi.c:591
    2bce:	4628      	mov	r0, r5
    2bd0:	f7ff f979 	bl	1ec6 <put_mpi>
/home/hsk/Desktop/devel/tee-tpm-hyp/optee_os/lib/libutee/tee_api_arith_mpi.c:588
    2bd4:	097f      	lsrs	r7, r7, #5
/home/hsk/Desktop/devel/tee-tpm-hyp/optee_os/lib/libutee/tee_api_arith_mpi.c:592
    2bd6:	45a0      	cmp	r8, r4
    2bd8:	d102      	bne.n	2be0 <TEE_BigIntRelativePrime+0x70>
/home/hsk/Desktop/devel/tee-tpm-hyp/optee_os/lib/libutee/tee_api_arith_mpi.c:593
    2bda:	4640      	mov	r0, r8
    2bdc:	f7ff f973 	bl	1ec6 <put_mpi>
/home/hsk/Desktop/devel/tee-tpm-hyp/optee_os/lib/libutee/tee_api_arith_mpi.c:596
    2be0:	4638      	mov	r0, r7
    2be2:	b00a      	add	sp, #40	; 0x28
    2be4:	e8bd 81f0 	ldmia.w	sp!, {r4, r5, r6, r7, r8, pc}
    2be8:	00004071 	.word	0x00004071

00002bec <TEE_BigIntComputeExtendedGcd>:
TEE_BigIntComputeExtendedGcd():
/home/hsk/Desktop/devel/tee-tpm-hyp/optee_os/lib/libutee/tee_api_arith_mpi.c:707
    2bec:	e92d 4ff0 	stmdb	sp!, {r4, r5, r6, r7, r8, r9, sl, fp, lr}
    2bf0:	4699      	mov	r9, r3
    2bf2:	4680      	mov	r8, r0
    2bf4:	b095      	sub	sp, #84	; 0x54
    2bf6:	460f      	mov	r7, r1
/home/hsk/Desktop/devel/tee-tpm-hyp/optee_os/lib/libutee/tee_api_arith_mpi.c:713
    2bf8:	ae05      	add	r6, sp, #20
    2bfa:	4601      	mov	r1, r0
/home/hsk/Desktop/devel/tee-tpm-hyp/optee_os/lib/libutee/tee_api_arith_mpi.c:714
    2bfc:	ad08      	add	r5, sp, #32
/home/hsk/Desktop/devel/tee-tpm-hyp/optee_os/lib/libutee/tee_api_arith_mpi.c:713
    2bfe:	4630      	mov	r0, r6
/home/hsk/Desktop/devel/tee-tpm-hyp/optee_os/lib/libutee/tee_api_arith_mpi.c:707
    2c00:	9c1e      	ldr	r4, [sp, #120]	; 0x78
    2c02:	4692      	mov	sl, r2
/home/hsk/Desktop/devel/tee-tpm-hyp/optee_os/lib/libutee/tee_api_arith_mpi.c:713
    2c04:	f7ff f93a 	bl	1e7c <get_mpi>
/home/hsk/Desktop/devel/tee-tpm-hyp/optee_os/lib/libutee/tee_api_arith_mpi.c:714
    2c08:	4649      	mov	r1, r9
    2c0a:	4628      	mov	r0, r5
    2c0c:	f7ff fb96 	bl	233c <get_const_mpi>
/home/hsk/Desktop/devel/tee-tpm-hyp/optee_os/lib/libutee/tee_api_arith_mpi.c:716
    2c10:	45a1      	cmp	r9, r4
    2c12:	f10d 092c 	add.w	r9, sp, #44	; 0x2c
    2c16:	d01a      	beq.n	2c4e <TEE_BigIntComputeExtendedGcd+0x62>
/home/hsk/Desktop/devel/tee-tpm-hyp/optee_os/lib/libutee/tee_api_arith_mpi.c:719
    2c18:	4621      	mov	r1, r4
/home/hsk/Desktop/devel/tee-tpm-hyp/optee_os/lib/libutee/tee_api_arith_mpi.c:711
    2c1a:	464c      	mov	r4, r9
/home/hsk/Desktop/devel/tee-tpm-hyp/optee_os/lib/libutee/tee_api_arith_mpi.c:719
    2c1c:	4648      	mov	r0, r9
    2c1e:	f7ff fb8d 	bl	233c <get_const_mpi>
/home/hsk/Desktop/devel/tee-tpm-hyp/optee_os/lib/libutee/tee_api_arith_mpi.c:721
    2c22:	b9b7      	cbnz	r7, 2c52 <TEE_BigIntComputeExtendedGcd+0x66>
/home/hsk/Desktop/devel/tee-tpm-hyp/optee_os/lib/libutee/tee_api_arith_mpi.c:721 (discriminator 1)
    2c24:	f1ba 0f00 	cmp.w	sl, #0
    2c28:	d113      	bne.n	2c52 <TEE_BigIntComputeExtendedGcd+0x66>
/home/hsk/Desktop/devel/tee-tpm-hyp/optee_os/lib/libutee/tee_api_arith_mpi.c:722
    2c2a:	f1b8 0f00 	cmp.w	r8, #0
    2c2e:	d06a      	beq.n	2d06 <TEE_BigIntComputeExtendedGcd+0x11a>
/home/hsk/Desktop/devel/tee-tpm-hyp/optee_os/lib/libutee/tee_api_arith_mpi.c:723
    2c30:	4622      	mov	r2, r4
    2c32:	4629      	mov	r1, r5
    2c34:	4630      	mov	r0, r6
    2c36:	f001 ffa3 	bl	4b80 <mbedtls_mpi_gcd>
    2c3a:	4602      	mov	r2, r0
    2c3c:	2800      	cmp	r0, #0
    2c3e:	d062      	beq.n	2d06 <TEE_BigIntComputeExtendedGcd+0x11a>
/home/hsk/Desktop/devel/tee-tpm-hyp/optee_os/lib/libutee/tee_api_arith_mpi.c:723 (discriminator 1)
    2c40:	483a      	ldr	r0, [pc, #232]	; (2d2c <TEE_BigIntComputeExtendedGcd+0x140>)
    2c42:	f44f 7135 	mov.w	r1, #724	; 0x2d4
    2c46:	4478      	add	r0, pc
/home/hsk/Desktop/devel/tee-tpm-hyp/optee_os/lib/libutee/tee_api_arith_mpi.c:740 (discriminator 1)
    2c48:	30f8      	adds	r0, #248	; 0xf8
    2c4a:	f7ff f907 	bl	1e5c <mpi_panic>
/home/hsk/Desktop/devel/tee-tpm-hyp/optee_os/lib/libutee/tee_api_arith_mpi.c:717
    2c4e:	462c      	mov	r4, r5
    2c50:	e7e7      	b.n	2c22 <TEE_BigIntComputeExtendedGcd+0x36>
/home/hsk/Desktop/devel/tee-tpm-hyp/optee_os/lib/libutee/tee_api_arith_mpi.c:728
    2c52:	f99d 3020 	ldrsb.w	r3, [sp, #32]
/home/hsk/Desktop/devel/tee-tpm-hyp/optee_os/lib/libutee/tee_api_arith_mpi.c:735
    2c56:	f10d 0838 	add.w	r8, sp, #56	; 0x38
    2c5a:	4639      	mov	r1, r7
/home/hsk/Desktop/devel/tee-tpm-hyp/optee_os/lib/libutee/tee_api_arith_mpi.c:728
    2c5c:	9302      	str	r3, [sp, #8]
/home/hsk/Desktop/devel/tee-tpm-hyp/optee_os/lib/libutee/tee_api_arith_mpi.c:732
    2c5e:	f04f 0b01 	mov.w	fp, #1
/home/hsk/Desktop/devel/tee-tpm-hyp/optee_os/lib/libutee/tee_api_arith_mpi.c:729
    2c62:	f994 3000 	ldrsb.w	r3, [r4]
/home/hsk/Desktop/devel/tee-tpm-hyp/optee_os/lib/libutee/tee_api_arith_mpi.c:735
    2c66:	4640      	mov	r0, r8
/home/hsk/Desktop/devel/tee-tpm-hyp/optee_os/lib/libutee/tee_api_arith_mpi.c:732
    2c68:	f88d b020 	strb.w	fp, [sp, #32]
/home/hsk/Desktop/devel/tee-tpm-hyp/optee_os/lib/libutee/tee_api_arith_mpi.c:736
    2c6c:	af11      	add	r7, sp, #68	; 0x44
/home/hsk/Desktop/devel/tee-tpm-hyp/optee_os/lib/libutee/tee_api_arith_mpi.c:733
    2c6e:	f884 b000 	strb.w	fp, [r4]
/home/hsk/Desktop/devel/tee-tpm-hyp/optee_os/lib/libutee/tee_api_arith_mpi.c:729
    2c72:	9303      	str	r3, [sp, #12]
/home/hsk/Desktop/devel/tee-tpm-hyp/optee_os/lib/libutee/tee_api_arith_mpi.c:735
    2c74:	f7ff f902 	bl	1e7c <get_mpi>
/home/hsk/Desktop/devel/tee-tpm-hyp/optee_os/lib/libutee/tee_api_arith_mpi.c:736
    2c78:	4651      	mov	r1, sl
    2c7a:	4638      	mov	r0, r7
    2c7c:	f7ff f8fe 	bl	1e7c <get_mpi>
/home/hsk/Desktop/devel/tee-tpm-hyp/optee_os/lib/libutee/tee_api_arith_mpi.c:738
    2c80:	4621      	mov	r1, r4
    2c82:	4628      	mov	r0, r5
    2c84:	f000 feec 	bl	3a60 <mbedtls_mpi_cmp_abs>
/home/hsk/Desktop/devel/tee-tpm-hyp/optee_os/lib/libutee/tee_api_arith_mpi.c:739
    2c88:	2800      	cmp	r0, #0
    2c8a:	d120      	bne.n	2cce <TEE_BigIntComputeExtendedGcd+0xe2>
/home/hsk/Desktop/devel/tee-tpm-hyp/optee_os/lib/libutee/tee_api_arith_mpi.c:740
    2c8c:	4629      	mov	r1, r5
    2c8e:	4630      	mov	r0, r6
    2c90:	f000 fcba 	bl	3608 <mbedtls_mpi_copy>
    2c94:	4602      	mov	r2, r0
    2c96:	b120      	cbz	r0, 2ca2 <TEE_BigIntComputeExtendedGcd+0xb6>
/home/hsk/Desktop/devel/tee-tpm-hyp/optee_os/lib/libutee/tee_api_arith_mpi.c:740 (discriminator 1)
    2c98:	4825      	ldr	r0, [pc, #148]	; (2d30 <TEE_BigIntComputeExtendedGcd+0x144>)
    2c9a:	f44f 7139 	mov.w	r1, #740	; 0x2e4
    2c9e:	4478      	add	r0, pc
    2ca0:	e7d2      	b.n	2c48 <TEE_BigIntComputeExtendedGcd+0x5c>
/home/hsk/Desktop/devel/tee-tpm-hyp/optee_os/lib/libutee/tee_api_arith_mpi.c:741
    2ca2:	4659      	mov	r1, fp
    2ca4:	4640      	mov	r0, r8
    2ca6:	f000 fd6a 	bl	377e <mbedtls_mpi_lset>
    2caa:	4602      	mov	r2, r0
    2cac:	b120      	cbz	r0, 2cb8 <TEE_BigIntComputeExtendedGcd+0xcc>
/home/hsk/Desktop/devel/tee-tpm-hyp/optee_os/lib/libutee/tee_api_arith_mpi.c:741 (discriminator 1)
    2cae:	4821      	ldr	r0, [pc, #132]	; (2d34 <TEE_BigIntComputeExtendedGcd+0x148>)
    2cb0:	f240 21e5 	movw	r1, #741	; 0x2e5
    2cb4:	4478      	add	r0, pc
    2cb6:	e7c7      	b.n	2c48 <TEE_BigIntComputeExtendedGcd+0x5c>
/home/hsk/Desktop/devel/tee-tpm-hyp/optee_os/lib/libutee/tee_api_arith_mpi.c:742
    2cb8:	4601      	mov	r1, r0
    2cba:	4638      	mov	r0, r7
    2cbc:	f000 fd5f 	bl	377e <mbedtls_mpi_lset>
    2cc0:	4602      	mov	r2, r0
    2cc2:	b160      	cbz	r0, 2cde <TEE_BigIntComputeExtendedGcd+0xf2>
/home/hsk/Desktop/devel/tee-tpm-hyp/optee_os/lib/libutee/tee_api_arith_mpi.c:742 (discriminator 1)
    2cc4:	481c      	ldr	r0, [pc, #112]	; (2d38 <TEE_BigIntComputeExtendedGcd+0x14c>)
    2cc6:	f240 21e6 	movw	r1, #742	; 0x2e6
    2cca:	4478      	add	r0, pc
    2ccc:	e7bc      	b.n	2c48 <TEE_BigIntComputeExtendedGcd+0x5c>
/home/hsk/Desktop/devel/tee-tpm-hyp/optee_os/lib/libutee/tee_api_arith_mpi.c:743
    2cce:	dd28      	ble.n	2d22 <TEE_BigIntComputeExtendedGcd+0x136>
/home/hsk/Desktop/devel/tee-tpm-hyp/optee_os/lib/libutee/tee_api_arith_mpi.c:744
    2cd0:	462b      	mov	r3, r5
    2cd2:	463a      	mov	r2, r7
    2cd4:	4641      	mov	r1, r8
    2cd6:	9400      	str	r4, [sp, #0]
/home/hsk/Desktop/devel/tee-tpm-hyp/optee_os/lib/libutee/tee_api_arith_mpi.c:746
    2cd8:	4630      	mov	r0, r6
    2cda:	f7ff f902 	bl	1ee2 <mpi_egcd>
/home/hsk/Desktop/devel/tee-tpm-hyp/optee_os/lib/libutee/tee_api_arith_mpi.c:749 (discriminator 1)
    2cde:	f89d 3038 	ldrb.w	r3, [sp, #56]	; 0x38
/home/hsk/Desktop/devel/tee-tpm-hyp/optee_os/lib/libutee/tee_api_arith_mpi.c:752 (discriminator 1)
    2ce2:	4640      	mov	r0, r8
/home/hsk/Desktop/devel/tee-tpm-hyp/optee_os/lib/libutee/tee_api_arith_mpi.c:749 (discriminator 1)
    2ce4:	9a02      	ldr	r2, [sp, #8]
    2ce6:	fb13 fb02 	smulbb	fp, r3, r2
/home/hsk/Desktop/devel/tee-tpm-hyp/optee_os/lib/libutee/tee_api_arith_mpi.c:750 (discriminator 1)
    2cea:	f89d 3044 	ldrb.w	r3, [sp, #68]	; 0x44
    2cee:	9a03      	ldr	r2, [sp, #12]
/home/hsk/Desktop/devel/tee-tpm-hyp/optee_os/lib/libutee/tee_api_arith_mpi.c:749 (discriminator 1)
    2cf0:	f88d b038 	strb.w	fp, [sp, #56]	; 0x38
/home/hsk/Desktop/devel/tee-tpm-hyp/optee_os/lib/libutee/tee_api_arith_mpi.c:750 (discriminator 1)
    2cf4:	fb13 f302 	smulbb	r3, r3, r2
    2cf8:	f88d 3044 	strb.w	r3, [sp, #68]	; 0x44
/home/hsk/Desktop/devel/tee-tpm-hyp/optee_os/lib/libutee/tee_api_arith_mpi.c:752 (discriminator 1)
    2cfc:	f7ff f8e3 	bl	1ec6 <put_mpi>
/home/hsk/Desktop/devel/tee-tpm-hyp/optee_os/lib/libutee/tee_api_arith_mpi.c:753 (discriminator 1)
    2d00:	4638      	mov	r0, r7
    2d02:	f7ff f8e0 	bl	1ec6 <put_mpi>
/home/hsk/Desktop/devel/tee-tpm-hyp/optee_os/lib/libutee/tee_api_arith_mpi.c:756
    2d06:	4630      	mov	r0, r6
    2d08:	f7ff f8dd 	bl	1ec6 <put_mpi>
/home/hsk/Desktop/devel/tee-tpm-hyp/optee_os/lib/libutee/tee_api_arith_mpi.c:757
    2d0c:	4628      	mov	r0, r5
    2d0e:	f7ff f8da 	bl	1ec6 <put_mpi>
/home/hsk/Desktop/devel/tee-tpm-hyp/optee_os/lib/libutee/tee_api_arith_mpi.c:758
    2d12:	454c      	cmp	r4, r9
    2d14:	d102      	bne.n	2d1c <TEE_BigIntComputeExtendedGcd+0x130>
/home/hsk/Desktop/devel/tee-tpm-hyp/optee_os/lib/libutee/tee_api_arith_mpi.c:759
    2d16:	4620      	mov	r0, r4
    2d18:	f7ff f8d5 	bl	1ec6 <put_mpi>
/home/hsk/Desktop/devel/tee-tpm-hyp/optee_os/lib/libutee/tee_api_arith_mpi.c:760
    2d1c:	b015      	add	sp, #84	; 0x54
    2d1e:	e8bd 8ff0 	ldmia.w	sp!, {r4, r5, r6, r7, r8, r9, sl, fp, pc}
/home/hsk/Desktop/devel/tee-tpm-hyp/optee_os/lib/libutee/tee_api_arith_mpi.c:746
    2d22:	9500      	str	r5, [sp, #0]
    2d24:	4623      	mov	r3, r4
    2d26:	4642      	mov	r2, r8
    2d28:	4639      	mov	r1, r7
    2d2a:	e7d5      	b.n	2cd8 <TEE_BigIntComputeExtendedGcd+0xec>
    2d2c:	00003fdb 	.word	0x00003fdb
    2d30:	00003f83 	.word	0x00003f83
    2d34:	00003f6d 	.word	0x00003f6d
    2d38:	00003f57 	.word	0x00003f57

00002d3c <TEE_BigIntIsProbablePrime>:
TEE_BigIntIsProbablePrime():
/home/hsk/Desktop/devel/tee-tpm-hyp/optee_os/lib/libutee/tee_api_arith_mpi.c:771
    2d3c:	b530      	push	{r4, r5, lr}
/home/hsk/Desktop/devel/tee-tpm-hyp/optee_os/lib/libutee/tee_api_arith_mpi.c:775
    2d3e:	4601      	mov	r1, r0
/home/hsk/Desktop/devel/tee-tpm-hyp/optee_os/lib/libutee/tee_api_arith_mpi.c:771
    2d40:	b085      	sub	sp, #20
/home/hsk/Desktop/devel/tee-tpm-hyp/optee_os/lib/libutee/tee_api_arith_mpi.c:775
    2d42:	ac01      	add	r4, sp, #4
    2d44:	4620      	mov	r0, r4
    2d46:	f7ff faf9 	bl	233c <get_const_mpi>
/home/hsk/Desktop/devel/tee-tpm-hyp/optee_os/lib/libutee/tee_api_arith_mpi.c:777
    2d4a:	4907      	ldr	r1, [pc, #28]	; (2d68 <TEE_BigIntIsProbablePrime+0x2c>)
    2d4c:	2200      	movs	r2, #0
    2d4e:	4620      	mov	r0, r4
    2d50:	4479      	add	r1, pc
    2d52:	f002 fa2a 	bl	51aa <mbedtls_mpi_is_prime>
    2d56:	4605      	mov	r5, r0
/home/hsk/Desktop/devel/tee-tpm-hyp/optee_os/lib/libutee/tee_api_arith_mpi.c:779
    2d58:	4620      	mov	r0, r4
    2d5a:	f7ff f8b4 	bl	1ec6 <put_mpi>
/home/hsk/Desktop/devel/tee-tpm-hyp/optee_os/lib/libutee/tee_api_arith_mpi.c:785
    2d5e:	fab5 f085 	clz	r0, r5
    2d62:	0940      	lsrs	r0, r0, #5
    2d64:	b005      	add	sp, #20
    2d66:	bd30      	pop	{r4, r5, pc}
    2d68:	fffff15d 	.word	0xfffff15d

00002d6c <TEE_BigIntInitFMM>:
TEE_BigIntInitFMM():
/home/hsk/Desktop/devel/tee-tpm-hyp/optee_os/lib/libutee/tee_api_arith_mpi.c:797
    2d6c:	f7ff bb6e 	b.w	244c <TEE_BigIntInit>

00002d70 <TEE_BigIntInitFMMContext>:
TEE_BigIntInitFMMContext():
/home/hsk/Desktop/devel/tee-tpm-hyp/optee_os/lib/libutee/tee_api_arith_mpi.c:804
    2d70:	4770      	bx	lr

00002d72 <TEE_BigIntFMMSizeInU32>:
TEE_BigIntFMMSizeInU32():
/home/hsk/Desktop/devel/tee-tpm-hyp/optee_os/lib/libutee/tee_api_arith_mpi.c:808
    2d72:	301f      	adds	r0, #31
    2d74:	0940      	lsrs	r0, r0, #5
/home/hsk/Desktop/devel/tee-tpm-hyp/optee_os/lib/libutee/tee_api_arith_mpi.c:809
    2d76:	3002      	adds	r0, #2
    2d78:	4770      	bx	lr

00002d7a <TEE_BigIntFMMContextSizeInU32>:
TEE_BigIntFMMContextSizeInU32():
/home/hsk/Desktop/devel/tee-tpm-hyp/optee_os/lib/libutee/tee_api_arith_mpi.c:815
    2d7a:	2001      	movs	r0, #1
    2d7c:	4770      	bx	lr

00002d7e <TEE_BigIntConvertToFMM>:
TEE_BigIntConvertToFMM():
/home/hsk/Desktop/devel/tee-tpm-hyp/optee_os/lib/libutee/tee_api_arith_mpi.c:821
    2d7e:	f7ff be4f 	b.w	2a20 <TEE_BigIntMod>

00002d82 <TEE_BigIntConvertFromFMM>:
TEE_BigIntConvertFromFMM():
/home/hsk/Desktop/devel/tee-tpm-hyp/optee_os/lib/libutee/tee_api_arith_mpi.c:827
    2d82:	b570      	push	{r4, r5, r6, lr}
    2d84:	460e      	mov	r6, r1
/home/hsk/Desktop/devel/tee-tpm-hyp/optee_os/lib/libutee/tee_api_arith_mpi.c:831
    2d86:	4601      	mov	r1, r0
/home/hsk/Desktop/devel/tee-tpm-hyp/optee_os/lib/libutee/tee_api_arith_mpi.c:827
    2d88:	b086      	sub	sp, #24
/home/hsk/Desktop/devel/tee-tpm-hyp/optee_os/lib/libutee/tee_api_arith_mpi.c:831
    2d8a:	466d      	mov	r5, sp
/home/hsk/Desktop/devel/tee-tpm-hyp/optee_os/lib/libutee/tee_api_arith_mpi.c:832
    2d8c:	ac03      	add	r4, sp, #12
/home/hsk/Desktop/devel/tee-tpm-hyp/optee_os/lib/libutee/tee_api_arith_mpi.c:831
    2d8e:	4628      	mov	r0, r5
    2d90:	f7ff f874 	bl	1e7c <get_mpi>
/home/hsk/Desktop/devel/tee-tpm-hyp/optee_os/lib/libutee/tee_api_arith_mpi.c:832
    2d94:	4631      	mov	r1, r6
    2d96:	4620      	mov	r0, r4
    2d98:	f7ff fad0 	bl	233c <get_const_mpi>
/home/hsk/Desktop/devel/tee-tpm-hyp/optee_os/lib/libutee/tee_api_arith_mpi.c:834
    2d9c:	4621      	mov	r1, r4
    2d9e:	4628      	mov	r0, r5
    2da0:	f000 fc32 	bl	3608 <mbedtls_mpi_copy>
    2da4:	4602      	mov	r2, r0
    2da6:	b138      	cbz	r0, 2db8 <TEE_BigIntConvertFromFMM+0x36>
/home/hsk/Desktop/devel/tee-tpm-hyp/optee_os/lib/libutee/tee_api_arith_mpi.c:834 (discriminator 1)
    2da8:	4807      	ldr	r0, [pc, #28]	; (2dc8 <TEE_BigIntConvertFromFMM+0x46>)
    2daa:	f240 3142 	movw	r1, #834	; 0x342
    2dae:	4478      	add	r0, pc
    2db0:	f200 1015 	addw	r0, r0, #277	; 0x115
    2db4:	f7ff f852 	bl	1e5c <mpi_panic>
/home/hsk/Desktop/devel/tee-tpm-hyp/optee_os/lib/libutee/tee_api_arith_mpi.c:836
    2db8:	4628      	mov	r0, r5
    2dba:	f7ff f884 	bl	1ec6 <put_mpi>
/home/hsk/Desktop/devel/tee-tpm-hyp/optee_os/lib/libutee/tee_api_arith_mpi.c:837
    2dbe:	4620      	mov	r0, r4
    2dc0:	f7ff f881 	bl	1ec6 <put_mpi>
/home/hsk/Desktop/devel/tee-tpm-hyp/optee_os/lib/libutee/tee_api_arith_mpi.c:838
    2dc4:	b006      	add	sp, #24
    2dc6:	bd70      	pop	{r4, r5, r6, pc}
    2dc8:	00003e73 	.word	0x00003e73

00002dcc <TEE_BigIntComputeFMM>:
TEE_BigIntComputeFMM():
/home/hsk/Desktop/devel/tee-tpm-hyp/optee_os/lib/libutee/tee_api_arith_mpi.c:843
    2dcc:	e92d 41f0 	stmdb	sp!, {r4, r5, r6, r7, r8, lr}
    2dd0:	460f      	mov	r7, r1
/home/hsk/Desktop/devel/tee-tpm-hyp/optee_os/lib/libutee/tee_api_arith_mpi.c:850
    2dd2:	4601      	mov	r1, r0
/home/hsk/Desktop/devel/tee-tpm-hyp/optee_os/lib/libutee/tee_api_arith_mpi.c:843
    2dd4:	b090      	sub	sp, #64	; 0x40
    2dd6:	4690      	mov	r8, r2
/home/hsk/Desktop/devel/tee-tpm-hyp/optee_os/lib/libutee/tee_api_arith_mpi.c:850
    2dd8:	ad01      	add	r5, sp, #4
/home/hsk/Desktop/devel/tee-tpm-hyp/optee_os/lib/libutee/tee_api_arith_mpi.c:851
    2dda:	ae04      	add	r6, sp, #16
/home/hsk/Desktop/devel/tee-tpm-hyp/optee_os/lib/libutee/tee_api_arith_mpi.c:850
    2ddc:	4628      	mov	r0, r5
/home/hsk/Desktop/devel/tee-tpm-hyp/optee_os/lib/libutee/tee_api_arith_mpi.c:843
    2dde:	461c      	mov	r4, r3
/home/hsk/Desktop/devel/tee-tpm-hyp/optee_os/lib/libutee/tee_api_arith_mpi.c:850
    2de0:	f7ff f84c 	bl	1e7c <get_mpi>
/home/hsk/Desktop/devel/tee-tpm-hyp/optee_os/lib/libutee/tee_api_arith_mpi.c:851
    2de4:	4639      	mov	r1, r7
    2de6:	4630      	mov	r0, r6
/home/hsk/Desktop/devel/tee-tpm-hyp/optee_os/lib/libutee/tee_api_arith_mpi.c:852
    2de8:	af07      	add	r7, sp, #28
/home/hsk/Desktop/devel/tee-tpm-hyp/optee_os/lib/libutee/tee_api_arith_mpi.c:851
    2dea:	f7ff faa7 	bl	233c <get_const_mpi>
/home/hsk/Desktop/devel/tee-tpm-hyp/optee_os/lib/libutee/tee_api_arith_mpi.c:852
    2dee:	4641      	mov	r1, r8
    2df0:	4638      	mov	r0, r7
/home/hsk/Desktop/devel/tee-tpm-hyp/optee_os/lib/libutee/tee_api_arith_mpi.c:853
    2df2:	f10d 0828 	add.w	r8, sp, #40	; 0x28
/home/hsk/Desktop/devel/tee-tpm-hyp/optee_os/lib/libutee/tee_api_arith_mpi.c:852
    2df6:	f7ff faa1 	bl	233c <get_const_mpi>
/home/hsk/Desktop/devel/tee-tpm-hyp/optee_os/lib/libutee/tee_api_arith_mpi.c:853
    2dfa:	4621      	mov	r1, r4
    2dfc:	4640      	mov	r0, r8
get_mpi():
/home/hsk/Desktop/devel/tee-tpm-hyp/optee_os/lib/libutee/tee_api_arith_mpi.c:99
    2dfe:	ac0d      	add	r4, sp, #52	; 0x34
TEE_BigIntComputeFMM():
/home/hsk/Desktop/devel/tee-tpm-hyp/optee_os/lib/libutee/tee_api_arith_mpi.c:853
    2e00:	f7ff fa9c 	bl	233c <get_const_mpi>
get_mpi():
/home/hsk/Desktop/devel/tee-tpm-hyp/optee_os/lib/libutee/tee_api_arith_mpi.c:99
    2e04:	4620      	mov	r0, r4
    2e06:	f000 fb03 	bl	3410 <mbedtls_mpi_init_mempool>
TEE_BigIntComputeFMM():
/home/hsk/Desktop/devel/tee-tpm-hyp/optee_os/lib/libutee/tee_api_arith_mpi.c:856
    2e0a:	463a      	mov	r2, r7
    2e0c:	4631      	mov	r1, r6
    2e0e:	4620      	mov	r0, r4
    2e10:	f000 ffcc 	bl	3dac <mbedtls_mpi_mul_mpi>
    2e14:	4602      	mov	r2, r0
    2e16:	b138      	cbz	r0, 2e28 <TEE_BigIntComputeFMM+0x5c>
/home/hsk/Desktop/devel/tee-tpm-hyp/optee_os/lib/libutee/tee_api_arith_mpi.c:856 (discriminator 1)
    2e18:	4812      	ldr	r0, [pc, #72]	; (2e64 <TEE_BigIntComputeFMM+0x98>)
    2e1a:	f44f 7156 	mov.w	r1, #856	; 0x358
    2e1e:	4478      	add	r0, pc
/home/hsk/Desktop/devel/tee-tpm-hyp/optee_os/lib/libutee/tee_api_arith_mpi.c:857 (discriminator 1)
    2e20:	f500 7097 	add.w	r0, r0, #302	; 0x12e
    2e24:	f7ff f81a 	bl	1e5c <mpi_panic>
/home/hsk/Desktop/devel/tee-tpm-hyp/optee_os/lib/libutee/tee_api_arith_mpi.c:857
    2e28:	4642      	mov	r2, r8
    2e2a:	4621      	mov	r1, r4
    2e2c:	4628      	mov	r0, r5
    2e2e:	f001 fab0 	bl	4392 <mbedtls_mpi_mod_mpi>
    2e32:	4602      	mov	r2, r0
    2e34:	b120      	cbz	r0, 2e40 <TEE_BigIntComputeFMM+0x74>
/home/hsk/Desktop/devel/tee-tpm-hyp/optee_os/lib/libutee/tee_api_arith_mpi.c:857 (discriminator 1)
    2e36:	480c      	ldr	r0, [pc, #48]	; (2e68 <TEE_BigIntComputeFMM+0x9c>)
    2e38:	f240 3159 	movw	r1, #857	; 0x359
    2e3c:	4478      	add	r0, pc
    2e3e:	e7ef      	b.n	2e20 <TEE_BigIntComputeFMM+0x54>
/home/hsk/Desktop/devel/tee-tpm-hyp/optee_os/lib/libutee/tee_api_arith_mpi.c:859
    2e40:	4620      	mov	r0, r4
    2e42:	f7ff f840 	bl	1ec6 <put_mpi>
/home/hsk/Desktop/devel/tee-tpm-hyp/optee_os/lib/libutee/tee_api_arith_mpi.c:860
    2e46:	4640      	mov	r0, r8
    2e48:	f7ff f83d 	bl	1ec6 <put_mpi>
/home/hsk/Desktop/devel/tee-tpm-hyp/optee_os/lib/libutee/tee_api_arith_mpi.c:861
    2e4c:	4638      	mov	r0, r7
    2e4e:	f7ff f83a 	bl	1ec6 <put_mpi>
/home/hsk/Desktop/devel/tee-tpm-hyp/optee_os/lib/libutee/tee_api_arith_mpi.c:862
    2e52:	4630      	mov	r0, r6
    2e54:	f7ff f837 	bl	1ec6 <put_mpi>
/home/hsk/Desktop/devel/tee-tpm-hyp/optee_os/lib/libutee/tee_api_arith_mpi.c:863
    2e58:	4628      	mov	r0, r5
    2e5a:	f7ff f834 	bl	1ec6 <put_mpi>
/home/hsk/Desktop/devel/tee-tpm-hyp/optee_os/lib/libutee/tee_api_arith_mpi.c:864
    2e5e:	b010      	add	sp, #64	; 0x40
    2e60:	e8bd 81f0 	ldmia.w	sp!, {r4, r5, r6, r7, r8, pc}
    2e64:	00003e03 	.word	0x00003e03
    2e68:	00003de5 	.word	0x00003de5

00002e6c <api_panic>:
api_panic():
/home/hsk/Desktop/devel/tee-tpm-hyp/optee_os/lib/libutee/tee_api_arith_mpi.c:19
    2e6c:	b508      	push	{r3, lr}
/home/hsk/Desktop/devel/tee-tpm-hyp/optee_os/lib/libutee/tee_api_arith_mpi.c:20
    2e6e:	4613      	mov	r3, r2
    2e70:	460a      	mov	r2, r1
    2e72:	4601      	mov	r1, r0
    2e74:	4804      	ldr	r0, [pc, #16]	; (2e88 <api_panic+0x1c>)
    2e76:	4478      	add	r0, pc
    2e78:	f7fd ff01 	bl	c7e <printf>
/home/hsk/Desktop/devel/tee-tpm-hyp/optee_os/lib/libutee/tee_api_arith_mpi.c:21
    2e7c:	4801      	ldr	r0, [pc, #4]	; (2e84 <api_panic+0x18>)
    2e7e:	f003 fb57 	bl	6530 <TEE_Panic>
    2e82:	e7fe      	b.n	2e82 <api_panic+0x16>
    2e84:	00b16127 	.word	0x00b16127
    2e88:	00003eee 	.word	0x00003eee

00002e8c <mpi_get_digit>:
mpi_get_digit():
/home/hsk/Desktop/devel/tee-tpm-hyp/optee_os/lib/libmbedtls/mbedtls/library/bignum.c:488
    2e8c:	f1a2 0330 	sub.w	r3, r2, #48	; 0x30
/home/hsk/Desktop/devel/tee-tpm-hyp/optee_os/lib/libmbedtls/mbedtls/library/bignum.c:485
    2e90:	b510      	push	{r4, lr}
/home/hsk/Desktop/devel/tee-tpm-hyp/optee_os/lib/libmbedtls/mbedtls/library/bignum.c:488
    2e92:	b2dc      	uxtb	r4, r3
    2e94:	2c09      	cmp	r4, #9
/home/hsk/Desktop/devel/tee-tpm-hyp/optee_os/lib/libmbedtls/mbedtls/library/bignum.c:486
    2e96:	bf88      	it	hi
    2e98:	23ff      	movhi	r3, #255	; 0xff
/home/hsk/Desktop/devel/tee-tpm-hyp/optee_os/lib/libmbedtls/mbedtls/library/bignum.c:488
    2e9a:	6003      	str	r3, [r0, #0]
/home/hsk/Desktop/devel/tee-tpm-hyp/optee_os/lib/libmbedtls/mbedtls/library/bignum.c:489
    2e9c:	f1a2 0341 	sub.w	r3, r2, #65	; 0x41
    2ea0:	2b05      	cmp	r3, #5
    2ea2:	d802      	bhi.n	2eaa <mpi_get_digit+0x1e>
/home/hsk/Desktop/devel/tee-tpm-hyp/optee_os/lib/libmbedtls/mbedtls/library/bignum.c:489 (discriminator 1)
    2ea4:	f1a2 0337 	sub.w	r3, r2, #55	; 0x37
    2ea8:	6003      	str	r3, [r0, #0]
/home/hsk/Desktop/devel/tee-tpm-hyp/optee_os/lib/libmbedtls/mbedtls/library/bignum.c:490
    2eaa:	f1a2 0361 	sub.w	r3, r2, #97	; 0x61
    2eae:	2b05      	cmp	r3, #5
    2eb0:	d801      	bhi.n	2eb6 <mpi_get_digit+0x2a>
/home/hsk/Desktop/devel/tee-tpm-hyp/optee_os/lib/libmbedtls/mbedtls/library/bignum.c:490 (discriminator 1)
    2eb2:	3a57      	subs	r2, #87	; 0x57
    2eb4:	6002      	str	r2, [r0, #0]
/home/hsk/Desktop/devel/tee-tpm-hyp/optee_os/lib/libmbedtls/mbedtls/library/bignum.c:492
    2eb6:	6803      	ldr	r3, [r0, #0]
/home/hsk/Desktop/devel/tee-tpm-hyp/optee_os/lib/libmbedtls/mbedtls/library/bignum.c:496
    2eb8:	f06f 0005 	mvn.w	r0, #5
/home/hsk/Desktop/devel/tee-tpm-hyp/optee_os/lib/libmbedtls/mbedtls/library/bignum.c:492
    2ebc:	428b      	cmp	r3, r1
/home/hsk/Desktop/devel/tee-tpm-hyp/optee_os/lib/libmbedtls/mbedtls/library/bignum.c:496
    2ebe:	bf38      	it	cc
    2ec0:	2000      	movcc	r0, #0
    2ec2:	bd10      	pop	{r4, pc}

00002ec4 <mpi_sub_hlp>:
mpi_sub_hlp():
/home/hsk/Desktop/devel/tee-tpm-hyp/optee_os/lib/libmbedtls/mbedtls/library/bignum.c:1025
    2ec4:	2300      	movs	r3, #0
/home/hsk/Desktop/devel/tee-tpm-hyp/optee_os/lib/libmbedtls/mbedtls/library/bignum.c:1021
    2ec6:	e92d 41f0 	stmdb	sp!, {r4, r5, r6, r7, r8, lr}
    2eca:	4688      	mov	r8, r1
    2ecc:	1f16      	subs	r6, r2, #4
/home/hsk/Desktop/devel/tee-tpm-hyp/optee_os/lib/libmbedtls/mbedtls/library/bignum.c:1025
    2ece:	461c      	mov	r4, r3
/home/hsk/Desktop/devel/tee-tpm-hyp/optee_os/lib/libmbedtls/mbedtls/library/bignum.c:1025 (discriminator 1)
    2ed0:	4284      	cmp	r4, r0
    2ed2:	d104      	bne.n	2ede <mpi_sub_hlp+0x1a>
    2ed4:	eb02 0284 	add.w	r2, r2, r4, lsl #2
/home/hsk/Desktop/devel/tee-tpm-hyp/optee_os/lib/libmbedtls/mbedtls/library/bignum.c:1031
    2ed8:	b9bb      	cbnz	r3, 2f0a <mpi_sub_hlp+0x46>
/home/hsk/Desktop/devel/tee-tpm-hyp/optee_os/lib/libmbedtls/mbedtls/library/bignum.c:1036
    2eda:	e8bd 81f0 	ldmia.w	sp!, {r4, r5, r6, r7, r8, pc}
/home/hsk/Desktop/devel/tee-tpm-hyp/optee_os/lib/libmbedtls/mbedtls/library/bignum.c:1027 (discriminator 3)
    2ede:	f856 cf04 	ldr.w	ip, [r6, #4]!
    2ee2:	ebac 0503 	sub.w	r5, ip, r3
    2ee6:	6035      	str	r5, [r6, #0]
/home/hsk/Desktop/devel/tee-tpm-hyp/optee_os/lib/libmbedtls/mbedtls/library/bignum.c:1028 (discriminator 3)
    2ee8:	f858 7024 	ldr.w	r7, [r8, r4, lsl #2]
/home/hsk/Desktop/devel/tee-tpm-hyp/optee_os/lib/libmbedtls/mbedtls/library/bignum.c:1025 (discriminator 3)
    2eec:	3401      	adds	r4, #1
/home/hsk/Desktop/devel/tee-tpm-hyp/optee_os/lib/libmbedtls/mbedtls/library/bignum.c:1028 (discriminator 3)
    2eee:	42bd      	cmp	r5, r7
    2ef0:	eba5 0507 	sub.w	r5, r5, r7
    2ef4:	bf38      	it	cc
    2ef6:	2101      	movcc	r1, #1
    2ef8:	bf28      	it	cs
    2efa:	2100      	movcs	r1, #0
    2efc:	459c      	cmp	ip, r3
    2efe:	468e      	mov	lr, r1
    2f00:	bf38      	it	cc
    2f02:	3101      	addcc	r1, #1
    2f04:	6035      	str	r5, [r6, #0]
    2f06:	460b      	mov	r3, r1
    2f08:	e7e2      	b.n	2ed0 <mpi_sub_hlp+0xc>
/home/hsk/Desktop/devel/tee-tpm-hyp/optee_os/lib/libmbedtls/mbedtls/library/bignum.c:1033
    2f0a:	6811      	ldr	r1, [r2, #0]
/home/hsk/Desktop/devel/tee-tpm-hyp/optee_os/lib/libmbedtls/mbedtls/library/bignum.c:1034
    2f0c:	4299      	cmp	r1, r3
/home/hsk/Desktop/devel/tee-tpm-hyp/optee_os/lib/libmbedtls/mbedtls/library/bignum.c:1033
    2f0e:	eba1 0003 	sub.w	r0, r1, r3
/home/hsk/Desktop/devel/tee-tpm-hyp/optee_os/lib/libmbedtls/mbedtls/library/bignum.c:1034
    2f12:	bf28      	it	cs
    2f14:	2300      	movcs	r3, #0
/home/hsk/Desktop/devel/tee-tpm-hyp/optee_os/lib/libmbedtls/mbedtls/library/bignum.c:1033
    2f16:	f842 0b04 	str.w	r0, [r2], #4
/home/hsk/Desktop/devel/tee-tpm-hyp/optee_os/lib/libmbedtls/mbedtls/library/bignum.c:1034
    2f1a:	bf38      	it	cc
    2f1c:	2301      	movcc	r3, #1
    2f1e:	e7db      	b.n	2ed8 <mpi_sub_hlp+0x14>

00002f20 <mpi_mul_hlp>:
mpi_mul_hlp():
/home/hsk/Desktop/devel/tee-tpm-hyp/optee_os/lib/libmbedtls/mbedtls/library/bignum.c:1187
    2f20:	e92d 4ff0 	stmdb	sp!, {r4, r5, r6, r7, r8, r9, sl, fp, lr}
/home/hsk/Desktop/devel/tee-tpm-hyp/optee_os/lib/libmbedtls/mbedtls/library/bignum.c:1205
    2f24:	4684      	mov	ip, r0
    2f26:	460d      	mov	r5, r1
    2f28:	f102 0440 	add.w	r4, r2, #64	; 0x40
/home/hsk/Desktop/devel/tee-tpm-hyp/optee_os/lib/libmbedtls/mbedtls/library/bignum.c:1188
    2f2c:	f04f 0e00 	mov.w	lr, #0
    2f30:	f854 8c40 	ldr.w	r8, [r4, #-64]
    2f34:	3540      	adds	r5, #64	; 0x40
    2f36:	3440      	adds	r4, #64	; 0x40
/home/hsk/Desktop/devel/tee-tpm-hyp/optee_os/lib/libmbedtls/mbedtls/library/bignum.c:1205 (discriminator 1)
    2f38:	f1bc 0f0f 	cmp.w	ip, #15
    2f3c:	f200 80b7 	bhi.w	30ae <mpi_mul_hlp+0x18e>
    2f40:	ea4f 1c10 	mov.w	ip, r0, lsr #4
    2f44:	f06f 040f 	mvn.w	r4, #15
    2f48:	fb04 000c 	mla	r0, r4, ip, r0
    2f4c:	ea4f 1c8c 	mov.w	ip, ip, lsl #6
    2f50:	eb01 050c 	add.w	r5, r1, ip
    2f54:	eb02 040c 	add.w	r4, r2, ip
/home/hsk/Desktop/devel/tee-tpm-hyp/optee_os/lib/libmbedtls/mbedtls/library/bignum.c:1220
    2f58:	2807      	cmp	r0, #7
    2f5a:	f240 8090 	bls.w	307e <mpi_mul_hlp+0x15e>
/home/hsk/Desktop/devel/tee-tpm-hyp/optee_os/lib/libmbedtls/mbedtls/library/bignum.c:1223
    2f5e:	f851 600c 	ldr.w	r6, [r1, ip]
    2f62:	fba3 9a06 	umull	r9, sl, r3, r6
    2f66:	2601      	movs	r6, #1
    2f68:	eb1e 0e09 	adds.w	lr, lr, r9
    2f6c:	bf38      	it	cc
    2f6e:	2600      	movcc	r6, #0
    2f70:	eb18 010e 	adds.w	r1, r8, lr
    2f74:	f842 100c 	str.w	r1, [r2, ip]
    2f78:	eb06 090a 	add.w	r9, r6, sl
    2f7c:	f04f 0201 	mov.w	r2, #1
    2f80:	bf38      	it	cc
    2f82:	2200      	movcc	r2, #0
    2f84:	686e      	ldr	r6, [r5, #4]
    2f86:	444a      	add	r2, r9
    2f88:	2101      	movs	r1, #1
    2f8a:	fba3 6706 	umull	r6, r7, r3, r6
    2f8e:	1992      	adds	r2, r2, r6
    2f90:	6866      	ldr	r6, [r4, #4]
    2f92:	bf38      	it	cc
    2f94:	2100      	movcc	r1, #0
    2f96:	1992      	adds	r2, r2, r6
    2f98:	6062      	str	r2, [r4, #4]
    2f9a:	eb01 0c07 	add.w	ip, r1, r7
    2f9e:	f04f 0100 	mov.w	r1, #0
/home/hsk/Desktop/devel/tee-tpm-hyp/optee_os/lib/libmbedtls/mbedtls/library/bignum.c:1224
    2fa2:	68ae      	ldr	r6, [r5, #8]
    2fa4:	bf28      	it	cs
    2fa6:	2101      	movcs	r1, #1
/home/hsk/Desktop/devel/tee-tpm-hyp/optee_os/lib/libmbedtls/mbedtls/library/bignum.c:1223
    2fa8:	4461      	add	r1, ip
/home/hsk/Desktop/devel/tee-tpm-hyp/optee_os/lib/libmbedtls/mbedtls/library/bignum.c:1224
    2faa:	2201      	movs	r2, #1
    2fac:	fba3 6706 	umull	r6, r7, r3, r6
    2fb0:	1989      	adds	r1, r1, r6
    2fb2:	68a6      	ldr	r6, [r4, #8]
    2fb4:	bf38      	it	cc
    2fb6:	2200      	movcc	r2, #0
    2fb8:	1989      	adds	r1, r1, r6
    2fba:	60a1      	str	r1, [r4, #8]
    2fbc:	eb02 0c07 	add.w	ip, r2, r7
    2fc0:	f04f 0200 	mov.w	r2, #0
    2fc4:	68ee      	ldr	r6, [r5, #12]
    2fc6:	bf28      	it	cs
    2fc8:	2201      	movcs	r2, #1
    2fca:	4462      	add	r2, ip
    2fcc:	2101      	movs	r1, #1
    2fce:	fba3 6706 	umull	r6, r7, r3, r6
    2fd2:	1992      	adds	r2, r2, r6
    2fd4:	68e6      	ldr	r6, [r4, #12]
    2fd6:	bf38      	it	cc
    2fd8:	2100      	movcc	r1, #0
    2fda:	1992      	adds	r2, r2, r6
    2fdc:	60e2      	str	r2, [r4, #12]
    2fde:	eb01 0c07 	add.w	ip, r1, r7
    2fe2:	f04f 0100 	mov.w	r1, #0
/home/hsk/Desktop/devel/tee-tpm-hyp/optee_os/lib/libmbedtls/mbedtls/library/bignum.c:1226
    2fe6:	692e      	ldr	r6, [r5, #16]
    2fe8:	bf28      	it	cs
    2fea:	2101      	movcs	r1, #1
/home/hsk/Desktop/devel/tee-tpm-hyp/optee_os/lib/libmbedtls/mbedtls/library/bignum.c:1224
    2fec:	4461      	add	r1, ip
/home/hsk/Desktop/devel/tee-tpm-hyp/optee_os/lib/libmbedtls/mbedtls/library/bignum.c:1226
    2fee:	2201      	movs	r2, #1
    2ff0:	fba3 6706 	umull	r6, r7, r3, r6
    2ff4:	1989      	adds	r1, r1, r6
    2ff6:	6926      	ldr	r6, [r4, #16]
    2ff8:	bf38      	it	cc
    2ffa:	2200      	movcc	r2, #0
    2ffc:	1989      	adds	r1, r1, r6
    2ffe:	6121      	str	r1, [r4, #16]
    3000:	eb02 0c07 	add.w	ip, r2, r7
    3004:	f04f 0200 	mov.w	r2, #0
    3008:	696e      	ldr	r6, [r5, #20]
    300a:	bf28      	it	cs
    300c:	2201      	movcs	r2, #1
    300e:	4462      	add	r2, ip
    3010:	2101      	movs	r1, #1
    3012:	fba3 6706 	umull	r6, r7, r3, r6
    3016:	1992      	adds	r2, r2, r6
    3018:	6966      	ldr	r6, [r4, #20]
    301a:	bf38      	it	cc
    301c:	2100      	movcc	r1, #0
    301e:	1992      	adds	r2, r2, r6
    3020:	6162      	str	r2, [r4, #20]
    3022:	eb01 0c07 	add.w	ip, r1, r7
    3026:	f04f 0100 	mov.w	r1, #0
/home/hsk/Desktop/devel/tee-tpm-hyp/optee_os/lib/libmbedtls/mbedtls/library/bignum.c:1227
    302a:	69ae      	ldr	r6, [r5, #24]
    302c:	bf28      	it	cs
    302e:	2101      	movcs	r1, #1
/home/hsk/Desktop/devel/tee-tpm-hyp/optee_os/lib/libmbedtls/mbedtls/library/bignum.c:1226
    3030:	4461      	add	r1, ip
/home/hsk/Desktop/devel/tee-tpm-hyp/optee_os/lib/libmbedtls/mbedtls/library/bignum.c:1227
    3032:	2201      	movs	r2, #1
    3034:	f105 0c20 	add.w	ip, r5, #32
    3038:	fba3 6706 	umull	r6, r7, r3, r6
    303c:	1989      	adds	r1, r1, r6
    303e:	69a6      	ldr	r6, [r4, #24]
    3040:	bf38      	it	cc
    3042:	2200      	movcc	r2, #0
    3044:	1989      	adds	r1, r1, r6
    3046:	61a1      	str	r1, [r4, #24]
    3048:	eb02 0e07 	add.w	lr, r2, r7
    304c:	f04f 0200 	mov.w	r2, #0
    3050:	69ee      	ldr	r6, [r5, #28]
    3052:	bf28      	it	cs
    3054:	2201      	movcs	r2, #1
    3056:	4472      	add	r2, lr
    3058:	69e5      	ldr	r5, [r4, #28]
    305a:	2101      	movs	r1, #1
    305c:	f04f 0e00 	mov.w	lr, #0
    3060:	fba3 6706 	umull	r6, r7, r3, r6
    3064:	1992      	adds	r2, r2, r6
    3066:	bf38      	it	cc
    3068:	2100      	movcc	r1, #0
    306a:	1952      	adds	r2, r2, r5
    306c:	4439      	add	r1, r7
    306e:	d301      	bcc.n	3074 <mpi_mul_hlp+0x154>
    3070:	f04f 0e01 	mov.w	lr, #1
    3074:	61e2      	str	r2, [r4, #28]
    3076:	448e      	add	lr, r1
/home/hsk/Desktop/devel/tee-tpm-hyp/optee_os/lib/libmbedtls/mbedtls/library/bignum.c:1220
    3078:	3808      	subs	r0, #8
/home/hsk/Desktop/devel/tee-tpm-hyp/optee_os/lib/libmbedtls/mbedtls/library/bignum.c:1227
    307a:	3420      	adds	r4, #32
    307c:	4665      	mov	r5, ip
    307e:	0080      	lsls	r0, r0, #2
/home/hsk/Desktop/devel/tee-tpm-hyp/optee_os/lib/libmbedtls/mbedtls/library/bignum.c:1227 (discriminator 1)
    3080:	4621      	mov	r1, r4
    3082:	eb05 0c00 	add.w	ip, r5, r0
    3086:	f851 2b04 	ldr.w	r2, [r1], #4
/home/hsk/Desktop/devel/tee-tpm-hyp/optee_os/lib/libmbedtls/mbedtls/library/bignum.c:1231 (discriminator 1)
    308a:	4565      	cmp	r5, ip
    308c:	f040 8180 	bne.w	3390 <mpi_mul_hlp+0x470>
    3090:	4404      	add	r4, r0
    3092:	6823      	ldr	r3, [r4, #0]
    3094:	2200      	movs	r2, #0
    3096:	eb13 030e 	adds.w	r3, r3, lr
/home/hsk/Desktop/devel/tee-tpm-hyp/optee_os/lib/libmbedtls/mbedtls/library/bignum.c:1242 (discriminator 1)
    309a:	f04f 0e01 	mov.w	lr, #1
    309e:	bf28      	it	cs
    30a0:	2201      	movcs	r2, #1
    30a2:	f844 3b04 	str.w	r3, [r4], #4
/home/hsk/Desktop/devel/tee-tpm-hyp/optee_os/lib/libmbedtls/mbedtls/library/bignum.c:1244 (discriminator 1)
    30a6:	2a00      	cmp	r2, #0
    30a8:	d1f3      	bne.n	3092 <mpi_mul_hlp+0x172>
/home/hsk/Desktop/devel/tee-tpm-hyp/optee_os/lib/libmbedtls/mbedtls/library/bignum.c:1245
    30aa:	e8bd 8ff0 	ldmia.w	sp!, {r4, r5, r6, r7, r8, r9, sl, fp, pc}
/home/hsk/Desktop/devel/tee-tpm-hyp/optee_os/lib/libmbedtls/mbedtls/library/bignum.c:1208 (discriminator 2)
    30ae:	f855 6c40 	ldr.w	r6, [r5, #-64]
    30b2:	fba3 9a06 	umull	r9, sl, r3, r6
    30b6:	2601      	movs	r6, #1
    30b8:	eb1e 0e09 	adds.w	lr, lr, r9
    30bc:	bf38      	it	cc
    30be:	2600      	movcc	r6, #0
    30c0:	eb06 090a 	add.w	r9, r6, sl
    30c4:	eb1e 0608 	adds.w	r6, lr, r8
    30c8:	f844 6c80 	str.w	r6, [r4, #-128]
    30cc:	f04f 0e00 	mov.w	lr, #0
    30d0:	f855 6c3c 	ldr.w	r6, [r5, #-60]
    30d4:	fba3 ab06 	umull	sl, fp, r3, r6
    30d8:	f04f 0601 	mov.w	r6, #1
    30dc:	bf38      	it	cc
    30de:	2600      	movcc	r6, #0
    30e0:	46b0      	mov	r8, r6
    30e2:	2601      	movs	r6, #1
    30e4:	44c8      	add	r8, r9
    30e6:	eb18 080a 	adds.w	r8, r8, sl
    30ea:	bf38      	it	cc
    30ec:	2600      	movcc	r6, #0
    30ee:	eb06 090b 	add.w	r9, r6, fp
    30f2:	f854 6c7c 	ldr.w	r6, [r4, #-124]
    30f6:	eb16 0608 	adds.w	r6, r6, r8
    30fa:	d301      	bcc.n	3100 <mpi_mul_hlp+0x1e0>
    30fc:	f04f 0e01 	mov.w	lr, #1
    3100:	f844 6c7c 	str.w	r6, [r4, #-124]
    3104:	44ce      	add	lr, r9
/home/hsk/Desktop/devel/tee-tpm-hyp/optee_os/lib/libmbedtls/mbedtls/library/bignum.c:1209 (discriminator 2)
    3106:	f855 6c38 	ldr.w	r6, [r5, #-56]
    310a:	fba3 7806 	umull	r7, r8, r3, r6
    310e:	2601      	movs	r6, #1
    3110:	eb1e 0e07 	adds.w	lr, lr, r7
    3114:	f854 7c78 	ldr.w	r7, [r4, #-120]
    3118:	bf38      	it	cc
    311a:	2600      	movcc	r6, #0
    311c:	eb06 0908 	add.w	r9, r6, r8
    3120:	eb17 070e 	adds.w	r7, r7, lr
    3124:	f04f 0800 	mov.w	r8, #0
    3128:	d301      	bcc.n	312e <mpi_mul_hlp+0x20e>
    312a:	f04f 0801 	mov.w	r8, #1
    312e:	f844 7c78 	str.w	r7, [r4, #-120]
    3132:	44c8      	add	r8, r9
    3134:	f04f 0e00 	mov.w	lr, #0
    3138:	f855 6c34 	ldr.w	r6, [r5, #-52]
    313c:	fba3 ab06 	umull	sl, fp, r3, r6
    3140:	2601      	movs	r6, #1
    3142:	eb18 080a 	adds.w	r8, r8, sl
    3146:	bf38      	it	cc
    3148:	2600      	movcc	r6, #0
    314a:	eb06 090b 	add.w	r9, r6, fp
    314e:	f854 6c74 	ldr.w	r6, [r4, #-116]
    3152:	eb16 0608 	adds.w	r6, r6, r8
    3156:	d301      	bcc.n	315c <mpi_mul_hlp+0x23c>
    3158:	f04f 0e01 	mov.w	lr, #1
    315c:	f844 6c74 	str.w	r6, [r4, #-116]
    3160:	44ce      	add	lr, r9
/home/hsk/Desktop/devel/tee-tpm-hyp/optee_os/lib/libmbedtls/mbedtls/library/bignum.c:1210 (discriminator 2)
    3162:	f855 6c30 	ldr.w	r6, [r5, #-48]
    3166:	fba3 7806 	umull	r7, r8, r3, r6
    316a:	2601      	movs	r6, #1
    316c:	eb1e 0e07 	adds.w	lr, lr, r7
    3170:	f854 7c70 	ldr.w	r7, [r4, #-112]
    3174:	bf38      	it	cc
    3176:	2600      	movcc	r6, #0
    3178:	eb06 0908 	add.w	r9, r6, r8
    317c:	eb17 070e 	adds.w	r7, r7, lr
    3180:	f04f 0800 	mov.w	r8, #0
    3184:	d301      	bcc.n	318a <mpi_mul_hlp+0x26a>
    3186:	f04f 0801 	mov.w	r8, #1
    318a:	f844 7c70 	str.w	r7, [r4, #-112]
    318e:	44c8      	add	r8, r9
    3190:	f04f 0e00 	mov.w	lr, #0
    3194:	f855 6c2c 	ldr.w	r6, [r5, #-44]
    3198:	fba3 ab06 	umull	sl, fp, r3, r6
    319c:	2601      	movs	r6, #1
    319e:	eb18 080a 	adds.w	r8, r8, sl
    31a2:	bf38      	it	cc
    31a4:	2600      	movcc	r6, #0
    31a6:	eb06 090b 	add.w	r9, r6, fp
    31aa:	f854 6c6c 	ldr.w	r6, [r4, #-108]
    31ae:	eb16 0608 	adds.w	r6, r6, r8
    31b2:	d301      	bcc.n	31b8 <mpi_mul_hlp+0x298>
    31b4:	f04f 0e01 	mov.w	lr, #1
    31b8:	f844 6c6c 	str.w	r6, [r4, #-108]
    31bc:	44ce      	add	lr, r9
/home/hsk/Desktop/devel/tee-tpm-hyp/optee_os/lib/libmbedtls/mbedtls/library/bignum.c:1211 (discriminator 2)
    31be:	f855 6c28 	ldr.w	r6, [r5, #-40]
    31c2:	fba3 7806 	umull	r7, r8, r3, r6
    31c6:	2601      	movs	r6, #1
    31c8:	eb1e 0e07 	adds.w	lr, lr, r7
    31cc:	f854 7c68 	ldr.w	r7, [r4, #-104]
    31d0:	bf38      	it	cc
    31d2:	2600      	movcc	r6, #0
    31d4:	eb06 0908 	add.w	r9, r6, r8
    31d8:	eb17 070e 	adds.w	r7, r7, lr
    31dc:	f04f 0800 	mov.w	r8, #0
    31e0:	d301      	bcc.n	31e6 <mpi_mul_hlp+0x2c6>
    31e2:	f04f 0801 	mov.w	r8, #1
    31e6:	f844 7c68 	str.w	r7, [r4, #-104]
    31ea:	44c8      	add	r8, r9
    31ec:	f04f 0e00 	mov.w	lr, #0
    31f0:	f855 6c24 	ldr.w	r6, [r5, #-36]
    31f4:	fba3 ab06 	umull	sl, fp, r3, r6
    31f8:	2601      	movs	r6, #1
    31fa:	eb18 080a 	adds.w	r8, r8, sl
    31fe:	bf38      	it	cc
    3200:	2600      	movcc	r6, #0
    3202:	eb06 090b 	add.w	r9, r6, fp
    3206:	f854 6c64 	ldr.w	r6, [r4, #-100]
    320a:	eb16 0608 	adds.w	r6, r6, r8
    320e:	d301      	bcc.n	3214 <mpi_mul_hlp+0x2f4>
    3210:	f04f 0e01 	mov.w	lr, #1
    3214:	f844 6c64 	str.w	r6, [r4, #-100]
    3218:	44ce      	add	lr, r9
/home/hsk/Desktop/devel/tee-tpm-hyp/optee_os/lib/libmbedtls/mbedtls/library/bignum.c:1213 (discriminator 2)
    321a:	f855 6c20 	ldr.w	r6, [r5, #-32]
    321e:	fba3 7806 	umull	r7, r8, r3, r6
    3222:	2601      	movs	r6, #1
    3224:	eb1e 0e07 	adds.w	lr, lr, r7
    3228:	f854 7c60 	ldr.w	r7, [r4, #-96]
    322c:	bf38      	it	cc
    322e:	2600      	movcc	r6, #0
    3230:	eb06 0908 	add.w	r9, r6, r8
    3234:	eb17 070e 	adds.w	r7, r7, lr
    3238:	f04f 0800 	mov.w	r8, #0
    323c:	d301      	bcc.n	3242 <mpi_mul_hlp+0x322>
    323e:	f04f 0801 	mov.w	r8, #1
    3242:	f844 7c60 	str.w	r7, [r4, #-96]
    3246:	44c8      	add	r8, r9
    3248:	f04f 0e00 	mov.w	lr, #0
    324c:	f855 6c1c 	ldr.w	r6, [r5, #-28]
    3250:	fba3 ab06 	umull	sl, fp, r3, r6
    3254:	2601      	movs	r6, #1
    3256:	eb18 080a 	adds.w	r8, r8, sl
    325a:	bf38      	it	cc
    325c:	2600      	movcc	r6, #0
    325e:	eb06 090b 	add.w	r9, r6, fp
    3262:	f854 6c5c 	ldr.w	r6, [r4, #-92]
    3266:	eb16 0608 	adds.w	r6, r6, r8
    326a:	d301      	bcc.n	3270 <mpi_mul_hlp+0x350>
    326c:	f04f 0e01 	mov.w	lr, #1
    3270:	f844 6c5c 	str.w	r6, [r4, #-92]
    3274:	44ce      	add	lr, r9
/home/hsk/Desktop/devel/tee-tpm-hyp/optee_os/lib/libmbedtls/mbedtls/library/bignum.c:1214 (discriminator 2)
    3276:	f855 6c18 	ldr.w	r6, [r5, #-24]
    327a:	fba3 7806 	umull	r7, r8, r3, r6
    327e:	2601      	movs	r6, #1
    3280:	eb1e 0e07 	adds.w	lr, lr, r7
    3284:	f854 7c58 	ldr.w	r7, [r4, #-88]
    3288:	bf38      	it	cc
    328a:	2600      	movcc	r6, #0
    328c:	eb06 0908 	add.w	r9, r6, r8
    3290:	eb17 070e 	adds.w	r7, r7, lr
    3294:	f04f 0800 	mov.w	r8, #0
    3298:	d301      	bcc.n	329e <mpi_mul_hlp+0x37e>
    329a:	f04f 0801 	mov.w	r8, #1
    329e:	f844 7c58 	str.w	r7, [r4, #-88]
    32a2:	44c8      	add	r8, r9
    32a4:	f04f 0e00 	mov.w	lr, #0
    32a8:	f855 6c14 	ldr.w	r6, [r5, #-20]
    32ac:	fba3 ab06 	umull	sl, fp, r3, r6
    32b0:	2601      	movs	r6, #1
    32b2:	eb18 080a 	adds.w	r8, r8, sl
    32b6:	bf38      	it	cc
    32b8:	2600      	movcc	r6, #0
    32ba:	eb06 090b 	add.w	r9, r6, fp
    32be:	f854 6c54 	ldr.w	r6, [r4, #-84]
    32c2:	eb16 0608 	adds.w	r6, r6, r8
    32c6:	d301      	bcc.n	32cc <mpi_mul_hlp+0x3ac>
    32c8:	f04f 0e01 	mov.w	lr, #1
    32cc:	f844 6c54 	str.w	r6, [r4, #-84]
    32d0:	44ce      	add	lr, r9
/home/hsk/Desktop/devel/tee-tpm-hyp/optee_os/lib/libmbedtls/mbedtls/library/bignum.c:1215 (discriminator 2)
    32d2:	f855 6c10 	ldr.w	r6, [r5, #-16]
    32d6:	fba3 7806 	umull	r7, r8, r3, r6
    32da:	2601      	movs	r6, #1
    32dc:	eb1e 0e07 	adds.w	lr, lr, r7
    32e0:	f854 7c50 	ldr.w	r7, [r4, #-80]
    32e4:	bf38      	it	cc
    32e6:	2600      	movcc	r6, #0
    32e8:	eb06 0908 	add.w	r9, r6, r8
    32ec:	eb17 070e 	adds.w	r7, r7, lr
    32f0:	f04f 0800 	mov.w	r8, #0
    32f4:	d301      	bcc.n	32fa <mpi_mul_hlp+0x3da>
    32f6:	f04f 0801 	mov.w	r8, #1
    32fa:	f844 7c50 	str.w	r7, [r4, #-80]
    32fe:	44c8      	add	r8, r9
    3300:	f04f 0e00 	mov.w	lr, #0
    3304:	f855 6c0c 	ldr.w	r6, [r5, #-12]
    3308:	fba3 ab06 	umull	sl, fp, r3, r6
    330c:	2601      	movs	r6, #1
    330e:	eb18 080a 	adds.w	r8, r8, sl
    3312:	bf38      	it	cc
    3314:	2600      	movcc	r6, #0
    3316:	eb06 090b 	add.w	r9, r6, fp
    331a:	f854 6c4c 	ldr.w	r6, [r4, #-76]
    331e:	eb16 0608 	adds.w	r6, r6, r8
    3322:	d301      	bcc.n	3328 <mpi_mul_hlp+0x408>
    3324:	f04f 0e01 	mov.w	lr, #1
    3328:	f844 6c4c 	str.w	r6, [r4, #-76]
    332c:	44ce      	add	lr, r9
/home/hsk/Desktop/devel/tee-tpm-hyp/optee_os/lib/libmbedtls/mbedtls/library/bignum.c:1216 (discriminator 2)
    332e:	f855 6c08 	ldr.w	r6, [r5, #-8]
    3332:	fba3 7806 	umull	r7, r8, r3, r6
    3336:	2601      	movs	r6, #1
    3338:	eb1e 0e07 	adds.w	lr, lr, r7
    333c:	f854 7c48 	ldr.w	r7, [r4, #-72]
    3340:	bf38      	it	cc
    3342:	2600      	movcc	r6, #0
    3344:	eb06 0908 	add.w	r9, r6, r8
    3348:	eb17 070e 	adds.w	r7, r7, lr
    334c:	f04f 0800 	mov.w	r8, #0
    3350:	d301      	bcc.n	3356 <mpi_mul_hlp+0x436>
    3352:	f04f 0801 	mov.w	r8, #1
    3356:	f844 7c48 	str.w	r7, [r4, #-72]
    335a:	44c8      	add	r8, r9
    335c:	f04f 0e00 	mov.w	lr, #0
    3360:	f855 6c04 	ldr.w	r6, [r5, #-4]
    3364:	fba3 ab06 	umull	sl, fp, r3, r6
    3368:	2601      	movs	r6, #1
    336a:	eb18 080a 	adds.w	r8, r8, sl
    336e:	bf38      	it	cc
    3370:	2600      	movcc	r6, #0
    3372:	eb0b 0706 	add.w	r7, fp, r6
    3376:	f854 6c44 	ldr.w	r6, [r4, #-68]
    337a:	eb16 0608 	adds.w	r6, r6, r8
    337e:	d301      	bcc.n	3384 <mpi_mul_hlp+0x464>
    3380:	f04f 0e01 	mov.w	lr, #1
    3384:	f844 6c44 	str.w	r6, [r4, #-68]
/home/hsk/Desktop/devel/tee-tpm-hyp/optee_os/lib/libmbedtls/mbedtls/library/bignum.c:1205 (discriminator 2)
    3388:	f1ac 0c10 	sub.w	ip, ip, #16
/home/hsk/Desktop/devel/tee-tpm-hyp/optee_os/lib/libmbedtls/mbedtls/library/bignum.c:1216 (discriminator 2)
    338c:	44be      	add	lr, r7
    338e:	e5cf      	b.n	2f30 <mpi_mul_hlp+0x10>
/home/hsk/Desktop/devel/tee-tpm-hyp/optee_os/lib/libmbedtls/mbedtls/library/bignum.c:1234 (discriminator 2)
    3390:	f855 6b04 	ldr.w	r6, [r5], #4
    3394:	fba3 7806 	umull	r7, r8, r3, r6
    3398:	2601      	movs	r6, #1
    339a:	eb1e 0e07 	adds.w	lr, lr, r7
    339e:	bf38      	it	cc
    33a0:	2600      	movcc	r6, #0
    33a2:	eb1e 0202 	adds.w	r2, lr, r2
    33a6:	4446      	add	r6, r8
    33a8:	f841 2c04 	str.w	r2, [r1, #-4]
    33ac:	f04f 0201 	mov.w	r2, #1
    33b0:	bf38      	it	cc
    33b2:	2200      	movcc	r2, #0
    33b4:	eb02 0e06 	add.w	lr, r2, r6
    33b8:	e665      	b.n	3086 <mpi_mul_hlp+0x166>

000033ba <mbedtls_mpi_mod_int.part.3>:
mbedtls_mpi_mod_int():
/home/hsk/Desktop/devel/tee-tpm-hyp/optee_os/lib/libmbedtls/mbedtls/library/bignum.c:1554
    33ba:	b5f0      	push	{r4, r5, r6, r7, lr}
/home/hsk/Desktop/devel/tee-tpm-hyp/optee_os/lib/libmbedtls/mbedtls/library/bignum.c:1583
    33bc:	2300      	movs	r3, #0
    33be:	888f      	ldrh	r7, [r1, #4]
    33c0:	f107 4480 	add.w	r4, r7, #1073741824	; 0x40000000
    33c4:	3c01      	subs	r4, #1
    33c6:	00a4      	lsls	r4, r4, #2
    33c8:	b947      	cbnz	r7, 33dc <mbedtls_mpi_mod_int.part.3+0x22>
/home/hsk/Desktop/devel/tee-tpm-hyp/optee_os/lib/libmbedtls/mbedtls/library/bignum.c:1600
    33ca:	f991 1000 	ldrsb.w	r1, [r1]
    33ce:	2900      	cmp	r1, #0
    33d0:	da01      	bge.n	33d6 <mbedtls_mpi_mod_int.part.3+0x1c>
    33d2:	b103      	cbz	r3, 33d6 <mbedtls_mpi_mod_int.part.3+0x1c>
/home/hsk/Desktop/devel/tee-tpm-hyp/optee_os/lib/libmbedtls/mbedtls/library/bignum.c:1601
    33d4:	1ad3      	subs	r3, r2, r3
/home/hsk/Desktop/devel/tee-tpm-hyp/optee_os/lib/libmbedtls/mbedtls/library/bignum.c:1603
    33d6:	6003      	str	r3, [r0, #0]
/home/hsk/Desktop/devel/tee-tpm-hyp/optee_os/lib/libmbedtls/mbedtls/library/bignum.c:1606
    33d8:	2000      	movs	r0, #0
    33da:	bdf0      	pop	{r4, r5, r6, r7, pc}
/home/hsk/Desktop/devel/tee-tpm-hyp/optee_os/lib/libmbedtls/mbedtls/library/bignum.c:1585
    33dc:	688d      	ldr	r5, [r1, #8]
/home/hsk/Desktop/devel/tee-tpm-hyp/optee_os/lib/libmbedtls/mbedtls/library/bignum.c:1583
    33de:	3f01      	subs	r7, #1
/home/hsk/Desktop/devel/tee-tpm-hyp/optee_os/lib/libmbedtls/mbedtls/library/bignum.c:1585
    33e0:	592e      	ldr	r6, [r5, r4]
    33e2:	3c04      	subs	r4, #4
/home/hsk/Desktop/devel/tee-tpm-hyp/optee_os/lib/libmbedtls/mbedtls/library/bignum.c:1586
    33e4:	0c35      	lsrs	r5, r6, #16
    33e6:	ea45 4303 	orr.w	r3, r5, r3, lsl #16
/home/hsk/Desktop/devel/tee-tpm-hyp/optee_os/lib/libmbedtls/mbedtls/library/bignum.c:1591
    33ea:	fbb3 f5f2 	udiv	r5, r3, r2
    33ee:	fb02 3315 	mls	r3, r2, r5, r3
    33f2:	b2b5      	uxth	r5, r6
    33f4:	ea45 4503 	orr.w	r5, r5, r3, lsl #16
    33f8:	fbb5 f3f2 	udiv	r3, r5, r2
    33fc:	fb02 5313 	mls	r3, r2, r3, r5
    3400:	e7e2      	b.n	33c8 <mbedtls_mpi_mod_int.part.3+0xe>

00003402 <mbedtls_mpi_init>:
mpi_init():
/home/hsk/Desktop/devel/tee-tpm-hyp/optee_os/lib/libmbedtls/mbedtls/library/bignum.c:90
    3402:	b120      	cbz	r0, 340e <mbedtls_mpi_init+0xc>
/home/hsk/Desktop/devel/tee-tpm-hyp/optee_os/lib/libmbedtls/mbedtls/library/bignum.c:93
    3404:	2301      	movs	r3, #1
    3406:	6003      	str	r3, [r0, #0]
/home/hsk/Desktop/devel/tee-tpm-hyp/optee_os/lib/libmbedtls/mbedtls/library/bignum.c:95
    3408:	2300      	movs	r3, #0
    340a:	8083      	strh	r3, [r0, #4]
/home/hsk/Desktop/devel/tee-tpm-hyp/optee_os/lib/libmbedtls/mbedtls/library/bignum.c:97
    340c:	6083      	str	r3, [r0, #8]
mbedtls_mpi_init():
/home/hsk/Desktop/devel/tee-tpm-hyp/optee_os/lib/libmbedtls/mbedtls/library/bignum.c:103
    340e:	4770      	bx	lr

00003410 <mbedtls_mpi_init_mempool>:
mbedtls_mpi_init_mempool():
/home/hsk/Desktop/devel/tee-tpm-hyp/optee_os/lib/libmbedtls/mbedtls/library/bignum.c:107
    3410:	4a07      	ldr	r2, [pc, #28]	; (3430 <mbedtls_mpi_init_mempool+0x20>)
    3412:	447a      	add	r2, pc
    3414:	6812      	ldr	r2, [r2, #0]
    3416:	b13a      	cbz	r2, 3428 <mbedtls_mpi_init_mempool+0x18>
mpi_init():
/home/hsk/Desktop/devel/tee-tpm-hyp/optee_os/lib/libmbedtls/mbedtls/library/bignum.c:90
    3418:	b140      	cbz	r0, 342c <mbedtls_mpi_init_mempool+0x1c>
/home/hsk/Desktop/devel/tee-tpm-hyp/optee_os/lib/libmbedtls/mbedtls/library/bignum.c:93
    341a:	f240 1201 	movw	r2, #257	; 0x101
    341e:	6002      	str	r2, [r0, #0]
/home/hsk/Desktop/devel/tee-tpm-hyp/optee_os/lib/libmbedtls/mbedtls/library/bignum.c:95
    3420:	2200      	movs	r2, #0
    3422:	8082      	strh	r2, [r0, #4]
/home/hsk/Desktop/devel/tee-tpm-hyp/optee_os/lib/libmbedtls/mbedtls/library/bignum.c:97
    3424:	6082      	str	r2, [r0, #8]
    3426:	4770      	bx	lr
mbedtls_mpi_init_mempool():
/home/hsk/Desktop/devel/tee-tpm-hyp/optee_os/lib/libmbedtls/mbedtls/library/bignum.c:110
    3428:	f7ff bfeb 	b.w	3402 <mbedtls_mpi_init>
/home/hsk/Desktop/devel/tee-tpm-hyp/optee_os/lib/libmbedtls/mbedtls/library/bignum.c:111
    342c:	4770      	bx	lr
    342e:	bf00      	nop
    3430:	00007cae 	.word	0x00007cae

00003434 <mbedtls_mpi_init_static>:
mpi_init():
/home/hsk/Desktop/devel/tee-tpm-hyp/optee_os/lib/libmbedtls/mbedtls/library/bignum.c:90
    3434:	b130      	cbz	r0, 3444 <mbedtls_mpi_init_static+0x10>
/home/hsk/Desktop/devel/tee-tpm-hyp/optee_os/lib/libmbedtls/mbedtls/library/bignum.c:95
    3436:	8043      	strh	r3, [r0, #2]
/home/hsk/Desktop/devel/tee-tpm-hyp/optee_os/lib/libmbedtls/mbedtls/library/bignum.c:96
    3438:	9b00      	ldr	r3, [sp, #0]
/home/hsk/Desktop/devel/tee-tpm-hyp/optee_os/lib/libmbedtls/mbedtls/library/bignum.c:93
    343a:	7002      	strb	r2, [r0, #0]
/home/hsk/Desktop/devel/tee-tpm-hyp/optee_os/lib/libmbedtls/mbedtls/library/bignum.c:94
    343c:	2202      	movs	r2, #2
/home/hsk/Desktop/devel/tee-tpm-hyp/optee_os/lib/libmbedtls/mbedtls/library/bignum.c:96
    343e:	8083      	strh	r3, [r0, #4]
/home/hsk/Desktop/devel/tee-tpm-hyp/optee_os/lib/libmbedtls/mbedtls/library/bignum.c:94
    3440:	7042      	strb	r2, [r0, #1]
/home/hsk/Desktop/devel/tee-tpm-hyp/optee_os/lib/libmbedtls/mbedtls/library/bignum.c:97
    3442:	6081      	str	r1, [r0, #8]
mbedtls_mpi_init_static():
/home/hsk/Desktop/devel/tee-tpm-hyp/optee_os/lib/libmbedtls/mbedtls/library/bignum.c:117
    3444:	4770      	bx	lr

00003446 <mbedtls_mpi_free>:
mbedtls_mpi_free():
/home/hsk/Desktop/devel/tee-tpm-hyp/optee_os/lib/libmbedtls/mbedtls/library/bignum.c:123
    3446:	b538      	push	{r3, r4, r5, lr}
/home/hsk/Desktop/devel/tee-tpm-hyp/optee_os/lib/libmbedtls/mbedtls/library/bignum.c:124
    3448:	4604      	mov	r4, r0
    344a:	b178      	cbz	r0, 346c <mbedtls_mpi_free+0x26>
/home/hsk/Desktop/devel/tee-tpm-hyp/optee_os/lib/libmbedtls/mbedtls/library/bignum.c:127
    344c:	6881      	ldr	r1, [r0, #8]
    344e:	b149      	cbz	r1, 3464 <mbedtls_mpi_free+0x1e>
/home/hsk/Desktop/devel/tee-tpm-hyp/optee_os/lib/libmbedtls/mbedtls/library/bignum.c:129
    3450:	8883      	ldrh	r3, [r0, #4]
    3452:	460a      	mov	r2, r1
mbedtls_mpi_zeroize():
/home/hsk/Desktop/devel/tee-tpm-hyp/optee_os/lib/libmbedtls/mbedtls/library/bignum.c:65
    3454:	2000      	movs	r0, #0
    3456:	f113 33ff 	adds.w	r3, r3, #4294967295	; 0xffffffff
    345a:	d208      	bcs.n	346e <mbedtls_mpi_free+0x28>
mbedtls_mpi_free():
/home/hsk/Desktop/devel/tee-tpm-hyp/optee_os/lib/libmbedtls/mbedtls/library/bignum.c:130
    345c:	7865      	ldrb	r5, [r4, #1]
    345e:	b14d      	cbz	r5, 3474 <mbedtls_mpi_free+0x2e>
    3460:	2d01      	cmp	r5, #1
    3462:	d00c      	beq.n	347e <mbedtls_mpi_free+0x38>
/home/hsk/Desktop/devel/tee-tpm-hyp/optee_os/lib/libmbedtls/mbedtls/library/bignum.c:144
    3464:	2301      	movs	r3, #1
    3466:	7023      	strb	r3, [r4, #0]
/home/hsk/Desktop/devel/tee-tpm-hyp/optee_os/lib/libmbedtls/mbedtls/library/bignum.c:145
    3468:	2300      	movs	r3, #0
    346a:	80a3      	strh	r3, [r4, #4]
/home/hsk/Desktop/devel/tee-tpm-hyp/optee_os/lib/libmbedtls/mbedtls/library/bignum.c:146
    346c:	bd38      	pop	{r3, r4, r5, pc}
mbedtls_mpi_zeroize():
/home/hsk/Desktop/devel/tee-tpm-hyp/optee_os/lib/libmbedtls/mbedtls/library/bignum.c:65
    346e:	6010      	str	r0, [r2, #0]
    3470:	3204      	adds	r2, #4
    3472:	e7f0      	b.n	3456 <mbedtls_mpi_free+0x10>
mbedtls_mpi_free():
/home/hsk/Desktop/devel/tee-tpm-hyp/optee_os/lib/libmbedtls/mbedtls/library/bignum.c:132
    3474:	4608      	mov	r0, r1
    3476:	f002 fc33 	bl	5ce0 <free>
/home/hsk/Desktop/devel/tee-tpm-hyp/optee_os/lib/libmbedtls/mbedtls/library/bignum.c:133
    347a:	60a5      	str	r5, [r4, #8]
/home/hsk/Desktop/devel/tee-tpm-hyp/optee_os/lib/libmbedtls/mbedtls/library/bignum.c:134
    347c:	e7f2      	b.n	3464 <mbedtls_mpi_free+0x1e>
/home/hsk/Desktop/devel/tee-tpm-hyp/optee_os/lib/libmbedtls/mbedtls/library/bignum.c:136
    347e:	4b04      	ldr	r3, [pc, #16]	; (3490 <mbedtls_mpi_free+0x4a>)
    3480:	447b      	add	r3, pc
    3482:	6818      	ldr	r0, [r3, #0]
    3484:	f002 ff56 	bl	6334 <mempool_free>
/home/hsk/Desktop/devel/tee-tpm-hyp/optee_os/lib/libmbedtls/mbedtls/library/bignum.c:137
    3488:	2300      	movs	r3, #0
    348a:	60a3      	str	r3, [r4, #8]
/home/hsk/Desktop/devel/tee-tpm-hyp/optee_os/lib/libmbedtls/mbedtls/library/bignum.c:138
    348c:	e7ea      	b.n	3464 <mbedtls_mpi_free+0x1e>
    348e:	bf00      	nop
    3490:	00007c40 	.word	0x00007c40

00003494 <mbedtls_mpi_grow>:
mbedtls_mpi_grow():
/home/hsk/Desktop/devel/tee-tpm-hyp/optee_os/lib/libmbedtls/mbedtls/library/bignum.c:152
    3494:	b570      	push	{r4, r5, r6, lr}
/home/hsk/Desktop/devel/tee-tpm-hyp/optee_os/lib/libmbedtls/mbedtls/library/bignum.c:155
    3496:	f242 7310 	movw	r3, #10000	; 0x2710
/home/hsk/Desktop/devel/tee-tpm-hyp/optee_os/lib/libmbedtls/mbedtls/library/bignum.c:152
    349a:	4604      	mov	r4, r0
    349c:	460d      	mov	r5, r1
/home/hsk/Desktop/devel/tee-tpm-hyp/optee_os/lib/libmbedtls/mbedtls/library/bignum.c:155
    349e:	4299      	cmp	r1, r3
    34a0:	d902      	bls.n	34a8 <mbedtls_mpi_grow+0x14>
/home/hsk/Desktop/devel/tee-tpm-hyp/optee_os/lib/libmbedtls/mbedtls/library/bignum.c:156
    34a2:	f06f 000f 	mvn.w	r0, #15
/home/hsk/Desktop/devel/tee-tpm-hyp/optee_os/lib/libmbedtls/mbedtls/library/bignum.c:196
    34a6:	bd70      	pop	{r4, r5, r6, pc}
/home/hsk/Desktop/devel/tee-tpm-hyp/optee_os/lib/libmbedtls/mbedtls/library/bignum.c:158
    34a8:	8883      	ldrh	r3, [r0, #4]
    34aa:	428b      	cmp	r3, r1
    34ac:	d22d      	bcs.n	350a <mbedtls_mpi_grow+0x76>
/home/hsk/Desktop/devel/tee-tpm-hyp/optee_os/lib/libmbedtls/mbedtls/library/bignum.c:161
    34ae:	7842      	ldrb	r2, [r0, #1]
    34b0:	2a01      	cmp	r2, #1
    34b2:	d017      	beq.n	34e4 <mbedtls_mpi_grow+0x50>
    34b4:	d304      	bcc.n	34c0 <mbedtls_mpi_grow+0x2c>
    34b6:	2a02      	cmp	r2, #2
    34b8:	d01b      	beq.n	34f2 <mbedtls_mpi_grow+0x5e>
/home/hsk/Desktop/devel/tee-tpm-hyp/optee_os/lib/libmbedtls/mbedtls/library/bignum.c:174
    34ba:	f06f 0003 	mvn.w	r0, #3
    34be:	e7f2      	b.n	34a6 <mbedtls_mpi_grow+0x12>
/home/hsk/Desktop/devel/tee-tpm-hyp/optee_os/lib/libmbedtls/mbedtls/library/bignum.c:163
    34c0:	2104      	movs	r1, #4
    34c2:	4628      	mov	r0, r5
    34c4:	f002 fc14 	bl	5cf0 <calloc>
/home/hsk/Desktop/devel/tee-tpm-hyp/optee_os/lib/libmbedtls/mbedtls/library/bignum.c:166
    34c8:	4606      	mov	r6, r0
/home/hsk/Desktop/devel/tee-tpm-hyp/optee_os/lib/libmbedtls/mbedtls/library/bignum.c:177
    34ca:	2800      	cmp	r0, #0
    34cc:	d0e9      	beq.n	34a2 <mbedtls_mpi_grow+0xe>
/home/hsk/Desktop/devel/tee-tpm-hyp/optee_os/lib/libmbedtls/mbedtls/library/bignum.c:180
    34ce:	68a1      	ldr	r1, [r4, #8]
    34d0:	b9e9      	cbnz	r1, 350e <mbedtls_mpi_grow+0x7a>
/home/hsk/Desktop/devel/tee-tpm-hyp/optee_os/lib/libmbedtls/mbedtls/library/bignum.c:186
    34d2:	7863      	ldrb	r3, [r4, #1]
    34d4:	68a1      	ldr	r1, [r4, #8]
    34d6:	b33b      	cbz	r3, 3528 <mbedtls_mpi_grow+0x94>
/home/hsk/Desktop/devel/tee-tpm-hyp/optee_os/lib/libmbedtls/mbedtls/library/bignum.c:189
    34d8:	4b16      	ldr	r3, [pc, #88]	; (3534 <mbedtls_mpi_grow+0xa0>)
    34da:	447b      	add	r3, pc
    34dc:	6818      	ldr	r0, [r3, #0]
    34de:	f002 ff29 	bl	6334 <mempool_free>
    34e2:	e024      	b.n	352e <mbedtls_mpi_grow+0x9a>
/home/hsk/Desktop/devel/tee-tpm-hyp/optee_os/lib/libmbedtls/mbedtls/library/bignum.c:166
    34e4:	4b14      	ldr	r3, [pc, #80]	; (3538 <mbedtls_mpi_grow+0xa4>)
    34e6:	2204      	movs	r2, #4
    34e8:	447b      	add	r3, pc
    34ea:	6818      	ldr	r0, [r3, #0]
    34ec:	f002 ff10 	bl	6310 <mempool_calloc>
    34f0:	e7ea      	b.n	34c8 <mbedtls_mpi_grow+0x34>
/home/hsk/Desktop/devel/tee-tpm-hyp/optee_os/lib/libmbedtls/mbedtls/library/bignum.c:169
    34f2:	8842      	ldrh	r2, [r0, #2]
    34f4:	428a      	cmp	r2, r1
    34f6:	d3d4      	bcc.n	34a2 <mbedtls_mpi_grow+0xe>
/home/hsk/Desktop/devel/tee-tpm-hyp/optee_os/lib/libmbedtls/mbedtls/library/bignum.c:171
    34f8:	6880      	ldr	r0, [r0, #8]
    34fa:	1aca      	subs	r2, r1, r3
    34fc:	2100      	movs	r1, #0
    34fe:	0092      	lsls	r2, r2, #2
    3500:	eb00 0083 	add.w	r0, r0, r3, lsl #2
    3504:	f003 f85f 	bl	65c6 <memset>
/home/hsk/Desktop/devel/tee-tpm-hyp/optee_os/lib/libmbedtls/mbedtls/library/bignum.c:193
    3508:	80a5      	strh	r5, [r4, #4]
/home/hsk/Desktop/devel/tee-tpm-hyp/optee_os/lib/libmbedtls/mbedtls/library/bignum.c:159
    350a:	2000      	movs	r0, #0
    350c:	e7cb      	b.n	34a6 <mbedtls_mpi_grow+0x12>
/home/hsk/Desktop/devel/tee-tpm-hyp/optee_os/lib/libmbedtls/mbedtls/library/bignum.c:181
    350e:	88a2      	ldrh	r2, [r4, #4]
    3510:	0092      	lsls	r2, r2, #2
    3512:	f003 f834 	bl	657e <memcpy>
/home/hsk/Desktop/devel/tee-tpm-hyp/optee_os/lib/libmbedtls/mbedtls/library/bignum.c:182
    3516:	68a2      	ldr	r2, [r4, #8]
    3518:	88a3      	ldrh	r3, [r4, #4]
mbedtls_mpi_zeroize():
/home/hsk/Desktop/devel/tee-tpm-hyp/optee_os/lib/libmbedtls/mbedtls/library/bignum.c:65
    351a:	2100      	movs	r1, #0
    351c:	f113 33ff 	adds.w	r3, r3, #4294967295	; 0xffffffff
    3520:	d3d7      	bcc.n	34d2 <mbedtls_mpi_grow+0x3e>
    3522:	6011      	str	r1, [r2, #0]
    3524:	3204      	adds	r2, #4
    3526:	e7f9      	b.n	351c <mbedtls_mpi_grow+0x88>
mbedtls_mpi_grow():
/home/hsk/Desktop/devel/tee-tpm-hyp/optee_os/lib/libmbedtls/mbedtls/library/bignum.c:187
    3528:	4608      	mov	r0, r1
    352a:	f002 fbd9 	bl	5ce0 <free>
/home/hsk/Desktop/devel/tee-tpm-hyp/optee_os/lib/libmbedtls/mbedtls/library/bignum.c:191
    352e:	60a6      	str	r6, [r4, #8]
    3530:	e7ea      	b.n	3508 <mbedtls_mpi_grow+0x74>
    3532:	bf00      	nop
    3534:	00007be6 	.word	0x00007be6
    3538:	00007bd8 	.word	0x00007bd8

0000353c <mbedtls_mpi_shrink>:
mbedtls_mpi_shrink():
/home/hsk/Desktop/devel/tee-tpm-hyp/optee_os/lib/libmbedtls/mbedtls/library/bignum.c:208
    353c:	8883      	ldrh	r3, [r0, #4]
/home/hsk/Desktop/devel/tee-tpm-hyp/optee_os/lib/libmbedtls/mbedtls/library/bignum.c:203
    353e:	b570      	push	{r4, r5, r6, lr}
    3540:	4604      	mov	r4, r0
    3542:	460e      	mov	r6, r1
/home/hsk/Desktop/devel/tee-tpm-hyp/optee_os/lib/libmbedtls/mbedtls/library/bignum.c:208
    3544:	428b      	cmp	r3, r1
    3546:	d803      	bhi.n	3550 <mbedtls_mpi_shrink+0x14>
/home/hsk/Desktop/devel/tee-tpm-hyp/optee_os/lib/libmbedtls/mbedtls/library/bignum.c:252
    3548:	e8bd 4070 	ldmia.w	sp!, {r4, r5, r6, lr}
/home/hsk/Desktop/devel/tee-tpm-hyp/optee_os/lib/libmbedtls/mbedtls/library/bignum.c:209
    354c:	f7ff bfa2 	b.w	3494 <mbedtls_mpi_grow>
/home/hsk/Desktop/devel/tee-tpm-hyp/optee_os/lib/libmbedtls/mbedtls/library/bignum.c:211
    3550:	1e5a      	subs	r2, r3, #1
    3552:	4619      	mov	r1, r3
    3554:	0092      	lsls	r2, r2, #2
    3556:	1e4d      	subs	r5, r1, #1
/home/hsk/Desktop/devel/tee-tpm-hyp/optee_os/lib/libmbedtls/mbedtls/library/bignum.c:211 (discriminator 1)
    3558:	2901      	cmp	r1, #1
    355a:	d101      	bne.n	3560 <mbedtls_mpi_shrink+0x24>
    355c:	2500      	movs	r5, #0
    355e:	e005      	b.n	356c <mbedtls_mpi_shrink+0x30>
/home/hsk/Desktop/devel/tee-tpm-hyp/optee_os/lib/libmbedtls/mbedtls/library/bignum.c:212
    3560:	68a1      	ldr	r1, [r4, #8]
    3562:	5888      	ldr	r0, [r1, r2]
    3564:	4629      	mov	r1, r5
    3566:	3a04      	subs	r2, #4
    3568:	2800      	cmp	r0, #0
    356a:	d0f4      	beq.n	3556 <mbedtls_mpi_shrink+0x1a>
/home/hsk/Desktop/devel/tee-tpm-hyp/optee_os/lib/libmbedtls/mbedtls/library/bignum.c:214
    356c:	3501      	adds	r5, #1
/home/hsk/Desktop/devel/tee-tpm-hyp/optee_os/lib/libmbedtls/mbedtls/library/bignum.c:219
    356e:	7862      	ldrb	r2, [r4, #1]
    3570:	42b5      	cmp	r5, r6
    3572:	bf38      	it	cc
    3574:	4635      	movcc	r5, r6
    3576:	2a01      	cmp	r2, #1
    3578:	d01d      	beq.n	35b6 <mbedtls_mpi_shrink+0x7a>
    357a:	d304      	bcc.n	3586 <mbedtls_mpi_shrink+0x4a>
    357c:	2a02      	cmp	r2, #2
    357e:	d022      	beq.n	35c6 <mbedtls_mpi_shrink+0x8a>
/home/hsk/Desktop/devel/tee-tpm-hyp/optee_os/lib/libmbedtls/mbedtls/library/bignum.c:233
    3580:	f06f 0003 	mvn.w	r0, #3
    3584:	e02c      	b.n	35e0 <mbedtls_mpi_shrink+0xa4>
/home/hsk/Desktop/devel/tee-tpm-hyp/optee_os/lib/libmbedtls/mbedtls/library/bignum.c:221
    3586:	2104      	movs	r1, #4
    3588:	4630      	mov	r0, r6
    358a:	f002 fbb1 	bl	5cf0 <calloc>
/home/hsk/Desktop/devel/tee-tpm-hyp/optee_os/lib/libmbedtls/mbedtls/library/bignum.c:237
    358e:	68a1      	ldr	r1, [r4, #8]
/home/hsk/Desktop/devel/tee-tpm-hyp/optee_os/lib/libmbedtls/mbedtls/library/bignum.c:224
    3590:	4606      	mov	r6, r0
/home/hsk/Desktop/devel/tee-tpm-hyp/optee_os/lib/libmbedtls/mbedtls/library/bignum.c:237
    3592:	b171      	cbz	r1, 35b2 <mbedtls_mpi_shrink+0x76>
/home/hsk/Desktop/devel/tee-tpm-hyp/optee_os/lib/libmbedtls/mbedtls/library/bignum.c:239
    3594:	00aa      	lsls	r2, r5, #2
    3596:	f002 fff2 	bl	657e <memcpy>
/home/hsk/Desktop/devel/tee-tpm-hyp/optee_os/lib/libmbedtls/mbedtls/library/bignum.c:240
    359a:	68a1      	ldr	r1, [r4, #8]
    359c:	88a3      	ldrh	r3, [r4, #4]
mbedtls_mpi_zeroize():
/home/hsk/Desktop/devel/tee-tpm-hyp/optee_os/lib/libmbedtls/mbedtls/library/bignum.c:65
    359e:	2000      	movs	r0, #0
    35a0:	460a      	mov	r2, r1
    35a2:	f113 33ff 	adds.w	r3, r3, #4294967295	; 0xffffffff
    35a6:	d21f      	bcs.n	35e8 <mbedtls_mpi_shrink+0xac>
mbedtls_mpi_shrink():
/home/hsk/Desktop/devel/tee-tpm-hyp/optee_os/lib/libmbedtls/mbedtls/library/bignum.c:241
    35a8:	7863      	ldrb	r3, [r4, #1]
    35aa:	bb03      	cbnz	r3, 35ee <mbedtls_mpi_shrink+0xb2>
/home/hsk/Desktop/devel/tee-tpm-hyp/optee_os/lib/libmbedtls/mbedtls/library/bignum.c:242
    35ac:	4608      	mov	r0, r1
    35ae:	f002 fb97 	bl	5ce0 <free>
/home/hsk/Desktop/devel/tee-tpm-hyp/optee_os/lib/libmbedtls/mbedtls/library/bignum.c:247
    35b2:	60a6      	str	r6, [r4, #8]
    35b4:	e012      	b.n	35dc <mbedtls_mpi_shrink+0xa0>
/home/hsk/Desktop/devel/tee-tpm-hyp/optee_os/lib/libmbedtls/mbedtls/library/bignum.c:224
    35b6:	4b12      	ldr	r3, [pc, #72]	; (3600 <mbedtls_mpi_shrink+0xc4>)
    35b8:	2204      	movs	r2, #4
    35ba:	4631      	mov	r1, r6
    35bc:	447b      	add	r3, pc
    35be:	6818      	ldr	r0, [r3, #0]
    35c0:	f002 fea6 	bl	6310 <mempool_calloc>
    35c4:	e7e3      	b.n	358e <mbedtls_mpi_shrink+0x52>
/home/hsk/Desktop/devel/tee-tpm-hyp/optee_os/lib/libmbedtls/mbedtls/library/bignum.c:227
    35c6:	8862      	ldrh	r2, [r4, #2]
    35c8:	42b2      	cmp	r2, r6
    35ca:	d316      	bcc.n	35fa <mbedtls_mpi_shrink+0xbe>
/home/hsk/Desktop/devel/tee-tpm-hyp/optee_os/lib/libmbedtls/mbedtls/library/bignum.c:229
    35cc:	68a2      	ldr	r2, [r4, #8]
    35ce:	1b5b      	subs	r3, r3, r5
mbedtls_mpi_zeroize():
/home/hsk/Desktop/devel/tee-tpm-hyp/optee_os/lib/libmbedtls/mbedtls/library/bignum.c:65
    35d0:	2100      	movs	r1, #0
mbedtls_mpi_shrink():
/home/hsk/Desktop/devel/tee-tpm-hyp/optee_os/lib/libmbedtls/mbedtls/library/bignum.c:229
    35d2:	eb02 0285 	add.w	r2, r2, r5, lsl #2
mbedtls_mpi_zeroize():
/home/hsk/Desktop/devel/tee-tpm-hyp/optee_os/lib/libmbedtls/mbedtls/library/bignum.c:65
    35d6:	f113 33ff 	adds.w	r3, r3, #4294967295	; 0xffffffff
    35da:	d202      	bcs.n	35e2 <mbedtls_mpi_shrink+0xa6>
mbedtls_mpi_shrink():
/home/hsk/Desktop/devel/tee-tpm-hyp/optee_os/lib/libmbedtls/mbedtls/library/bignum.c:251
    35dc:	2000      	movs	r0, #0
/home/hsk/Desktop/devel/tee-tpm-hyp/optee_os/lib/libmbedtls/mbedtls/library/bignum.c:249
    35de:	80a5      	strh	r5, [r4, #4]
/home/hsk/Desktop/devel/tee-tpm-hyp/optee_os/lib/libmbedtls/mbedtls/library/bignum.c:252
    35e0:	bd70      	pop	{r4, r5, r6, pc}
mbedtls_mpi_zeroize():
/home/hsk/Desktop/devel/tee-tpm-hyp/optee_os/lib/libmbedtls/mbedtls/library/bignum.c:65
    35e2:	6011      	str	r1, [r2, #0]
    35e4:	3204      	adds	r2, #4
    35e6:	e7f6      	b.n	35d6 <mbedtls_mpi_shrink+0x9a>
    35e8:	6010      	str	r0, [r2, #0]
    35ea:	3204      	adds	r2, #4
    35ec:	e7d9      	b.n	35a2 <mbedtls_mpi_shrink+0x66>
mbedtls_mpi_shrink():
/home/hsk/Desktop/devel/tee-tpm-hyp/optee_os/lib/libmbedtls/mbedtls/library/bignum.c:244
    35ee:	4b05      	ldr	r3, [pc, #20]	; (3604 <mbedtls_mpi_shrink+0xc8>)
    35f0:	447b      	add	r3, pc
    35f2:	6818      	ldr	r0, [r3, #0]
    35f4:	f002 fe9e 	bl	6334 <mempool_free>
    35f8:	e7db      	b.n	35b2 <mbedtls_mpi_shrink+0x76>
/home/hsk/Desktop/devel/tee-tpm-hyp/optee_os/lib/libmbedtls/mbedtls/library/bignum.c:228
    35fa:	f06f 000f 	mvn.w	r0, #15
    35fe:	e7ef      	b.n	35e0 <mbedtls_mpi_shrink+0xa4>
    3600:	00007b04 	.word	0x00007b04
    3604:	00007ad0 	.word	0x00007ad0

00003608 <mbedtls_mpi_copy>:
mbedtls_mpi_copy():
/home/hsk/Desktop/devel/tee-tpm-hyp/optee_os/lib/libmbedtls/mbedtls/library/bignum.c:258
    3608:	b5f8      	push	{r3, r4, r5, r6, r7, lr}
/home/hsk/Desktop/devel/tee-tpm-hyp/optee_os/lib/libmbedtls/mbedtls/library/bignum.c:262
    360a:	4288      	cmp	r0, r1
/home/hsk/Desktop/devel/tee-tpm-hyp/optee_os/lib/libmbedtls/mbedtls/library/bignum.c:258
    360c:	4606      	mov	r6, r0
    360e:	460f      	mov	r7, r1
/home/hsk/Desktop/devel/tee-tpm-hyp/optee_os/lib/libmbedtls/mbedtls/library/bignum.c:262
    3610:	d023      	beq.n	365a <mbedtls_mpi_copy+0x52>
/home/hsk/Desktop/devel/tee-tpm-hyp/optee_os/lib/libmbedtls/mbedtls/library/bignum.c:265
    3612:	688d      	ldr	r5, [r1, #8]
    3614:	b91d      	cbnz	r5, 361e <mbedtls_mpi_copy+0x16>
/home/hsk/Desktop/devel/tee-tpm-hyp/optee_os/lib/libmbedtls/mbedtls/library/bignum.c:267
    3616:	f7ff ff16 	bl	3446 <mbedtls_mpi_free>
/home/hsk/Desktop/devel/tee-tpm-hyp/optee_os/lib/libmbedtls/mbedtls/library/bignum.c:286
    361a:	4628      	mov	r0, r5
    361c:	bdf8      	pop	{r3, r4, r5, r6, r7, pc}
/home/hsk/Desktop/devel/tee-tpm-hyp/optee_os/lib/libmbedtls/mbedtls/library/bignum.c:271
    361e:	888a      	ldrh	r2, [r1, #4]
/home/hsk/Desktop/devel/tee-tpm-hyp/optee_os/lib/libmbedtls/mbedtls/library/bignum.c:271 (discriminator 2)
    3620:	3a01      	subs	r2, #1
    3622:	b11a      	cbz	r2, 362c <mbedtls_mpi_copy+0x24>
/home/hsk/Desktop/devel/tee-tpm-hyp/optee_os/lib/libmbedtls/mbedtls/library/bignum.c:272
    3624:	f855 3022 	ldr.w	r3, [r5, r2, lsl #2]
    3628:	2b00      	cmp	r3, #0
    362a:	d0f9      	beq.n	3620 <mbedtls_mpi_copy+0x18>
/home/hsk/Desktop/devel/tee-tpm-hyp/optee_os/lib/libmbedtls/mbedtls/library/bignum.c:274
    362c:	1c54      	adds	r4, r2, #1
/home/hsk/Desktop/devel/tee-tpm-hyp/optee_os/lib/libmbedtls/mbedtls/library/bignum.c:276
    362e:	f997 3000 	ldrsb.w	r3, [r7]
    3632:	7033      	strb	r3, [r6, #0]
/home/hsk/Desktop/devel/tee-tpm-hyp/optee_os/lib/libmbedtls/mbedtls/library/bignum.c:278
    3634:	4621      	mov	r1, r4
    3636:	4630      	mov	r0, r6
    3638:	f7ff ff2c 	bl	3494 <mbedtls_mpi_grow>
    363c:	4605      	mov	r5, r0
    363e:	2800      	cmp	r0, #0
    3640:	d1eb      	bne.n	361a <mbedtls_mpi_copy+0x12>
/home/hsk/Desktop/devel/tee-tpm-hyp/optee_os/lib/libmbedtls/mbedtls/library/bignum.c:280
    3642:	88b2      	ldrh	r2, [r6, #4]
    3644:	4601      	mov	r1, r0
    3646:	68b0      	ldr	r0, [r6, #8]
    3648:	0092      	lsls	r2, r2, #2
    364a:	f002 ffbc 	bl	65c6 <memset>
/home/hsk/Desktop/devel/tee-tpm-hyp/optee_os/lib/libmbedtls/mbedtls/library/bignum.c:281
    364e:	00a2      	lsls	r2, r4, #2
    3650:	68b9      	ldr	r1, [r7, #8]
    3652:	68b0      	ldr	r0, [r6, #8]
    3654:	f002 ff93 	bl	657e <memcpy>
    3658:	e7df      	b.n	361a <mbedtls_mpi_copy+0x12>
/home/hsk/Desktop/devel/tee-tpm-hyp/optee_os/lib/libmbedtls/mbedtls/library/bignum.c:263
    365a:	2500      	movs	r5, #0
    365c:	e7dd      	b.n	361a <mbedtls_mpi_copy+0x12>

0000365e <mbedtls_mpi_swap>:
mbedtls_mpi_swap():
/home/hsk/Desktop/devel/tee-tpm-hyp/optee_os/lib/libmbedtls/mbedtls/library/bignum.c:292
    365e:	b5f0      	push	{r4, r5, r6, r7, lr}
/home/hsk/Desktop/devel/tee-tpm-hyp/optee_os/lib/libmbedtls/mbedtls/library/bignum.c:295
    3660:	250c      	movs	r5, #12
/home/hsk/Desktop/devel/tee-tpm-hyp/optee_os/lib/libmbedtls/mbedtls/library/bignum.c:292
    3662:	460e      	mov	r6, r1
    3664:	b085      	sub	sp, #20
    3666:	4607      	mov	r7, r0
/home/hsk/Desktop/devel/tee-tpm-hyp/optee_os/lib/libmbedtls/mbedtls/library/bignum.c:295
    3668:	ac01      	add	r4, sp, #4
    366a:	462a      	mov	r2, r5
    366c:	4601      	mov	r1, r0
    366e:	4620      	mov	r0, r4
    3670:	f002 ff85 	bl	657e <memcpy>
/home/hsk/Desktop/devel/tee-tpm-hyp/optee_os/lib/libmbedtls/mbedtls/library/bignum.c:296
    3674:	462a      	mov	r2, r5
    3676:	4631      	mov	r1, r6
    3678:	4638      	mov	r0, r7
    367a:	f002 ff80 	bl	657e <memcpy>
/home/hsk/Desktop/devel/tee-tpm-hyp/optee_os/lib/libmbedtls/mbedtls/library/bignum.c:297
    367e:	462a      	mov	r2, r5
    3680:	4621      	mov	r1, r4
    3682:	4630      	mov	r0, r6
    3684:	f002 ff7b 	bl	657e <memcpy>
/home/hsk/Desktop/devel/tee-tpm-hyp/optee_os/lib/libmbedtls/mbedtls/library/bignum.c:298
    3688:	b005      	add	sp, #20
    368a:	bdf0      	pop	{r4, r5, r6, r7, pc}

0000368c <mbedtls_mpi_safe_cond_assign>:
mbedtls_mpi_safe_cond_assign():
/home/hsk/Desktop/devel/tee-tpm-hyp/optee_os/lib/libmbedtls/mbedtls/library/bignum.c:306
    368c:	e92d 41f0 	stmdb	sp!, {r4, r5, r6, r7, r8, lr}
    3690:	460e      	mov	r6, r1
/home/hsk/Desktop/devel/tee-tpm-hyp/optee_os/lib/libmbedtls/mbedtls/library/bignum.c:313
    3692:	8889      	ldrh	r1, [r1, #4]
/home/hsk/Desktop/devel/tee-tpm-hyp/optee_os/lib/libmbedtls/mbedtls/library/bignum.c:306
    3694:	4605      	mov	r5, r0
    3696:	4614      	mov	r4, r2
/home/hsk/Desktop/devel/tee-tpm-hyp/optee_os/lib/libmbedtls/mbedtls/library/bignum.c:313
    3698:	f7ff fefc 	bl	3494 <mbedtls_mpi_grow>
    369c:	b998      	cbnz	r0, 36c6 <mbedtls_mpi_safe_cond_assign+0x3a>
/home/hsk/Desktop/devel/tee-tpm-hyp/optee_os/lib/libmbedtls/mbedtls/library/bignum.c:311
    369e:	4262      	negs	r2, r4
/home/hsk/Desktop/devel/tee-tpm-hyp/optee_os/lib/libmbedtls/mbedtls/library/bignum.c:315
    36a0:	7831      	ldrb	r1, [r6, #0]
/home/hsk/Desktop/devel/tee-tpm-hyp/optee_os/lib/libmbedtls/mbedtls/library/bignum.c:311
    36a2:	4322      	orrs	r2, r4
/home/hsk/Desktop/devel/tee-tpm-hyp/optee_os/lib/libmbedtls/mbedtls/library/bignum.c:315
    36a4:	782b      	ldrb	r3, [r5, #0]
/home/hsk/Desktop/devel/tee-tpm-hyp/optee_os/lib/libmbedtls/mbedtls/library/bignum.c:311
    36a6:	f3c2 12c0 	ubfx	r2, r2, #7, #1
/home/hsk/Desktop/devel/tee-tpm-hyp/optee_os/lib/libmbedtls/mbedtls/library/bignum.c:315
    36aa:	f1c2 0401 	rsb	r4, r2, #1
    36ae:	fb11 f102 	smulbb	r1, r1, r2
    36b2:	fb03 1304 	mla	r3, r3, r4, r1
/home/hsk/Desktop/devel/tee-tpm-hyp/optee_os/lib/libmbedtls/mbedtls/library/bignum.c:317
    36b6:	4601      	mov	r1, r0
/home/hsk/Desktop/devel/tee-tpm-hyp/optee_os/lib/libmbedtls/mbedtls/library/bignum.c:315
    36b8:	702b      	strb	r3, [r5, #0]
/home/hsk/Desktop/devel/tee-tpm-hyp/optee_os/lib/libmbedtls/mbedtls/library/bignum.c:317
    36ba:	88b3      	ldrh	r3, [r6, #4]
/home/hsk/Desktop/devel/tee-tpm-hyp/optee_os/lib/libmbedtls/mbedtls/library/bignum.c:317 (discriminator 1)
    36bc:	428b      	cmp	r3, r1
    36be:	d804      	bhi.n	36ca <mbedtls_mpi_safe_cond_assign+0x3e>
/home/hsk/Desktop/devel/tee-tpm-hyp/optee_os/lib/libmbedtls/mbedtls/library/bignum.c:320
    36c0:	88ae      	ldrh	r6, [r5, #4]
/home/hsk/Desktop/devel/tee-tpm-hyp/optee_os/lib/libmbedtls/mbedtls/library/bignum.c:320 (discriminator 1)
    36c2:	429e      	cmp	r6, r3
    36c4:	d810      	bhi.n	36e8 <mbedtls_mpi_safe_cond_assign+0x5c>
/home/hsk/Desktop/devel/tee-tpm-hyp/optee_os/lib/libmbedtls/mbedtls/library/bignum.c:325
    36c6:	e8bd 81f0 	ldmia.w	sp!, {r4, r5, r6, r7, r8, pc}
/home/hsk/Desktop/devel/tee-tpm-hyp/optee_os/lib/libmbedtls/mbedtls/library/bignum.c:318 (discriminator 3)
    36ca:	68b7      	ldr	r7, [r6, #8]
    36cc:	f8d5 e008 	ldr.w	lr, [r5, #8]
    36d0:	f857 8021 	ldr.w	r8, [r7, r1, lsl #2]
    36d4:	f85e 7021 	ldr.w	r7, [lr, r1, lsl #2]
    36d8:	fb07 fc04 	mul.w	ip, r7, r4
    36dc:	fb08 c702 	mla	r7, r8, r2, ip
    36e0:	f84e 7021 	str.w	r7, [lr, r1, lsl #2]
/home/hsk/Desktop/devel/tee-tpm-hyp/optee_os/lib/libmbedtls/mbedtls/library/bignum.c:317 (discriminator 3)
    36e4:	3101      	adds	r1, #1
    36e6:	e7e9      	b.n	36bc <mbedtls_mpi_safe_cond_assign+0x30>
/home/hsk/Desktop/devel/tee-tpm-hyp/optee_os/lib/libmbedtls/mbedtls/library/bignum.c:321 (discriminator 2)
    36e8:	68a9      	ldr	r1, [r5, #8]
    36ea:	f851 2023 	ldr.w	r2, [r1, r3, lsl #2]
    36ee:	4362      	muls	r2, r4
    36f0:	f841 2023 	str.w	r2, [r1, r3, lsl #2]
/home/hsk/Desktop/devel/tee-tpm-hyp/optee_os/lib/libmbedtls/mbedtls/library/bignum.c:320 (discriminator 2)
    36f4:	3301      	adds	r3, #1
    36f6:	e7e4      	b.n	36c2 <mbedtls_mpi_safe_cond_assign+0x36>

000036f8 <mbedtls_mpi_safe_cond_swap>:
mbedtls_mpi_safe_cond_swap():
/home/hsk/Desktop/devel/tee-tpm-hyp/optee_os/lib/libmbedtls/mbedtls/library/bignum.c:334
    36f8:	e92d 41f0 	stmdb	sp!, {r4, r5, r6, r7, r8, lr}
/home/hsk/Desktop/devel/tee-tpm-hyp/optee_os/lib/libmbedtls/mbedtls/library/bignum.c:339
    36fc:	4288      	cmp	r0, r1
/home/hsk/Desktop/devel/tee-tpm-hyp/optee_os/lib/libmbedtls/mbedtls/library/bignum.c:334
    36fe:	4605      	mov	r5, r0
    3700:	460c      	mov	r4, r1
    3702:	4616      	mov	r6, r2
/home/hsk/Desktop/devel/tee-tpm-hyp/optee_os/lib/libmbedtls/mbedtls/library/bignum.c:339
    3704:	d102      	bne.n	370c <mbedtls_mpi_safe_cond_swap+0x14>
/home/hsk/Desktop/devel/tee-tpm-hyp/optee_os/lib/libmbedtls/mbedtls/library/bignum.c:340
    3706:	2000      	movs	r0, #0
/home/hsk/Desktop/devel/tee-tpm-hyp/optee_os/lib/libmbedtls/mbedtls/library/bignum.c:362
    3708:	e8bd 81f0 	ldmia.w	sp!, {r4, r5, r6, r7, r8, pc}
/home/hsk/Desktop/devel/tee-tpm-hyp/optee_os/lib/libmbedtls/mbedtls/library/bignum.c:345
    370c:	8889      	ldrh	r1, [r1, #4]
    370e:	f7ff fec1 	bl	3494 <mbedtls_mpi_grow>
    3712:	2800      	cmp	r0, #0
    3714:	d1f8      	bne.n	3708 <mbedtls_mpi_safe_cond_swap+0x10>
/home/hsk/Desktop/devel/tee-tpm-hyp/optee_os/lib/libmbedtls/mbedtls/library/bignum.c:346
    3716:	88a9      	ldrh	r1, [r5, #4]
    3718:	4620      	mov	r0, r4
    371a:	f7ff febb 	bl	3494 <mbedtls_mpi_grow>
    371e:	2800      	cmp	r0, #0
    3720:	d1f2      	bne.n	3708 <mbedtls_mpi_safe_cond_swap+0x10>
/home/hsk/Desktop/devel/tee-tpm-hyp/optee_os/lib/libmbedtls/mbedtls/library/bignum.c:343
    3722:	4272      	negs	r2, r6
/home/hsk/Desktop/devel/tee-tpm-hyp/optee_os/lib/libmbedtls/mbedtls/library/bignum.c:349
    3724:	7829      	ldrb	r1, [r5, #0]
/home/hsk/Desktop/devel/tee-tpm-hyp/optee_os/lib/libmbedtls/mbedtls/library/bignum.c:343
    3726:	4332      	orrs	r2, r6
/home/hsk/Desktop/devel/tee-tpm-hyp/optee_os/lib/libmbedtls/mbedtls/library/bignum.c:349
    3728:	7827      	ldrb	r7, [r4, #0]
/home/hsk/Desktop/devel/tee-tpm-hyp/optee_os/lib/libmbedtls/mbedtls/library/bignum.c:343
    372a:	f3c2 12c0 	ubfx	r2, r2, #7, #1
/home/hsk/Desktop/devel/tee-tpm-hyp/optee_os/lib/libmbedtls/mbedtls/library/bignum.c:349
    372e:	f1c2 0601 	rsb	r6, r2, #1
    3732:	b2f3      	uxtb	r3, r6
    3734:	fb11 fc03 	smulbb	ip, r1, r3
    3738:	fb07 c702 	mla	r7, r7, r2, ip
    373c:	702f      	strb	r7, [r5, #0]
/home/hsk/Desktop/devel/tee-tpm-hyp/optee_os/lib/libmbedtls/mbedtls/library/bignum.c:350
    373e:	fb11 f102 	smulbb	r1, r1, r2
    3742:	7827      	ldrb	r7, [r4, #0]
    3744:	fb07 1303 	mla	r3, r7, r3, r1
    3748:	7023      	strb	r3, [r4, #0]
/home/hsk/Desktop/devel/tee-tpm-hyp/optee_os/lib/libmbedtls/mbedtls/library/bignum.c:353
    374a:	f8b5 c004 	ldrh.w	ip, [r5, #4]
/home/hsk/Desktop/devel/tee-tpm-hyp/optee_os/lib/libmbedtls/mbedtls/library/bignum.c:353 (discriminator 1)
    374e:	4584      	cmp	ip, r0
    3750:	d9d9      	bls.n	3706 <mbedtls_mpi_safe_cond_swap+0xe>
/home/hsk/Desktop/devel/tee-tpm-hyp/optee_os/lib/libmbedtls/mbedtls/library/bignum.c:355 (discriminator 3)
    3752:	f8d5 e008 	ldr.w	lr, [r5, #8]
/home/hsk/Desktop/devel/tee-tpm-hyp/optee_os/lib/libmbedtls/mbedtls/library/bignum.c:356 (discriminator 3)
    3756:	68a7      	ldr	r7, [r4, #8]
/home/hsk/Desktop/devel/tee-tpm-hyp/optee_os/lib/libmbedtls/mbedtls/library/bignum.c:355 (discriminator 3)
    3758:	f85e 3020 	ldr.w	r3, [lr, r0, lsl #2]
/home/hsk/Desktop/devel/tee-tpm-hyp/optee_os/lib/libmbedtls/mbedtls/library/bignum.c:356 (discriminator 3)
    375c:	f857 1020 	ldr.w	r1, [r7, r0, lsl #2]
    3760:	fb03 f806 	mul.w	r8, r3, r6
    3764:	fb01 8102 	mla	r1, r1, r2, r8
    3768:	f84e 1020 	str.w	r1, [lr, r0, lsl #2]
/home/hsk/Desktop/devel/tee-tpm-hyp/optee_os/lib/libmbedtls/mbedtls/library/bignum.c:357 (discriminator 3)
    376c:	4353      	muls	r3, r2
    376e:	f857 1020 	ldr.w	r1, [r7, r0, lsl #2]
    3772:	fb01 3306 	mla	r3, r1, r6, r3
    3776:	f847 3020 	str.w	r3, [r7, r0, lsl #2]
/home/hsk/Desktop/devel/tee-tpm-hyp/optee_os/lib/libmbedtls/mbedtls/library/bignum.c:353 (discriminator 3)
    377a:	3001      	adds	r0, #1
    377c:	e7e7      	b.n	374e <mbedtls_mpi_safe_cond_swap+0x56>

0000377e <mbedtls_mpi_lset>:
mbedtls_mpi_lset():
/home/hsk/Desktop/devel/tee-tpm-hyp/optee_os/lib/libmbedtls/mbedtls/library/bignum.c:368
    377e:	b570      	push	{r4, r5, r6, lr}
    3780:	460e      	mov	r6, r1
/home/hsk/Desktop/devel/tee-tpm-hyp/optee_os/lib/libmbedtls/mbedtls/library/bignum.c:371
    3782:	2101      	movs	r1, #1
/home/hsk/Desktop/devel/tee-tpm-hyp/optee_os/lib/libmbedtls/mbedtls/library/bignum.c:368
    3784:	4604      	mov	r4, r0
/home/hsk/Desktop/devel/tee-tpm-hyp/optee_os/lib/libmbedtls/mbedtls/library/bignum.c:371
    3786:	f7ff fe85 	bl	3494 <mbedtls_mpi_grow>
    378a:	4605      	mov	r5, r0
    378c:	b988      	cbnz	r0, 37b2 <mbedtls_mpi_lset+0x34>
/home/hsk/Desktop/devel/tee-tpm-hyp/optee_os/lib/libmbedtls/mbedtls/library/bignum.c:372
    378e:	88a2      	ldrh	r2, [r4, #4]
    3790:	4601      	mov	r1, r0
    3792:	68a0      	ldr	r0, [r4, #8]
    3794:	0092      	lsls	r2, r2, #2
    3796:	f002 ff16 	bl	65c6 <memset>
/home/hsk/Desktop/devel/tee-tpm-hyp/optee_os/lib/libmbedtls/mbedtls/library/bignum.c:374
    379a:	68a3      	ldr	r3, [r4, #8]
    379c:	ea86 72e6 	eor.w	r2, r6, r6, asr #31
/home/hsk/Desktop/devel/tee-tpm-hyp/optee_os/lib/libmbedtls/mbedtls/library/bignum.c:375
    37a0:	2e00      	cmp	r6, #0
/home/hsk/Desktop/devel/tee-tpm-hyp/optee_os/lib/libmbedtls/mbedtls/library/bignum.c:374
    37a2:	eba2 72e6 	sub.w	r2, r2, r6, asr #31
    37a6:	601a      	str	r2, [r3, #0]
/home/hsk/Desktop/devel/tee-tpm-hyp/optee_os/lib/libmbedtls/mbedtls/library/bignum.c:375
    37a8:	f04f 33ff 	mov.w	r3, #4294967295	; 0xffffffff
    37ac:	bfa8      	it	ge
    37ae:	2301      	movge	r3, #1
    37b0:	7023      	strb	r3, [r4, #0]
/home/hsk/Desktop/devel/tee-tpm-hyp/optee_os/lib/libmbedtls/mbedtls/library/bignum.c:380
    37b2:	4628      	mov	r0, r5
    37b4:	bd70      	pop	{r4, r5, r6, pc}

000037b6 <mbedtls_mpi_get_bit>:
mbedtls_mpi_get_bit():
/home/hsk/Desktop/devel/tee-tpm-hyp/optee_os/lib/libmbedtls/mbedtls/library/bignum.c:387
    37b6:	8883      	ldrh	r3, [r0, #4]
    37b8:	ebb1 1f43 	cmp.w	r1, r3, lsl #5
    37bc:	d209      	bcs.n	37d2 <mbedtls_mpi_get_bit+0x1c>
/home/hsk/Desktop/devel/tee-tpm-hyp/optee_os/lib/libmbedtls/mbedtls/library/bignum.c:390
    37be:	094a      	lsrs	r2, r1, #5
    37c0:	6883      	ldr	r3, [r0, #8]
    37c2:	f001 011f 	and.w	r1, r1, #31
    37c6:	f853 0022 	ldr.w	r0, [r3, r2, lsl #2]
    37ca:	40c8      	lsrs	r0, r1
    37cc:	f000 0001 	and.w	r0, r0, #1
    37d0:	4770      	bx	lr
/home/hsk/Desktop/devel/tee-tpm-hyp/optee_os/lib/libmbedtls/mbedtls/library/bignum.c:388
    37d2:	2000      	movs	r0, #0
/home/hsk/Desktop/devel/tee-tpm-hyp/optee_os/lib/libmbedtls/mbedtls/library/bignum.c:391
    37d4:	4770      	bx	lr

000037d6 <mbedtls_mpi_set_bit>:
mbedtls_mpi_set_bit():
/home/hsk/Desktop/devel/tee-tpm-hyp/optee_os/lib/libmbedtls/mbedtls/library/bignum.c:397
    37d6:	b5f8      	push	{r3, r4, r5, r6, r7, lr}
/home/hsk/Desktop/devel/tee-tpm-hyp/optee_os/lib/libmbedtls/mbedtls/library/bignum.c:402
    37d8:	2a01      	cmp	r2, #1
/home/hsk/Desktop/devel/tee-tpm-hyp/optee_os/lib/libmbedtls/mbedtls/library/bignum.c:397
    37da:	4607      	mov	r7, r0
    37dc:	460c      	mov	r4, r1
    37de:	4615      	mov	r5, r2
/home/hsk/Desktop/devel/tee-tpm-hyp/optee_os/lib/libmbedtls/mbedtls/library/bignum.c:399
    37e0:	ea4f 1651 	mov.w	r6, r1, lsr #5
/home/hsk/Desktop/devel/tee-tpm-hyp/optee_os/lib/libmbedtls/mbedtls/library/bignum.c:402
    37e4:	d81b      	bhi.n	381e <mbedtls_mpi_set_bit+0x48>
/home/hsk/Desktop/devel/tee-tpm-hyp/optee_os/lib/libmbedtls/mbedtls/library/bignum.c:405
    37e6:	8883      	ldrh	r3, [r0, #4]
    37e8:	ebb1 1f43 	cmp.w	r1, r3, lsl #5
    37ec:	d210      	bcs.n	3810 <mbedtls_mpi_set_bit+0x3a>
/home/hsk/Desktop/devel/tee-tpm-hyp/optee_os/lib/libmbedtls/mbedtls/library/bignum.c:413
    37ee:	68b9      	ldr	r1, [r7, #8]
/home/hsk/Desktop/devel/tee-tpm-hyp/optee_os/lib/libmbedtls/mbedtls/library/bignum.c:400
    37f0:	f004 041f 	and.w	r4, r4, #31
/home/hsk/Desktop/devel/tee-tpm-hyp/optee_os/lib/libmbedtls/mbedtls/library/bignum.c:413
    37f4:	2301      	movs	r3, #1
/home/hsk/Desktop/devel/tee-tpm-hyp/optee_os/lib/libmbedtls/mbedtls/library/bignum.c:414
    37f6:	2000      	movs	r0, #0
/home/hsk/Desktop/devel/tee-tpm-hyp/optee_os/lib/libmbedtls/mbedtls/library/bignum.c:413
    37f8:	fa03 f204 	lsl.w	r2, r3, r4
    37fc:	f851 3026 	ldr.w	r3, [r1, r6, lsl #2]
/home/hsk/Desktop/devel/tee-tpm-hyp/optee_os/lib/libmbedtls/mbedtls/library/bignum.c:414
    3800:	fa05 f404 	lsl.w	r4, r5, r4
/home/hsk/Desktop/devel/tee-tpm-hyp/optee_os/lib/libmbedtls/mbedtls/library/bignum.c:413
    3804:	ea23 0302 	bic.w	r3, r3, r2
/home/hsk/Desktop/devel/tee-tpm-hyp/optee_os/lib/libmbedtls/mbedtls/library/bignum.c:414
    3808:	431c      	orrs	r4, r3
    380a:	f841 4026 	str.w	r4, [r1, r6, lsl #2]
/home/hsk/Desktop/devel/tee-tpm-hyp/optee_os/lib/libmbedtls/mbedtls/library/bignum.c:419
    380e:	bdf8      	pop	{r3, r4, r5, r6, r7, pc}
/home/hsk/Desktop/devel/tee-tpm-hyp/optee_os/lib/libmbedtls/mbedtls/library/bignum.c:407
    3810:	b142      	cbz	r2, 3824 <mbedtls_mpi_set_bit+0x4e>
/home/hsk/Desktop/devel/tee-tpm-hyp/optee_os/lib/libmbedtls/mbedtls/library/bignum.c:410
    3812:	1c71      	adds	r1, r6, #1
    3814:	f7ff fe3e 	bl	3494 <mbedtls_mpi_grow>
    3818:	2800      	cmp	r0, #0
    381a:	d0e8      	beq.n	37ee <mbedtls_mpi_set_bit+0x18>
    381c:	e7f7      	b.n	380e <mbedtls_mpi_set_bit+0x38>
/home/hsk/Desktop/devel/tee-tpm-hyp/optee_os/lib/libmbedtls/mbedtls/library/bignum.c:403
    381e:	f06f 0003 	mvn.w	r0, #3
    3822:	e7f4      	b.n	380e <mbedtls_mpi_set_bit+0x38>
/home/hsk/Desktop/devel/tee-tpm-hyp/optee_os/lib/libmbedtls/mbedtls/library/bignum.c:408
    3824:	4610      	mov	r0, r2
    3826:	e7f2      	b.n	380e <mbedtls_mpi_set_bit+0x38>

00003828 <mbedtls_mpi_lsb>:
mbedtls_mpi_lsb():
/home/hsk/Desktop/devel/tee-tpm-hyp/optee_os/lib/libmbedtls/mbedtls/library/bignum.c:425
    3828:	b5f0      	push	{r4, r5, r6, r7, lr}
/home/hsk/Desktop/devel/tee-tpm-hyp/optee_os/lib/libmbedtls/mbedtls/library/bignum.c:426
    382a:	2100      	movs	r1, #0
/home/hsk/Desktop/devel/tee-tpm-hyp/optee_os/lib/libmbedtls/mbedtls/library/bignum.c:428
    382c:	8885      	ldrh	r5, [r0, #4]
/home/hsk/Desktop/devel/tee-tpm-hyp/optee_os/lib/libmbedtls/mbedtls/library/bignum.c:425
    382e:	4604      	mov	r4, r0
/home/hsk/Desktop/devel/tee-tpm-hyp/optee_os/lib/libmbedtls/mbedtls/library/bignum.c:428
    3830:	460a      	mov	r2, r1
/home/hsk/Desktop/devel/tee-tpm-hyp/optee_os/lib/libmbedtls/mbedtls/library/bignum.c:428 (discriminator 1)
    3832:	4295      	cmp	r5, r2
    3834:	d801      	bhi.n	383a <mbedtls_mpi_lsb+0x12>
/home/hsk/Desktop/devel/tee-tpm-hyp/optee_os/lib/libmbedtls/mbedtls/library/bignum.c:433
    3836:	2000      	movs	r0, #0
/home/hsk/Desktop/devel/tee-tpm-hyp/optee_os/lib/libmbedtls/mbedtls/library/bignum.c:434
    3838:	bdf0      	pop	{r4, r5, r6, r7, pc}
/home/hsk/Desktop/devel/tee-tpm-hyp/optee_os/lib/libmbedtls/mbedtls/library/bignum.c:430
    383a:	68a3      	ldr	r3, [r4, #8]
    383c:	f853 6022 	ldr.w	r6, [r3, r2, lsl #2]
/home/hsk/Desktop/devel/tee-tpm-hyp/optee_os/lib/libmbedtls/mbedtls/library/bignum.c:429
    3840:	2300      	movs	r3, #0
/home/hsk/Desktop/devel/tee-tpm-hyp/optee_os/lib/libmbedtls/mbedtls/library/bignum.c:430
    3842:	fa26 f703 	lsr.w	r7, r6, r3
    3846:	18c8      	adds	r0, r1, r3
    3848:	07ff      	lsls	r7, r7, #31
    384a:	d4f5      	bmi.n	3838 <mbedtls_mpi_lsb+0x10>
/home/hsk/Desktop/devel/tee-tpm-hyp/optee_os/lib/libmbedtls/mbedtls/library/bignum.c:429 (discriminator 2)
    384c:	3301      	adds	r3, #1
    384e:	18c8      	adds	r0, r1, r3
    3850:	2b20      	cmp	r3, #32
    3852:	d1f6      	bne.n	3842 <mbedtls_mpi_lsb+0x1a>
/home/hsk/Desktop/devel/tee-tpm-hyp/optee_os/lib/libmbedtls/mbedtls/library/bignum.c:428 (discriminator 2)
    3854:	3201      	adds	r2, #1
/home/hsk/Desktop/devel/tee-tpm-hyp/optee_os/lib/libmbedtls/mbedtls/library/bignum.c:429 (discriminator 2)
    3856:	4601      	mov	r1, r0
    3858:	e7eb      	b.n	3832 <mbedtls_mpi_lsb+0xa>

0000385a <mbedtls_mpi_bitlen>:
mbedtls_mpi_bitlen():
/home/hsk/Desktop/devel/tee-tpm-hyp/optee_os/lib/libmbedtls/mbedtls/library/bignum.c:461
    385a:	8883      	ldrh	r3, [r0, #4]
/home/hsk/Desktop/devel/tee-tpm-hyp/optee_os/lib/libmbedtls/mbedtls/library/bignum.c:458
    385c:	b510      	push	{r4, lr}
/home/hsk/Desktop/devel/tee-tpm-hyp/optee_os/lib/libmbedtls/mbedtls/library/bignum.c:461
    385e:	b1db      	cbz	r3, 3898 <mbedtls_mpi_bitlen+0x3e>
/home/hsk/Desktop/devel/tee-tpm-hyp/optee_os/lib/libmbedtls/mbedtls/library/bignum.c:464
    3860:	1e5a      	subs	r2, r3, #1
    3862:	6880      	ldr	r0, [r0, #8]
    3864:	0092      	lsls	r2, r2, #2
    3866:	1e59      	subs	r1, r3, #1
/home/hsk/Desktop/devel/tee-tpm-hyp/optee_os/lib/libmbedtls/mbedtls/library/bignum.c:464 (discriminator 1)
    3868:	2b01      	cmp	r3, #1
    386a:	d101      	bne.n	3870 <mbedtls_mpi_bitlen+0x16>
    386c:	2100      	movs	r1, #0
    386e:	e004      	b.n	387a <mbedtls_mpi_bitlen+0x20>
/home/hsk/Desktop/devel/tee-tpm-hyp/optee_os/lib/libmbedtls/mbedtls/library/bignum.c:465
    3870:	5884      	ldr	r4, [r0, r2]
    3872:	460b      	mov	r3, r1
    3874:	3a04      	subs	r2, #4
    3876:	2c00      	cmp	r4, #0
    3878:	d0f5      	beq.n	3866 <mbedtls_mpi_bitlen+0xc>
/home/hsk/Desktop/devel/tee-tpm-hyp/optee_os/lib/libmbedtls/mbedtls/library/bignum.c:468
    387a:	f850 2021 	ldr.w	r2, [r0, r1, lsl #2]
mbedtls_clz():
/home/hsk/Desktop/devel/tee-tpm-hyp/optee_os/lib/libmbedtls/mbedtls/library/bignum.c:442
    387e:	f04f 4300 	mov.w	r3, #2147483648	; 0x80000000
/home/hsk/Desktop/devel/tee-tpm-hyp/optee_os/lib/libmbedtls/mbedtls/library/bignum.c:444
    3882:	2000      	movs	r0, #0
/home/hsk/Desktop/devel/tee-tpm-hyp/optee_os/lib/libmbedtls/mbedtls/library/bignum.c:446
    3884:	421a      	tst	r2, r3
    3886:	d103      	bne.n	3890 <mbedtls_mpi_bitlen+0x36>
/home/hsk/Desktop/devel/tee-tpm-hyp/optee_os/lib/libmbedtls/mbedtls/library/bignum.c:444
    3888:	3001      	adds	r0, #1
/home/hsk/Desktop/devel/tee-tpm-hyp/optee_os/lib/libmbedtls/mbedtls/library/bignum.c:448
    388a:	085b      	lsrs	r3, r3, #1
/home/hsk/Desktop/devel/tee-tpm-hyp/optee_os/lib/libmbedtls/mbedtls/library/bignum.c:444
    388c:	2820      	cmp	r0, #32
    388e:	d1f9      	bne.n	3884 <mbedtls_mpi_bitlen+0x2a>
mbedtls_mpi_bitlen():
/home/hsk/Desktop/devel/tee-tpm-hyp/optee_os/lib/libmbedtls/mbedtls/library/bignum.c:470
    3890:	ebc0 1041 	rsb	r0, r0, r1, lsl #5
    3894:	3020      	adds	r0, #32
/home/hsk/Desktop/devel/tee-tpm-hyp/optee_os/lib/libmbedtls/mbedtls/library/bignum.c:471
    3896:	bd10      	pop	{r4, pc}
/home/hsk/Desktop/devel/tee-tpm-hyp/optee_os/lib/libmbedtls/mbedtls/library/bignum.c:462
    3898:	4618      	mov	r0, r3
    389a:	e7fc      	b.n	3896 <mbedtls_mpi_bitlen+0x3c>

0000389c <mbedtls_mpi_size>:
mbedtls_mpi_size():
/home/hsk/Desktop/devel/tee-tpm-hyp/optee_os/lib/libmbedtls/mbedtls/library/bignum.c:477
    389c:	b508      	push	{r3, lr}
/home/hsk/Desktop/devel/tee-tpm-hyp/optee_os/lib/libmbedtls/mbedtls/library/bignum.c:478
    389e:	f7ff ffdc 	bl	385a <mbedtls_mpi_bitlen>
    38a2:	3007      	adds	r0, #7
/home/hsk/Desktop/devel/tee-tpm-hyp/optee_os/lib/libmbedtls/mbedtls/library/bignum.c:479
    38a4:	08c0      	lsrs	r0, r0, #3
    38a6:	bd08      	pop	{r3, pc}

000038a8 <mbedtls_mpi_read_binary>:
mbedtls_mpi_read_binary():
/home/hsk/Desktop/devel/tee-tpm-hyp/optee_os/lib/libmbedtls/mbedtls/library/bignum.c:750
    38a8:	b5f8      	push	{r3, r4, r5, r6, r7, lr}
    38aa:	4606      	mov	r6, r0
    38ac:	460f      	mov	r7, r1
    38ae:	4615      	mov	r5, r2
/home/hsk/Desktop/devel/tee-tpm-hyp/optee_os/lib/libmbedtls/mbedtls/library/bignum.c:754
    38b0:	2400      	movs	r4, #0
/home/hsk/Desktop/devel/tee-tpm-hyp/optee_os/lib/libmbedtls/mbedtls/library/bignum.c:754 (discriminator 1)
    38b2:	42ac      	cmp	r4, r5
    38b4:	d001      	beq.n	38ba <mbedtls_mpi_read_binary+0x12>
/home/hsk/Desktop/devel/tee-tpm-hyp/optee_os/lib/libmbedtls/mbedtls/library/bignum.c:755
    38b6:	5d3b      	ldrb	r3, [r7, r4]
    38b8:	b1b3      	cbz	r3, 38e8 <mbedtls_mpi_read_binary+0x40>
/home/hsk/Desktop/devel/tee-tpm-hyp/optee_os/lib/libmbedtls/mbedtls/library/bignum.c:758
    38ba:	1b29      	subs	r1, r5, r4
    38bc:	4630      	mov	r0, r6
    38be:	f011 0303 	ands.w	r3, r1, #3
    38c2:	bf18      	it	ne
    38c4:	2301      	movne	r3, #1
    38c6:	eb03 0191 	add.w	r1, r3, r1, lsr #2
    38ca:	f7ff fde3 	bl	3494 <mbedtls_mpi_grow>
    38ce:	b950      	cbnz	r0, 38e6 <mbedtls_mpi_read_binary+0x3e>
/home/hsk/Desktop/devel/tee-tpm-hyp/optee_os/lib/libmbedtls/mbedtls/library/bignum.c:759
    38d0:	4601      	mov	r1, r0
    38d2:	4630      	mov	r0, r6
    38d4:	f7ff ff53 	bl	377e <mbedtls_mpi_lset>
    38d8:	b928      	cbnz	r0, 38e6 <mbedtls_mpi_read_binary+0x3e>
    38da:	eb07 0e05 	add.w	lr, r7, r5
/home/hsk/Desktop/devel/tee-tpm-hyp/optee_os/lib/libmbedtls/mbedtls/library/bignum.c:761
    38de:	4603      	mov	r3, r0
/home/hsk/Desktop/devel/tee-tpm-hyp/optee_os/lib/libmbedtls/mbedtls/library/bignum.c:761 (discriminator 1)
    38e0:	1aea      	subs	r2, r5, r3
    38e2:	4294      	cmp	r4, r2
    38e4:	d302      	bcc.n	38ec <mbedtls_mpi_read_binary+0x44>
/home/hsk/Desktop/devel/tee-tpm-hyp/optee_os/lib/libmbedtls/mbedtls/library/bignum.c:767
    38e6:	bdf8      	pop	{r3, r4, r5, r6, r7, pc}
/home/hsk/Desktop/devel/tee-tpm-hyp/optee_os/lib/libmbedtls/mbedtls/library/bignum.c:754 (discriminator 2)
    38e8:	3401      	adds	r4, #1
    38ea:	e7e2      	b.n	38b2 <mbedtls_mpi_read_binary+0xa>
/home/hsk/Desktop/devel/tee-tpm-hyp/optee_os/lib/libmbedtls/mbedtls/library/bignum.c:762 (discriminator 3)
    38ec:	f023 0c03 	bic.w	ip, r3, #3
    38f0:	f81e 2d01 	ldrb.w	r2, [lr, #-1]!
    38f4:	68b1      	ldr	r1, [r6, #8]
    38f6:	00df      	lsls	r7, r3, #3
    38f8:	f007 0718 	and.w	r7, r7, #24
/home/hsk/Desktop/devel/tee-tpm-hyp/optee_os/lib/libmbedtls/mbedtls/library/bignum.c:761 (discriminator 3)
    38fc:	3301      	adds	r3, #1
/home/hsk/Desktop/devel/tee-tpm-hyp/optee_os/lib/libmbedtls/mbedtls/library/bignum.c:762 (discriminator 3)
    38fe:	fa02 f707 	lsl.w	r7, r2, r7
    3902:	f851 200c 	ldr.w	r2, [r1, ip]
    3906:	433a      	orrs	r2, r7
    3908:	f841 200c 	str.w	r2, [r1, ip]
    390c:	e7e8      	b.n	38e0 <mbedtls_mpi_read_binary+0x38>

0000390e <mbedtls_mpi_write_binary>:
mbedtls_mpi_write_binary():
/home/hsk/Desktop/devel/tee-tpm-hyp/optee_os/lib/libmbedtls/mbedtls/library/bignum.c:773
    390e:	b5f8      	push	{r3, r4, r5, r6, r7, lr}
    3910:	4617      	mov	r7, r2
    3912:	4605      	mov	r5, r0
    3914:	460c      	mov	r4, r1
/home/hsk/Desktop/devel/tee-tpm-hyp/optee_os/lib/libmbedtls/mbedtls/library/bignum.c:776
    3916:	f7ff ffc1 	bl	389c <mbedtls_mpi_size>
    391a:	4606      	mov	r6, r0
/home/hsk/Desktop/devel/tee-tpm-hyp/optee_os/lib/libmbedtls/mbedtls/library/bignum.c:778
    391c:	42b8      	cmp	r0, r7
    391e:	d816      	bhi.n	394e <mbedtls_mpi_write_binary+0x40>
/home/hsk/Desktop/devel/tee-tpm-hyp/optee_os/lib/libmbedtls/mbedtls/library/bignum.c:781
    3920:	4620      	mov	r0, r4
    3922:	463a      	mov	r2, r7
    3924:	2100      	movs	r1, #0
    3926:	443c      	add	r4, r7
    3928:	f002 fe4d 	bl	65c6 <memset>
/home/hsk/Desktop/devel/tee-tpm-hyp/optee_os/lib/libmbedtls/mbedtls/library/bignum.c:783
    392c:	2300      	movs	r3, #0
/home/hsk/Desktop/devel/tee-tpm-hyp/optee_os/lib/libmbedtls/mbedtls/library/bignum.c:783 (discriminator 1)
    392e:	42b3      	cmp	r3, r6
    3930:	d101      	bne.n	3936 <mbedtls_mpi_write_binary+0x28>
/home/hsk/Desktop/devel/tee-tpm-hyp/optee_os/lib/libmbedtls/mbedtls/library/bignum.c:786
    3932:	2000      	movs	r0, #0
/home/hsk/Desktop/devel/tee-tpm-hyp/optee_os/lib/libmbedtls/mbedtls/library/bignum.c:787
    3934:	bdf8      	pop	{r3, r4, r5, r6, r7, pc}
/home/hsk/Desktop/devel/tee-tpm-hyp/optee_os/lib/libmbedtls/mbedtls/library/bignum.c:784 (discriminator 3)
    3936:	f023 0003 	bic.w	r0, r3, #3
    393a:	68af      	ldr	r7, [r5, #8]
    393c:	00da      	lsls	r2, r3, #3
/home/hsk/Desktop/devel/tee-tpm-hyp/optee_os/lib/libmbedtls/mbedtls/library/bignum.c:783 (discriminator 3)
    393e:	3301      	adds	r3, #1
/home/hsk/Desktop/devel/tee-tpm-hyp/optee_os/lib/libmbedtls/mbedtls/library/bignum.c:784 (discriminator 3)
    3940:	f002 0118 	and.w	r1, r2, #24
    3944:	583a      	ldr	r2, [r7, r0]
    3946:	40ca      	lsrs	r2, r1
    3948:	f804 2d01 	strb.w	r2, [r4, #-1]!
    394c:	e7ef      	b.n	392e <mbedtls_mpi_write_binary+0x20>
/home/hsk/Desktop/devel/tee-tpm-hyp/optee_os/lib/libmbedtls/mbedtls/library/bignum.c:779
    394e:	f06f 0007 	mvn.w	r0, #7
    3952:	e7ef      	b.n	3934 <mbedtls_mpi_write_binary+0x26>

00003954 <mbedtls_mpi_shift_l>:
mbedtls_mpi_shift_l():
/home/hsk/Desktop/devel/tee-tpm-hyp/optee_os/lib/libmbedtls/mbedtls/library/bignum.c:793
    3954:	b5f8      	push	{r3, r4, r5, r6, r7, lr}
    3956:	4606      	mov	r6, r0
    3958:	460d      	mov	r5, r1
/home/hsk/Desktop/devel/tee-tpm-hyp/optee_os/lib/libmbedtls/mbedtls/library/bignum.c:798
    395a:	094c      	lsrs	r4, r1, #5
/home/hsk/Desktop/devel/tee-tpm-hyp/optee_os/lib/libmbedtls/mbedtls/library/bignum.c:799
    395c:	f001 071f 	and.w	r7, r1, #31
/home/hsk/Desktop/devel/tee-tpm-hyp/optee_os/lib/libmbedtls/mbedtls/library/bignum.c:801
    3960:	f7ff ff7b 	bl	385a <mbedtls_mpi_bitlen>
/home/hsk/Desktop/devel/tee-tpm-hyp/optee_os/lib/libmbedtls/mbedtls/library/bignum.c:803
    3964:	88b3      	ldrh	r3, [r6, #4]
/home/hsk/Desktop/devel/tee-tpm-hyp/optee_os/lib/libmbedtls/mbedtls/library/bignum.c:801
    3966:	4428      	add	r0, r5
/home/hsk/Desktop/devel/tee-tpm-hyp/optee_os/lib/libmbedtls/mbedtls/library/bignum.c:803
    3968:	ebb0 1f43 	cmp.w	r0, r3, lsl #5
    396c:	d803      	bhi.n	3976 <mbedtls_mpi_shift_l+0x22>
/home/hsk/Desktop/devel/tee-tpm-hyp/optee_os/lib/libmbedtls/mbedtls/library/bignum.c:811
    396e:	b974      	cbnz	r4, 398e <mbedtls_mpi_shift_l+0x3a>
/home/hsk/Desktop/devel/tee-tpm-hyp/optee_os/lib/libmbedtls/mbedtls/library/bignum.c:823
    3970:	bb2f      	cbnz	r7, 39be <mbedtls_mpi_shift_l+0x6a>
/home/hsk/Desktop/devel/tee-tpm-hyp/optee_os/lib/libmbedtls/mbedtls/library/bignum.c:806
    3972:	2000      	movs	r0, #0
    3974:	e00a      	b.n	398c <mbedtls_mpi_shift_l+0x38>
/home/hsk/Desktop/devel/tee-tpm-hyp/optee_os/lib/libmbedtls/mbedtls/library/bignum.c:804
    3976:	f010 011f 	ands.w	r1, r0, #31
    397a:	bf18      	it	ne
    397c:	2101      	movne	r1, #1
    397e:	eb01 1150 	add.w	r1, r1, r0, lsr #5
    3982:	4630      	mov	r0, r6
    3984:	f7ff fd86 	bl	3494 <mbedtls_mpi_grow>
    3988:	2800      	cmp	r0, #0
    398a:	d0f0      	beq.n	396e <mbedtls_mpi_shift_l+0x1a>
/home/hsk/Desktop/devel/tee-tpm-hyp/optee_os/lib/libmbedtls/mbedtls/library/bignum.c:837
    398c:	bdf8      	pop	{r3, r4, r5, r6, r7, pc}
/home/hsk/Desktop/devel/tee-tpm-hyp/optee_os/lib/libmbedtls/mbedtls/library/bignum.c:813
    398e:	88b3      	ldrh	r3, [r6, #4]
    3990:	00a0      	lsls	r0, r4, #2
    3992:	f103 4280 	add.w	r2, r3, #1073741824	; 0x40000000
    3996:	3a01      	subs	r2, #1
    3998:	1b12      	subs	r2, r2, r4
    399a:	0092      	lsls	r2, r2, #2
/home/hsk/Desktop/devel/tee-tpm-hyp/optee_os/lib/libmbedtls/mbedtls/library/bignum.c:813 (discriminator 1)
    399c:	42a3      	cmp	r3, r4
    399e:	d807      	bhi.n	39b0 <mbedtls_mpi_shift_l+0x5c>
    39a0:	009b      	lsls	r3, r3, #2
/home/hsk/Desktop/devel/tee-tpm-hyp/optee_os/lib/libmbedtls/mbedtls/library/bignum.c:817
    39a2:	2200      	movs	r2, #0
    39a4:	3b04      	subs	r3, #4
/home/hsk/Desktop/devel/tee-tpm-hyp/optee_os/lib/libmbedtls/mbedtls/library/bignum.c:816 (discriminator 1)
    39a6:	1d19      	adds	r1, r3, #4
    39a8:	d0e2      	beq.n	3970 <mbedtls_mpi_shift_l+0x1c>
/home/hsk/Desktop/devel/tee-tpm-hyp/optee_os/lib/libmbedtls/mbedtls/library/bignum.c:817 (discriminator 2)
    39aa:	68b1      	ldr	r1, [r6, #8]
    39ac:	50ca      	str	r2, [r1, r3]
    39ae:	e7f9      	b.n	39a4 <mbedtls_mpi_shift_l+0x50>
/home/hsk/Desktop/devel/tee-tpm-hyp/optee_os/lib/libmbedtls/mbedtls/library/bignum.c:814 (discriminator 3)
    39b0:	68b1      	ldr	r1, [r6, #8]
/home/hsk/Desktop/devel/tee-tpm-hyp/optee_os/lib/libmbedtls/mbedtls/library/bignum.c:813 (discriminator 3)
    39b2:	3b01      	subs	r3, #1
/home/hsk/Desktop/devel/tee-tpm-hyp/optee_os/lib/libmbedtls/mbedtls/library/bignum.c:814 (discriminator 3)
    39b4:	588d      	ldr	r5, [r1, r2]
    39b6:	4411      	add	r1, r2
    39b8:	3a04      	subs	r2, #4
    39ba:	500d      	str	r5, [r1, r0]
    39bc:	e7ee      	b.n	399c <mbedtls_mpi_shift_l+0x48>
/home/hsk/Desktop/devel/tee-tpm-hyp/optee_os/lib/libmbedtls/mbedtls/library/bignum.c:825
    39be:	f8b6 c004 	ldrh.w	ip, [r6, #4]
    39c2:	00a3      	lsls	r3, r4, #2
/home/hsk/Desktop/devel/tee-tpm-hyp/optee_os/lib/libmbedtls/mbedtls/library/bignum.c:796
    39c4:	2100      	movs	r1, #0
/home/hsk/Desktop/devel/tee-tpm-hyp/optee_os/lib/libmbedtls/mbedtls/library/bignum.c:827
    39c6:	f1c7 0e20 	rsb	lr, r7, #32
/home/hsk/Desktop/devel/tee-tpm-hyp/optee_os/lib/libmbedtls/mbedtls/library/bignum.c:825 (discriminator 1)
    39ca:	45a4      	cmp	ip, r4
    39cc:	d9d1      	bls.n	3972 <mbedtls_mpi_shift_l+0x1e>
/home/hsk/Desktop/devel/tee-tpm-hyp/optee_os/lib/libmbedtls/mbedtls/library/bignum.c:827 (discriminator 3)
    39ce:	68b5      	ldr	r5, [r6, #8]
/home/hsk/Desktop/devel/tee-tpm-hyp/optee_os/lib/libmbedtls/mbedtls/library/bignum.c:825 (discriminator 3)
    39d0:	3401      	adds	r4, #1
/home/hsk/Desktop/devel/tee-tpm-hyp/optee_os/lib/libmbedtls/mbedtls/library/bignum.c:827 (discriminator 3)
    39d2:	58e8      	ldr	r0, [r5, r3]
/home/hsk/Desktop/devel/tee-tpm-hyp/optee_os/lib/libmbedtls/mbedtls/library/bignum.c:828 (discriminator 3)
    39d4:	fa00 f207 	lsl.w	r2, r0, r7
/home/hsk/Desktop/devel/tee-tpm-hyp/optee_os/lib/libmbedtls/mbedtls/library/bignum.c:829 (discriminator 3)
    39d8:	430a      	orrs	r2, r1
/home/hsk/Desktop/devel/tee-tpm-hyp/optee_os/lib/libmbedtls/mbedtls/library/bignum.c:827 (discriminator 3)
    39da:	fa20 f10e 	lsr.w	r1, r0, lr
/home/hsk/Desktop/devel/tee-tpm-hyp/optee_os/lib/libmbedtls/mbedtls/library/bignum.c:829 (discriminator 3)
    39de:	50ea      	str	r2, [r5, r3]
    39e0:	3304      	adds	r3, #4
    39e2:	e7f2      	b.n	39ca <mbedtls_mpi_shift_l+0x76>

000039e4 <mbedtls_mpi_shift_r>:
mbedtls_mpi_shift_r():
/home/hsk/Desktop/devel/tee-tpm-hyp/optee_os/lib/libmbedtls/mbedtls/library/bignum.c:850
    39e4:	8883      	ldrh	r3, [r0, #4]
/home/hsk/Desktop/devel/tee-tpm-hyp/optee_os/lib/libmbedtls/mbedtls/library/bignum.c:843
    39e6:	b4f0      	push	{r4, r5, r6, r7}
/home/hsk/Desktop/devel/tee-tpm-hyp/optee_os/lib/libmbedtls/mbedtls/library/bignum.c:847
    39e8:	094d      	lsrs	r5, r1, #5
/home/hsk/Desktop/devel/tee-tpm-hyp/optee_os/lib/libmbedtls/mbedtls/library/bignum.c:850
    39ea:	42ab      	cmp	r3, r5
    39ec:	d303      	bcc.n	39f6 <mbedtls_mpi_shift_r+0x12>
/home/hsk/Desktop/devel/tee-tpm-hyp/optee_os/lib/libmbedtls/mbedtls/library/bignum.c:848 (discriminator 1)
    39ee:	f001 011f 	and.w	r1, r1, #31
/home/hsk/Desktop/devel/tee-tpm-hyp/optee_os/lib/libmbedtls/mbedtls/library/bignum.c:850 (discriminator 1)
    39f2:	d104      	bne.n	39fe <mbedtls_mpi_shift_r+0x1a>
/home/hsk/Desktop/devel/tee-tpm-hyp/optee_os/lib/libmbedtls/mbedtls/library/bignum.c:850 (discriminator 2)
    39f4:	b381      	cbz	r1, 3a58 <mbedtls_mpi_shift_r+0x74>
/home/hsk/Desktop/devel/tee-tpm-hyp/optee_os/lib/libmbedtls/mbedtls/library/bignum.c:851
    39f6:	2100      	movs	r1, #0
/home/hsk/Desktop/devel/tee-tpm-hyp/optee_os/lib/libmbedtls/mbedtls/library/bignum.c:880
    39f8:	bcf0      	pop	{r4, r5, r6, r7}
/home/hsk/Desktop/devel/tee-tpm-hyp/optee_os/lib/libmbedtls/mbedtls/library/bignum.c:851
    39fa:	f7ff bec0 	b.w	377e <mbedtls_mpi_lset>
/home/hsk/Desktop/devel/tee-tpm-hyp/optee_os/lib/libmbedtls/mbedtls/library/bignum.c:856
    39fe:	b9f5      	cbnz	r5, 3a3e <mbedtls_mpi_shift_r+0x5a>
/home/hsk/Desktop/devel/tee-tpm-hyp/optee_os/lib/libmbedtls/mbedtls/library/bignum.c:868
    3a00:	b139      	cbz	r1, 3a12 <mbedtls_mpi_shift_r+0x2e>
    3a02:	f103 4280 	add.w	r2, r3, #1073741824	; 0x40000000
/home/hsk/Desktop/devel/tee-tpm-hyp/optee_os/lib/libmbedtls/mbedtls/library/bignum.c:845
    3a06:	2500      	movs	r5, #0
    3a08:	3a01      	subs	r2, #1
/home/hsk/Desktop/devel/tee-tpm-hyp/optee_os/lib/libmbedtls/mbedtls/library/bignum.c:872
    3a0a:	f1c1 0c20 	rsb	ip, r1, #32
    3a0e:	0092      	lsls	r2, r2, #2
/home/hsk/Desktop/devel/tee-tpm-hyp/optee_os/lib/libmbedtls/mbedtls/library/bignum.c:870 (discriminator 1)
    3a10:	b9bb      	cbnz	r3, 3a42 <mbedtls_mpi_shift_r+0x5e>
/home/hsk/Desktop/devel/tee-tpm-hyp/optee_os/lib/libmbedtls/mbedtls/library/bignum.c:880
    3a12:	2000      	movs	r0, #0
    3a14:	bcf0      	pop	{r4, r5, r6, r7}
    3a16:	4770      	bx	lr
/home/hsk/Desktop/devel/tee-tpm-hyp/optee_os/lib/libmbedtls/mbedtls/library/bignum.c:859 (discriminator 3)
    3a18:	6884      	ldr	r4, [r0, #8]
    3a1a:	1956      	adds	r6, r2, r5
    3a1c:	f854 6026 	ldr.w	r6, [r4, r6, lsl #2]
    3a20:	f844 6022 	str.w	r6, [r4, r2, lsl #2]
/home/hsk/Desktop/devel/tee-tpm-hyp/optee_os/lib/libmbedtls/mbedtls/library/bignum.c:858 (discriminator 3)
    3a24:	3201      	adds	r2, #1
/home/hsk/Desktop/devel/tee-tpm-hyp/optee_os/lib/libmbedtls/mbedtls/library/bignum.c:858 (discriminator 1)
    3a26:	1b5c      	subs	r4, r3, r5
    3a28:	4294      	cmp	r4, r2
    3a2a:	d8f5      	bhi.n	3a18 <mbedtls_mpi_shift_r+0x34>
    3a2c:	00a2      	lsls	r2, r4, #2
/home/hsk/Desktop/devel/tee-tpm-hyp/optee_os/lib/libmbedtls/mbedtls/library/bignum.c:862
    3a2e:	2500      	movs	r5, #0
/home/hsk/Desktop/devel/tee-tpm-hyp/optee_os/lib/libmbedtls/mbedtls/library/bignum.c:861 (discriminator 1)
    3a30:	42a3      	cmp	r3, r4
    3a32:	d9e5      	bls.n	3a00 <mbedtls_mpi_shift_r+0x1c>
/home/hsk/Desktop/devel/tee-tpm-hyp/optee_os/lib/libmbedtls/mbedtls/library/bignum.c:862 (discriminator 2)
    3a34:	6886      	ldr	r6, [r0, #8]
/home/hsk/Desktop/devel/tee-tpm-hyp/optee_os/lib/libmbedtls/mbedtls/library/bignum.c:861 (discriminator 2)
    3a36:	3401      	adds	r4, #1
/home/hsk/Desktop/devel/tee-tpm-hyp/optee_os/lib/libmbedtls/mbedtls/library/bignum.c:862 (discriminator 2)
    3a38:	50b5      	str	r5, [r6, r2]
    3a3a:	3204      	adds	r2, #4
    3a3c:	e7f8      	b.n	3a30 <mbedtls_mpi_shift_r+0x4c>
    3a3e:	2200      	movs	r2, #0
    3a40:	e7f1      	b.n	3a26 <mbedtls_mpi_shift_r+0x42>
/home/hsk/Desktop/devel/tee-tpm-hyp/optee_os/lib/libmbedtls/mbedtls/library/bignum.c:872 (discriminator 3)
    3a42:	6887      	ldr	r7, [r0, #8]
/home/hsk/Desktop/devel/tee-tpm-hyp/optee_os/lib/libmbedtls/mbedtls/library/bignum.c:870 (discriminator 3)
    3a44:	3b01      	subs	r3, #1
/home/hsk/Desktop/devel/tee-tpm-hyp/optee_os/lib/libmbedtls/mbedtls/library/bignum.c:872 (discriminator 3)
    3a46:	58be      	ldr	r6, [r7, r2]
/home/hsk/Desktop/devel/tee-tpm-hyp/optee_os/lib/libmbedtls/mbedtls/library/bignum.c:873 (discriminator 3)
    3a48:	fa26 f401 	lsr.w	r4, r6, r1
/home/hsk/Desktop/devel/tee-tpm-hyp/optee_os/lib/libmbedtls/mbedtls/library/bignum.c:874 (discriminator 3)
    3a4c:	432c      	orrs	r4, r5
/home/hsk/Desktop/devel/tee-tpm-hyp/optee_os/lib/libmbedtls/mbedtls/library/bignum.c:872 (discriminator 3)
    3a4e:	fa06 f50c 	lsl.w	r5, r6, ip
/home/hsk/Desktop/devel/tee-tpm-hyp/optee_os/lib/libmbedtls/mbedtls/library/bignum.c:874 (discriminator 3)
    3a52:	50bc      	str	r4, [r7, r2]
    3a54:	3a04      	subs	r2, #4
    3a56:	e7db      	b.n	3a10 <mbedtls_mpi_shift_r+0x2c>
/home/hsk/Desktop/devel/tee-tpm-hyp/optee_os/lib/libmbedtls/mbedtls/library/bignum.c:856
    3a58:	2b00      	cmp	r3, #0
    3a5a:	d0da      	beq.n	3a12 <mbedtls_mpi_shift_r+0x2e>
    3a5c:	460a      	mov	r2, r1
    3a5e:	e7e2      	b.n	3a26 <mbedtls_mpi_shift_r+0x42>

00003a60 <mbedtls_mpi_cmp_abs>:
mbedtls_mpi_cmp_abs():
/home/hsk/Desktop/devel/tee-tpm-hyp/optee_os/lib/libmbedtls/mbedtls/library/bignum.c:889
    3a60:	8883      	ldrh	r3, [r0, #4]
/home/hsk/Desktop/devel/tee-tpm-hyp/optee_os/lib/libmbedtls/mbedtls/library/bignum.c:886
    3a62:	b530      	push	{r4, r5, lr}
    3a64:	f103 4280 	add.w	r2, r3, #1073741824	; 0x40000000
    3a68:	3a01      	subs	r2, #1
    3a6a:	0092      	lsls	r2, r2, #2
/home/hsk/Desktop/devel/tee-tpm-hyp/optee_os/lib/libmbedtls/mbedtls/library/bignum.c:889 (discriminator 1)
    3a6c:	b97b      	cbnz	r3, 3a8e <mbedtls_mpi_cmp_abs+0x2e>
/home/hsk/Desktop/devel/tee-tpm-hyp/optee_os/lib/libmbedtls/mbedtls/library/bignum.c:893
    3a6e:	888c      	ldrh	r4, [r1, #4]
    3a70:	f104 4280 	add.w	r2, r4, #1073741824	; 0x40000000
    3a74:	3a01      	subs	r2, #1
    3a76:	0092      	lsls	r2, r2, #2
/home/hsk/Desktop/devel/tee-tpm-hyp/optee_os/lib/libmbedtls/mbedtls/library/bignum.c:893 (discriminator 1)
    3a78:	b984      	cbnz	r4, 3a9c <mbedtls_mpi_cmp_abs+0x3c>
/home/hsk/Desktop/devel/tee-tpm-hyp/optee_os/lib/libmbedtls/mbedtls/library/bignum.c:897
    3a7a:	ea53 0204 	orrs.w	r2, r3, r4
    3a7e:	d01f      	beq.n	3ac0 <mbedtls_mpi_cmp_abs+0x60>
/home/hsk/Desktop/devel/tee-tpm-hyp/optee_os/lib/libmbedtls/mbedtls/library/bignum.c:900
    3a80:	42a3      	cmp	r3, r4
    3a82:	d81f      	bhi.n	3ac4 <mbedtls_mpi_cmp_abs+0x64>
/home/hsk/Desktop/devel/tee-tpm-hyp/optee_os/lib/libmbedtls/mbedtls/library/bignum.c:901
    3a84:	d319      	bcc.n	3aba <mbedtls_mpi_cmp_abs+0x5a>
    3a86:	009b      	lsls	r3, r3, #2
/home/hsk/Desktop/devel/tee-tpm-hyp/optee_os/lib/libmbedtls/mbedtls/library/bignum.c:903 (discriminator 1)
    3a88:	b97b      	cbnz	r3, 3aaa <mbedtls_mpi_cmp_abs+0x4a>
/home/hsk/Desktop/devel/tee-tpm-hyp/optee_os/lib/libmbedtls/mbedtls/library/bignum.c:898
    3a8a:	4618      	mov	r0, r3
/home/hsk/Desktop/devel/tee-tpm-hyp/optee_os/lib/libmbedtls/mbedtls/library/bignum.c:910
    3a8c:	bd30      	pop	{r4, r5, pc}
/home/hsk/Desktop/devel/tee-tpm-hyp/optee_os/lib/libmbedtls/mbedtls/library/bignum.c:890
    3a8e:	6884      	ldr	r4, [r0, #8]
    3a90:	58a4      	ldr	r4, [r4, r2]
    3a92:	3a04      	subs	r2, #4
    3a94:	2c00      	cmp	r4, #0
    3a96:	d1ea      	bne.n	3a6e <mbedtls_mpi_cmp_abs+0xe>
/home/hsk/Desktop/devel/tee-tpm-hyp/optee_os/lib/libmbedtls/mbedtls/library/bignum.c:889 (discriminator 2)
    3a98:	3b01      	subs	r3, #1
    3a9a:	e7e7      	b.n	3a6c <mbedtls_mpi_cmp_abs+0xc>
/home/hsk/Desktop/devel/tee-tpm-hyp/optee_os/lib/libmbedtls/mbedtls/library/bignum.c:894
    3a9c:	688d      	ldr	r5, [r1, #8]
    3a9e:	58ad      	ldr	r5, [r5, r2]
    3aa0:	3a04      	subs	r2, #4
    3aa2:	2d00      	cmp	r5, #0
    3aa4:	d1e9      	bne.n	3a7a <mbedtls_mpi_cmp_abs+0x1a>
/home/hsk/Desktop/devel/tee-tpm-hyp/optee_os/lib/libmbedtls/mbedtls/library/bignum.c:893 (discriminator 2)
    3aa6:	3c01      	subs	r4, #1
    3aa8:	e7e6      	b.n	3a78 <mbedtls_mpi_cmp_abs+0x18>
/home/hsk/Desktop/devel/tee-tpm-hyp/optee_os/lib/libmbedtls/mbedtls/library/bignum.c:905
    3aaa:	3b04      	subs	r3, #4
    3aac:	6882      	ldr	r2, [r0, #8]
    3aae:	58d4      	ldr	r4, [r2, r3]
    3ab0:	688a      	ldr	r2, [r1, #8]
    3ab2:	58d2      	ldr	r2, [r2, r3]
    3ab4:	4294      	cmp	r4, r2
    3ab6:	d805      	bhi.n	3ac4 <mbedtls_mpi_cmp_abs+0x64>
/home/hsk/Desktop/devel/tee-tpm-hyp/optee_os/lib/libmbedtls/mbedtls/library/bignum.c:906
    3ab8:	d2e6      	bcs.n	3a88 <mbedtls_mpi_cmp_abs+0x28>
/home/hsk/Desktop/devel/tee-tpm-hyp/optee_os/lib/libmbedtls/mbedtls/library/bignum.c:901
    3aba:	f04f 30ff 	mov.w	r0, #4294967295	; 0xffffffff
    3abe:	e7e5      	b.n	3a8c <mbedtls_mpi_cmp_abs+0x2c>
/home/hsk/Desktop/devel/tee-tpm-hyp/optee_os/lib/libmbedtls/mbedtls/library/bignum.c:898
    3ac0:	4610      	mov	r0, r2
    3ac2:	e7e3      	b.n	3a8c <mbedtls_mpi_cmp_abs+0x2c>
/home/hsk/Desktop/devel/tee-tpm-hyp/optee_os/lib/libmbedtls/mbedtls/library/bignum.c:900
    3ac4:	2001      	movs	r0, #1
    3ac6:	e7e1      	b.n	3a8c <mbedtls_mpi_cmp_abs+0x2c>

00003ac8 <mbedtls_mpi_cmp_mpi>:
mbedtls_mpi_cmp_mpi():
/home/hsk/Desktop/devel/tee-tpm-hyp/optee_os/lib/libmbedtls/mbedtls/library/bignum.c:919
    3ac8:	8883      	ldrh	r3, [r0, #4]
/home/hsk/Desktop/devel/tee-tpm-hyp/optee_os/lib/libmbedtls/mbedtls/library/bignum.c:916
    3aca:	b530      	push	{r4, r5, lr}
    3acc:	f103 4280 	add.w	r2, r3, #1073741824	; 0x40000000
    3ad0:	3a01      	subs	r2, #1
    3ad2:	0092      	lsls	r2, r2, #2
/home/hsk/Desktop/devel/tee-tpm-hyp/optee_os/lib/libmbedtls/mbedtls/library/bignum.c:919 (discriminator 1)
    3ad4:	b96b      	cbnz	r3, 3af2 <mbedtls_mpi_cmp_mpi+0x2a>
/home/hsk/Desktop/devel/tee-tpm-hyp/optee_os/lib/libmbedtls/mbedtls/library/bignum.c:923
    3ad6:	888c      	ldrh	r4, [r1, #4]
    3ad8:	f104 4280 	add.w	r2, r4, #1073741824	; 0x40000000
    3adc:	3a01      	subs	r2, #1
    3ade:	0092      	lsls	r2, r2, #2
/home/hsk/Desktop/devel/tee-tpm-hyp/optee_os/lib/libmbedtls/mbedtls/library/bignum.c:923 (discriminator 1)
    3ae0:	b974      	cbnz	r4, 3b00 <mbedtls_mpi_cmp_mpi+0x38>
/home/hsk/Desktop/devel/tee-tpm-hyp/optee_os/lib/libmbedtls/mbedtls/library/bignum.c:927
    3ae2:	ea54 0203 	orrs.w	r2, r4, r3
    3ae6:	d031      	beq.n	3b4c <mbedtls_mpi_cmp_mpi+0x84>
/home/hsk/Desktop/devel/tee-tpm-hyp/optee_os/lib/libmbedtls/mbedtls/library/bignum.c:930
    3ae8:	429c      	cmp	r4, r3
    3aea:	d210      	bcs.n	3b0e <mbedtls_mpi_cmp_mpi+0x46>
/home/hsk/Desktop/devel/tee-tpm-hyp/optee_os/lib/libmbedtls/mbedtls/library/bignum.c:930 (discriminator 1)
    3aec:	f990 0000 	ldrsb.w	r0, [r0]
/home/hsk/Desktop/devel/tee-tpm-hyp/optee_os/lib/libmbedtls/mbedtls/library/bignum.c:943
    3af0:	bd30      	pop	{r4, r5, pc}
/home/hsk/Desktop/devel/tee-tpm-hyp/optee_os/lib/libmbedtls/mbedtls/library/bignum.c:920
    3af2:	6884      	ldr	r4, [r0, #8]
    3af4:	58a4      	ldr	r4, [r4, r2]
    3af6:	3a04      	subs	r2, #4
    3af8:	2c00      	cmp	r4, #0
    3afa:	d1ec      	bne.n	3ad6 <mbedtls_mpi_cmp_mpi+0xe>
/home/hsk/Desktop/devel/tee-tpm-hyp/optee_os/lib/libmbedtls/mbedtls/library/bignum.c:919 (discriminator 2)
    3afc:	3b01      	subs	r3, #1
    3afe:	e7e9      	b.n	3ad4 <mbedtls_mpi_cmp_mpi+0xc>
/home/hsk/Desktop/devel/tee-tpm-hyp/optee_os/lib/libmbedtls/mbedtls/library/bignum.c:924
    3b00:	688d      	ldr	r5, [r1, #8]
    3b02:	58ad      	ldr	r5, [r5, r2]
    3b04:	3a04      	subs	r2, #4
    3b06:	2d00      	cmp	r5, #0
    3b08:	d1eb      	bne.n	3ae2 <mbedtls_mpi_cmp_mpi+0x1a>
/home/hsk/Desktop/devel/tee-tpm-hyp/optee_os/lib/libmbedtls/mbedtls/library/bignum.c:923 (discriminator 2)
    3b0a:	3c01      	subs	r4, #1
    3b0c:	e7e8      	b.n	3ae0 <mbedtls_mpi_cmp_mpi+0x18>
    3b0e:	f991 2000 	ldrsb.w	r2, [r1]
/home/hsk/Desktop/devel/tee-tpm-hyp/optee_os/lib/libmbedtls/mbedtls/library/bignum.c:931
    3b12:	d901      	bls.n	3b18 <mbedtls_mpi_cmp_mpi+0x50>
/home/hsk/Desktop/devel/tee-tpm-hyp/optee_os/lib/libmbedtls/mbedtls/library/bignum.c:931 (discriminator 1)
    3b14:	4250      	negs	r0, r2
    3b16:	e7eb      	b.n	3af0 <mbedtls_mpi_cmp_mpi+0x28>
/home/hsk/Desktop/devel/tee-tpm-hyp/optee_os/lib/libmbedtls/mbedtls/library/bignum.c:933
    3b18:	f990 4000 	ldrsb.w	r4, [r0]
    3b1c:	2c00      	cmp	r4, #0
    3b1e:	dd01      	ble.n	3b24 <mbedtls_mpi_cmp_mpi+0x5c>
/home/hsk/Desktop/devel/tee-tpm-hyp/optee_os/lib/libmbedtls/mbedtls/library/bignum.c:933 (discriminator 1)
    3b20:	2a00      	cmp	r2, #0
    3b22:	db15      	blt.n	3b50 <mbedtls_mpi_cmp_mpi+0x88>
/home/hsk/Desktop/devel/tee-tpm-hyp/optee_os/lib/libmbedtls/mbedtls/library/bignum.c:934
    3b24:	2a00      	cmp	r2, #0
    3b26:	dd01      	ble.n	3b2c <mbedtls_mpi_cmp_mpi+0x64>
/home/hsk/Desktop/devel/tee-tpm-hyp/optee_os/lib/libmbedtls/mbedtls/library/bignum.c:934 (discriminator 1)
    3b28:	2c00      	cmp	r4, #0
    3b2a:	db13      	blt.n	3b54 <mbedtls_mpi_cmp_mpi+0x8c>
    3b2c:	009b      	lsls	r3, r3, #2
/home/hsk/Desktop/devel/tee-tpm-hyp/optee_os/lib/libmbedtls/mbedtls/library/bignum.c:936 (discriminator 1)
    3b2e:	b90b      	cbnz	r3, 3b34 <mbedtls_mpi_cmp_mpi+0x6c>
/home/hsk/Desktop/devel/tee-tpm-hyp/optee_os/lib/libmbedtls/mbedtls/library/bignum.c:928
    3b30:	4618      	mov	r0, r3
    3b32:	e7dd      	b.n	3af0 <mbedtls_mpi_cmp_mpi+0x28>
/home/hsk/Desktop/devel/tee-tpm-hyp/optee_os/lib/libmbedtls/mbedtls/library/bignum.c:938
    3b34:	3b04      	subs	r3, #4
    3b36:	6882      	ldr	r2, [r0, #8]
    3b38:	58d5      	ldr	r5, [r2, r3]
    3b3a:	688a      	ldr	r2, [r1, #8]
    3b3c:	58d2      	ldr	r2, [r2, r3]
    3b3e:	4295      	cmp	r5, r2
    3b40:	d901      	bls.n	3b46 <mbedtls_mpi_cmp_mpi+0x7e>
/home/hsk/Desktop/devel/tee-tpm-hyp/optee_os/lib/libmbedtls/mbedtls/library/bignum.c:938 (discriminator 1)
    3b42:	4620      	mov	r0, r4
    3b44:	e7d4      	b.n	3af0 <mbedtls_mpi_cmp_mpi+0x28>
/home/hsk/Desktop/devel/tee-tpm-hyp/optee_os/lib/libmbedtls/mbedtls/library/bignum.c:939
    3b46:	d2f2      	bcs.n	3b2e <mbedtls_mpi_cmp_mpi+0x66>
/home/hsk/Desktop/devel/tee-tpm-hyp/optee_os/lib/libmbedtls/mbedtls/library/bignum.c:939 (discriminator 1)
    3b48:	4260      	negs	r0, r4
    3b4a:	e7d1      	b.n	3af0 <mbedtls_mpi_cmp_mpi+0x28>
/home/hsk/Desktop/devel/tee-tpm-hyp/optee_os/lib/libmbedtls/mbedtls/library/bignum.c:928
    3b4c:	4610      	mov	r0, r2
    3b4e:	e7cf      	b.n	3af0 <mbedtls_mpi_cmp_mpi+0x28>
/home/hsk/Desktop/devel/tee-tpm-hyp/optee_os/lib/libmbedtls/mbedtls/library/bignum.c:933
    3b50:	2001      	movs	r0, #1
    3b52:	e7cd      	b.n	3af0 <mbedtls_mpi_cmp_mpi+0x28>
/home/hsk/Desktop/devel/tee-tpm-hyp/optee_os/lib/libmbedtls/mbedtls/library/bignum.c:934
    3b54:	f04f 30ff 	mov.w	r0, #4294967295	; 0xffffffff
    3b58:	e7ca      	b.n	3af0 <mbedtls_mpi_cmp_mpi+0x28>

00003b5a <mbedtls_mpi_cmp_int>:
mbedtls_mpi_cmp_int():
/home/hsk/Desktop/devel/tee-tpm-hyp/optee_os/lib/libmbedtls/mbedtls/library/bignum.c:949
    3b5a:	b51f      	push	{r0, r1, r2, r3, r4, lr}
/home/hsk/Desktop/devel/tee-tpm-hyp/optee_os/lib/libmbedtls/mbedtls/library/bignum.c:953
    3b5c:	ea81 73e1 	eor.w	r3, r1, r1, asr #31
/home/hsk/Desktop/devel/tee-tpm-hyp/optee_os/lib/libmbedtls/mbedtls/library/bignum.c:954
    3b60:	2900      	cmp	r1, #0
/home/hsk/Desktop/devel/tee-tpm-hyp/optee_os/lib/libmbedtls/mbedtls/library/bignum.c:953
    3b62:	eba3 73e1 	sub.w	r3, r3, r1, asr #31
/home/hsk/Desktop/devel/tee-tpm-hyp/optee_os/lib/libmbedtls/mbedtls/library/bignum.c:958
    3b66:	a901      	add	r1, sp, #4
/home/hsk/Desktop/devel/tee-tpm-hyp/optee_os/lib/libmbedtls/mbedtls/library/bignum.c:953
    3b68:	9300      	str	r3, [sp, #0]
/home/hsk/Desktop/devel/tee-tpm-hyp/optee_os/lib/libmbedtls/mbedtls/library/bignum.c:954
    3b6a:	f04f 33ff 	mov.w	r3, #4294967295	; 0xffffffff
    3b6e:	bfa8      	it	ge
    3b70:	2301      	movge	r3, #1
    3b72:	f88d 3004 	strb.w	r3, [sp, #4]
/home/hsk/Desktop/devel/tee-tpm-hyp/optee_os/lib/libmbedtls/mbedtls/library/bignum.c:955
    3b76:	2301      	movs	r3, #1
    3b78:	f8ad 3008 	strh.w	r3, [sp, #8]
/home/hsk/Desktop/devel/tee-tpm-hyp/optee_os/lib/libmbedtls/mbedtls/library/bignum.c:956
    3b7c:	466b      	mov	r3, sp
    3b7e:	9303      	str	r3, [sp, #12]
/home/hsk/Desktop/devel/tee-tpm-hyp/optee_os/lib/libmbedtls/mbedtls/library/bignum.c:958
    3b80:	f7ff ffa2 	bl	3ac8 <mbedtls_mpi_cmp_mpi>
/home/hsk/Desktop/devel/tee-tpm-hyp/optee_os/lib/libmbedtls/mbedtls/library/bignum.c:959
    3b84:	b005      	add	sp, #20
    3b86:	f85d fb04 	ldr.w	pc, [sp], #4

00003b8a <mbedtls_mpi_add_abs>:
mbedtls_mpi_add_abs():
/home/hsk/Desktop/devel/tee-tpm-hyp/optee_os/lib/libmbedtls/mbedtls/library/bignum.c:965
    3b8a:	e92d 41f0 	stmdb	sp!, {r4, r5, r6, r7, r8, lr}
/home/hsk/Desktop/devel/tee-tpm-hyp/optee_os/lib/libmbedtls/mbedtls/library/bignum.c:970
    3b8e:	4290      	cmp	r0, r2
/home/hsk/Desktop/devel/tee-tpm-hyp/optee_os/lib/libmbedtls/mbedtls/library/bignum.c:965
    3b90:	4606      	mov	r6, r0
    3b92:	460c      	mov	r4, r1
    3b94:	4615      	mov	r5, r2
/home/hsk/Desktop/devel/tee-tpm-hyp/optee_os/lib/libmbedtls/mbedtls/library/bignum.c:970
    3b96:	d002      	beq.n	3b9e <mbedtls_mpi_add_abs+0x14>
/home/hsk/Desktop/devel/tee-tpm-hyp/optee_os/lib/libmbedtls/mbedtls/library/bignum.c:975
    3b98:	4288      	cmp	r0, r1
    3b9a:	d12e      	bne.n	3bfa <mbedtls_mpi_add_abs+0x70>
/home/hsk/Desktop/devel/tee-tpm-hyp/optee_os/lib/libmbedtls/mbedtls/library/bignum.c:965
    3b9c:	462c      	mov	r4, r5
/home/hsk/Desktop/devel/tee-tpm-hyp/optee_os/lib/libmbedtls/mbedtls/library/bignum.c:981
    3b9e:	2301      	movs	r3, #1
    3ba0:	7033      	strb	r3, [r6, #0]
/home/hsk/Desktop/devel/tee-tpm-hyp/optee_os/lib/libmbedtls/mbedtls/library/bignum.c:983
    3ba2:	88a5      	ldrh	r5, [r4, #4]
    3ba4:	f105 4380 	add.w	r3, r5, #1073741824	; 0x40000000
    3ba8:	3b01      	subs	r3, #1
    3baa:	009b      	lsls	r3, r3, #2
/home/hsk/Desktop/devel/tee-tpm-hyp/optee_os/lib/libmbedtls/mbedtls/library/bignum.c:983 (discriminator 1)
    3bac:	bb6d      	cbnz	r5, 3c0a <mbedtls_mpi_add_abs+0x80>
/home/hsk/Desktop/devel/tee-tpm-hyp/optee_os/lib/libmbedtls/mbedtls/library/bignum.c:987
    3bae:	4629      	mov	r1, r5
    3bb0:	4630      	mov	r0, r6
    3bb2:	f7ff fc6f 	bl	3494 <mbedtls_mpi_grow>
    3bb6:	4607      	mov	r7, r0
    3bb8:	bb20      	cbnz	r0, 3c04 <mbedtls_mpi_add_abs+0x7a>
/home/hsk/Desktop/devel/tee-tpm-hyp/optee_os/lib/libmbedtls/mbedtls/library/bignum.c:989
    3bba:	68b1      	ldr	r1, [r6, #8]
    3bbc:	68a0      	ldr	r0, [r4, #8]
    3bbe:	463c      	mov	r4, r7
    3bc0:	3804      	subs	r0, #4
    3bc2:	eb01 0285 	add.w	r2, r1, r5, lsl #2
/home/hsk/Desktop/devel/tee-tpm-hyp/optee_os/lib/libmbedtls/mbedtls/library/bignum.c:994 (discriminator 1)
    3bc6:	4291      	cmp	r1, r2
    3bc8:	d126      	bne.n	3c18 <mbedtls_mpi_add_abs+0x8e>
/home/hsk/Desktop/devel/tee-tpm-hyp/optee_os/lib/libmbedtls/mbedtls/library/bignum.c:1001
    3bca:	b1dc      	cbz	r4, 3c04 <mbedtls_mpi_add_abs+0x7a>
/home/hsk/Desktop/devel/tee-tpm-hyp/optee_os/lib/libmbedtls/mbedtls/library/bignum.c:1003
    3bcc:	88b3      	ldrh	r3, [r6, #4]
    3bce:	f105 0801 	add.w	r8, r5, #1
    3bd2:	42ab      	cmp	r3, r5
    3bd4:	d807      	bhi.n	3be6 <mbedtls_mpi_add_abs+0x5c>
/home/hsk/Desktop/devel/tee-tpm-hyp/optee_os/lib/libmbedtls/mbedtls/library/bignum.c:1005
    3bd6:	4641      	mov	r1, r8
    3bd8:	4630      	mov	r0, r6
    3bda:	f7ff fc5b 	bl	3494 <mbedtls_mpi_grow>
    3bde:	bb70      	cbnz	r0, 3c3e <mbedtls_mpi_add_abs+0xb4>
/home/hsk/Desktop/devel/tee-tpm-hyp/optee_os/lib/libmbedtls/mbedtls/library/bignum.c:1006
    3be0:	68b2      	ldr	r2, [r6, #8]
    3be2:	eb02 0285 	add.w	r2, r2, r5, lsl #2
    3be6:	6813      	ldr	r3, [r2, #0]
    3be8:	2100      	movs	r1, #0
/home/hsk/Desktop/devel/tee-tpm-hyp/optee_os/lib/libmbedtls/mbedtls/library/bignum.c:1009
    3bea:	4645      	mov	r5, r8
    3bec:	191c      	adds	r4, r3, r4
    3bee:	f842 4b04 	str.w	r4, [r2], #4
    3bf2:	bf28      	it	cs
    3bf4:	2101      	movcs	r1, #1
    3bf6:	460c      	mov	r4, r1
    3bf8:	e7e7      	b.n	3bca <mbedtls_mpi_add_abs+0x40>
/home/hsk/Desktop/devel/tee-tpm-hyp/optee_os/lib/libmbedtls/mbedtls/library/bignum.c:976
    3bfa:	f7ff fd05 	bl	3608 <mbedtls_mpi_copy>
    3bfe:	4607      	mov	r7, r0
    3c00:	2800      	cmp	r0, #0
    3c02:	d0cb      	beq.n	3b9c <mbedtls_mpi_add_abs+0x12>
/home/hsk/Desktop/devel/tee-tpm-hyp/optee_os/lib/libmbedtls/mbedtls/library/bignum.c:1015
    3c04:	4638      	mov	r0, r7
    3c06:	e8bd 81f0 	ldmia.w	sp!, {r4, r5, r6, r7, r8, pc}
/home/hsk/Desktop/devel/tee-tpm-hyp/optee_os/lib/libmbedtls/mbedtls/library/bignum.c:984
    3c0a:	68a2      	ldr	r2, [r4, #8]
    3c0c:	58d2      	ldr	r2, [r2, r3]
    3c0e:	3b04      	subs	r3, #4
    3c10:	2a00      	cmp	r2, #0
    3c12:	d1cc      	bne.n	3bae <mbedtls_mpi_add_abs+0x24>
/home/hsk/Desktop/devel/tee-tpm-hyp/optee_os/lib/libmbedtls/mbedtls/library/bignum.c:983 (discriminator 2)
    3c14:	3d01      	subs	r5, #1
    3c16:	e7c9      	b.n	3bac <mbedtls_mpi_add_abs+0x22>
    3c18:	680b      	ldr	r3, [r1, #0]
    3c1a:	3004      	adds	r0, #4
    3c1c:	f04f 0c00 	mov.w	ip, #0
    3c20:	eb13 0e04 	adds.w	lr, r3, r4
    3c24:	d301      	bcc.n	3c2a <mbedtls_mpi_add_abs+0xa0>
    3c26:	f04f 0c01 	mov.w	ip, #1
    3c2a:	6803      	ldr	r3, [r0, #0]
    3c2c:	2400      	movs	r4, #0
    3c2e:	eb1e 0303 	adds.w	r3, lr, r3
/home/hsk/Desktop/devel/tee-tpm-hyp/optee_os/lib/libmbedtls/mbedtls/library/bignum.c:998 (discriminator 3)
    3c32:	f841 3b04 	str.w	r3, [r1], #4
    3c36:	bf28      	it	cs
    3c38:	2401      	movcs	r4, #1
    3c3a:	4464      	add	r4, ip
    3c3c:	e7c3      	b.n	3bc6 <mbedtls_mpi_add_abs+0x3c>
/home/hsk/Desktop/devel/tee-tpm-hyp/optee_os/lib/libmbedtls/mbedtls/library/bignum.c:1005
    3c3e:	4607      	mov	r7, r0
/home/hsk/Desktop/devel/tee-tpm-hyp/optee_os/lib/libmbedtls/mbedtls/library/bignum.c:1014
    3c40:	e7e0      	b.n	3c04 <mbedtls_mpi_add_abs+0x7a>

00003c42 <mbedtls_mpi_sub_abs>:
mbedtls_mpi_sub_abs():
/home/hsk/Desktop/devel/tee-tpm-hyp/optee_os/lib/libmbedtls/mbedtls/library/bignum.c:1042
    3c42:	e92d 41ff 	stmdb	sp!, {r0, r1, r2, r3, r4, r5, r6, r7, r8, lr}
    3c46:	4688      	mov	r8, r1
    3c48:	4606      	mov	r6, r0
/home/hsk/Desktop/devel/tee-tpm-hyp/optee_os/lib/libmbedtls/mbedtls/library/bignum.c:1047
    3c4a:	4611      	mov	r1, r2
    3c4c:	4640      	mov	r0, r8
/home/hsk/Desktop/devel/tee-tpm-hyp/optee_os/lib/libmbedtls/mbedtls/library/bignum.c:1042
    3c4e:	4615      	mov	r5, r2
/home/hsk/Desktop/devel/tee-tpm-hyp/optee_os/lib/libmbedtls/mbedtls/library/bignum.c:1047
    3c50:	f7ff ff06 	bl	3a60 <mbedtls_mpi_cmp_abs>
    3c54:	2800      	cmp	r0, #0
    3c56:	db2e      	blt.n	3cb6 <mbedtls_mpi_sub_abs+0x74>
/home/hsk/Desktop/devel/tee-tpm-hyp/optee_os/lib/libmbedtls/mbedtls/library/bignum.c:1050
    3c58:	af01      	add	r7, sp, #4
    3c5a:	4638      	mov	r0, r7
    3c5c:	f7ff fbd8 	bl	3410 <mbedtls_mpi_init_mempool>
/home/hsk/Desktop/devel/tee-tpm-hyp/optee_os/lib/libmbedtls/mbedtls/library/bignum.c:1052
    3c60:	42b5      	cmp	r5, r6
    3c62:	d104      	bne.n	3c6e <mbedtls_mpi_sub_abs+0x2c>
/home/hsk/Desktop/devel/tee-tpm-hyp/optee_os/lib/libmbedtls/mbedtls/library/bignum.c:1054
    3c64:	f7ff fcd0 	bl	3608 <mbedtls_mpi_copy>
    3c68:	4604      	mov	r4, r0
    3c6a:	b9b8      	cbnz	r0, 3c9c <mbedtls_mpi_sub_abs+0x5a>
/home/hsk/Desktop/devel/tee-tpm-hyp/optee_os/lib/libmbedtls/mbedtls/library/bignum.c:1055
    3c6c:	463d      	mov	r5, r7
/home/hsk/Desktop/devel/tee-tpm-hyp/optee_os/lib/libmbedtls/mbedtls/library/bignum.c:1058
    3c6e:	45b0      	cmp	r8, r6
    3c70:	d10d      	bne.n	3c8e <mbedtls_mpi_sub_abs+0x4c>
/home/hsk/Desktop/devel/tee-tpm-hyp/optee_os/lib/libmbedtls/mbedtls/library/bignum.c:1064
    3c72:	2301      	movs	r3, #1
    3c74:	7033      	strb	r3, [r6, #0]
/home/hsk/Desktop/devel/tee-tpm-hyp/optee_os/lib/libmbedtls/mbedtls/library/bignum.c:1068
    3c76:	88a8      	ldrh	r0, [r5, #4]
    3c78:	68a9      	ldr	r1, [r5, #8]
    3c7a:	f100 4380 	add.w	r3, r0, #1073741824	; 0x40000000
    3c7e:	3b01      	subs	r3, #1
    3c80:	009b      	lsls	r3, r3, #2
/home/hsk/Desktop/devel/tee-tpm-hyp/optee_os/lib/libmbedtls/mbedtls/library/bignum.c:1068 (discriminator 1)
    3c82:	b990      	cbnz	r0, 3caa <mbedtls_mpi_sub_abs+0x68>
/home/hsk/Desktop/devel/tee-tpm-hyp/optee_os/lib/libmbedtls/mbedtls/library/bignum.c:1072
    3c84:	68b2      	ldr	r2, [r6, #8]
/home/hsk/Desktop/devel/tee-tpm-hyp/optee_os/lib/libmbedtls/mbedtls/library/bignum.c:1066
    3c86:	2400      	movs	r4, #0
/home/hsk/Desktop/devel/tee-tpm-hyp/optee_os/lib/libmbedtls/mbedtls/library/bignum.c:1072
    3c88:	f7ff f91c 	bl	2ec4 <mpi_sub_hlp>
    3c8c:	e006      	b.n	3c9c <mbedtls_mpi_sub_abs+0x5a>
/home/hsk/Desktop/devel/tee-tpm-hyp/optee_os/lib/libmbedtls/mbedtls/library/bignum.c:1059
    3c8e:	4641      	mov	r1, r8
    3c90:	4630      	mov	r0, r6
    3c92:	f7ff fcb9 	bl	3608 <mbedtls_mpi_copy>
    3c96:	4604      	mov	r4, r0
    3c98:	2800      	cmp	r0, #0
    3c9a:	d0ea      	beq.n	3c72 <mbedtls_mpi_sub_abs+0x30>
/home/hsk/Desktop/devel/tee-tpm-hyp/optee_os/lib/libmbedtls/mbedtls/library/bignum.c:1076
    3c9c:	4638      	mov	r0, r7
    3c9e:	f7ff fbd2 	bl	3446 <mbedtls_mpi_free>
/home/hsk/Desktop/devel/tee-tpm-hyp/optee_os/lib/libmbedtls/mbedtls/library/bignum.c:1079
    3ca2:	4620      	mov	r0, r4
    3ca4:	b004      	add	sp, #16
    3ca6:	e8bd 81f0 	ldmia.w	sp!, {r4, r5, r6, r7, r8, pc}
/home/hsk/Desktop/devel/tee-tpm-hyp/optee_os/lib/libmbedtls/mbedtls/library/bignum.c:1069
    3caa:	58ca      	ldr	r2, [r1, r3]
    3cac:	3b04      	subs	r3, #4
    3cae:	2a00      	cmp	r2, #0
    3cb0:	d1e8      	bne.n	3c84 <mbedtls_mpi_sub_abs+0x42>
/home/hsk/Desktop/devel/tee-tpm-hyp/optee_os/lib/libmbedtls/mbedtls/library/bignum.c:1068 (discriminator 2)
    3cb2:	3801      	subs	r0, #1
    3cb4:	e7e5      	b.n	3c82 <mbedtls_mpi_sub_abs+0x40>
/home/hsk/Desktop/devel/tee-tpm-hyp/optee_os/lib/libmbedtls/mbedtls/library/bignum.c:1048
    3cb6:	f06f 0409 	mvn.w	r4, #9
    3cba:	e7f2      	b.n	3ca2 <mbedtls_mpi_sub_abs+0x60>

00003cbc <mbedtls_mpi_add_mpi>:
mbedtls_mpi_add_mpi():
/home/hsk/Desktop/devel/tee-tpm-hyp/optee_os/lib/libmbedtls/mbedtls/library/bignum.c:1085
    3cbc:	b5f8      	push	{r3, r4, r5, r6, r7, lr}
    3cbe:	4605      	mov	r5, r0
    3cc0:	460f      	mov	r7, r1
/home/hsk/Desktop/devel/tee-tpm-hyp/optee_os/lib/libmbedtls/mbedtls/library/bignum.c:1086
    3cc2:	f991 4000 	ldrsb.w	r4, [r1]
/home/hsk/Desktop/devel/tee-tpm-hyp/optee_os/lib/libmbedtls/mbedtls/library/bignum.c:1085
    3cc6:	4616      	mov	r6, r2
/home/hsk/Desktop/devel/tee-tpm-hyp/optee_os/lib/libmbedtls/mbedtls/library/bignum.c:1088
    3cc8:	f992 3000 	ldrsb.w	r3, [r2]
    3ccc:	4363      	muls	r3, r4
    3cce:	d515      	bpl.n	3cfc <mbedtls_mpi_add_mpi+0x40>
/home/hsk/Desktop/devel/tee-tpm-hyp/optee_os/lib/libmbedtls/mbedtls/library/bignum.c:1090
    3cd0:	4611      	mov	r1, r2
    3cd2:	4638      	mov	r0, r7
    3cd4:	f7ff fec4 	bl	3a60 <mbedtls_mpi_cmp_abs>
    3cd8:	2800      	cmp	r0, #0
    3cda:	db06      	blt.n	3cea <mbedtls_mpi_add_mpi+0x2e>
/home/hsk/Desktop/devel/tee-tpm-hyp/optee_os/lib/libmbedtls/mbedtls/library/bignum.c:1092
    3cdc:	4632      	mov	r2, r6
    3cde:	4639      	mov	r1, r7
    3ce0:	4628      	mov	r0, r5
    3ce2:	f7ff ffae 	bl	3c42 <mbedtls_mpi_sub_abs>
/home/hsk/Desktop/devel/tee-tpm-hyp/optee_os/lib/libmbedtls/mbedtls/library/bignum.c:1103
    3ce6:	b138      	cbz	r0, 3cf8 <mbedtls_mpi_add_mpi+0x3c>
/home/hsk/Desktop/devel/tee-tpm-hyp/optee_os/lib/libmbedtls/mbedtls/library/bignum.c:1110
    3ce8:	bdf8      	pop	{r3, r4, r5, r6, r7, pc}
/home/hsk/Desktop/devel/tee-tpm-hyp/optee_os/lib/libmbedtls/mbedtls/library/bignum.c:1097
    3cea:	463a      	mov	r2, r7
    3cec:	4628      	mov	r0, r5
    3cee:	f7ff ffa8 	bl	3c42 <mbedtls_mpi_sub_abs>
    3cf2:	2800      	cmp	r0, #0
    3cf4:	d1f8      	bne.n	3ce8 <mbedtls_mpi_add_mpi+0x2c>
/home/hsk/Desktop/devel/tee-tpm-hyp/optee_os/lib/libmbedtls/mbedtls/library/bignum.c:1098
    3cf6:	4264      	negs	r4, r4
/home/hsk/Desktop/devel/tee-tpm-hyp/optee_os/lib/libmbedtls/mbedtls/library/bignum.c:1104
    3cf8:	702c      	strb	r4, [r5, #0]
/home/hsk/Desktop/devel/tee-tpm-hyp/optee_os/lib/libmbedtls/mbedtls/library/bignum.c:1109
    3cfa:	e7f5      	b.n	3ce8 <mbedtls_mpi_add_mpi+0x2c>
/home/hsk/Desktop/devel/tee-tpm-hyp/optee_os/lib/libmbedtls/mbedtls/library/bignum.c:1103
    3cfc:	f7ff ff45 	bl	3b8a <mbedtls_mpi_add_abs>
    3d00:	e7f1      	b.n	3ce6 <mbedtls_mpi_add_mpi+0x2a>

00003d02 <mbedtls_mpi_sub_mpi>:
mbedtls_mpi_sub_mpi():
/home/hsk/Desktop/devel/tee-tpm-hyp/optee_os/lib/libmbedtls/mbedtls/library/bignum.c:1116
    3d02:	b5f8      	push	{r3, r4, r5, r6, r7, lr}
    3d04:	4605      	mov	r5, r0
    3d06:	460f      	mov	r7, r1
/home/hsk/Desktop/devel/tee-tpm-hyp/optee_os/lib/libmbedtls/mbedtls/library/bignum.c:1117
    3d08:	f991 4000 	ldrsb.w	r4, [r1]
/home/hsk/Desktop/devel/tee-tpm-hyp/optee_os/lib/libmbedtls/mbedtls/library/bignum.c:1116
    3d0c:	4616      	mov	r6, r2
/home/hsk/Desktop/devel/tee-tpm-hyp/optee_os/lib/libmbedtls/mbedtls/library/bignum.c:1119
    3d0e:	f992 3000 	ldrsb.w	r3, [r2]
    3d12:	fb13 f304 	smulbb	r3, r3, r4
    3d16:	2b00      	cmp	r3, #0
    3d18:	dd15      	ble.n	3d46 <mbedtls_mpi_sub_mpi+0x44>
/home/hsk/Desktop/devel/tee-tpm-hyp/optee_os/lib/libmbedtls/mbedtls/library/bignum.c:1121
    3d1a:	4611      	mov	r1, r2
    3d1c:	4638      	mov	r0, r7
    3d1e:	f7ff fe9f 	bl	3a60 <mbedtls_mpi_cmp_abs>
    3d22:	2800      	cmp	r0, #0
    3d24:	db06      	blt.n	3d34 <mbedtls_mpi_sub_mpi+0x32>
/home/hsk/Desktop/devel/tee-tpm-hyp/optee_os/lib/libmbedtls/mbedtls/library/bignum.c:1123
    3d26:	4632      	mov	r2, r6
    3d28:	4639      	mov	r1, r7
    3d2a:	4628      	mov	r0, r5
    3d2c:	f7ff ff89 	bl	3c42 <mbedtls_mpi_sub_abs>
/home/hsk/Desktop/devel/tee-tpm-hyp/optee_os/lib/libmbedtls/mbedtls/library/bignum.c:1134
    3d30:	b138      	cbz	r0, 3d42 <mbedtls_mpi_sub_mpi+0x40>
/home/hsk/Desktop/devel/tee-tpm-hyp/optee_os/lib/libmbedtls/mbedtls/library/bignum.c:1141
    3d32:	bdf8      	pop	{r3, r4, r5, r6, r7, pc}
/home/hsk/Desktop/devel/tee-tpm-hyp/optee_os/lib/libmbedtls/mbedtls/library/bignum.c:1128
    3d34:	463a      	mov	r2, r7
    3d36:	4628      	mov	r0, r5
    3d38:	f7ff ff83 	bl	3c42 <mbedtls_mpi_sub_abs>
    3d3c:	2800      	cmp	r0, #0
    3d3e:	d1f8      	bne.n	3d32 <mbedtls_mpi_sub_mpi+0x30>
/home/hsk/Desktop/devel/tee-tpm-hyp/optee_os/lib/libmbedtls/mbedtls/library/bignum.c:1129
    3d40:	4264      	negs	r4, r4
/home/hsk/Desktop/devel/tee-tpm-hyp/optee_os/lib/libmbedtls/mbedtls/library/bignum.c:1135
    3d42:	702c      	strb	r4, [r5, #0]
/home/hsk/Desktop/devel/tee-tpm-hyp/optee_os/lib/libmbedtls/mbedtls/library/bignum.c:1140
    3d44:	e7f5      	b.n	3d32 <mbedtls_mpi_sub_mpi+0x30>
/home/hsk/Desktop/devel/tee-tpm-hyp/optee_os/lib/libmbedtls/mbedtls/library/bignum.c:1134
    3d46:	f7ff ff20 	bl	3b8a <mbedtls_mpi_add_abs>
    3d4a:	e7f1      	b.n	3d30 <mbedtls_mpi_sub_mpi+0x2e>

00003d4c <mbedtls_mpi_add_int>:
mbedtls_mpi_add_int():
/home/hsk/Desktop/devel/tee-tpm-hyp/optee_os/lib/libmbedtls/mbedtls/library/bignum.c:1147
    3d4c:	b51f      	push	{r0, r1, r2, r3, r4, lr}
/home/hsk/Desktop/devel/tee-tpm-hyp/optee_os/lib/libmbedtls/mbedtls/library/bignum.c:1151
    3d4e:	ea82 73e2 	eor.w	r3, r2, r2, asr #31
/home/hsk/Desktop/devel/tee-tpm-hyp/optee_os/lib/libmbedtls/mbedtls/library/bignum.c:1152
    3d52:	2a00      	cmp	r2, #0
/home/hsk/Desktop/devel/tee-tpm-hyp/optee_os/lib/libmbedtls/mbedtls/library/bignum.c:1151
    3d54:	eba3 73e2 	sub.w	r3, r3, r2, asr #31
/home/hsk/Desktop/devel/tee-tpm-hyp/optee_os/lib/libmbedtls/mbedtls/library/bignum.c:1156
    3d58:	aa01      	add	r2, sp, #4
/home/hsk/Desktop/devel/tee-tpm-hyp/optee_os/lib/libmbedtls/mbedtls/library/bignum.c:1151
    3d5a:	9300      	str	r3, [sp, #0]
/home/hsk/Desktop/devel/tee-tpm-hyp/optee_os/lib/libmbedtls/mbedtls/library/bignum.c:1152
    3d5c:	f04f 33ff 	mov.w	r3, #4294967295	; 0xffffffff
    3d60:	bfa8      	it	ge
    3d62:	2301      	movge	r3, #1
    3d64:	f88d 3004 	strb.w	r3, [sp, #4]
/home/hsk/Desktop/devel/tee-tpm-hyp/optee_os/lib/libmbedtls/mbedtls/library/bignum.c:1153
    3d68:	2301      	movs	r3, #1
    3d6a:	f8ad 3008 	strh.w	r3, [sp, #8]
/home/hsk/Desktop/devel/tee-tpm-hyp/optee_os/lib/libmbedtls/mbedtls/library/bignum.c:1154
    3d6e:	466b      	mov	r3, sp
    3d70:	9303      	str	r3, [sp, #12]
/home/hsk/Desktop/devel/tee-tpm-hyp/optee_os/lib/libmbedtls/mbedtls/library/bignum.c:1156
    3d72:	f7ff ffa3 	bl	3cbc <mbedtls_mpi_add_mpi>
/home/hsk/Desktop/devel/tee-tpm-hyp/optee_os/lib/libmbedtls/mbedtls/library/bignum.c:1157
    3d76:	b005      	add	sp, #20
    3d78:	f85d fb04 	ldr.w	pc, [sp], #4

00003d7c <mbedtls_mpi_sub_int>:
mbedtls_mpi_sub_int():
/home/hsk/Desktop/devel/tee-tpm-hyp/optee_os/lib/libmbedtls/mbedtls/library/bignum.c:1163
    3d7c:	b51f      	push	{r0, r1, r2, r3, r4, lr}
/home/hsk/Desktop/devel/tee-tpm-hyp/optee_os/lib/libmbedtls/mbedtls/library/bignum.c:1167
    3d7e:	ea82 73e2 	eor.w	r3, r2, r2, asr #31
/home/hsk/Desktop/devel/tee-tpm-hyp/optee_os/lib/libmbedtls/mbedtls/library/bignum.c:1168
    3d82:	2a00      	cmp	r2, #0
/home/hsk/Desktop/devel/tee-tpm-hyp/optee_os/lib/libmbedtls/mbedtls/library/bignum.c:1167
    3d84:	eba3 73e2 	sub.w	r3, r3, r2, asr #31
/home/hsk/Desktop/devel/tee-tpm-hyp/optee_os/lib/libmbedtls/mbedtls/library/bignum.c:1172
    3d88:	aa01      	add	r2, sp, #4
/home/hsk/Desktop/devel/tee-tpm-hyp/optee_os/lib/libmbedtls/mbedtls/library/bignum.c:1167
    3d8a:	9300      	str	r3, [sp, #0]
/home/hsk/Desktop/devel/tee-tpm-hyp/optee_os/lib/libmbedtls/mbedtls/library/bignum.c:1168
    3d8c:	f04f 33ff 	mov.w	r3, #4294967295	; 0xffffffff
    3d90:	bfa8      	it	ge
    3d92:	2301      	movge	r3, #1
    3d94:	f88d 3004 	strb.w	r3, [sp, #4]
/home/hsk/Desktop/devel/tee-tpm-hyp/optee_os/lib/libmbedtls/mbedtls/library/bignum.c:1169
    3d98:	2301      	movs	r3, #1
    3d9a:	f8ad 3008 	strh.w	r3, [sp, #8]
/home/hsk/Desktop/devel/tee-tpm-hyp/optee_os/lib/libmbedtls/mbedtls/library/bignum.c:1170
    3d9e:	466b      	mov	r3, sp
    3da0:	9303      	str	r3, [sp, #12]
/home/hsk/Desktop/devel/tee-tpm-hyp/optee_os/lib/libmbedtls/mbedtls/library/bignum.c:1172
    3da2:	f7ff ffae 	bl	3d02 <mbedtls_mpi_sub_mpi>
/home/hsk/Desktop/devel/tee-tpm-hyp/optee_os/lib/libmbedtls/mbedtls/library/bignum.c:1173
    3da6:	b005      	add	sp, #20
    3da8:	f85d fb04 	ldr.w	pc, [sp], #4

00003dac <mbedtls_mpi_mul_mpi>:
mbedtls_mpi_mul_mpi():
/home/hsk/Desktop/devel/tee-tpm-hyp/optee_os/lib/libmbedtls/mbedtls/library/bignum.c:1251
    3dac:	e92d 4ff0 	stmdb	sp!, {r4, r5, r6, r7, r8, r9, sl, fp, lr}
    3db0:	4604      	mov	r4, r0
    3db2:	460e      	mov	r6, r1
    3db4:	b087      	sub	sp, #28
    3db6:	4615      	mov	r5, r2
/home/hsk/Desktop/devel/tee-tpm-hyp/optee_os/lib/libmbedtls/mbedtls/library/bignum.c:1256
    3db8:	46e8      	mov	r8, sp
    3dba:	f10d 090c 	add.w	r9, sp, #12
    3dbe:	4640      	mov	r0, r8
    3dc0:	f7ff fb26 	bl	3410 <mbedtls_mpi_init_mempool>
    3dc4:	4648      	mov	r0, r9
    3dc6:	f7ff fb23 	bl	3410 <mbedtls_mpi_init_mempool>
/home/hsk/Desktop/devel/tee-tpm-hyp/optee_os/lib/libmbedtls/mbedtls/library/bignum.c:1258
    3dca:	428c      	cmp	r4, r1
    3dcc:	d106      	bne.n	3ddc <mbedtls_mpi_mul_mpi+0x30>
/home/hsk/Desktop/devel/tee-tpm-hyp/optee_os/lib/libmbedtls/mbedtls/library/bignum.c:1258 (discriminator 1)
    3dce:	4621      	mov	r1, r4
    3dd0:	4640      	mov	r0, r8
    3dd2:	f7ff fc19 	bl	3608 <mbedtls_mpi_copy>
    3dd6:	4683      	mov	fp, r0
    3dd8:	bb88      	cbnz	r0, 3e3e <mbedtls_mpi_mul_mpi+0x92>
/home/hsk/Desktop/devel/tee-tpm-hyp/optee_os/lib/libmbedtls/mbedtls/library/bignum.c:1258
    3dda:	4646      	mov	r6, r8
/home/hsk/Desktop/devel/tee-tpm-hyp/optee_os/lib/libmbedtls/mbedtls/library/bignum.c:1259
    3ddc:	42ac      	cmp	r4, r5
    3dde:	d106      	bne.n	3dee <mbedtls_mpi_mul_mpi+0x42>
/home/hsk/Desktop/devel/tee-tpm-hyp/optee_os/lib/libmbedtls/mbedtls/library/bignum.c:1259 (discriminator 1)
    3de0:	4621      	mov	r1, r4
    3de2:	4648      	mov	r0, r9
    3de4:	f7ff fc10 	bl	3608 <mbedtls_mpi_copy>
    3de8:	4683      	mov	fp, r0
    3dea:	bb40      	cbnz	r0, 3e3e <mbedtls_mpi_mul_mpi+0x92>
/home/hsk/Desktop/devel/tee-tpm-hyp/optee_os/lib/libmbedtls/mbedtls/library/bignum.c:1259
    3dec:	464d      	mov	r5, r9
/home/hsk/Desktop/devel/tee-tpm-hyp/optee_os/lib/libmbedtls/mbedtls/library/bignum.c:1261
    3dee:	88b7      	ldrh	r7, [r6, #4]
    3df0:	f107 4380 	add.w	r3, r7, #1073741824	; 0x40000000
    3df4:	3b01      	subs	r3, #1
    3df6:	009b      	lsls	r3, r3, #2
/home/hsk/Desktop/devel/tee-tpm-hyp/optee_os/lib/libmbedtls/mbedtls/library/bignum.c:1261 (discriminator 1)
    3df8:	bb5f      	cbnz	r7, 3e52 <mbedtls_mpi_mul_mpi+0xa6>
/home/hsk/Desktop/devel/tee-tpm-hyp/optee_os/lib/libmbedtls/mbedtls/library/bignum.c:1265
    3dfa:	f8b5 a004 	ldrh.w	sl, [r5, #4]
    3dfe:	f10a 4380 	add.w	r3, sl, #1073741824	; 0x40000000
    3e02:	3b01      	subs	r3, #1
    3e04:	009b      	lsls	r3, r3, #2
/home/hsk/Desktop/devel/tee-tpm-hyp/optee_os/lib/libmbedtls/mbedtls/library/bignum.c:1265 (discriminator 1)
    3e06:	f1ba 0f00 	cmp.w	sl, #0
    3e0a:	d129      	bne.n	3e60 <mbedtls_mpi_mul_mpi+0xb4>
/home/hsk/Desktop/devel/tee-tpm-hyp/optee_os/lib/libmbedtls/mbedtls/library/bignum.c:1269
    3e0c:	eb07 010a 	add.w	r1, r7, sl
    3e10:	4620      	mov	r0, r4
    3e12:	f7ff fb3f 	bl	3494 <mbedtls_mpi_grow>
    3e16:	4683      	mov	fp, r0
    3e18:	b988      	cbnz	r0, 3e3e <mbedtls_mpi_mul_mpi+0x92>
/home/hsk/Desktop/devel/tee-tpm-hyp/optee_os/lib/libmbedtls/mbedtls/library/bignum.c:1270
    3e1a:	4601      	mov	r1, r0
    3e1c:	4620      	mov	r0, r4
    3e1e:	f7ff fcae 	bl	377e <mbedtls_mpi_lset>
    3e22:	4683      	mov	fp, r0
    3e24:	b958      	cbnz	r0, 3e3e <mbedtls_mpi_mul_mpi+0x92>
    3e26:	ea4f 0a8a 	mov.w	sl, sl, lsl #2
    3e2a:	f1aa 0a04 	sub.w	sl, sl, #4
/home/hsk/Desktop/devel/tee-tpm-hyp/optee_os/lib/libmbedtls/mbedtls/library/bignum.c:1272 (discriminator 1)
    3e2e:	f11a 0f04 	cmn.w	sl, #4
    3e32:	d11d      	bne.n	3e70 <mbedtls_mpi_mul_mpi+0xc4>
/home/hsk/Desktop/devel/tee-tpm-hyp/optee_os/lib/libmbedtls/mbedtls/library/bignum.c:1275
    3e34:	7833      	ldrb	r3, [r6, #0]
    3e36:	782a      	ldrb	r2, [r5, #0]
    3e38:	fb13 f302 	smulbb	r3, r3, r2
    3e3c:	7023      	strb	r3, [r4, #0]
/home/hsk/Desktop/devel/tee-tpm-hyp/optee_os/lib/libmbedtls/mbedtls/library/bignum.c:1279
    3e3e:	4648      	mov	r0, r9
    3e40:	f7ff fb01 	bl	3446 <mbedtls_mpi_free>
    3e44:	4640      	mov	r0, r8
    3e46:	f7ff fafe 	bl	3446 <mbedtls_mpi_free>
/home/hsk/Desktop/devel/tee-tpm-hyp/optee_os/lib/libmbedtls/mbedtls/library/bignum.c:1282
    3e4a:	4658      	mov	r0, fp
    3e4c:	b007      	add	sp, #28
    3e4e:	e8bd 8ff0 	ldmia.w	sp!, {r4, r5, r6, r7, r8, r9, sl, fp, pc}
/home/hsk/Desktop/devel/tee-tpm-hyp/optee_os/lib/libmbedtls/mbedtls/library/bignum.c:1262
    3e52:	68b2      	ldr	r2, [r6, #8]
    3e54:	58d2      	ldr	r2, [r2, r3]
    3e56:	3b04      	subs	r3, #4
    3e58:	2a00      	cmp	r2, #0
    3e5a:	d1ce      	bne.n	3dfa <mbedtls_mpi_mul_mpi+0x4e>
/home/hsk/Desktop/devel/tee-tpm-hyp/optee_os/lib/libmbedtls/mbedtls/library/bignum.c:1261 (discriminator 2)
    3e5c:	3f01      	subs	r7, #1
    3e5e:	e7cb      	b.n	3df8 <mbedtls_mpi_mul_mpi+0x4c>
/home/hsk/Desktop/devel/tee-tpm-hyp/optee_os/lib/libmbedtls/mbedtls/library/bignum.c:1266
    3e60:	68aa      	ldr	r2, [r5, #8]
    3e62:	58d2      	ldr	r2, [r2, r3]
    3e64:	3b04      	subs	r3, #4
    3e66:	2a00      	cmp	r2, #0
    3e68:	d1d0      	bne.n	3e0c <mbedtls_mpi_mul_mpi+0x60>
/home/hsk/Desktop/devel/tee-tpm-hyp/optee_os/lib/libmbedtls/mbedtls/library/bignum.c:1265 (discriminator 2)
    3e6a:	f10a 3aff 	add.w	sl, sl, #4294967295	; 0xffffffff
    3e6e:	e7ca      	b.n	3e06 <mbedtls_mpi_mul_mpi+0x5a>
/home/hsk/Desktop/devel/tee-tpm-hyp/optee_os/lib/libmbedtls/mbedtls/library/bignum.c:1273 (discriminator 3)
    3e70:	68ab      	ldr	r3, [r5, #8]
    3e72:	4638      	mov	r0, r7
    3e74:	68a2      	ldr	r2, [r4, #8]
    3e76:	68b1      	ldr	r1, [r6, #8]
    3e78:	f853 300a 	ldr.w	r3, [r3, sl]
    3e7c:	4452      	add	r2, sl
    3e7e:	f7ff f84f 	bl	2f20 <mpi_mul_hlp>
    3e82:	e7d2      	b.n	3e2a <mbedtls_mpi_mul_mpi+0x7e>

00003e84 <mbedtls_mpi_mul_int>:
mbedtls_mpi_mul_int():
/home/hsk/Desktop/devel/tee-tpm-hyp/optee_os/lib/libmbedtls/mbedtls/library/bignum.c:1288
    3e84:	b51f      	push	{r0, r1, r2, r3, r4, lr}
/home/hsk/Desktop/devel/tee-tpm-hyp/optee_os/lib/libmbedtls/mbedtls/library/bignum.c:1292
    3e86:	2301      	movs	r3, #1
/home/hsk/Desktop/devel/tee-tpm-hyp/optee_os/lib/libmbedtls/mbedtls/library/bignum.c:1295
    3e88:	9200      	str	r2, [sp, #0]
/home/hsk/Desktop/devel/tee-tpm-hyp/optee_os/lib/libmbedtls/mbedtls/library/bignum.c:1297
    3e8a:	aa01      	add	r2, sp, #4
/home/hsk/Desktop/devel/tee-tpm-hyp/optee_os/lib/libmbedtls/mbedtls/library/bignum.c:1292
    3e8c:	f88d 3004 	strb.w	r3, [sp, #4]
/home/hsk/Desktop/devel/tee-tpm-hyp/optee_os/lib/libmbedtls/mbedtls/library/bignum.c:1293
    3e90:	f8ad 3008 	strh.w	r3, [sp, #8]
/home/hsk/Desktop/devel/tee-tpm-hyp/optee_os/lib/libmbedtls/mbedtls/library/bignum.c:1294
    3e94:	466b      	mov	r3, sp
    3e96:	9303      	str	r3, [sp, #12]
/home/hsk/Desktop/devel/tee-tpm-hyp/optee_os/lib/libmbedtls/mbedtls/library/bignum.c:1297
    3e98:	f7ff ff88 	bl	3dac <mbedtls_mpi_mul_mpi>
/home/hsk/Desktop/devel/tee-tpm-hyp/optee_os/lib/libmbedtls/mbedtls/library/bignum.c:1298
    3e9c:	b005      	add	sp, #20
    3e9e:	f85d fb04 	ldr.w	pc, [sp], #4

00003ea2 <mbedtls_mpi_read_string>:
mbedtls_mpi_read_string():
/home/hsk/Desktop/devel/tee-tpm-hyp/optee_os/lib/libmbedtls/mbedtls/library/bignum.c:502
    3ea2:	e92d 4ff0 	stmdb	sp!, {r4, r5, r6, r7, r8, r9, sl, fp, lr}
/home/hsk/Desktop/devel/tee-tpm-hyp/optee_os/lib/libmbedtls/mbedtls/library/bignum.c:508
    3ea6:	1e8b      	subs	r3, r1, #2
/home/hsk/Desktop/devel/tee-tpm-hyp/optee_os/lib/libmbedtls/mbedtls/library/bignum.c:502
    3ea8:	4604      	mov	r4, r0
    3eaa:	b087      	sub	sp, #28
    3eac:	4689      	mov	r9, r1
    3eae:	4690      	mov	r8, r2
/home/hsk/Desktop/devel/tee-tpm-hyp/optee_os/lib/libmbedtls/mbedtls/library/bignum.c:508
    3eb0:	2b0e      	cmp	r3, #14
    3eb2:	d905      	bls.n	3ec0 <mbedtls_mpi_read_string+0x1e>
/home/hsk/Desktop/devel/tee-tpm-hyp/optee_os/lib/libmbedtls/mbedtls/library/bignum.c:509
    3eb4:	f06f 0a03 	mvn.w	sl, #3
/home/hsk/Desktop/devel/tee-tpm-hyp/optee_os/lib/libmbedtls/mbedtls/library/bignum.c:568
    3eb8:	4650      	mov	r0, sl
    3eba:	b007      	add	sp, #28
    3ebc:	e8bd 8ff0 	ldmia.w	sp!, {r4, r5, r6, r7, r8, r9, sl, fp, pc}
/home/hsk/Desktop/devel/tee-tpm-hyp/optee_os/lib/libmbedtls/mbedtls/library/bignum.c:511
    3ec0:	ae03      	add	r6, sp, #12
    3ec2:	4630      	mov	r0, r6
    3ec4:	f7ff faa4 	bl	3410 <mbedtls_mpi_init_mempool>
/home/hsk/Desktop/devel/tee-tpm-hyp/optee_os/lib/libmbedtls/mbedtls/library/bignum.c:513
    3ec8:	4640      	mov	r0, r8
    3eca:	f002 fa7a 	bl	63c2 <strlen>
/home/hsk/Desktop/devel/tee-tpm-hyp/optee_os/lib/libmbedtls/mbedtls/library/bignum.c:515
    3ece:	f1b9 0f10 	cmp.w	r9, #16
/home/hsk/Desktop/devel/tee-tpm-hyp/optee_os/lib/libmbedtls/mbedtls/library/bignum.c:513
    3ed2:	4605      	mov	r5, r0
/home/hsk/Desktop/devel/tee-tpm-hyp/optee_os/lib/libmbedtls/mbedtls/library/bignum.c:515
    3ed4:	d141      	bne.n	3f5a <mbedtls_mpi_read_string+0xb8>
/home/hsk/Desktop/devel/tee-tpm-hyp/optee_os/lib/libmbedtls/mbedtls/library/bignum.c:517
    3ed6:	f1b0 4f80 	cmp.w	r0, #1073741824	; 0x40000000
    3eda:	d2eb      	bcs.n	3eb4 <mbedtls_mpi_read_string+0x12>
/home/hsk/Desktop/devel/tee-tpm-hyp/optee_os/lib/libmbedtls/mbedtls/library/bignum.c:520
    3edc:	0083      	lsls	r3, r0, #2
    3ede:	2101      	movs	r1, #1
    3ee0:	f013 0f1c 	tst.w	r3, #28
/home/hsk/Desktop/devel/tee-tpm-hyp/optee_os/lib/libmbedtls/mbedtls/library/bignum.c:522
    3ee4:	4620      	mov	r0, r4
/home/hsk/Desktop/devel/tee-tpm-hyp/optee_os/lib/libmbedtls/mbedtls/library/bignum.c:520
    3ee6:	bf08      	it	eq
    3ee8:	2100      	moveq	r1, #0
/home/hsk/Desktop/devel/tee-tpm-hyp/optee_os/lib/libmbedtls/mbedtls/library/bignum.c:522
    3eea:	eb01 1153 	add.w	r1, r1, r3, lsr #5
    3eee:	f7ff fad1 	bl	3494 <mbedtls_mpi_grow>
    3ef2:	4682      	mov	sl, r0
    3ef4:	b9a0      	cbnz	r0, 3f20 <mbedtls_mpi_read_string+0x7e>
/home/hsk/Desktop/devel/tee-tpm-hyp/optee_os/lib/libmbedtls/mbedtls/library/bignum.c:523
    3ef6:	4601      	mov	r1, r0
    3ef8:	4620      	mov	r0, r4
    3efa:	f7ff fc40 	bl	377e <mbedtls_mpi_lset>
    3efe:	4682      	mov	sl, r0
    3f00:	b970      	cbnz	r0, 3f20 <mbedtls_mpi_read_string+0x7e>
/home/hsk/Desktop/devel/tee-tpm-hyp/optee_os/lib/libmbedtls/mbedtls/library/bignum.c:525
    3f02:	4607      	mov	r7, r0
/home/hsk/Desktop/devel/tee-tpm-hyp/optee_os/lib/libmbedtls/mbedtls/library/bignum.c:533
    3f04:	f10d 0908 	add.w	r9, sp, #8
/home/hsk/Desktop/devel/tee-tpm-hyp/optee_os/lib/libmbedtls/mbedtls/library/bignum.c:525 (discriminator 1)
    3f08:	b915      	cbnz	r5, 3f10 <mbedtls_mpi_read_string+0x6e>
/home/hsk/Desktop/devel/tee-tpm-hyp/optee_os/lib/libmbedtls/mbedtls/library/bignum.c:533
    3f0a:	f04f 0a00 	mov.w	sl, #0
    3f0e:	e007      	b.n	3f20 <mbedtls_mpi_read_string+0x7e>
/home/hsk/Desktop/devel/tee-tpm-hyp/optee_os/lib/libmbedtls/mbedtls/library/bignum.c:527
    3f10:	2d01      	cmp	r5, #1
    3f12:	d109      	bne.n	3f28 <mbedtls_mpi_read_string+0x86>
/home/hsk/Desktop/devel/tee-tpm-hyp/optee_os/lib/libmbedtls/mbedtls/library/bignum.c:527 (discriminator 1)
    3f14:	f898 2000 	ldrb.w	r2, [r8]
    3f18:	2a2d      	cmp	r2, #45	; 0x2d
    3f1a:	d105      	bne.n	3f28 <mbedtls_mpi_read_string+0x86>
/home/hsk/Desktop/devel/tee-tpm-hyp/optee_os/lib/libmbedtls/mbedtls/library/bignum.c:529
    3f1c:	22ff      	movs	r2, #255	; 0xff
    3f1e:	7022      	strb	r2, [r4, #0]
/home/hsk/Desktop/devel/tee-tpm-hyp/optee_os/lib/libmbedtls/mbedtls/library/bignum.c:565
    3f20:	4630      	mov	r0, r6
    3f22:	f7ff fa90 	bl	3446 <mbedtls_mpi_free>
/home/hsk/Desktop/devel/tee-tpm-hyp/optee_os/lib/libmbedtls/mbedtls/library/bignum.c:567
    3f26:	e7c7      	b.n	3eb8 <mbedtls_mpi_read_string+0x16>
/home/hsk/Desktop/devel/tee-tpm-hyp/optee_os/lib/libmbedtls/mbedtls/library/bignum.c:533
    3f28:	3d01      	subs	r5, #1
    3f2a:	2110      	movs	r1, #16
    3f2c:	4648      	mov	r0, r9
    3f2e:	f818 2005 	ldrb.w	r2, [r8, r5]
    3f32:	f7fe ffab 	bl	2e8c <mpi_get_digit>
    3f36:	2800      	cmp	r0, #0
    3f38:	d147      	bne.n	3fca <mbedtls_mpi_read_string+0x128>
/home/hsk/Desktop/devel/tee-tpm-hyp/optee_os/lib/libmbedtls/mbedtls/library/bignum.c:534 (discriminator 2)
    3f3a:	ea4f 0cd7 	mov.w	ip, r7, lsr #3
    3f3e:	9a02      	ldr	r2, [sp, #8]
    3f40:	68a0      	ldr	r0, [r4, #8]
    3f42:	00b9      	lsls	r1, r7, #2
    3f44:	f001 011c 	and.w	r1, r1, #28
/home/hsk/Desktop/devel/tee-tpm-hyp/optee_os/lib/libmbedtls/mbedtls/library/bignum.c:525 (discriminator 2)
    3f48:	3701      	adds	r7, #1
/home/hsk/Desktop/devel/tee-tpm-hyp/optee_os/lib/libmbedtls/mbedtls/library/bignum.c:534 (discriminator 2)
    3f4a:	fa02 f101 	lsl.w	r1, r2, r1
    3f4e:	f850 202c 	ldr.w	r2, [r0, ip, lsl #2]
    3f52:	430a      	orrs	r2, r1
    3f54:	f840 202c 	str.w	r2, [r0, ip, lsl #2]
    3f58:	e7d6      	b.n	3f08 <mbedtls_mpi_read_string+0x66>
/home/hsk/Desktop/devel/tee-tpm-hyp/optee_os/lib/libmbedtls/mbedtls/library/bignum.c:539
    3f5a:	2100      	movs	r1, #0
    3f5c:	4620      	mov	r0, r4
    3f5e:	f7ff fc0e 	bl	377e <mbedtls_mpi_lset>
    3f62:	4682      	mov	sl, r0
    3f64:	2800      	cmp	r0, #0
    3f66:	d1db      	bne.n	3f20 <mbedtls_mpi_read_string+0x7e>
/home/hsk/Desktop/devel/tee-tpm-hyp/optee_os/lib/libmbedtls/mbedtls/library/bignum.c:541
    3f68:	4607      	mov	r7, r0
/home/hsk/Desktop/devel/tee-tpm-hyp/optee_os/lib/libmbedtls/mbedtls/library/bignum.c:545
    3f6a:	f04f 0bff 	mov.w	fp, #255	; 0xff
/home/hsk/Desktop/devel/tee-tpm-hyp/optee_os/lib/libmbedtls/mbedtls/library/bignum.c:549
    3f6e:	ab02      	add	r3, sp, #8
    3f70:	9301      	str	r3, [sp, #4]
/home/hsk/Desktop/devel/tee-tpm-hyp/optee_os/lib/libmbedtls/mbedtls/library/bignum.c:541 (discriminator 1)
    3f72:	42af      	cmp	r7, r5
    3f74:	d0c9      	beq.n	3f0a <mbedtls_mpi_read_string+0x68>
/home/hsk/Desktop/devel/tee-tpm-hyp/optee_os/lib/libmbedtls/mbedtls/library/bignum.c:543
    3f76:	b93f      	cbnz	r7, 3f88 <mbedtls_mpi_read_string+0xe6>
/home/hsk/Desktop/devel/tee-tpm-hyp/optee_os/lib/libmbedtls/mbedtls/library/bignum.c:543 (discriminator 1)
    3f78:	f898 3000 	ldrb.w	r3, [r8]
    3f7c:	2b2d      	cmp	r3, #45	; 0x2d
    3f7e:	d103      	bne.n	3f88 <mbedtls_mpi_read_string+0xe6>
/home/hsk/Desktop/devel/tee-tpm-hyp/optee_os/lib/libmbedtls/mbedtls/library/bignum.c:545
    3f80:	f884 b000 	strb.w	fp, [r4]
/home/hsk/Desktop/devel/tee-tpm-hyp/optee_os/lib/libmbedtls/mbedtls/library/bignum.c:541 (discriminator 2)
    3f84:	3701      	adds	r7, #1
    3f86:	e7f4      	b.n	3f72 <mbedtls_mpi_read_string+0xd0>
/home/hsk/Desktop/devel/tee-tpm-hyp/optee_os/lib/libmbedtls/mbedtls/library/bignum.c:549
    3f88:	f818 2007 	ldrb.w	r2, [r8, r7]
    3f8c:	4649      	mov	r1, r9
    3f8e:	9801      	ldr	r0, [sp, #4]
    3f90:	f7fe ff7c 	bl	2e8c <mpi_get_digit>
    3f94:	4682      	mov	sl, r0
    3f96:	2800      	cmp	r0, #0
    3f98:	d1c2      	bne.n	3f20 <mbedtls_mpi_read_string+0x7e>
/home/hsk/Desktop/devel/tee-tpm-hyp/optee_os/lib/libmbedtls/mbedtls/library/bignum.c:550
    3f9a:	464a      	mov	r2, r9
    3f9c:	4621      	mov	r1, r4
    3f9e:	4630      	mov	r0, r6
    3fa0:	f7ff ff70 	bl	3e84 <mbedtls_mpi_mul_int>
    3fa4:	4682      	mov	sl, r0
    3fa6:	2800      	cmp	r0, #0
    3fa8:	d1ba      	bne.n	3f20 <mbedtls_mpi_read_string+0x7e>
/home/hsk/Desktop/devel/tee-tpm-hyp/optee_os/lib/libmbedtls/mbedtls/library/bignum.c:552
    3faa:	f994 3000 	ldrsb.w	r3, [r4]
/home/hsk/Desktop/devel/tee-tpm-hyp/optee_os/lib/libmbedtls/mbedtls/library/bignum.c:554
    3fae:	4631      	mov	r1, r6
    3fb0:	9a02      	ldr	r2, [sp, #8]
    3fb2:	4620      	mov	r0, r4
/home/hsk/Desktop/devel/tee-tpm-hyp/optee_os/lib/libmbedtls/mbedtls/library/bignum.c:552
    3fb4:	2b01      	cmp	r3, #1
    3fb6:	d105      	bne.n	3fc4 <mbedtls_mpi_read_string+0x122>
/home/hsk/Desktop/devel/tee-tpm-hyp/optee_os/lib/libmbedtls/mbedtls/library/bignum.c:554
    3fb8:	f7ff fec8 	bl	3d4c <mbedtls_mpi_add_int>
/home/hsk/Desktop/devel/tee-tpm-hyp/optee_os/lib/libmbedtls/mbedtls/library/bignum.c:558
    3fbc:	4682      	mov	sl, r0
    3fbe:	2800      	cmp	r0, #0
    3fc0:	d0e0      	beq.n	3f84 <mbedtls_mpi_read_string+0xe2>
/home/hsk/Desktop/devel/tee-tpm-hyp/optee_os/lib/libmbedtls/mbedtls/library/bignum.c:563
    3fc2:	e7ad      	b.n	3f20 <mbedtls_mpi_read_string+0x7e>
/home/hsk/Desktop/devel/tee-tpm-hyp/optee_os/lib/libmbedtls/mbedtls/library/bignum.c:558
    3fc4:	f7ff feda 	bl	3d7c <mbedtls_mpi_sub_int>
    3fc8:	e7f8      	b.n	3fbc <mbedtls_mpi_read_string+0x11a>
/home/hsk/Desktop/devel/tee-tpm-hyp/optee_os/lib/libmbedtls/mbedtls/library/bignum.c:533
    3fca:	4682      	mov	sl, r0
    3fcc:	e7a8      	b.n	3f20 <mbedtls_mpi_read_string+0x7e>

00003fce <mbedtls_mpi_div_mpi>:
mbedtls_mpi_div_mpi():
/home/hsk/Desktop/devel/tee-tpm-hyp/optee_os/lib/libmbedtls/mbedtls/library/bignum.c:1400
    3fce:	e92d 4ff0 	stmdb	sp!, {r4, r5, r6, r7, r8, r9, sl, fp, lr}
    3fd2:	4688      	mov	r8, r1
/home/hsk/Desktop/devel/tee-tpm-hyp/optee_os/lib/libmbedtls/mbedtls/library/bignum.c:1405
    3fd4:	2100      	movs	r1, #0
/home/hsk/Desktop/devel/tee-tpm-hyp/optee_os/lib/libmbedtls/mbedtls/library/bignum.c:1400
    3fd6:	b09d      	sub	sp, #116	; 0x74
    3fd8:	4691      	mov	r9, r2
    3fda:	9002      	str	r0, [sp, #8]
/home/hsk/Desktop/devel/tee-tpm-hyp/optee_os/lib/libmbedtls/mbedtls/library/bignum.c:1405
    3fdc:	4618      	mov	r0, r3
/home/hsk/Desktop/devel/tee-tpm-hyp/optee_os/lib/libmbedtls/mbedtls/library/bignum.c:1400
    3fde:	9305      	str	r3, [sp, #20]
/home/hsk/Desktop/devel/tee-tpm-hyp/optee_os/lib/libmbedtls/mbedtls/library/bignum.c:1405
    3fe0:	f7ff fdbb 	bl	3b5a <mbedtls_mpi_cmp_int>
    3fe4:	2800      	cmp	r0, #0
    3fe6:	f000 81ba 	beq.w	435e <mbedtls_mpi_div_mpi+0x390>
/home/hsk/Desktop/devel/tee-tpm-hyp/optee_os/lib/libmbedtls/mbedtls/library/bignum.c:1408
    3fea:	ae0d      	add	r6, sp, #52	; 0x34
    3fec:	ad10      	add	r5, sp, #64	; 0x40
    3fee:	4630      	mov	r0, r6
/home/hsk/Desktop/devel/tee-tpm-hyp/optee_os/lib/libmbedtls/mbedtls/library/bignum.c:1409
    3ff0:	af13      	add	r7, sp, #76	; 0x4c
/home/hsk/Desktop/devel/tee-tpm-hyp/optee_os/lib/libmbedtls/mbedtls/library/bignum.c:1408
    3ff2:	f7ff fa0d 	bl	3410 <mbedtls_mpi_init_mempool>
    3ff6:	4628      	mov	r0, r5
    3ff8:	f7ff fa0a 	bl	3410 <mbedtls_mpi_init_mempool>
/home/hsk/Desktop/devel/tee-tpm-hyp/optee_os/lib/libmbedtls/mbedtls/library/bignum.c:1409
    3ffc:	f10d 0b58 	add.w	fp, sp, #88	; 0x58
    4000:	4638      	mov	r0, r7
/home/hsk/Desktop/devel/tee-tpm-hyp/optee_os/lib/libmbedtls/mbedtls/library/bignum.c:1410
    4002:	f10d 0a64 	add.w	sl, sp, #100	; 0x64
/home/hsk/Desktop/devel/tee-tpm-hyp/optee_os/lib/libmbedtls/mbedtls/library/bignum.c:1409
    4006:	f7ff fa03 	bl	3410 <mbedtls_mpi_init_mempool>
    400a:	4658      	mov	r0, fp
    400c:	f7ff fa00 	bl	3410 <mbedtls_mpi_init_mempool>
/home/hsk/Desktop/devel/tee-tpm-hyp/optee_os/lib/libmbedtls/mbedtls/library/bignum.c:1410
    4010:	4650      	mov	r0, sl
    4012:	f7ff f9fd 	bl	3410 <mbedtls_mpi_init_mempool>
/home/hsk/Desktop/devel/tee-tpm-hyp/optee_os/lib/libmbedtls/mbedtls/library/bignum.c:1412
    4016:	9905      	ldr	r1, [sp, #20]
    4018:	4648      	mov	r0, r9
    401a:	f7ff fd21 	bl	3a60 <mbedtls_mpi_cmp_abs>
    401e:	2800      	cmp	r0, #0
    4020:	da28      	bge.n	4074 <mbedtls_mpi_div_mpi+0xa6>
/home/hsk/Desktop/devel/tee-tpm-hyp/optee_os/lib/libmbedtls/mbedtls/library/bignum.c:1414
    4022:	9b02      	ldr	r3, [sp, #8]
    4024:	b93b      	cbnz	r3, 4036 <mbedtls_mpi_div_mpi+0x68>
/home/hsk/Desktop/devel/tee-tpm-hyp/optee_os/lib/libmbedtls/mbedtls/library/bignum.c:1415
    4026:	f1b8 0f00 	cmp.w	r8, #0
    402a:	d11b      	bne.n	4064 <mbedtls_mpi_div_mpi+0x96>
/home/hsk/Desktop/devel/tee-tpm-hyp/optee_os/lib/libmbedtls/mbedtls/library/bignum.c:1416
    402c:	2400      	movs	r4, #0
/home/hsk/Desktop/devel/tee-tpm-hyp/optee_os/lib/libmbedtls/mbedtls/library/bignum.c:1510
    402e:	4620      	mov	r0, r4
    4030:	b01d      	add	sp, #116	; 0x74
    4032:	e8bd 8ff0 	ldmia.w	sp!, {r4, r5, r6, r7, r8, r9, sl, fp, pc}
/home/hsk/Desktop/devel/tee-tpm-hyp/optee_os/lib/libmbedtls/mbedtls/library/bignum.c:1414 (discriminator 1)
    4036:	2100      	movs	r1, #0
    4038:	9802      	ldr	r0, [sp, #8]
    403a:	f7ff fba0 	bl	377e <mbedtls_mpi_lset>
    403e:	4604      	mov	r4, r0
    4040:	2800      	cmp	r0, #0
    4042:	d0f0      	beq.n	4026 <mbedtls_mpi_div_mpi+0x58>
/home/hsk/Desktop/devel/tee-tpm-hyp/optee_os/lib/libmbedtls/mbedtls/library/bignum.c:1506
    4044:	a80d      	add	r0, sp, #52	; 0x34
    4046:	f7ff f9fe 	bl	3446 <mbedtls_mpi_free>
    404a:	a810      	add	r0, sp, #64	; 0x40
    404c:	f7ff f9fb 	bl	3446 <mbedtls_mpi_free>
    4050:	a813      	add	r0, sp, #76	; 0x4c
    4052:	f7ff f9f8 	bl	3446 <mbedtls_mpi_free>
/home/hsk/Desktop/devel/tee-tpm-hyp/optee_os/lib/libmbedtls/mbedtls/library/bignum.c:1507
    4056:	a816      	add	r0, sp, #88	; 0x58
    4058:	f7ff f9f5 	bl	3446 <mbedtls_mpi_free>
    405c:	a819      	add	r0, sp, #100	; 0x64
    405e:	f7ff f9f2 	bl	3446 <mbedtls_mpi_free>
/home/hsk/Desktop/devel/tee-tpm-hyp/optee_os/lib/libmbedtls/mbedtls/library/bignum.c:1509
    4062:	e7e4      	b.n	402e <mbedtls_mpi_div_mpi+0x60>
/home/hsk/Desktop/devel/tee-tpm-hyp/optee_os/lib/libmbedtls/mbedtls/library/bignum.c:1415 (discriminator 1)
    4064:	4649      	mov	r1, r9
    4066:	4640      	mov	r0, r8
    4068:	f7ff face 	bl	3608 <mbedtls_mpi_copy>
    406c:	4604      	mov	r4, r0
    406e:	2800      	cmp	r0, #0
    4070:	d1e8      	bne.n	4044 <mbedtls_mpi_div_mpi+0x76>
    4072:	e7db      	b.n	402c <mbedtls_mpi_div_mpi+0x5e>
/home/hsk/Desktop/devel/tee-tpm-hyp/optee_os/lib/libmbedtls/mbedtls/library/bignum.c:1419
    4074:	4649      	mov	r1, r9
    4076:	4630      	mov	r0, r6
    4078:	f7ff fac6 	bl	3608 <mbedtls_mpi_copy>
    407c:	4604      	mov	r4, r0
    407e:	2800      	cmp	r0, #0
    4080:	d1e0      	bne.n	4044 <mbedtls_mpi_div_mpi+0x76>
/home/hsk/Desktop/devel/tee-tpm-hyp/optee_os/lib/libmbedtls/mbedtls/library/bignum.c:1420
    4082:	9905      	ldr	r1, [sp, #20]
    4084:	4628      	mov	r0, r5
    4086:	f7ff fabf 	bl	3608 <mbedtls_mpi_copy>
    408a:	4604      	mov	r4, r0
    408c:	2800      	cmp	r0, #0
    408e:	d1d9      	bne.n	4044 <mbedtls_mpi_div_mpi+0x76>
/home/hsk/Desktop/devel/tee-tpm-hyp/optee_os/lib/libmbedtls/mbedtls/library/bignum.c:1423
    4090:	f8b9 1004 	ldrh.w	r1, [r9, #4]
    4094:	4638      	mov	r0, r7
/home/hsk/Desktop/devel/tee-tpm-hyp/optee_os/lib/libmbedtls/mbedtls/library/bignum.c:1421
    4096:	2301      	movs	r3, #1
    4098:	f88d 3040 	strb.w	r3, [sp, #64]	; 0x40
/home/hsk/Desktop/devel/tee-tpm-hyp/optee_os/lib/libmbedtls/mbedtls/library/bignum.c:1423
    409c:	3102      	adds	r1, #2
/home/hsk/Desktop/devel/tee-tpm-hyp/optee_os/lib/libmbedtls/mbedtls/library/bignum.c:1421
    409e:	f88d 3034 	strb.w	r3, [sp, #52]	; 0x34
/home/hsk/Desktop/devel/tee-tpm-hyp/optee_os/lib/libmbedtls/mbedtls/library/bignum.c:1423
    40a2:	f7ff f9f7 	bl	3494 <mbedtls_mpi_grow>
    40a6:	4604      	mov	r4, r0
    40a8:	2800      	cmp	r0, #0
    40aa:	d1cb      	bne.n	4044 <mbedtls_mpi_div_mpi+0x76>
/home/hsk/Desktop/devel/tee-tpm-hyp/optee_os/lib/libmbedtls/mbedtls/library/bignum.c:1424
    40ac:	4601      	mov	r1, r0
    40ae:	4638      	mov	r0, r7
    40b0:	f7ff fb65 	bl	377e <mbedtls_mpi_lset>
    40b4:	4604      	mov	r4, r0
    40b6:	2800      	cmp	r0, #0
    40b8:	d1c4      	bne.n	4044 <mbedtls_mpi_div_mpi+0x76>
/home/hsk/Desktop/devel/tee-tpm-hyp/optee_os/lib/libmbedtls/mbedtls/library/bignum.c:1425
    40ba:	2102      	movs	r1, #2
    40bc:	4658      	mov	r0, fp
    40be:	f7ff f9e9 	bl	3494 <mbedtls_mpi_grow>
    40c2:	4604      	mov	r4, r0
    40c4:	2800      	cmp	r0, #0
    40c6:	d1bd      	bne.n	4044 <mbedtls_mpi_div_mpi+0x76>
/home/hsk/Desktop/devel/tee-tpm-hyp/optee_os/lib/libmbedtls/mbedtls/library/bignum.c:1426
    40c8:	2103      	movs	r1, #3
    40ca:	4650      	mov	r0, sl
    40cc:	f7ff f9e2 	bl	3494 <mbedtls_mpi_grow>
    40d0:	4604      	mov	r4, r0
    40d2:	2800      	cmp	r0, #0
    40d4:	d1b6      	bne.n	4044 <mbedtls_mpi_div_mpi+0x76>
/home/hsk/Desktop/devel/tee-tpm-hyp/optee_os/lib/libmbedtls/mbedtls/library/bignum.c:1428
    40d6:	4628      	mov	r0, r5
    40d8:	f7ff fbbf 	bl	385a <mbedtls_mpi_bitlen>
    40dc:	f000 001f 	and.w	r0, r0, #31
/home/hsk/Desktop/devel/tee-tpm-hyp/optee_os/lib/libmbedtls/mbedtls/library/bignum.c:1429
    40e0:	281f      	cmp	r0, #31
    40e2:	d07d      	beq.n	41e0 <mbedtls_mpi_div_mpi+0x212>
/home/hsk/Desktop/devel/tee-tpm-hyp/optee_os/lib/libmbedtls/mbedtls/library/bignum.c:1431
    40e4:	f1c0 031f 	rsb	r3, r0, #31
/home/hsk/Desktop/devel/tee-tpm-hyp/optee_os/lib/libmbedtls/mbedtls/library/bignum.c:1432
    40e8:	4630      	mov	r0, r6
    40ea:	4619      	mov	r1, r3
/home/hsk/Desktop/devel/tee-tpm-hyp/optee_os/lib/libmbedtls/mbedtls/library/bignum.c:1431
    40ec:	9303      	str	r3, [sp, #12]
/home/hsk/Desktop/devel/tee-tpm-hyp/optee_os/lib/libmbedtls/mbedtls/library/bignum.c:1432
    40ee:	f7ff fc31 	bl	3954 <mbedtls_mpi_shift_l>
    40f2:	4604      	mov	r4, r0
    40f4:	2800      	cmp	r0, #0
    40f6:	d1a5      	bne.n	4044 <mbedtls_mpi_div_mpi+0x76>
/home/hsk/Desktop/devel/tee-tpm-hyp/optee_os/lib/libmbedtls/mbedtls/library/bignum.c:1433
    40f8:	9903      	ldr	r1, [sp, #12]
    40fa:	4628      	mov	r0, r5
    40fc:	f7ff fc2a 	bl	3954 <mbedtls_mpi_shift_l>
    4100:	4604      	mov	r4, r0
    4102:	2800      	cmp	r0, #0
    4104:	d19e      	bne.n	4044 <mbedtls_mpi_div_mpi+0x76>
/home/hsk/Desktop/devel/tee-tpm-hyp/optee_os/lib/libmbedtls/mbedtls/library/bignum.c:1437
    4106:	f8bd 3038 	ldrh.w	r3, [sp, #56]	; 0x38
/home/hsk/Desktop/devel/tee-tpm-hyp/optee_os/lib/libmbedtls/mbedtls/library/bignum.c:1439
    410a:	4628      	mov	r0, r5
/home/hsk/Desktop/devel/tee-tpm-hyp/optee_os/lib/libmbedtls/mbedtls/library/bignum.c:1438
    410c:	f8bd 6044 	ldrh.w	r6, [sp, #68]	; 0x44
/home/hsk/Desktop/devel/tee-tpm-hyp/optee_os/lib/libmbedtls/mbedtls/library/bignum.c:1437
    4110:	9301      	str	r3, [sp, #4]
    4112:	1e73      	subs	r3, r6, #1
    4114:	9304      	str	r3, [sp, #16]
/home/hsk/Desktop/devel/tee-tpm-hyp/optee_os/lib/libmbedtls/mbedtls/library/bignum.c:1439
    4116:	9b01      	ldr	r3, [sp, #4]
    4118:	eba3 0b06 	sub.w	fp, r3, r6
    411c:	ea4f 1a4b 	mov.w	sl, fp, lsl #5
    4120:	4651      	mov	r1, sl
    4122:	f7ff fc17 	bl	3954 <mbedtls_mpi_shift_l>
    4126:	4604      	mov	r4, r0
    4128:	2800      	cmp	r0, #0
    412a:	d18b      	bne.n	4044 <mbedtls_mpi_div_mpi+0x76>
/home/hsk/Desktop/devel/tee-tpm-hyp/optee_os/lib/libmbedtls/mbedtls/library/bignum.c:1443
    412c:	ea4f 0b8b 	mov.w	fp, fp, lsl #2
/home/hsk/Desktop/devel/tee-tpm-hyp/optee_os/lib/libmbedtls/mbedtls/library/bignum.c:1441
    4130:	af0d      	add	r7, sp, #52	; 0x34
    4132:	4629      	mov	r1, r5
    4134:	4638      	mov	r0, r7
    4136:	f7ff fcc7 	bl	3ac8 <mbedtls_mpi_cmp_mpi>
    413a:	2800      	cmp	r0, #0
    413c:	da52      	bge.n	41e4 <mbedtls_mpi_div_mpi+0x216>
/home/hsk/Desktop/devel/tee-tpm-hyp/optee_os/lib/libmbedtls/mbedtls/library/bignum.c:1446
    413e:	4651      	mov	r1, sl
    4140:	4628      	mov	r0, r5
    4142:	f7ff fc4f 	bl	39e4 <mbedtls_mpi_shift_r>
    4146:	4604      	mov	r4, r0
    4148:	2800      	cmp	r0, #0
    414a:	f47f af7b 	bne.w	4044 <mbedtls_mpi_div_mpi+0x76>
/home/hsk/Desktop/devel/tee-tpm-hyp/optee_os/lib/libmbedtls/mbedtls/library/bignum.c:1450
    414e:	9b04      	ldr	r3, [sp, #16]
    4150:	009b      	lsls	r3, r3, #2
    4152:	9306      	str	r3, [sp, #24]
/home/hsk/Desktop/devel/tee-tpm-hyp/optee_os/lib/libmbedtls/mbedtls/library/bignum.c:1464
    4154:	3b04      	subs	r3, #4
    4156:	930b      	str	r3, [sp, #44]	; 0x2c
    4158:	9b01      	ldr	r3, [sp, #4]
    415a:	f103 4580 	add.w	r5, r3, #1073741824	; 0x40000000
    415e:	00b3      	lsls	r3, r6, #2
    4160:	3d01      	subs	r5, #1
    4162:	9307      	str	r3, [sp, #28]
    4164:	1bad      	subs	r5, r5, r6
    4166:	ebc6 63c6 	rsb	r3, r6, r6, lsl #27
    416a:	930a      	str	r3, [sp, #40]	; 0x28
/home/hsk/Desktop/devel/tee-tpm-hyp/optee_os/lib/libmbedtls/mbedtls/library/bignum.c:1468
    416c:	ab19      	add	r3, sp, #100	; 0x64
    416e:	00ad      	lsls	r5, r5, #2
    4170:	9309      	str	r3, [sp, #36]	; 0x24
    4172:	9b01      	ldr	r3, [sp, #4]
    4174:	3b01      	subs	r3, #1
    4176:	9308      	str	r3, [sp, #32]
/home/hsk/Desktop/devel/tee-tpm-hyp/optee_os/lib/libmbedtls/mbedtls/library/bignum.c:1448 (discriminator 1)
    4178:	9a08      	ldr	r2, [sp, #32]
    417a:	9b04      	ldr	r3, [sp, #16]
    417c:	4293      	cmp	r3, r2
    417e:	d340      	bcc.n	4202 <mbedtls_mpi_div_mpi+0x234>
/home/hsk/Desktop/devel/tee-tpm-hyp/optee_os/lib/libmbedtls/mbedtls/library/bignum.c:1488
    4180:	9b02      	ldr	r3, [sp, #8]
    4182:	b163      	cbz	r3, 419e <mbedtls_mpi_div_mpi+0x1d0>
/home/hsk/Desktop/devel/tee-tpm-hyp/optee_os/lib/libmbedtls/mbedtls/library/bignum.c:1490
    4184:	a913      	add	r1, sp, #76	; 0x4c
    4186:	4618      	mov	r0, r3
    4188:	f7ff fa3e 	bl	3608 <mbedtls_mpi_copy>
    418c:	bb30      	cbnz	r0, 41dc <mbedtls_mpi_div_mpi+0x20e>
/home/hsk/Desktop/devel/tee-tpm-hyp/optee_os/lib/libmbedtls/mbedtls/library/bignum.c:1491
    418e:	9a05      	ldr	r2, [sp, #20]
    4190:	f899 3000 	ldrb.w	r3, [r9]
    4194:	7812      	ldrb	r2, [r2, #0]
    4196:	fb13 f302 	smulbb	r3, r3, r2
    419a:	9a02      	ldr	r2, [sp, #8]
    419c:	7013      	strb	r3, [r2, #0]
/home/hsk/Desktop/devel/tee-tpm-hyp/optee_os/lib/libmbedtls/mbedtls/library/bignum.c:1494
    419e:	f1b8 0f00 	cmp.w	r8, #0
    41a2:	f43f af4f 	beq.w	4044 <mbedtls_mpi_div_mpi+0x76>
/home/hsk/Desktop/devel/tee-tpm-hyp/optee_os/lib/libmbedtls/mbedtls/library/bignum.c:1496
    41a6:	ad0d      	add	r5, sp, #52	; 0x34
    41a8:	9903      	ldr	r1, [sp, #12]
    41aa:	4628      	mov	r0, r5
    41ac:	f7ff fc1a 	bl	39e4 <mbedtls_mpi_shift_r>
    41b0:	b9a0      	cbnz	r0, 41dc <mbedtls_mpi_div_mpi+0x20e>
/home/hsk/Desktop/devel/tee-tpm-hyp/optee_os/lib/libmbedtls/mbedtls/library/bignum.c:1497
    41b2:	f899 3000 	ldrb.w	r3, [r9]
/home/hsk/Desktop/devel/tee-tpm-hyp/optee_os/lib/libmbedtls/mbedtls/library/bignum.c:1498
    41b6:	4629      	mov	r1, r5
    41b8:	4640      	mov	r0, r8
/home/hsk/Desktop/devel/tee-tpm-hyp/optee_os/lib/libmbedtls/mbedtls/library/bignum.c:1497
    41ba:	f88d 3034 	strb.w	r3, [sp, #52]	; 0x34
/home/hsk/Desktop/devel/tee-tpm-hyp/optee_os/lib/libmbedtls/mbedtls/library/bignum.c:1498
    41be:	f7ff fa23 	bl	3608 <mbedtls_mpi_copy>
    41c2:	4601      	mov	r1, r0
    41c4:	2800      	cmp	r0, #0
    41c6:	f040 80c8 	bne.w	435a <mbedtls_mpi_div_mpi+0x38c>
/home/hsk/Desktop/devel/tee-tpm-hyp/optee_os/lib/libmbedtls/mbedtls/library/bignum.c:1500
    41ca:	4640      	mov	r0, r8
    41cc:	f7ff fcc5 	bl	3b5a <mbedtls_mpi_cmp_int>
    41d0:	2800      	cmp	r0, #0
    41d2:	f47f af37 	bne.w	4044 <mbedtls_mpi_div_mpi+0x76>
/home/hsk/Desktop/devel/tee-tpm-hyp/optee_os/lib/libmbedtls/mbedtls/library/bignum.c:1501
    41d6:	2301      	movs	r3, #1
    41d8:	f888 3000 	strb.w	r3, [r8]
/home/hsk/Desktop/devel/tee-tpm-hyp/optee_os/lib/libmbedtls/mbedtls/library/bignum.c:1504
    41dc:	4604      	mov	r4, r0
    41de:	e731      	b.n	4044 <mbedtls_mpi_div_mpi+0x76>
/home/hsk/Desktop/devel/tee-tpm-hyp/optee_os/lib/libmbedtls/mbedtls/library/bignum.c:1435
    41e0:	9403      	str	r4, [sp, #12]
    41e2:	e790      	b.n	4106 <mbedtls_mpi_div_mpi+0x138>
/home/hsk/Desktop/devel/tee-tpm-hyp/optee_os/lib/libmbedtls/mbedtls/library/bignum.c:1443
    41e4:	9915      	ldr	r1, [sp, #84]	; 0x54
/home/hsk/Desktop/devel/tee-tpm-hyp/optee_os/lib/libmbedtls/mbedtls/library/bignum.c:1444
    41e6:	4638      	mov	r0, r7
/home/hsk/Desktop/devel/tee-tpm-hyp/optee_os/lib/libmbedtls/mbedtls/library/bignum.c:1443
    41e8:	f851 200b 	ldr.w	r2, [r1, fp]
    41ec:	3201      	adds	r2, #1
    41ee:	f841 200b 	str.w	r2, [r1, fp]
/home/hsk/Desktop/devel/tee-tpm-hyp/optee_os/lib/libmbedtls/mbedtls/library/bignum.c:1444
    41f2:	462a      	mov	r2, r5
    41f4:	4639      	mov	r1, r7
    41f6:	f7ff fd84 	bl	3d02 <mbedtls_mpi_sub_mpi>
    41fa:	4604      	mov	r4, r0
    41fc:	2800      	cmp	r0, #0
    41fe:	d098      	beq.n	4132 <mbedtls_mpi_div_mpi+0x164>
/home/hsk/Desktop/devel/tee-tpm-hyp/optee_os/lib/libmbedtls/mbedtls/library/bignum.c:1504
    4200:	e720      	b.n	4044 <mbedtls_mpi_div_mpi+0x76>
    4202:	9a07      	ldr	r2, [sp, #28]
/home/hsk/Desktop/devel/tee-tpm-hyp/optee_os/lib/libmbedtls/mbedtls/library/bignum.c:1450
    4204:	9806      	ldr	r0, [sp, #24]
    4206:	eb02 0a05 	add.w	sl, r2, r5
    420a:	9a12      	ldr	r2, [sp, #72]	; 0x48
    420c:	9b0f      	ldr	r3, [sp, #60]	; 0x3c
    420e:	5812      	ldr	r2, [r2, r0]
    4210:	9807      	ldr	r0, [sp, #28]
    4212:	f853 100a 	ldr.w	r1, [r3, sl]
    4216:	1f07      	subs	r7, r0, #4
    4218:	9815      	ldr	r0, [sp, #84]	; 0x54
    421a:	442f      	add	r7, r5
    421c:	4291      	cmp	r1, r2
    421e:	eb00 0605 	add.w	r6, r0, r5
    4222:	f0c0 8086 	bcc.w	4332 <mbedtls_mpi_div_mpi+0x364>
/home/hsk/Desktop/devel/tee-tpm-hyp/optee_os/lib/libmbedtls/mbedtls/library/bignum.c:1451
    4226:	f04f 33ff 	mov.w	r3, #4294967295	; 0xffffffff
    422a:	5143      	str	r3, [r0, r5]
/home/hsk/Desktop/devel/tee-tpm-hyp/optee_os/lib/libmbedtls/mbedtls/library/bignum.c:1458
    422c:	6833      	ldr	r3, [r6, #0]
    422e:	3301      	adds	r3, #1
    4230:	6033      	str	r3, [r6, #0]
    4232:	9b07      	ldr	r3, [sp, #28]
/home/hsk/Desktop/devel/tee-tpm-hyp/optee_os/lib/libmbedtls/mbedtls/library/bignum.c:1463
    4234:	ae16      	add	r6, sp, #88	; 0x58
    4236:	f1a3 0b08 	sub.w	fp, r3, #8
    423a:	44ab      	add	fp, r5
/home/hsk/Desktop/devel/tee-tpm-hyp/optee_os/lib/libmbedtls/mbedtls/library/bignum.c:1461
    423c:	9a15      	ldr	r2, [sp, #84]	; 0x54
/home/hsk/Desktop/devel/tee-tpm-hyp/optee_os/lib/libmbedtls/mbedtls/library/bignum.c:1463
    423e:	2100      	movs	r1, #0
    4240:	4630      	mov	r0, r6
/home/hsk/Desktop/devel/tee-tpm-hyp/optee_os/lib/libmbedtls/mbedtls/library/bignum.c:1461
    4242:	5953      	ldr	r3, [r2, r5]
    4244:	3b01      	subs	r3, #1
    4246:	5153      	str	r3, [r2, r5]
/home/hsk/Desktop/devel/tee-tpm-hyp/optee_os/lib/libmbedtls/mbedtls/library/bignum.c:1463
    4248:	f7ff fa99 	bl	377e <mbedtls_mpi_lset>
    424c:	2800      	cmp	r0, #0
    424e:	d1c5      	bne.n	41dc <mbedtls_mpi_div_mpi+0x20e>
/home/hsk/Desktop/devel/tee-tpm-hyp/optee_os/lib/libmbedtls/mbedtls/library/bignum.c:1464
    4250:	9b04      	ldr	r3, [sp, #16]
    4252:	9a12      	ldr	r2, [sp, #72]	; 0x48
    4254:	2b00      	cmp	r3, #0
    4256:	d07e      	beq.n	4356 <mbedtls_mpi_div_mpi+0x388>
/home/hsk/Desktop/devel/tee-tpm-hyp/optee_os/lib/libmbedtls/mbedtls/library/bignum.c:1464 (discriminator 1)
    4258:	9b0b      	ldr	r3, [sp, #44]	; 0x2c
    425a:	58d1      	ldr	r1, [r2, r3]
/home/hsk/Desktop/devel/tee-tpm-hyp/optee_os/lib/libmbedtls/mbedtls/library/bignum.c:1464 (discriminator 4)
    425c:	9b18      	ldr	r3, [sp, #96]	; 0x60
/home/hsk/Desktop/devel/tee-tpm-hyp/optee_os/lib/libmbedtls/mbedtls/library/bignum.c:1466 (discriminator 4)
    425e:	4630      	mov	r0, r6
/home/hsk/Desktop/devel/tee-tpm-hyp/optee_os/lib/libmbedtls/mbedtls/library/bignum.c:1464 (discriminator 4)
    4260:	6019      	str	r1, [r3, #0]
/home/hsk/Desktop/devel/tee-tpm-hyp/optee_os/lib/libmbedtls/mbedtls/library/bignum.c:1465 (discriminator 4)
    4262:	9906      	ldr	r1, [sp, #24]
    4264:	5852      	ldr	r2, [r2, r1]
/home/hsk/Desktop/devel/tee-tpm-hyp/optee_os/lib/libmbedtls/mbedtls/library/bignum.c:1466 (discriminator 4)
    4266:	4631      	mov	r1, r6
/home/hsk/Desktop/devel/tee-tpm-hyp/optee_os/lib/libmbedtls/mbedtls/library/bignum.c:1465 (discriminator 4)
    4268:	605a      	str	r2, [r3, #4]
/home/hsk/Desktop/devel/tee-tpm-hyp/optee_os/lib/libmbedtls/mbedtls/library/bignum.c:1466 (discriminator 4)
    426a:	9b15      	ldr	r3, [sp, #84]	; 0x54
    426c:	595a      	ldr	r2, [r3, r5]
    426e:	f7ff fe09 	bl	3e84 <mbedtls_mpi_mul_int>
    4272:	4601      	mov	r1, r0
    4274:	2800      	cmp	r0, #0
    4276:	d170      	bne.n	435a <mbedtls_mpi_div_mpi+0x38c>
/home/hsk/Desktop/devel/tee-tpm-hyp/optee_os/lib/libmbedtls/mbedtls/library/bignum.c:1468
    4278:	9809      	ldr	r0, [sp, #36]	; 0x24
    427a:	f7ff fa80 	bl	377e <mbedtls_mpi_lset>
    427e:	2800      	cmp	r0, #0
    4280:	d1ac      	bne.n	41dc <mbedtls_mpi_div_mpi+0x20e>
/home/hsk/Desktop/devel/tee-tpm-hyp/optee_os/lib/libmbedtls/mbedtls/library/bignum.c:1469
    4282:	9b08      	ldr	r3, [sp, #32]
    4284:	9a0f      	ldr	r2, [sp, #60]	; 0x3c
    4286:	2b01      	cmp	r3, #1
    4288:	d001      	beq.n	428e <mbedtls_mpi_div_mpi+0x2c0>
/home/hsk/Desktop/devel/tee-tpm-hyp/optee_os/lib/libmbedtls/mbedtls/library/bignum.c:1469 (discriminator 1)
    428a:	f852 000b 	ldr.w	r0, [r2, fp]
/home/hsk/Desktop/devel/tee-tpm-hyp/optee_os/lib/libmbedtls/mbedtls/library/bignum.c:1469 (discriminator 4)
    428e:	9b1b      	ldr	r3, [sp, #108]	; 0x6c
    4290:	6018      	str	r0, [r3, #0]
/home/hsk/Desktop/devel/tee-tpm-hyp/optee_os/lib/libmbedtls/mbedtls/library/bignum.c:1473 (discriminator 4)
    4292:	4630      	mov	r0, r6
/home/hsk/Desktop/devel/tee-tpm-hyp/optee_os/lib/libmbedtls/mbedtls/library/bignum.c:1470 (discriminator 4)
    4294:	59d1      	ldr	r1, [r2, r7]
    4296:	6059      	str	r1, [r3, #4]
/home/hsk/Desktop/devel/tee-tpm-hyp/optee_os/lib/libmbedtls/mbedtls/library/bignum.c:1473 (discriminator 4)
    4298:	9909      	ldr	r1, [sp, #36]	; 0x24
/home/hsk/Desktop/devel/tee-tpm-hyp/optee_os/lib/libmbedtls/mbedtls/library/bignum.c:1471 (discriminator 4)
    429a:	f852 200a 	ldr.w	r2, [r2, sl]
    429e:	609a      	str	r2, [r3, #8]
/home/hsk/Desktop/devel/tee-tpm-hyp/optee_os/lib/libmbedtls/mbedtls/library/bignum.c:1473 (discriminator 4)
    42a0:	f7ff fc12 	bl	3ac8 <mbedtls_mpi_cmp_mpi>
    42a4:	2800      	cmp	r0, #0
    42a6:	dcc9      	bgt.n	423c <mbedtls_mpi_div_mpi+0x26e>
/home/hsk/Desktop/devel/tee-tpm-hyp/optee_os/lib/libmbedtls/mbedtls/library/bignum.c:1475
    42a8:	9b15      	ldr	r3, [sp, #84]	; 0x54
    42aa:	f10d 0b40 	add.w	fp, sp, #64	; 0x40
    42ae:	4659      	mov	r1, fp
    42b0:	4630      	mov	r0, r6
    42b2:	595a      	ldr	r2, [r3, r5]
    42b4:	f7ff fde6 	bl	3e84 <mbedtls_mpi_mul_int>
    42b8:	2800      	cmp	r0, #0
    42ba:	d18f      	bne.n	41dc <mbedtls_mpi_div_mpi+0x20e>
    42bc:	9b0a      	ldr	r3, [sp, #40]	; 0x28
/home/hsk/Desktop/devel/tee-tpm-hyp/optee_os/lib/libmbedtls/mbedtls/library/bignum.c:1476
    42be:	4630      	mov	r0, r6
    42c0:	f103 6700 	add.w	r7, r3, #134217728	; 0x8000000
    42c4:	9b01      	ldr	r3, [sp, #4]
    42c6:	3f01      	subs	r7, #1
    42c8:	441f      	add	r7, r3
    42ca:	017f      	lsls	r7, r7, #5
    42cc:	4639      	mov	r1, r7
    42ce:	f7ff fb41 	bl	3954 <mbedtls_mpi_shift_l>
    42d2:	2800      	cmp	r0, #0
    42d4:	d182      	bne.n	41dc <mbedtls_mpi_div_mpi+0x20e>
/home/hsk/Desktop/devel/tee-tpm-hyp/optee_os/lib/libmbedtls/mbedtls/library/bignum.c:1477
    42d6:	f10d 0a34 	add.w	sl, sp, #52	; 0x34
    42da:	4632      	mov	r2, r6
    42dc:	4651      	mov	r1, sl
    42de:	4650      	mov	r0, sl
    42e0:	f7ff fd0f 	bl	3d02 <mbedtls_mpi_sub_mpi>
    42e4:	4601      	mov	r1, r0
    42e6:	2800      	cmp	r0, #0
    42e8:	d137      	bne.n	435a <mbedtls_mpi_div_mpi+0x38c>
/home/hsk/Desktop/devel/tee-tpm-hyp/optee_os/lib/libmbedtls/mbedtls/library/bignum.c:1479
    42ea:	4650      	mov	r0, sl
    42ec:	f7ff fc35 	bl	3b5a <mbedtls_mpi_cmp_int>
    42f0:	2800      	cmp	r0, #0
    42f2:	da19      	bge.n	4328 <mbedtls_mpi_div_mpi+0x35a>
/home/hsk/Desktop/devel/tee-tpm-hyp/optee_os/lib/libmbedtls/mbedtls/library/bignum.c:1481
    42f4:	4659      	mov	r1, fp
    42f6:	4630      	mov	r0, r6
    42f8:	f7ff f986 	bl	3608 <mbedtls_mpi_copy>
    42fc:	2800      	cmp	r0, #0
    42fe:	f47f af6d 	bne.w	41dc <mbedtls_mpi_div_mpi+0x20e>
/home/hsk/Desktop/devel/tee-tpm-hyp/optee_os/lib/libmbedtls/mbedtls/library/bignum.c:1482
    4302:	4639      	mov	r1, r7
    4304:	4630      	mov	r0, r6
    4306:	f7ff fb25 	bl	3954 <mbedtls_mpi_shift_l>
    430a:	2800      	cmp	r0, #0
    430c:	f47f af66 	bne.w	41dc <mbedtls_mpi_div_mpi+0x20e>
/home/hsk/Desktop/devel/tee-tpm-hyp/optee_os/lib/libmbedtls/mbedtls/library/bignum.c:1483
    4310:	4632      	mov	r2, r6
    4312:	4651      	mov	r1, sl
    4314:	4650      	mov	r0, sl
    4316:	f7ff fcd1 	bl	3cbc <mbedtls_mpi_add_mpi>
    431a:	2800      	cmp	r0, #0
    431c:	f47f af5e 	bne.w	41dc <mbedtls_mpi_div_mpi+0x20e>
/home/hsk/Desktop/devel/tee-tpm-hyp/optee_os/lib/libmbedtls/mbedtls/library/bignum.c:1484
    4320:	9a15      	ldr	r2, [sp, #84]	; 0x54
    4322:	5953      	ldr	r3, [r2, r5]
    4324:	3b01      	subs	r3, #1
    4326:	5153      	str	r3, [r2, r5]
    4328:	9b01      	ldr	r3, [sp, #4]
    432a:	3d04      	subs	r5, #4
    432c:	3b01      	subs	r3, #1
    432e:	9301      	str	r3, [sp, #4]
    4330:	e71f      	b.n	4172 <mbedtls_mpi_div_mpi+0x1a4>
/home/hsk/Desktop/devel/tee-tpm-hyp/optee_os/lib/libmbedtls/mbedtls/library/bignum.c:1454
    4332:	59d8      	ldr	r0, [r3, r7]
mbedtls_int_div_int():
/home/hsk/Desktop/devel/tee-tpm-hyp/optee_os/lib/libmbedtls/mbedtls/library/bignum.c:1320
    4334:	b162      	cbz	r2, 4350 <mbedtls_mpi_div_mpi+0x382>
/home/hsk/Desktop/devel/tee-tpm-hyp/optee_os/lib/libmbedtls/mbedtls/library/bignum.c:1330
    4336:	2300      	movs	r3, #0
    4338:	f7fc ec88 	blx	c4c <__aeabi_uldivmod>
/home/hsk/Desktop/devel/tee-tpm-hyp/optee_os/lib/libmbedtls/mbedtls/library/bignum.c:1337
    433c:	2300      	movs	r3, #0
    433e:	f04f 32ff 	mov.w	r2, #4294967295	; 0xffffffff
    4342:	428b      	cmp	r3, r1
    4344:	bf08      	it	eq
    4346:	4282      	cmpeq	r2, r0
    4348:	d200      	bcs.n	434c <mbedtls_mpi_div_mpi+0x37e>
    434a:	4610      	mov	r0, r2
mbedtls_mpi_div_mpi():
/home/hsk/Desktop/devel/tee-tpm-hyp/optee_os/lib/libmbedtls/mbedtls/library/bignum.c:1454
    434c:	6030      	str	r0, [r6, #0]
    434e:	e76d      	b.n	422c <mbedtls_mpi_div_mpi+0x25e>
mbedtls_int_div_int():
/home/hsk/Desktop/devel/tee-tpm-hyp/optee_os/lib/libmbedtls/mbedtls/library/bignum.c:1324
    4350:	f04f 30ff 	mov.w	r0, #4294967295	; 0xffffffff
    4354:	e7fa      	b.n	434c <mbedtls_mpi_div_mpi+0x37e>
mbedtls_mpi_div_mpi():
/home/hsk/Desktop/devel/tee-tpm-hyp/optee_os/lib/libmbedtls/mbedtls/library/bignum.c:1464
    4356:	9904      	ldr	r1, [sp, #16]
    4358:	e780      	b.n	425c <mbedtls_mpi_div_mpi+0x28e>
/home/hsk/Desktop/devel/tee-tpm-hyp/optee_os/lib/libmbedtls/mbedtls/library/bignum.c:1504
    435a:	460c      	mov	r4, r1
    435c:	e672      	b.n	4044 <mbedtls_mpi_div_mpi+0x76>
/home/hsk/Desktop/devel/tee-tpm-hyp/optee_os/lib/libmbedtls/mbedtls/library/bignum.c:1406
    435e:	f06f 040b 	mvn.w	r4, #11
    4362:	e664      	b.n	402e <mbedtls_mpi_div_mpi+0x60>

00004364 <mbedtls_mpi_div_int>:
mbedtls_mpi_div_int():
/home/hsk/Desktop/devel/tee-tpm-hyp/optee_os/lib/libmbedtls/mbedtls/library/bignum.c:1516
    4364:	b51f      	push	{r0, r1, r2, r3, r4, lr}
/home/hsk/Desktop/devel/tee-tpm-hyp/optee_os/lib/libmbedtls/mbedtls/library/bignum.c:1521
    4366:	2b00      	cmp	r3, #0
/home/hsk/Desktop/devel/tee-tpm-hyp/optee_os/lib/libmbedtls/mbedtls/library/bignum.c:1520
    4368:	ea83 74e3 	eor.w	r4, r3, r3, asr #31
    436c:	eba4 74e3 	sub.w	r4, r4, r3, asr #31
/home/hsk/Desktop/devel/tee-tpm-hyp/optee_os/lib/libmbedtls/mbedtls/library/bignum.c:1521
    4370:	f04f 33ff 	mov.w	r3, #4294967295	; 0xffffffff
    4374:	bfa8      	it	ge
    4376:	2301      	movge	r3, #1
    4378:	f88d 3004 	strb.w	r3, [sp, #4]
/home/hsk/Desktop/devel/tee-tpm-hyp/optee_os/lib/libmbedtls/mbedtls/library/bignum.c:1522
    437c:	2301      	movs	r3, #1
    437e:	f8ad 3008 	strh.w	r3, [sp, #8]
/home/hsk/Desktop/devel/tee-tpm-hyp/optee_os/lib/libmbedtls/mbedtls/library/bignum.c:1523
    4382:	466b      	mov	r3, sp
    4384:	9303      	str	r3, [sp, #12]
/home/hsk/Desktop/devel/tee-tpm-hyp/optee_os/lib/libmbedtls/mbedtls/library/bignum.c:1525
    4386:	ab01      	add	r3, sp, #4
/home/hsk/Desktop/devel/tee-tpm-hyp/optee_os/lib/libmbedtls/mbedtls/library/bignum.c:1520
    4388:	9400      	str	r4, [sp, #0]
/home/hsk/Desktop/devel/tee-tpm-hyp/optee_os/lib/libmbedtls/mbedtls/library/bignum.c:1525
    438a:	f7ff fe20 	bl	3fce <mbedtls_mpi_div_mpi>
/home/hsk/Desktop/devel/tee-tpm-hyp/optee_os/lib/libmbedtls/mbedtls/library/bignum.c:1526
    438e:	b004      	add	sp, #16
    4390:	bd10      	pop	{r4, pc}

00004392 <mbedtls_mpi_mod_mpi>:
mbedtls_mpi_mod_mpi():
/home/hsk/Desktop/devel/tee-tpm-hyp/optee_os/lib/libmbedtls/mbedtls/library/bignum.c:1532
    4392:	b570      	push	{r4, r5, r6, lr}
    4394:	4604      	mov	r4, r0
    4396:	460d      	mov	r5, r1
/home/hsk/Desktop/devel/tee-tpm-hyp/optee_os/lib/libmbedtls/mbedtls/library/bignum.c:1535
    4398:	4610      	mov	r0, r2
    439a:	2100      	movs	r1, #0
/home/hsk/Desktop/devel/tee-tpm-hyp/optee_os/lib/libmbedtls/mbedtls/library/bignum.c:1532
    439c:	4616      	mov	r6, r2
/home/hsk/Desktop/devel/tee-tpm-hyp/optee_os/lib/libmbedtls/mbedtls/library/bignum.c:1535
    439e:	f7ff fbdc 	bl	3b5a <mbedtls_mpi_cmp_int>
    43a2:	2800      	cmp	r0, #0
    43a4:	db24      	blt.n	43f0 <mbedtls_mpi_mod_mpi+0x5e>
/home/hsk/Desktop/devel/tee-tpm-hyp/optee_os/lib/libmbedtls/mbedtls/library/bignum.c:1538
    43a6:	462a      	mov	r2, r5
    43a8:	4633      	mov	r3, r6
    43aa:	4621      	mov	r1, r4
    43ac:	2000      	movs	r0, #0
    43ae:	f7ff fe0e 	bl	3fce <mbedtls_mpi_div_mpi>
    43b2:	4605      	mov	r5, r0
    43b4:	b138      	cbz	r0, 43c6 <mbedtls_mpi_mod_mpi+0x34>
/home/hsk/Desktop/devel/tee-tpm-hyp/optee_os/lib/libmbedtls/mbedtls/library/bignum.c:1549
    43b6:	4628      	mov	r0, r5
    43b8:	bd70      	pop	{r4, r5, r6, pc}
/home/hsk/Desktop/devel/tee-tpm-hyp/optee_os/lib/libmbedtls/mbedtls/library/bignum.c:1541
    43ba:	4632      	mov	r2, r6
    43bc:	4621      	mov	r1, r4
    43be:	4620      	mov	r0, r4
    43c0:	f7ff fc7c 	bl	3cbc <mbedtls_mpi_add_mpi>
    43c4:	b990      	cbnz	r0, 43ec <mbedtls_mpi_mod_mpi+0x5a>
/home/hsk/Desktop/devel/tee-tpm-hyp/optee_os/lib/libmbedtls/mbedtls/library/bignum.c:1540
    43c6:	2100      	movs	r1, #0
    43c8:	4620      	mov	r0, r4
    43ca:	f7ff fbc6 	bl	3b5a <mbedtls_mpi_cmp_int>
    43ce:	2800      	cmp	r0, #0
    43d0:	dbf3      	blt.n	43ba <mbedtls_mpi_mod_mpi+0x28>
/home/hsk/Desktop/devel/tee-tpm-hyp/optee_os/lib/libmbedtls/mbedtls/library/bignum.c:1543
    43d2:	4631      	mov	r1, r6
    43d4:	4620      	mov	r0, r4
    43d6:	f7ff fb77 	bl	3ac8 <mbedtls_mpi_cmp_mpi>
    43da:	2800      	cmp	r0, #0
    43dc:	dbeb      	blt.n	43b6 <mbedtls_mpi_mod_mpi+0x24>
/home/hsk/Desktop/devel/tee-tpm-hyp/optee_os/lib/libmbedtls/mbedtls/library/bignum.c:1544
    43de:	4632      	mov	r2, r6
    43e0:	4621      	mov	r1, r4
    43e2:	4620      	mov	r0, r4
    43e4:	f7ff fc8d 	bl	3d02 <mbedtls_mpi_sub_mpi>
    43e8:	2800      	cmp	r0, #0
    43ea:	d0f2      	beq.n	43d2 <mbedtls_mpi_mod_mpi+0x40>
    43ec:	4605      	mov	r5, r0
    43ee:	e7e2      	b.n	43b6 <mbedtls_mpi_mod_mpi+0x24>
/home/hsk/Desktop/devel/tee-tpm-hyp/optee_os/lib/libmbedtls/mbedtls/library/bignum.c:1536
    43f0:	f06f 0509 	mvn.w	r5, #9
    43f4:	e7df      	b.n	43b6 <mbedtls_mpi_mod_mpi+0x24>

000043f6 <mbedtls_mpi_mod_int>:
mbedtls_mpi_mod_int():
/home/hsk/Desktop/devel/tee-tpm-hyp/optee_os/lib/libmbedtls/mbedtls/library/bignum.c:1555
    43f6:	b430      	push	{r4, r5}
/home/hsk/Desktop/devel/tee-tpm-hyp/optee_os/lib/libmbedtls/mbedtls/library/bignum.c:1559
    43f8:	1e13      	subs	r3, r2, #0
/home/hsk/Desktop/devel/tee-tpm-hyp/optee_os/lib/libmbedtls/mbedtls/library/bignum.c:1555
    43fa:	4604      	mov	r4, r0
/home/hsk/Desktop/devel/tee-tpm-hyp/optee_os/lib/libmbedtls/mbedtls/library/bignum.c:1559
    43fc:	d012      	beq.n	4424 <mbedtls_mpi_mod_int+0x2e>
/home/hsk/Desktop/devel/tee-tpm-hyp/optee_os/lib/libmbedtls/mbedtls/library/bignum.c:1562
    43fe:	db14      	blt.n	442a <mbedtls_mpi_mod_int+0x34>
/home/hsk/Desktop/devel/tee-tpm-hyp/optee_os/lib/libmbedtls/mbedtls/library/bignum.c:1568
    4400:	2b01      	cmp	r3, #1
    4402:	d103      	bne.n	440c <mbedtls_mpi_mod_int+0x16>
/home/hsk/Desktop/devel/tee-tpm-hyp/optee_os/lib/libmbedtls/mbedtls/library/bignum.c:1570
    4404:	2000      	movs	r0, #0
    4406:	6020      	str	r0, [r4, #0]
/home/hsk/Desktop/devel/tee-tpm-hyp/optee_os/lib/libmbedtls/mbedtls/library/bignum.c:1606
    4408:	bc30      	pop	{r4, r5}
    440a:	4770      	bx	lr
/home/hsk/Desktop/devel/tee-tpm-hyp/optee_os/lib/libmbedtls/mbedtls/library/bignum.c:1574
    440c:	2b02      	cmp	r3, #2
    440e:	d106      	bne.n	441e <mbedtls_mpi_mod_int+0x28>
/home/hsk/Desktop/devel/tee-tpm-hyp/optee_os/lib/libmbedtls/mbedtls/library/bignum.c:1576
    4410:	688b      	ldr	r3, [r1, #8]
    4412:	681b      	ldr	r3, [r3, #0]
    4414:	f003 0301 	and.w	r3, r3, #1
    4418:	6003      	str	r3, [r0, #0]
/home/hsk/Desktop/devel/tee-tpm-hyp/optee_os/lib/libmbedtls/mbedtls/library/bignum.c:1577
    441a:	2000      	movs	r0, #0
    441c:	e7f4      	b.n	4408 <mbedtls_mpi_mod_int+0x12>
/home/hsk/Desktop/devel/tee-tpm-hyp/optee_os/lib/libmbedtls/mbedtls/library/bignum.c:1606
    441e:	bc30      	pop	{r4, r5}
    4420:	f7fe bfcb 	b.w	33ba <mbedtls_mpi_mod_int.part.3>
/home/hsk/Desktop/devel/tee-tpm-hyp/optee_os/lib/libmbedtls/mbedtls/library/bignum.c:1560
    4424:	f06f 000b 	mvn.w	r0, #11
    4428:	e7ee      	b.n	4408 <mbedtls_mpi_mod_int+0x12>
/home/hsk/Desktop/devel/tee-tpm-hyp/optee_os/lib/libmbedtls/mbedtls/library/bignum.c:1563
    442a:	f06f 0009 	mvn.w	r0, #9
    442e:	e7eb      	b.n	4408 <mbedtls_mpi_mod_int+0x12>

00004430 <mpi_write_hlp>:
mpi_write_hlp():
/home/hsk/Desktop/devel/tee-tpm-hyp/optee_os/lib/libmbedtls/mbedtls/library/bignum.c:578
    4430:	1e8b      	subs	r3, r1, #2
/home/hsk/Desktop/devel/tee-tpm-hyp/optee_os/lib/libmbedtls/mbedtls/library/bignum.c:574
    4432:	b5f7      	push	{r0, r1, r2, r4, r5, r6, r7, lr}
/home/hsk/Desktop/devel/tee-tpm-hyp/optee_os/lib/libmbedtls/mbedtls/library/bignum.c:578
    4434:	2b0e      	cmp	r3, #14
/home/hsk/Desktop/devel/tee-tpm-hyp/optee_os/lib/libmbedtls/mbedtls/library/bignum.c:574
    4436:	4605      	mov	r5, r0
    4438:	460f      	mov	r7, r1
    443a:	4616      	mov	r6, r2
/home/hsk/Desktop/devel/tee-tpm-hyp/optee_os/lib/libmbedtls/mbedtls/library/bignum.c:578
    443c:	d82c      	bhi.n	4498 <mpi_write_hlp+0x68>
/home/hsk/Desktop/devel/tee-tpm-hyp/optee_os/lib/libmbedtls/mbedtls/library/bignum.c:581
    443e:	460a      	mov	r2, r1
    4440:	4601      	mov	r1, r0
    4442:	a801      	add	r0, sp, #4
    4444:	f7ff ffd7 	bl	43f6 <mbedtls_mpi_mod_int>
    4448:	4604      	mov	r4, r0
    444a:	b9b0      	cbnz	r0, 447a <mpi_write_hlp+0x4a>
/home/hsk/Desktop/devel/tee-tpm-hyp/optee_os/lib/libmbedtls/mbedtls/library/bignum.c:582
    444c:	4601      	mov	r1, r0
    444e:	463b      	mov	r3, r7
    4450:	462a      	mov	r2, r5
    4452:	4628      	mov	r0, r5
    4454:	f7ff ff86 	bl	4364 <mbedtls_mpi_div_int>
    4458:	4604      	mov	r4, r0
    445a:	b970      	cbnz	r0, 447a <mpi_write_hlp+0x4a>
/home/hsk/Desktop/devel/tee-tpm-hyp/optee_os/lib/libmbedtls/mbedtls/library/bignum.c:584
    445c:	4601      	mov	r1, r0
    445e:	4628      	mov	r0, r5
    4460:	f7ff fb7b 	bl	3b5a <mbedtls_mpi_cmp_int>
    4464:	b960      	cbnz	r0, 4480 <mpi_write_hlp+0x50>
/home/hsk/Desktop/devel/tee-tpm-hyp/optee_os/lib/libmbedtls/mbedtls/library/bignum.c:587
    4466:	9801      	ldr	r0, [sp, #4]
    4468:	6832      	ldr	r2, [r6, #0]
    446a:	2809      	cmp	r0, #9
    446c:	b2c3      	uxtb	r3, r0
    446e:	f102 0101 	add.w	r1, r2, #1
    4472:	d80e      	bhi.n	4492 <mpi_write_hlp+0x62>
/home/hsk/Desktop/devel/tee-tpm-hyp/optee_os/lib/libmbedtls/mbedtls/library/bignum.c:588
    4474:	3330      	adds	r3, #48	; 0x30
    4476:	6031      	str	r1, [r6, #0]
/home/hsk/Desktop/devel/tee-tpm-hyp/optee_os/lib/libmbedtls/mbedtls/library/bignum.c:590
    4478:	7013      	strb	r3, [r2, #0]
/home/hsk/Desktop/devel/tee-tpm-hyp/optee_os/lib/libmbedtls/mbedtls/library/bignum.c:595
    447a:	4620      	mov	r0, r4
    447c:	b003      	add	sp, #12
    447e:	bdf0      	pop	{r4, r5, r6, r7, pc}
/home/hsk/Desktop/devel/tee-tpm-hyp/optee_os/lib/libmbedtls/mbedtls/library/bignum.c:585
    4480:	4632      	mov	r2, r6
    4482:	4639      	mov	r1, r7
    4484:	4628      	mov	r0, r5
    4486:	f7ff ffd3 	bl	4430 <mpi_write_hlp>
    448a:	2800      	cmp	r0, #0
    448c:	d0eb      	beq.n	4466 <mpi_write_hlp+0x36>
/home/hsk/Desktop/devel/tee-tpm-hyp/optee_os/lib/libmbedtls/mbedtls/library/bignum.c:592
    448e:	4604      	mov	r4, r0
    4490:	e7f3      	b.n	447a <mpi_write_hlp+0x4a>
/home/hsk/Desktop/devel/tee-tpm-hyp/optee_os/lib/libmbedtls/mbedtls/library/bignum.c:590
    4492:	6031      	str	r1, [r6, #0]
    4494:	3337      	adds	r3, #55	; 0x37
    4496:	e7ef      	b.n	4478 <mpi_write_hlp+0x48>
/home/hsk/Desktop/devel/tee-tpm-hyp/optee_os/lib/libmbedtls/mbedtls/library/bignum.c:579
    4498:	f06f 0403 	mvn.w	r4, #3
    449c:	e7ed      	b.n	447a <mpi_write_hlp+0x4a>

0000449e <mbedtls_mpi_write_string>:
mbedtls_mpi_write_string():
/home/hsk/Desktop/devel/tee-tpm-hyp/optee_os/lib/libmbedtls/mbedtls/library/bignum.c:602
    449e:	e92d 47ff 	stmdb	sp!, {r0, r1, r2, r3, r4, r5, r6, r7, r8, r9, sl, lr}
    44a2:	461f      	mov	r7, r3
/home/hsk/Desktop/devel/tee-tpm-hyp/optee_os/lib/libmbedtls/mbedtls/library/bignum.c:608
    44a4:	1e8b      	subs	r3, r1, #2
/home/hsk/Desktop/devel/tee-tpm-hyp/optee_os/lib/libmbedtls/mbedtls/library/bignum.c:602
    44a6:	4604      	mov	r4, r0
    44a8:	4688      	mov	r8, r1
    44aa:	4615      	mov	r5, r2
    44ac:	9e0c      	ldr	r6, [sp, #48]	; 0x30
/home/hsk/Desktop/devel/tee-tpm-hyp/optee_os/lib/libmbedtls/mbedtls/library/bignum.c:608
    44ae:	2b0e      	cmp	r3, #14
    44b0:	f200 8087 	bhi.w	45c2 <mbedtls_mpi_write_string+0x124>
/home/hsk/Desktop/devel/tee-tpm-hyp/optee_os/lib/libmbedtls/mbedtls/library/bignum.c:611
    44b4:	f7ff f9d1 	bl	385a <mbedtls_mpi_bitlen>
/home/hsk/Desktop/devel/tee-tpm-hyp/optee_os/lib/libmbedtls/mbedtls/library/bignum.c:612
    44b8:	f1b8 0f03 	cmp.w	r8, #3
    44bc:	bfc8      	it	gt
    44be:	0840      	lsrgt	r0, r0, #1
/home/hsk/Desktop/devel/tee-tpm-hyp/optee_os/lib/libmbedtls/mbedtls/library/bignum.c:613
    44c0:	f1b8 0f10 	cmp.w	r8, #16
    44c4:	bf08      	it	eq
    44c6:	0840      	lsreq	r0, r0, #1
/home/hsk/Desktop/devel/tee-tpm-hyp/optee_os/lib/libmbedtls/mbedtls/library/bignum.c:619
    44c8:	1c42      	adds	r2, r0, #1
    44ca:	3003      	adds	r0, #3
    44cc:	f002 0201 	and.w	r2, r2, #1
    44d0:	4410      	add	r0, r2
/home/hsk/Desktop/devel/tee-tpm-hyp/optee_os/lib/libmbedtls/mbedtls/library/bignum.c:621
    44d2:	42b8      	cmp	r0, r7
    44d4:	d906      	bls.n	44e4 <mbedtls_mpi_write_string+0x46>
/home/hsk/Desktop/devel/tee-tpm-hyp/optee_os/lib/libmbedtls/mbedtls/library/bignum.c:624
    44d6:	f06f 0407 	mvn.w	r4, #7
/home/hsk/Desktop/devel/tee-tpm-hyp/optee_os/lib/libmbedtls/mbedtls/library/bignum.c:623
    44da:	6030      	str	r0, [r6, #0]
/home/hsk/Desktop/devel/tee-tpm-hyp/optee_os/lib/libmbedtls/mbedtls/library/bignum.c:671
    44dc:	4620      	mov	r0, r4
    44de:	b004      	add	sp, #16
    44e0:	e8bd 87f0 	ldmia.w	sp!, {r4, r5, r6, r7, r8, r9, sl, pc}
/home/hsk/Desktop/devel/tee-tpm-hyp/optee_os/lib/libmbedtls/mbedtls/library/bignum.c:628
    44e4:	af01      	add	r7, sp, #4
/home/hsk/Desktop/devel/tee-tpm-hyp/optee_os/lib/libmbedtls/mbedtls/library/bignum.c:627
    44e6:	9500      	str	r5, [sp, #0]
/home/hsk/Desktop/devel/tee-tpm-hyp/optee_os/lib/libmbedtls/mbedtls/library/bignum.c:628
    44e8:	4638      	mov	r0, r7
    44ea:	f7fe ff91 	bl	3410 <mbedtls_mpi_init_mempool>
/home/hsk/Desktop/devel/tee-tpm-hyp/optee_os/lib/libmbedtls/mbedtls/library/bignum.c:630
    44ee:	f994 3000 	ldrsb.w	r3, [r4]
    44f2:	3301      	adds	r3, #1
    44f4:	d104      	bne.n	4500 <mbedtls_mpi_write_string+0x62>
/home/hsk/Desktop/devel/tee-tpm-hyp/optee_os/lib/libmbedtls/mbedtls/library/bignum.c:631
    44f6:	9b00      	ldr	r3, [sp, #0]
    44f8:	1c5a      	adds	r2, r3, #1
    44fa:	9200      	str	r2, [sp, #0]
    44fc:	222d      	movs	r2, #45	; 0x2d
    44fe:	701a      	strb	r2, [r3, #0]
/home/hsk/Desktop/devel/tee-tpm-hyp/optee_os/lib/libmbedtls/mbedtls/library/bignum.c:633
    4500:	f1b8 0f10 	cmp.w	r8, #16
    4504:	d146      	bne.n	4594 <mbedtls_mpi_write_string+0xf6>
/home/hsk/Desktop/devel/tee-tpm-hyp/optee_os/lib/libmbedtls/mbedtls/library/bignum.c:638
    4506:	88a0      	ldrh	r0, [r4, #4]
    4508:	f04f 0800 	mov.w	r8, #0
/home/hsk/Desktop/devel/tee-tpm-hyp/optee_os/lib/libmbedtls/mbedtls/library/bignum.c:647
    450c:	f8df c0b8 	ldr.w	ip, [pc, #184]	; 45c8 <mbedtls_mpi_write_string+0x12a>
    4510:	f100 4380 	add.w	r3, r0, #1073741824	; 0x40000000
    4514:	3b01      	subs	r3, #1
    4516:	44fc      	add	ip, pc
    4518:	009b      	lsls	r3, r3, #2
/home/hsk/Desktop/devel/tee-tpm-hyp/optee_os/lib/libmbedtls/mbedtls/library/bignum.c:638 (discriminator 1)
    451a:	b958      	cbnz	r0, 4534 <mbedtls_mpi_write_string+0x96>
/home/hsk/Desktop/devel/tee-tpm-hyp/optee_os/lib/libmbedtls/mbedtls/library/bignum.c:663
    451c:	9b00      	ldr	r3, [sp, #0]
    451e:	2400      	movs	r4, #0
    4520:	1c5a      	adds	r2, r3, #1
    4522:	9200      	str	r2, [sp, #0]
    4524:	701c      	strb	r4, [r3, #0]
/home/hsk/Desktop/devel/tee-tpm-hyp/optee_os/lib/libmbedtls/mbedtls/library/bignum.c:664
    4526:	9b00      	ldr	r3, [sp, #0]
    4528:	1b5d      	subs	r5, r3, r5
    452a:	6035      	str	r5, [r6, #0]
/home/hsk/Desktop/devel/tee-tpm-hyp/optee_os/lib/libmbedtls/mbedtls/library/bignum.c:668
    452c:	4638      	mov	r0, r7
    452e:	f7fe ff8a 	bl	3446 <mbedtls_mpi_free>
/home/hsk/Desktop/devel/tee-tpm-hyp/optee_os/lib/libmbedtls/mbedtls/library/bignum.c:670
    4532:	e7d3      	b.n	44dc <mbedtls_mpi_write_string+0x3e>
/home/hsk/Desktop/devel/tee-tpm-hyp/optee_os/lib/libmbedtls/mbedtls/library/bignum.c:640
    4534:	2104      	movs	r1, #4
/home/hsk/Desktop/devel/tee-tpm-hyp/optee_os/lib/libmbedtls/mbedtls/library/bignum.c:642
    4536:	68a2      	ldr	r2, [r4, #8]
    4538:	f101 3eff 	add.w	lr, r1, #4294967295	; 0xffffffff
    453c:	ea4f 0ace 	mov.w	sl, lr, lsl #3
    4540:	f852 9003 	ldr.w	r9, [r2, r3]
    4544:	fa29 f20a 	lsr.w	r2, r9, sl
/home/hsk/Desktop/devel/tee-tpm-hyp/optee_os/lib/libmbedtls/mbedtls/library/bignum.c:644
    4548:	f012 09ff 	ands.w	r9, r2, #255	; 0xff
    454c:	d105      	bne.n	455a <mbedtls_mpi_write_string+0xbc>
/home/hsk/Desktop/devel/tee-tpm-hyp/optee_os/lib/libmbedtls/mbedtls/library/bignum.c:644 (discriminator 1)
    454e:	f1b8 0f00 	cmp.w	r8, #0
    4552:	d102      	bne.n	455a <mbedtls_mpi_write_string+0xbc>
/home/hsk/Desktop/devel/tee-tpm-hyp/optee_os/lib/libmbedtls/mbedtls/library/bignum.c:644 (discriminator 2)
    4554:	4401      	add	r1, r0
    4556:	2902      	cmp	r1, #2
    4558:	d116      	bne.n	4588 <mbedtls_mpi_write_string+0xea>
/home/hsk/Desktop/devel/tee-tpm-hyp/optee_os/lib/libmbedtls/mbedtls/library/bignum.c:647
    455a:	f8dd 8000 	ldr.w	r8, [sp]
/home/hsk/Desktop/devel/tee-tpm-hyp/optee_os/lib/libmbedtls/mbedtls/library/bignum.c:648
    455e:	f002 020f 	and.w	r2, r2, #15
/home/hsk/Desktop/devel/tee-tpm-hyp/optee_os/lib/libmbedtls/mbedtls/library/bignum.c:647
    4562:	f108 0101 	add.w	r1, r8, #1
    4566:	9100      	str	r1, [sp, #0]
    4568:	ea4f 1129 	mov.w	r1, r9, asr #4
/home/hsk/Desktop/devel/tee-tpm-hyp/optee_os/lib/libmbedtls/mbedtls/library/bignum.c:648
    456c:	f81c 2002 	ldrb.w	r2, [ip, r2]
/home/hsk/Desktop/devel/tee-tpm-hyp/optee_os/lib/libmbedtls/mbedtls/library/bignum.c:647
    4570:	f81c 1001 	ldrb.w	r1, [ip, r1]
    4574:	f888 1000 	strb.w	r1, [r8]
/home/hsk/Desktop/devel/tee-tpm-hyp/optee_os/lib/libmbedtls/mbedtls/library/bignum.c:648
    4578:	9900      	ldr	r1, [sp, #0]
    457a:	f101 0801 	add.w	r8, r1, #1
    457e:	f8cd 8000 	str.w	r8, [sp]
/home/hsk/Desktop/devel/tee-tpm-hyp/optee_os/lib/libmbedtls/mbedtls/library/bignum.c:649
    4582:	f04f 0801 	mov.w	r8, #1
/home/hsk/Desktop/devel/tee-tpm-hyp/optee_os/lib/libmbedtls/mbedtls/library/bignum.c:648
    4586:	700a      	strb	r2, [r1, #0]
    4588:	4671      	mov	r1, lr
/home/hsk/Desktop/devel/tee-tpm-hyp/optee_os/lib/libmbedtls/mbedtls/library/bignum.c:640 (discriminator 1)
    458a:	2900      	cmp	r1, #0
    458c:	d1d3      	bne.n	4536 <mbedtls_mpi_write_string+0x98>
/home/hsk/Desktop/devel/tee-tpm-hyp/optee_os/lib/libmbedtls/mbedtls/library/bignum.c:638 (discriminator 2)
    458e:	3801      	subs	r0, #1
    4590:	3b04      	subs	r3, #4
    4592:	e7c2      	b.n	451a <mbedtls_mpi_write_string+0x7c>
/home/hsk/Desktop/devel/tee-tpm-hyp/optee_os/lib/libmbedtls/mbedtls/library/bignum.c:655
    4594:	4621      	mov	r1, r4
    4596:	4638      	mov	r0, r7
    4598:	f7ff f836 	bl	3608 <mbedtls_mpi_copy>
    459c:	4604      	mov	r4, r0
    459e:	2800      	cmp	r0, #0
    45a0:	d1c4      	bne.n	452c <mbedtls_mpi_write_string+0x8e>
/home/hsk/Desktop/devel/tee-tpm-hyp/optee_os/lib/libmbedtls/mbedtls/library/bignum.c:657
    45a2:	f99d 3004 	ldrsb.w	r3, [sp, #4]
    45a6:	3301      	adds	r3, #1
    45a8:	d102      	bne.n	45b0 <mbedtls_mpi_write_string+0x112>
/home/hsk/Desktop/devel/tee-tpm-hyp/optee_os/lib/libmbedtls/mbedtls/library/bignum.c:658
    45aa:	2301      	movs	r3, #1
    45ac:	f88d 3004 	strb.w	r3, [sp, #4]
/home/hsk/Desktop/devel/tee-tpm-hyp/optee_os/lib/libmbedtls/mbedtls/library/bignum.c:660
    45b0:	466a      	mov	r2, sp
    45b2:	4641      	mov	r1, r8
    45b4:	4638      	mov	r0, r7
    45b6:	f7ff ff3b 	bl	4430 <mpi_write_hlp>
    45ba:	4604      	mov	r4, r0
    45bc:	2800      	cmp	r0, #0
    45be:	d0ad      	beq.n	451c <mbedtls_mpi_write_string+0x7e>
/home/hsk/Desktop/devel/tee-tpm-hyp/optee_os/lib/libmbedtls/mbedtls/library/bignum.c:666
    45c0:	e7b4      	b.n	452c <mbedtls_mpi_write_string+0x8e>
/home/hsk/Desktop/devel/tee-tpm-hyp/optee_os/lib/libmbedtls/mbedtls/library/bignum.c:609
    45c2:	f06f 0403 	mvn.w	r4, #3
    45c6:	e789      	b.n	44dc <mbedtls_mpi_write_string+0x3e>
    45c8:	00002905 	.word	0x00002905

000045cc <mpi_check_small_factors>:
mpi_check_small_factors():
/home/hsk/Desktop/devel/tee-tpm-hyp/optee_os/lib/libmbedtls/mbedtls/library/bignum.c:2108
    45cc:	6883      	ldr	r3, [r0, #8]
/home/hsk/Desktop/devel/tee-tpm-hyp/optee_os/lib/libmbedtls/mbedtls/library/bignum.c:2103
    45ce:	b5f7      	push	{r0, r1, r2, r4, r5, r6, r7, lr}
    45d0:	4606      	mov	r6, r0
/home/hsk/Desktop/devel/tee-tpm-hyp/optee_os/lib/libmbedtls/mbedtls/library/bignum.c:2108
    45d2:	681b      	ldr	r3, [r3, #0]
    45d4:	07db      	lsls	r3, r3, #31
    45d6:	d51a      	bpl.n	460e <mpi_check_small_factors+0x42>
    45d8:	4c0f      	ldr	r4, [pc, #60]	; (4618 <mpi_check_small_factors+0x4c>)
/home/hsk/Desktop/devel/tee-tpm-hyp/optee_os/lib/libmbedtls/mbedtls/library/bignum.c:2116
    45da:	af01      	add	r7, sp, #4
    45dc:	447c      	add	r4, pc
    45de:	3c04      	subs	r4, #4
/home/hsk/Desktop/devel/tee-tpm-hyp/optee_os/lib/libmbedtls/mbedtls/library/bignum.c:2111
    45e0:	f854 5f04 	ldr.w	r5, [r4, #4]!
    45e4:	2d00      	cmp	r5, #0
    45e6:	dc02      	bgt.n	45ee <mpi_check_small_factors+0x22>
    45e8:	2000      	movs	r0, #0
/home/hsk/Desktop/devel/tee-tpm-hyp/optee_os/lib/libmbedtls/mbedtls/library/bignum.c:2124
    45ea:	b003      	add	sp, #12
    45ec:	bdf0      	pop	{r4, r5, r6, r7, pc}
/home/hsk/Desktop/devel/tee-tpm-hyp/optee_os/lib/libmbedtls/mbedtls/library/bignum.c:2113
    45ee:	4629      	mov	r1, r5
    45f0:	4630      	mov	r0, r6
    45f2:	f7ff fab2 	bl	3b5a <mbedtls_mpi_cmp_int>
    45f6:	2800      	cmp	r0, #0
    45f8:	dd0c      	ble.n	4614 <mpi_check_small_factors+0x48>
/home/hsk/Desktop/devel/tee-tpm-hyp/optee_os/lib/libmbedtls/mbedtls/library/bignum.c:2116
    45fa:	462a      	mov	r2, r5
    45fc:	4631      	mov	r1, r6
    45fe:	4638      	mov	r0, r7
    4600:	f7ff fef9 	bl	43f6 <mbedtls_mpi_mod_int>
    4604:	2800      	cmp	r0, #0
    4606:	d1f0      	bne.n	45ea <mpi_check_small_factors+0x1e>
/home/hsk/Desktop/devel/tee-tpm-hyp/optee_os/lib/libmbedtls/mbedtls/library/bignum.c:2118
    4608:	9b01      	ldr	r3, [sp, #4]
    460a:	2b00      	cmp	r3, #0
    460c:	d1e8      	bne.n	45e0 <mpi_check_small_factors+0x14>
/home/hsk/Desktop/devel/tee-tpm-hyp/optee_os/lib/libmbedtls/mbedtls/library/bignum.c:2109
    460e:	f06f 000d 	mvn.w	r0, #13
    4612:	e7ea      	b.n	45ea <mpi_check_small_factors+0x1e>
/home/hsk/Desktop/devel/tee-tpm-hyp/optee_os/lib/libmbedtls/mbedtls/library/bignum.c:2114
    4614:	2001      	movs	r0, #1
    4616:	e7e8      	b.n	45ea <mpi_check_small_factors+0x1e>
    4618:	00002054 	.word	0x00002054

0000461c <mbedtls_mpi_montg_init>:
mbedtls_mpi_montg_init():
/home/hsk/Desktop/devel/tee-tpm-hyp/optee_os/lib/libmbedtls/mbedtls/library/bignum.c:1613
    461c:	688b      	ldr	r3, [r1, #8]
/home/hsk/Desktop/devel/tee-tpm-hyp/optee_os/lib/libmbedtls/mbedtls/library/bignum.c:1617
    461e:	2203      	movs	r2, #3
/home/hsk/Desktop/devel/tee-tpm-hyp/optee_os/lib/libmbedtls/mbedtls/library/bignum.c:1612
    4620:	b510      	push	{r4, lr}
/home/hsk/Desktop/devel/tee-tpm-hyp/optee_os/lib/libmbedtls/mbedtls/library/bignum.c:1613
    4622:	681c      	ldr	r4, [r3, #0]
/home/hsk/Desktop/devel/tee-tpm-hyp/optee_os/lib/libmbedtls/mbedtls/library/bignum.c:1617
    4624:	1ca3      	adds	r3, r4, #2
    4626:	005b      	lsls	r3, r3, #1
    4628:	f003 0308 	and.w	r3, r3, #8
    462c:	4423      	add	r3, r4
/home/hsk/Desktop/devel/tee-tpm-hyp/optee_os/lib/libmbedtls/mbedtls/library/bignum.c:1620 (discriminator 3)
    462e:	fb03 f104 	mul.w	r1, r3, r4
/home/hsk/Desktop/devel/tee-tpm-hyp/optee_os/lib/libmbedtls/mbedtls/library/bignum.c:1619 (discriminator 3)
    4632:	3a01      	subs	r2, #1
/home/hsk/Desktop/devel/tee-tpm-hyp/optee_os/lib/libmbedtls/mbedtls/library/bignum.c:1620 (discriminator 3)
    4634:	f1c1 0102 	rsb	r1, r1, #2
    4638:	fb01 f303 	mul.w	r3, r1, r3
/home/hsk/Desktop/devel/tee-tpm-hyp/optee_os/lib/libmbedtls/mbedtls/library/bignum.c:1619 (discriminator 3)
    463c:	d1f7      	bne.n	462e <mbedtls_mpi_montg_init+0x12>
/home/hsk/Desktop/devel/tee-tpm-hyp/optee_os/lib/libmbedtls/mbedtls/library/bignum.c:1622
    463e:	425b      	negs	r3, r3
    4640:	6003      	str	r3, [r0, #0]
/home/hsk/Desktop/devel/tee-tpm-hyp/optee_os/lib/libmbedtls/mbedtls/library/bignum.c:1623
    4642:	bd10      	pop	{r4, pc}

00004644 <mbedtls_mpi_montmul>:
mbedtls_mpi_montmul():
/home/hsk/Desktop/devel/tee-tpm-hyp/optee_os/lib/libmbedtls/mbedtls/library/bignum.c:1631
    4644:	e92d 4ff0 	stmdb	sp!, {r4, r5, r6, r7, r8, r9, sl, fp, lr}
    4648:	4616      	mov	r6, r2
    464a:	4681      	mov	r9, r0
    464c:	b085      	sub	sp, #20
    464e:	468b      	mov	fp, r1
    4650:	9303      	str	r3, [sp, #12]
/home/hsk/Desktop/devel/tee-tpm-hyp/optee_os/lib/libmbedtls/mbedtls/library/bignum.c:1635
    4652:	9b0e      	ldr	r3, [sp, #56]	; 0x38
    4654:	889a      	ldrh	r2, [r3, #4]
    4656:	88b3      	ldrh	r3, [r6, #4]
    4658:	4293      	cmp	r3, r2
    465a:	d252      	bcs.n	4702 <mbedtls_mpi_montmul+0xbe>
/home/hsk/Desktop/devel/tee-tpm-hyp/optee_os/lib/libmbedtls/mbedtls/library/bignum.c:1635 (discriminator 1)
    465c:	9b0e      	ldr	r3, [sp, #56]	; 0x38
    465e:	6898      	ldr	r0, [r3, #8]
    4660:	2800      	cmp	r0, #0
    4662:	d04e      	beq.n	4702 <mbedtls_mpi_montmul+0xbe>
/home/hsk/Desktop/devel/tee-tpm-hyp/optee_os/lib/libmbedtls/mbedtls/library/bignum.c:1638
    4664:	0092      	lsls	r2, r2, #2
    4666:	2100      	movs	r1, #0
    4668:	f001 ffad 	bl	65c6 <memset>
/home/hsk/Desktop/devel/tee-tpm-hyp/optee_os/lib/libmbedtls/mbedtls/library/bignum.c:1640
    466c:	9b0e      	ldr	r3, [sp, #56]	; 0x38
/home/hsk/Desktop/devel/tee-tpm-hyp/optee_os/lib/libmbedtls/mbedtls/library/bignum.c:1641
    466e:	88b4      	ldrh	r4, [r6, #4]
/home/hsk/Desktop/devel/tee-tpm-hyp/optee_os/lib/libmbedtls/mbedtls/library/bignum.c:1644
    4670:	2700      	movs	r7, #0
/home/hsk/Desktop/devel/tee-tpm-hyp/optee_os/lib/libmbedtls/mbedtls/library/bignum.c:1640
    4672:	689b      	ldr	r3, [r3, #8]
    4674:	9300      	str	r3, [sp, #0]
/home/hsk/Desktop/devel/tee-tpm-hyp/optee_os/lib/libmbedtls/mbedtls/library/bignum.c:1642
    4676:	f8bb 3004 	ldrh.w	r3, [fp, #4]
/home/hsk/Desktop/devel/tee-tpm-hyp/optee_os/lib/libmbedtls/mbedtls/library/bignum.c:1640
    467a:	9d00      	ldr	r5, [sp, #0]
/home/hsk/Desktop/devel/tee-tpm-hyp/optee_os/lib/libmbedtls/mbedtls/library/bignum.c:1642
    467c:	42a3      	cmp	r3, r4
    467e:	bf28      	it	cs
    4680:	4623      	movcs	r3, r4
    4682:	9301      	str	r3, [sp, #4]
/home/hsk/Desktop/devel/tee-tpm-hyp/optee_os/lib/libmbedtls/mbedtls/library/bignum.c:1655
    4684:	1c63      	adds	r3, r4, #1
    4686:	ea4f 0883 	mov.w	r8, r3, lsl #2
    468a:	f8d9 0008 	ldr.w	r0, [r9, #8]
/home/hsk/Desktop/devel/tee-tpm-hyp/optee_os/lib/libmbedtls/mbedtls/library/bignum.c:1644 (discriminator 1)
    468e:	42a7      	cmp	r7, r4
    4690:	d315      	bcc.n	46be <mbedtls_mpi_montmul+0x7a>
/home/hsk/Desktop/devel/tee-tpm-hyp/optee_os/lib/libmbedtls/mbedtls/library/bignum.c:1658
    4692:	9b00      	ldr	r3, [sp, #0]
    4694:	4642      	mov	r2, r8
    4696:	eb03 0184 	add.w	r1, r3, r4, lsl #2
    469a:	f001 ff70 	bl	657e <memcpy>
/home/hsk/Desktop/devel/tee-tpm-hyp/optee_os/lib/libmbedtls/mbedtls/library/bignum.c:1660
    469e:	4631      	mov	r1, r6
    46a0:	4648      	mov	r0, r9
    46a2:	f7ff f9dd 	bl	3a60 <mbedtls_mpi_cmp_abs>
    46a6:	2800      	cmp	r0, #0
    46a8:	db26      	blt.n	46f8 <mbedtls_mpi_montmul+0xb4>
/home/hsk/Desktop/devel/tee-tpm-hyp/optee_os/lib/libmbedtls/mbedtls/library/bignum.c:1661
    46aa:	f8d9 2008 	ldr.w	r2, [r9, #8]
    46ae:	68b1      	ldr	r1, [r6, #8]
/home/hsk/Desktop/devel/tee-tpm-hyp/optee_os/lib/libmbedtls/mbedtls/library/bignum.c:1664
    46b0:	4620      	mov	r0, r4
    46b2:	f7fe fc07 	bl	2ec4 <mpi_sub_hlp>
/home/hsk/Desktop/devel/tee-tpm-hyp/optee_os/lib/libmbedtls/mbedtls/library/bignum.c:1666
    46b6:	2000      	movs	r0, #0
/home/hsk/Desktop/devel/tee-tpm-hyp/optee_os/lib/libmbedtls/mbedtls/library/bignum.c:1667
    46b8:	b005      	add	sp, #20
    46ba:	e8bd 8ff0 	ldmia.w	sp!, {r4, r5, r6, r7, r8, r9, sl, fp, pc}
/home/hsk/Desktop/devel/tee-tpm-hyp/optee_os/lib/libmbedtls/mbedtls/library/bignum.c:1650 (discriminator 3)
    46be:	f8db 1008 	ldr.w	r1, [fp, #8]
/home/hsk/Desktop/devel/tee-tpm-hyp/optee_os/lib/libmbedtls/mbedtls/library/bignum.c:1649 (discriminator 3)
    46c2:	f850 a027 	ldr.w	sl, [r0, r7, lsl #2]
/home/hsk/Desktop/devel/tee-tpm-hyp/optee_os/lib/libmbedtls/mbedtls/library/bignum.c:1644 (discriminator 3)
    46c6:	3701      	adds	r7, #1
/home/hsk/Desktop/devel/tee-tpm-hyp/optee_os/lib/libmbedtls/mbedtls/library/bignum.c:1650 (discriminator 3)
    46c8:	682a      	ldr	r2, [r5, #0]
    46ca:	680b      	ldr	r3, [r1, #0]
/home/hsk/Desktop/devel/tee-tpm-hyp/optee_os/lib/libmbedtls/mbedtls/library/bignum.c:1652 (discriminator 3)
    46cc:	9801      	ldr	r0, [sp, #4]
/home/hsk/Desktop/devel/tee-tpm-hyp/optee_os/lib/libmbedtls/mbedtls/library/bignum.c:1650 (discriminator 3)
    46ce:	fb03 230a 	mla	r3, r3, sl, r2
    46d2:	9a03      	ldr	r2, [sp, #12]
    46d4:	4353      	muls	r3, r2
/home/hsk/Desktop/devel/tee-tpm-hyp/optee_os/lib/libmbedtls/mbedtls/library/bignum.c:1652 (discriminator 3)
    46d6:	462a      	mov	r2, r5
/home/hsk/Desktop/devel/tee-tpm-hyp/optee_os/lib/libmbedtls/mbedtls/library/bignum.c:1650 (discriminator 3)
    46d8:	9302      	str	r3, [sp, #8]
/home/hsk/Desktop/devel/tee-tpm-hyp/optee_os/lib/libmbedtls/mbedtls/library/bignum.c:1652 (discriminator 3)
    46da:	4653      	mov	r3, sl
    46dc:	f7fe fc20 	bl	2f20 <mpi_mul_hlp>
/home/hsk/Desktop/devel/tee-tpm-hyp/optee_os/lib/libmbedtls/mbedtls/library/bignum.c:1653 (discriminator 3)
    46e0:	9b02      	ldr	r3, [sp, #8]
    46e2:	462a      	mov	r2, r5
    46e4:	68b1      	ldr	r1, [r6, #8]
    46e6:	4620      	mov	r0, r4
    46e8:	f7fe fc1a 	bl	2f20 <mpi_mul_hlp>
/home/hsk/Desktop/devel/tee-tpm-hyp/optee_os/lib/libmbedtls/mbedtls/library/bignum.c:1655 (discriminator 3)
    46ec:	f845 ab04 	str.w	sl, [r5], #4
    46f0:	2300      	movs	r3, #0
    46f2:	f845 3008 	str.w	r3, [r5, r8]
    46f6:	e7c8      	b.n	468a <mbedtls_mpi_montmul+0x46>
/home/hsk/Desktop/devel/tee-tpm-hyp/optee_os/lib/libmbedtls/mbedtls/library/bignum.c:1664
    46f8:	9b0e      	ldr	r3, [sp, #56]	; 0x38
    46fa:	f8d9 1008 	ldr.w	r1, [r9, #8]
    46fe:	689a      	ldr	r2, [r3, #8]
    4700:	e7d6      	b.n	46b0 <mbedtls_mpi_montmul+0x6c>
/home/hsk/Desktop/devel/tee-tpm-hyp/optee_os/lib/libmbedtls/mbedtls/library/bignum.c:1636
    4702:	f06f 0003 	mvn.w	r0, #3
    4706:	e7d7      	b.n	46b8 <mbedtls_mpi_montmul+0x74>

00004708 <mbedtls_mpi_montred>:
mbedtls_mpi_montred():
/home/hsk/Desktop/devel/tee-tpm-hyp/optee_os/lib/libmbedtls/mbedtls/library/bignum.c:1674
    4708:	b510      	push	{r4, lr}
/home/hsk/Desktop/devel/tee-tpm-hyp/optee_os/lib/libmbedtls/mbedtls/library/bignum.c:1675
    470a:	2401      	movs	r4, #1
/home/hsk/Desktop/devel/tee-tpm-hyp/optee_os/lib/libmbedtls/mbedtls/library/bignum.c:1674
    470c:	b086      	sub	sp, #24
/home/hsk/Desktop/devel/tee-tpm-hyp/optee_os/lib/libmbedtls/mbedtls/library/bignum.c:1681
    470e:	9300      	str	r3, [sp, #0]
    4710:	4613      	mov	r3, r2
    4712:	460a      	mov	r2, r1
    4714:	a903      	add	r1, sp, #12
/home/hsk/Desktop/devel/tee-tpm-hyp/optee_os/lib/libmbedtls/mbedtls/library/bignum.c:1675
    4716:	9402      	str	r4, [sp, #8]
/home/hsk/Desktop/devel/tee-tpm-hyp/optee_os/lib/libmbedtls/mbedtls/library/bignum.c:1678
    4718:	f88d 400c 	strb.w	r4, [sp, #12]
    471c:	f8ad 4010 	strh.w	r4, [sp, #16]
/home/hsk/Desktop/devel/tee-tpm-hyp/optee_os/lib/libmbedtls/mbedtls/library/bignum.c:1679
    4720:	ac02      	add	r4, sp, #8
    4722:	9405      	str	r4, [sp, #20]
/home/hsk/Desktop/devel/tee-tpm-hyp/optee_os/lib/libmbedtls/mbedtls/library/bignum.c:1681
    4724:	f7ff ff8e 	bl	4644 <mbedtls_mpi_montmul>
/home/hsk/Desktop/devel/tee-tpm-hyp/optee_os/lib/libmbedtls/mbedtls/library/bignum.c:1682
    4728:	b006      	add	sp, #24
    472a:	bd10      	pop	{r4, pc}

0000472c <mbedtls_mpi_exp_mod>:
mbedtls_mpi_exp_mod():
/home/hsk/Desktop/devel/tee-tpm-hyp/optee_os/lib/libmbedtls/mbedtls/library/bignum.c:1688
    472c:	e92d 4ff0 	stmdb	sp!, {r4, r5, r6, r7, r8, r9, sl, fp, lr}
    4730:	4682      	mov	sl, r0
    4732:	460e      	mov	r6, r1
    4734:	f2ad 6d4c 	subw	sp, sp, #1612	; 0x64c
/home/hsk/Desktop/devel/tee-tpm-hyp/optee_os/lib/libmbedtls/mbedtls/library/bignum.c:1697
    4738:	2100      	movs	r1, #0
    473a:	4618      	mov	r0, r3
/home/hsk/Desktop/devel/tee-tpm-hyp/optee_os/lib/libmbedtls/mbedtls/library/bignum.c:1688
    473c:	461c      	mov	r4, r3
    473e:	9203      	str	r2, [sp, #12]
/home/hsk/Desktop/devel/tee-tpm-hyp/optee_os/lib/libmbedtls/mbedtls/library/bignum.c:1697
    4740:	f7ff fa0b 	bl	3b5a <mbedtls_mpi_cmp_int>
    4744:	2800      	cmp	r0, #0
    4746:	f2c0 8218 	blt.w	4b7a <mbedtls_mpi_exp_mod+0x44e>
/home/hsk/Desktop/devel/tee-tpm-hyp/optee_os/lib/libmbedtls/mbedtls/library/bignum.c:1697 (discriminator 1)
    474a:	68a3      	ldr	r3, [r4, #8]
    474c:	681b      	ldr	r3, [r3, #0]
    474e:	07d9      	lsls	r1, r3, #31
    4750:	f140 8213 	bpl.w	4b7a <mbedtls_mpi_exp_mod+0x44e>
/home/hsk/Desktop/devel/tee-tpm-hyp/optee_os/lib/libmbedtls/mbedtls/library/bignum.c:1700
    4754:	2100      	movs	r1, #0
    4756:	9803      	ldr	r0, [sp, #12]
    4758:	f7ff f9ff 	bl	3b5a <mbedtls_mpi_cmp_int>
    475c:	2800      	cmp	r0, #0
    475e:	f2c0 820c 	blt.w	4b7a <mbedtls_mpi_exp_mod+0x44e>
/home/hsk/Desktop/devel/tee-tpm-hyp/optee_os/lib/libmbedtls/mbedtls/library/bignum.c:1706
    4762:	f10d 0b20 	add.w	fp, sp, #32
    4766:	4621      	mov	r1, r4
    4768:	4658      	mov	r0, fp
/home/hsk/Desktop/devel/tee-tpm-hyp/optee_os/lib/libmbedtls/mbedtls/library/bignum.c:1707
    476a:	ad09      	add	r5, sp, #36	; 0x24
/home/hsk/Desktop/devel/tee-tpm-hyp/optee_os/lib/libmbedtls/mbedtls/library/bignum.c:1706
    476c:	f7ff ff56 	bl	461c <mbedtls_mpi_montg_init>
/home/hsk/Desktop/devel/tee-tpm-hyp/optee_os/lib/libmbedtls/mbedtls/library/bignum.c:1707
    4770:	4628      	mov	r0, r5
    4772:	f7fe fe4d 	bl	3410 <mbedtls_mpi_init_mempool>
    4776:	ab0c      	add	r3, sp, #48	; 0x30
    4778:	4618      	mov	r0, r3
/home/hsk/Desktop/devel/tee-tpm-hyp/optee_os/lib/libmbedtls/mbedtls/library/bignum.c:1708
    477a:	f10d 083c 	add.w	r8, sp, #60	; 0x3c
/home/hsk/Desktop/devel/tee-tpm-hyp/optee_os/lib/libmbedtls/mbedtls/library/bignum.c:1707
    477e:	9304      	str	r3, [sp, #16]
    4780:	f7fe fe46 	bl	3410 <mbedtls_mpi_init_mempool>
/home/hsk/Desktop/devel/tee-tpm-hyp/optee_os/lib/libmbedtls/mbedtls/library/bignum.c:1708
    4784:	4640      	mov	r0, r8
    4786:	f7fe fe43 	bl	3410 <mbedtls_mpi_init_mempool>
/home/hsk/Desktop/devel/tee-tpm-hyp/optee_os/lib/libmbedtls/mbedtls/library/bignum.c:1709
    478a:	ab12      	add	r3, sp, #72	; 0x48
    478c:	f44f 62c0 	mov.w	r2, #1536	; 0x600
    4790:	2100      	movs	r1, #0
    4792:	4618      	mov	r0, r3
    4794:	9306      	str	r3, [sp, #24]
    4796:	f001 ff16 	bl	65c6 <memset>
/home/hsk/Desktop/devel/tee-tpm-hyp/optee_os/lib/libmbedtls/mbedtls/library/bignum.c:1711
    479a:	9803      	ldr	r0, [sp, #12]
    479c:	f7ff f85d 	bl	385a <mbedtls_mpi_bitlen>
/home/hsk/Desktop/devel/tee-tpm-hyp/optee_os/lib/libmbedtls/mbedtls/library/bignum.c:1713
    47a0:	f5b0 7f28 	cmp.w	r0, #672	; 0x2a0
    47a4:	f080 80dd 	bcs.w	4962 <mbedtls_mpi_exp_mod+0x236>
/home/hsk/Desktop/devel/tee-tpm-hyp/optee_os/lib/libmbedtls/mbedtls/library/bignum.c:1713 (discriminator 1)
    47a8:	28ef      	cmp	r0, #239	; 0xef
    47aa:	f200 80dc 	bhi.w	4966 <mbedtls_mpi_exp_mod+0x23a>
/home/hsk/Desktop/devel/tee-tpm-hyp/optee_os/lib/libmbedtls/mbedtls/library/bignum.c:1713 (discriminator 3)
    47ae:	284f      	cmp	r0, #79	; 0x4f
    47b0:	f200 80db 	bhi.w	496a <mbedtls_mpi_exp_mod+0x23e>
/home/hsk/Desktop/devel/tee-tpm-hyp/optee_os/lib/libmbedtls/mbedtls/library/bignum.c:1713 (discriminator 5)
    47b4:	2818      	cmp	r0, #24
    47b6:	f04f 0301 	mov.w	r3, #1
    47ba:	bf28      	it	cs
    47bc:	2303      	movcs	r3, #3
/home/hsk/Desktop/devel/tee-tpm-hyp/optee_os/lib/libmbedtls/mbedtls/library/bignum.c:1719
    47be:	88a2      	ldrh	r2, [r4, #4]
/home/hsk/Desktop/devel/tee-tpm-hyp/optee_os/lib/libmbedtls/mbedtls/library/bignum.c:1720
    47c0:	4650      	mov	r0, sl
/home/hsk/Desktop/devel/tee-tpm-hyp/optee_os/lib/libmbedtls/mbedtls/library/bignum.c:1713
    47c2:	9302      	str	r3, [sp, #8]
/home/hsk/Desktop/devel/tee-tpm-hyp/optee_os/lib/libmbedtls/mbedtls/library/bignum.c:1719
    47c4:	1c57      	adds	r7, r2, #1
/home/hsk/Desktop/devel/tee-tpm-hyp/optee_os/lib/libmbedtls/mbedtls/library/bignum.c:1720
    47c6:	4639      	mov	r1, r7
    47c8:	f7fe fe64 	bl	3494 <mbedtls_mpi_grow>
    47cc:	4603      	mov	r3, r0
    47ce:	2800      	cmp	r0, #0
    47d0:	f040 815b 	bne.w	4a8a <mbedtls_mpi_exp_mod+0x35e>
/home/hsk/Desktop/devel/tee-tpm-hyp/optee_os/lib/libmbedtls/mbedtls/library/bignum.c:1721
    47d4:	f10d 0954 	add.w	r9, sp, #84	; 0x54
    47d8:	4639      	mov	r1, r7
    47da:	4648      	mov	r0, r9
    47dc:	f7fe fe5a 	bl	3494 <mbedtls_mpi_grow>
    47e0:	4603      	mov	r3, r0
    47e2:	2800      	cmp	r0, #0
    47e4:	f040 8151 	bne.w	4a8a <mbedtls_mpi_exp_mod+0x35e>
/home/hsk/Desktop/devel/tee-tpm-hyp/optee_os/lib/libmbedtls/mbedtls/library/bignum.c:1722
    47e8:	0079      	lsls	r1, r7, #1
    47ea:	9804      	ldr	r0, [sp, #16]
    47ec:	f7fe fe52 	bl	3494 <mbedtls_mpi_grow>
    47f0:	4603      	mov	r3, r0
    47f2:	2800      	cmp	r0, #0
    47f4:	f040 8149 	bne.w	4a8a <mbedtls_mpi_exp_mod+0x35e>
/home/hsk/Desktop/devel/tee-tpm-hyp/optee_os/lib/libmbedtls/mbedtls/library/bignum.c:1727
    47f8:	f996 3000 	ldrsb.w	r3, [r6]
    47fc:	9305      	str	r3, [sp, #20]
/home/hsk/Desktop/devel/tee-tpm-hyp/optee_os/lib/libmbedtls/mbedtls/library/bignum.c:1728
    47fe:	3301      	adds	r3, #1
    4800:	d10b      	bne.n	481a <mbedtls_mpi_exp_mod+0xee>
/home/hsk/Desktop/devel/tee-tpm-hyp/optee_os/lib/libmbedtls/mbedtls/library/bignum.c:1730
    4802:	4631      	mov	r1, r6
    4804:	4640      	mov	r0, r8
    4806:	f7fe feff 	bl	3608 <mbedtls_mpi_copy>
    480a:	4603      	mov	r3, r0
    480c:	2800      	cmp	r0, #0
    480e:	f040 813c 	bne.w	4a8a <mbedtls_mpi_exp_mod+0x35e>
/home/hsk/Desktop/devel/tee-tpm-hyp/optee_os/lib/libmbedtls/mbedtls/library/bignum.c:1732
    4812:	4646      	mov	r6, r8
/home/hsk/Desktop/devel/tee-tpm-hyp/optee_os/lib/libmbedtls/mbedtls/library/bignum.c:1731
    4814:	2301      	movs	r3, #1
    4816:	f888 3000 	strb.w	r3, [r8]
/home/hsk/Desktop/devel/tee-tpm-hyp/optee_os/lib/libmbedtls/mbedtls/library/bignum.c:1738
    481a:	f8dd 3670 	ldr.w	r3, [sp, #1648]	; 0x670
    481e:	b11b      	cbz	r3, 4828 <mbedtls_mpi_exp_mod+0xfc>
/home/hsk/Desktop/devel/tee-tpm-hyp/optee_os/lib/libmbedtls/mbedtls/library/bignum.c:1738 (discriminator 1)
    4820:	689b      	ldr	r3, [r3, #8]
    4822:	2b00      	cmp	r3, #0
    4824:	f040 80a3 	bne.w	496e <mbedtls_mpi_exp_mod+0x242>
/home/hsk/Desktop/devel/tee-tpm-hyp/optee_os/lib/libmbedtls/mbedtls/library/bignum.c:1740
    4828:	2101      	movs	r1, #1
    482a:	4628      	mov	r0, r5
    482c:	f7fe ffa7 	bl	377e <mbedtls_mpi_lset>
    4830:	4603      	mov	r3, r0
    4832:	2800      	cmp	r0, #0
    4834:	f040 8129 	bne.w	4a8a <mbedtls_mpi_exp_mod+0x35e>
/home/hsk/Desktop/devel/tee-tpm-hyp/optee_os/lib/libmbedtls/mbedtls/library/bignum.c:1741
    4838:	88a1      	ldrh	r1, [r4, #4]
    483a:	4628      	mov	r0, r5
    483c:	0189      	lsls	r1, r1, #6
    483e:	f7ff f889 	bl	3954 <mbedtls_mpi_shift_l>
    4842:	4603      	mov	r3, r0
    4844:	2800      	cmp	r0, #0
    4846:	f040 8120 	bne.w	4a8a <mbedtls_mpi_exp_mod+0x35e>
/home/hsk/Desktop/devel/tee-tpm-hyp/optee_os/lib/libmbedtls/mbedtls/library/bignum.c:1742
    484a:	4622      	mov	r2, r4
    484c:	4629      	mov	r1, r5
    484e:	4628      	mov	r0, r5
    4850:	f7ff fd9f 	bl	4392 <mbedtls_mpi_mod_mpi>
    4854:	4603      	mov	r3, r0
    4856:	2800      	cmp	r0, #0
    4858:	f040 8117 	bne.w	4a8a <mbedtls_mpi_exp_mod+0x35e>
/home/hsk/Desktop/devel/tee-tpm-hyp/optee_os/lib/libmbedtls/mbedtls/library/bignum.c:1744
    485c:	f8dd 3670 	ldr.w	r3, [sp, #1648]	; 0x670
    4860:	b123      	cbz	r3, 486c <mbedtls_mpi_exp_mod+0x140>
/home/hsk/Desktop/devel/tee-tpm-hyp/optee_os/lib/libmbedtls/mbedtls/library/bignum.c:1745
    4862:	220c      	movs	r2, #12
    4864:	4629      	mov	r1, r5
    4866:	4618      	mov	r0, r3
/home/hsk/Desktop/devel/tee-tpm-hyp/optee_os/lib/libmbedtls/mbedtls/library/bignum.c:1748
    4868:	f001 fe89 	bl	657e <memcpy>
/home/hsk/Desktop/devel/tee-tpm-hyp/optee_os/lib/libmbedtls/mbedtls/library/bignum.c:1753
    486c:	4621      	mov	r1, r4
    486e:	4630      	mov	r0, r6
    4870:	f7ff f92a 	bl	3ac8 <mbedtls_mpi_cmp_mpi>
    4874:	2800      	cmp	r0, #0
    4876:	db7f      	blt.n	4978 <mbedtls_mpi_exp_mod+0x24c>
/home/hsk/Desktop/devel/tee-tpm-hyp/optee_os/lib/libmbedtls/mbedtls/library/bignum.c:1754
    4878:	4622      	mov	r2, r4
    487a:	4631      	mov	r1, r6
    487c:	4648      	mov	r0, r9
    487e:	f7ff fd88 	bl	4392 <mbedtls_mpi_mod_mpi>
    4882:	4603      	mov	r3, r0
    4884:	2800      	cmp	r0, #0
    4886:	f040 8100 	bne.w	4a8a <mbedtls_mpi_exp_mod+0x35e>
/home/hsk/Desktop/devel/tee-tpm-hyp/optee_os/lib/libmbedtls/mbedtls/library/bignum.c:1758
    488a:	ab0c      	add	r3, sp, #48	; 0x30
    488c:	9300      	str	r3, [sp, #0]
    488e:	f10d 0954 	add.w	r9, sp, #84	; 0x54
    4892:	9304      	str	r3, [sp, #16]
    4894:	4622      	mov	r2, r4
    4896:	f8db 3000 	ldr.w	r3, [fp]
    489a:	4629      	mov	r1, r5
    489c:	4648      	mov	r0, r9
    489e:	f7ff fed1 	bl	4644 <mbedtls_mpi_montmul>
    48a2:	4603      	mov	r3, r0
    48a4:	2800      	cmp	r0, #0
    48a6:	f040 80f0 	bne.w	4a8a <mbedtls_mpi_exp_mod+0x35e>
/home/hsk/Desktop/devel/tee-tpm-hyp/optee_os/lib/libmbedtls/mbedtls/library/bignum.c:1763
    48aa:	4629      	mov	r1, r5
    48ac:	4650      	mov	r0, sl
    48ae:	f7fe feab 	bl	3608 <mbedtls_mpi_copy>
    48b2:	4603      	mov	r3, r0
    48b4:	2800      	cmp	r0, #0
    48b6:	f040 80e8 	bne.w	4a8a <mbedtls_mpi_exp_mod+0x35e>
/home/hsk/Desktop/devel/tee-tpm-hyp/optee_os/lib/libmbedtls/mbedtls/library/bignum.c:1764
    48ba:	9b04      	ldr	r3, [sp, #16]
    48bc:	4621      	mov	r1, r4
    48be:	f8db 2000 	ldr.w	r2, [fp]
    48c2:	4650      	mov	r0, sl
    48c4:	f7ff ff20 	bl	4708 <mbedtls_mpi_montred>
    48c8:	4603      	mov	r3, r0
    48ca:	2800      	cmp	r0, #0
    48cc:	f040 80dd 	bne.w	4a8a <mbedtls_mpi_exp_mod+0x35e>
/home/hsk/Desktop/devel/tee-tpm-hyp/optee_os/lib/libmbedtls/mbedtls/library/bignum.c:1766
    48d0:	9b02      	ldr	r3, [sp, #8]
    48d2:	2b01      	cmp	r3, #1
    48d4:	d155      	bne.n	4982 <mbedtls_mpi_exp_mod+0x256>
/home/hsk/Desktop/devel/tee-tpm-hyp/optee_os/lib/libmbedtls/mbedtls/library/bignum.c:1791
    48d6:	9b03      	ldr	r3, [sp, #12]
/home/hsk/Desktop/devel/tee-tpm-hyp/optee_os/lib/libmbedtls/mbedtls/library/bignum.c:1795
    48d8:	f04f 0800 	mov.w	r8, #0
/home/hsk/Desktop/devel/tee-tpm-hyp/optee_os/lib/libmbedtls/mbedtls/library/bignum.c:1793
    48dc:	4647      	mov	r7, r8
/home/hsk/Desktop/devel/tee-tpm-hyp/optee_os/lib/libmbedtls/mbedtls/library/bignum.c:1792
    48de:	46c1      	mov	r9, r8
/home/hsk/Desktop/devel/tee-tpm-hyp/optee_os/lib/libmbedtls/mbedtls/library/bignum.c:1794
    48e0:	4645      	mov	r5, r8
/home/hsk/Desktop/devel/tee-tpm-hyp/optee_os/lib/libmbedtls/mbedtls/library/bignum.c:1842
    48e2:	f10d 0b20 	add.w	fp, sp, #32
/home/hsk/Desktop/devel/tee-tpm-hyp/optee_os/lib/libmbedtls/mbedtls/library/bignum.c:1791
    48e6:	889e      	ldrh	r6, [r3, #4]
/home/hsk/Desktop/devel/tee-tpm-hyp/optee_os/lib/libmbedtls/mbedtls/library/bignum.c:1842
    48e8:	ab0c      	add	r3, sp, #48	; 0x30
    48ea:	9306      	str	r3, [sp, #24]
/home/hsk/Desktop/devel/tee-tpm-hyp/optee_os/lib/libmbedtls/mbedtls/library/bignum.c:1847
    48ec:	ab12      	add	r3, sp, #72	; 0x48
    48ee:	9307      	str	r3, [sp, #28]
/home/hsk/Desktop/devel/tee-tpm-hyp/optee_os/lib/libmbedtls/mbedtls/library/bignum.c:1799
    48f0:	f1b9 0f00 	cmp.w	r9, #0
    48f4:	f040 80aa 	bne.w	4a4c <mbedtls_mpi_exp_mod+0x320>
/home/hsk/Desktop/devel/tee-tpm-hyp/optee_os/lib/libmbedtls/mbedtls/library/bignum.c:1801
    48f8:	2e00      	cmp	r6, #0
    48fa:	f040 80a4 	bne.w	4a46 <mbedtls_mpi_exp_mod+0x31a>
/home/hsk/Desktop/devel/tee-tpm-hyp/optee_os/lib/libmbedtls/mbedtls/library/bignum.c:1864
    48fe:	9b02      	ldr	r3, [sp, #8]
    4900:	f04f 0b01 	mov.w	fp, #1
    4904:	f10d 0820 	add.w	r8, sp, #32
/home/hsk/Desktop/devel/tee-tpm-hyp/optee_os/lib/libmbedtls/mbedtls/library/bignum.c:1860
    4908:	f10d 0930 	add.w	r9, sp, #48	; 0x30
/home/hsk/Desktop/devel/tee-tpm-hyp/optee_os/lib/libmbedtls/mbedtls/library/bignum.c:1864
    490c:	fa0b fb03 	lsl.w	fp, fp, r3
/home/hsk/Desktop/devel/tee-tpm-hyp/optee_os/lib/libmbedtls/mbedtls/library/bignum.c:1865
    4910:	ab15      	add	r3, sp, #84	; 0x54
    4912:	9306      	str	r3, [sp, #24]
    4914:	f8d8 2000 	ldr.w	r2, [r8]
/home/hsk/Desktop/devel/tee-tpm-hyp/optee_os/lib/libmbedtls/mbedtls/library/bignum.c:1858 (discriminator 1)
    4918:	42be      	cmp	r6, r7
    491a:	f040 8109 	bne.w	4b30 <mbedtls_mpi_exp_mod+0x404>
/home/hsk/Desktop/devel/tee-tpm-hyp/optee_os/lib/libmbedtls/mbedtls/library/bignum.c:1871
    491e:	9b04      	ldr	r3, [sp, #16]
    4920:	4621      	mov	r1, r4
    4922:	4650      	mov	r0, sl
    4924:	f7ff fef0 	bl	4708 <mbedtls_mpi_montred>
    4928:	4603      	mov	r3, r0
    492a:	2800      	cmp	r0, #0
    492c:	f040 80ad 	bne.w	4a8a <mbedtls_mpi_exp_mod+0x35e>
/home/hsk/Desktop/devel/tee-tpm-hyp/optee_os/lib/libmbedtls/mbedtls/library/bignum.c:1873
    4930:	9a05      	ldr	r2, [sp, #20]
    4932:	3201      	adds	r2, #1
    4934:	f040 80a9 	bne.w	4a8a <mbedtls_mpi_exp_mod+0x35e>
/home/hsk/Desktop/devel/tee-tpm-hyp/optee_os/lib/libmbedtls/mbedtls/library/bignum.c:1873 (discriminator 1)
    4938:	9a03      	ldr	r2, [sp, #12]
    493a:	8892      	ldrh	r2, [r2, #4]
    493c:	2a00      	cmp	r2, #0
    493e:	f000 80a4 	beq.w	4a8a <mbedtls_mpi_exp_mod+0x35e>
/home/hsk/Desktop/devel/tee-tpm-hyp/optee_os/lib/libmbedtls/mbedtls/library/bignum.c:1873 (discriminator 2)
    4942:	9a03      	ldr	r2, [sp, #12]
    4944:	6892      	ldr	r2, [r2, #8]
    4946:	6812      	ldr	r2, [r2, #0]
    4948:	07d2      	lsls	r2, r2, #31
    494a:	f140 809e 	bpl.w	4a8a <mbedtls_mpi_exp_mod+0x35e>
/home/hsk/Desktop/devel/tee-tpm-hyp/optee_os/lib/libmbedtls/mbedtls/library/bignum.c:1875
    494e:	9b05      	ldr	r3, [sp, #20]
/home/hsk/Desktop/devel/tee-tpm-hyp/optee_os/lib/libmbedtls/mbedtls/library/bignum.c:1876
    4950:	4652      	mov	r2, sl
/home/hsk/Desktop/devel/tee-tpm-hyp/optee_os/lib/libmbedtls/mbedtls/library/bignum.c:1875
    4952:	f88a 3000 	strb.w	r3, [sl]
/home/hsk/Desktop/devel/tee-tpm-hyp/optee_os/lib/libmbedtls/mbedtls/library/bignum.c:1876
    4956:	4621      	mov	r1, r4
    4958:	4650      	mov	r0, sl
    495a:	f7ff f9af 	bl	3cbc <mbedtls_mpi_add_mpi>
    495e:	4603      	mov	r3, r0
/home/hsk/Desktop/devel/tee-tpm-hyp/optee_os/lib/libmbedtls/mbedtls/library/bignum.c:1879
    4960:	e093      	b.n	4a8a <mbedtls_mpi_exp_mod+0x35e>
/home/hsk/Desktop/devel/tee-tpm-hyp/optee_os/lib/libmbedtls/mbedtls/library/bignum.c:1713
    4962:	2306      	movs	r3, #6
    4964:	e72b      	b.n	47be <mbedtls_mpi_exp_mod+0x92>
    4966:	2305      	movs	r3, #5
    4968:	e729      	b.n	47be <mbedtls_mpi_exp_mod+0x92>
    496a:	2304      	movs	r3, #4
    496c:	e727      	b.n	47be <mbedtls_mpi_exp_mod+0x92>
/home/hsk/Desktop/devel/tee-tpm-hyp/optee_os/lib/libmbedtls/mbedtls/library/bignum.c:1748
    496e:	220c      	movs	r2, #12
    4970:	f8dd 1670 	ldr.w	r1, [sp, #1648]	; 0x670
    4974:	4628      	mov	r0, r5
    4976:	e777      	b.n	4868 <mbedtls_mpi_exp_mod+0x13c>
/home/hsk/Desktop/devel/tee-tpm-hyp/optee_os/lib/libmbedtls/mbedtls/library/bignum.c:1756
    4978:	4631      	mov	r1, r6
    497a:	4648      	mov	r0, r9
    497c:	f7fe fe44 	bl	3608 <mbedtls_mpi_copy>
    4980:	e77f      	b.n	4882 <mbedtls_mpi_exp_mod+0x156>
    4982:	9b02      	ldr	r3, [sp, #8]
    4984:	250c      	movs	r5, #12
/home/hsk/Desktop/devel/tee-tpm-hyp/optee_os/lib/libmbedtls/mbedtls/library/bignum.c:1773
    4986:	88a1      	ldrh	r1, [r4, #4]
    4988:	2601      	movs	r6, #1
    498a:	f103 38ff 	add.w	r8, r3, #4294967295	; 0xffffffff
    498e:	9b06      	ldr	r3, [sp, #24]
    4990:	3101      	adds	r1, #1
    4992:	fa05 f508 	lsl.w	r5, r5, r8
    4996:	442b      	add	r3, r5
    4998:	fa06 f608 	lsl.w	r6, r6, r8
    499c:	4618      	mov	r0, r3
    499e:	461f      	mov	r7, r3
    49a0:	f7fe fd78 	bl	3494 <mbedtls_mpi_grow>
    49a4:	4603      	mov	r3, r0
    49a6:	2800      	cmp	r0, #0
    49a8:	d16f      	bne.n	4a8a <mbedtls_mpi_exp_mod+0x35e>
/home/hsk/Desktop/devel/tee-tpm-hyp/optee_os/lib/libmbedtls/mbedtls/library/bignum.c:1774
    49aa:	4649      	mov	r1, r9
    49ac:	4638      	mov	r0, r7
    49ae:	f7fe fe2b 	bl	3608 <mbedtls_mpi_copy>
    49b2:	4603      	mov	r3, r0
    49b4:	2800      	cmp	r0, #0
    49b6:	d168      	bne.n	4a8a <mbedtls_mpi_exp_mod+0x35e>
/home/hsk/Desktop/devel/tee-tpm-hyp/optee_os/lib/libmbedtls/mbedtls/library/bignum.c:1777
    49b8:	9b04      	ldr	r3, [sp, #16]
/home/hsk/Desktop/devel/tee-tpm-hyp/optee_os/lib/libmbedtls/mbedtls/library/bignum.c:1776
    49ba:	4681      	mov	r9, r0
/home/hsk/Desktop/devel/tee-tpm-hyp/optee_os/lib/libmbedtls/mbedtls/library/bignum.c:1777
    49bc:	f10d 0b20 	add.w	fp, sp, #32
    49c0:	9306      	str	r3, [sp, #24]
    49c2:	9b06      	ldr	r3, [sp, #24]
    49c4:	4622      	mov	r2, r4
    49c6:	9300      	str	r3, [sp, #0]
    49c8:	4639      	mov	r1, r7
    49ca:	4638      	mov	r0, r7
    49cc:	f8db 3000 	ldr.w	r3, [fp]
    49d0:	f7ff fe38 	bl	4644 <mbedtls_mpi_montmul>
    49d4:	4603      	mov	r3, r0
    49d6:	2800      	cmp	r0, #0
    49d8:	d157      	bne.n	4a8a <mbedtls_mpi_exp_mod+0x35e>
/home/hsk/Desktop/devel/tee-tpm-hyp/optee_os/lib/libmbedtls/mbedtls/library/bignum.c:1776 (discriminator 2)
    49da:	f109 0901 	add.w	r9, r9, #1
    49de:	45c1      	cmp	r9, r8
    49e0:	d3ef      	bcc.n	49c2 <mbedtls_mpi_exp_mod+0x296>
/home/hsk/Desktop/devel/tee-tpm-hyp/optee_os/lib/libmbedtls/mbedtls/library/bignum.c:1782
    49e2:	9b02      	ldr	r3, [sp, #8]
    49e4:	2701      	movs	r7, #1
    49e6:	3601      	adds	r6, #1
/home/hsk/Desktop/devel/tee-tpm-hyp/optee_os/lib/libmbedtls/mbedtls/library/bignum.c:1787
    49e8:	f10d 0820 	add.w	r8, sp, #32
    49ec:	f10d 0954 	add.w	r9, sp, #84	; 0x54
/home/hsk/Desktop/devel/tee-tpm-hyp/optee_os/lib/libmbedtls/mbedtls/library/bignum.c:1782
    49f0:	409f      	lsls	r7, r3
    49f2:	f50d 63c9 	add.w	r3, sp, #1608	; 0x648
    49f6:	441d      	add	r5, r3
    49f8:	f2a5 55f4 	subw	r5, r5, #1524	; 0x5f4
/home/hsk/Desktop/devel/tee-tpm-hyp/optee_os/lib/libmbedtls/mbedtls/library/bignum.c:1782 (discriminator 1)
    49fc:	42b7      	cmp	r7, r6
    49fe:	f67f af6a 	bls.w	48d6 <mbedtls_mpi_exp_mod+0x1aa>
/home/hsk/Desktop/devel/tee-tpm-hyp/optee_os/lib/libmbedtls/mbedtls/library/bignum.c:1784
    4a02:	88a1      	ldrh	r1, [r4, #4]
    4a04:	4628      	mov	r0, r5
    4a06:	3101      	adds	r1, #1
    4a08:	f7fe fd44 	bl	3494 <mbedtls_mpi_grow>
    4a0c:	4603      	mov	r3, r0
    4a0e:	2800      	cmp	r0, #0
    4a10:	d13b      	bne.n	4a8a <mbedtls_mpi_exp_mod+0x35e>
/home/hsk/Desktop/devel/tee-tpm-hyp/optee_os/lib/libmbedtls/mbedtls/library/bignum.c:1785
    4a12:	f1a5 010c 	sub.w	r1, r5, #12
    4a16:	4628      	mov	r0, r5
    4a18:	f7fe fdf6 	bl	3608 <mbedtls_mpi_copy>
    4a1c:	4603      	mov	r3, r0
    4a1e:	bba0      	cbnz	r0, 4a8a <mbedtls_mpi_exp_mod+0x35e>
/home/hsk/Desktop/devel/tee-tpm-hyp/optee_os/lib/libmbedtls/mbedtls/library/bignum.c:1787
    4a20:	9b04      	ldr	r3, [sp, #16]
    4a22:	4628      	mov	r0, r5
    4a24:	9300      	str	r3, [sp, #0]
    4a26:	4622      	mov	r2, r4
    4a28:	4649      	mov	r1, r9
    4a2a:	350c      	adds	r5, #12
    4a2c:	f8d8 3000 	ldr.w	r3, [r8]
    4a30:	f7ff fe08 	bl	4644 <mbedtls_mpi_montmul>
    4a34:	4603      	mov	r3, r0
    4a36:	bb40      	cbnz	r0, 4a8a <mbedtls_mpi_exp_mod+0x35e>
/home/hsk/Desktop/devel/tee-tpm-hyp/optee_os/lib/libmbedtls/mbedtls/library/bignum.c:1782 (discriminator 2)
    4a38:	3601      	adds	r6, #1
    4a3a:	e7df      	b.n	49fc <mbedtls_mpi_exp_mod+0x2d0>
    4a3c:	4690      	mov	r8, r2
    4a3e:	e757      	b.n	48f0 <mbedtls_mpi_exp_mod+0x1c4>
/home/hsk/Desktop/devel/tee-tpm-hyp/optee_os/lib/libmbedtls/mbedtls/library/bignum.c:1831
    4a40:	f04f 0802 	mov.w	r8, #2
    4a44:	e754      	b.n	48f0 <mbedtls_mpi_exp_mod+0x1c4>
/home/hsk/Desktop/devel/tee-tpm-hyp/optee_os/lib/libmbedtls/mbedtls/library/bignum.c:1804
    4a46:	3e01      	subs	r6, #1
/home/hsk/Desktop/devel/tee-tpm-hyp/optee_os/lib/libmbedtls/mbedtls/library/bignum.c:1806
    4a48:	f04f 0920 	mov.w	r9, #32
/home/hsk/Desktop/devel/tee-tpm-hyp/optee_os/lib/libmbedtls/mbedtls/library/bignum.c:1811
    4a4c:	9b03      	ldr	r3, [sp, #12]
/home/hsk/Desktop/devel/tee-tpm-hyp/optee_os/lib/libmbedtls/mbedtls/library/bignum.c:1809
    4a4e:	f109 39ff 	add.w	r9, r9, #4294967295	; 0xffffffff
/home/hsk/Desktop/devel/tee-tpm-hyp/optee_os/lib/libmbedtls/mbedtls/library/bignum.c:1811
    4a52:	689b      	ldr	r3, [r3, #8]
    4a54:	f853 3026 	ldr.w	r3, [r3, r6, lsl #2]
    4a58:	fa23 f309 	lsr.w	r3, r3, r9
    4a5c:	f003 0301 	and.w	r3, r3, #1
/home/hsk/Desktop/devel/tee-tpm-hyp/optee_os/lib/libmbedtls/mbedtls/library/bignum.c:1816
    4a60:	ea58 0203 	orrs.w	r2, r8, r3
    4a64:	d0ea      	beq.n	4a3c <mbedtls_mpi_exp_mod+0x310>
/home/hsk/Desktop/devel/tee-tpm-hyp/optee_os/lib/libmbedtls/mbedtls/library/bignum.c:1819
    4a66:	2b00      	cmp	r3, #0
    4a68:	d135      	bne.n	4ad6 <mbedtls_mpi_exp_mod+0x3aa>
/home/hsk/Desktop/devel/tee-tpm-hyp/optee_os/lib/libmbedtls/mbedtls/library/bignum.c:1819 (discriminator 1)
    4a6a:	f1b8 0f01 	cmp.w	r8, #1
    4a6e:	d132      	bne.n	4ad6 <mbedtls_mpi_exp_mod+0x3aa>
/home/hsk/Desktop/devel/tee-tpm-hyp/optee_os/lib/libmbedtls/mbedtls/library/bignum.c:1824
    4a70:	9b06      	ldr	r3, [sp, #24]
    4a72:	4622      	mov	r2, r4
    4a74:	9300      	str	r3, [sp, #0]
    4a76:	4651      	mov	r1, sl
    4a78:	4650      	mov	r0, sl
    4a7a:	f8db 3000 	ldr.w	r3, [fp]
    4a7e:	f7ff fde1 	bl	4644 <mbedtls_mpi_montmul>
    4a82:	4603      	mov	r3, r0
    4a84:	2800      	cmp	r0, #0
    4a86:	f43f af33 	beq.w	48f0 <mbedtls_mpi_exp_mod+0x1c4>
/home/hsk/Desktop/devel/tee-tpm-hyp/optee_os/lib/libmbedtls/mbedtls/library/bignum.c:1881
    4a8a:	9a02      	ldr	r2, [sp, #8]
/home/hsk/Desktop/devel/tee-tpm-hyp/optee_os/lib/libmbedtls/mbedtls/library/bignum.c:1882
    4a8c:	260c      	movs	r6, #12
/home/hsk/Desktop/devel/tee-tpm-hyp/optee_os/lib/libmbedtls/mbedtls/library/bignum.c:1881
    4a8e:	9902      	ldr	r1, [sp, #8]
/home/hsk/Desktop/devel/tee-tpm-hyp/optee_os/lib/libmbedtls/mbedtls/library/bignum.c:1882
    4a90:	af12      	add	r7, sp, #72	; 0x48
/home/hsk/Desktop/devel/tee-tpm-hyp/optee_os/lib/libmbedtls/mbedtls/library/bignum.c:1881
    4a92:	1e54      	subs	r4, r2, #1
    4a94:	2201      	movs	r2, #1
    4a96:	fa02 f404 	lsl.w	r4, r2, r4
    4a9a:	fa02 f501 	lsl.w	r5, r2, r1
    4a9e:	9302      	str	r3, [sp, #8]
/home/hsk/Desktop/devel/tee-tpm-hyp/optee_os/lib/libmbedtls/mbedtls/library/bignum.c:1881 (discriminator 1)
    4aa0:	42a5      	cmp	r5, r4
    4aa2:	d863      	bhi.n	4b6c <mbedtls_mpi_exp_mod+0x440>
/home/hsk/Desktop/devel/tee-tpm-hyp/optee_os/lib/libmbedtls/mbedtls/library/bignum.c:1884
    4aa4:	a815      	add	r0, sp, #84	; 0x54
    4aa6:	f7fe fcce 	bl	3446 <mbedtls_mpi_free>
    4aaa:	a80c      	add	r0, sp, #48	; 0x30
    4aac:	f7fe fccb 	bl	3446 <mbedtls_mpi_free>
    4ab0:	a80f      	add	r0, sp, #60	; 0x3c
    4ab2:	f7fe fcc8 	bl	3446 <mbedtls_mpi_free>
/home/hsk/Desktop/devel/tee-tpm-hyp/optee_os/lib/libmbedtls/mbedtls/library/bignum.c:1886
    4ab6:	f8dd 2670 	ldr.w	r2, [sp, #1648]	; 0x670
    4aba:	9b02      	ldr	r3, [sp, #8]
    4abc:	b10a      	cbz	r2, 4ac2 <mbedtls_mpi_exp_mod+0x396>
/home/hsk/Desktop/devel/tee-tpm-hyp/optee_os/lib/libmbedtls/mbedtls/library/bignum.c:1886 (discriminator 1)
    4abe:	6892      	ldr	r2, [r2, #8]
    4ac0:	b922      	cbnz	r2, 4acc <mbedtls_mpi_exp_mod+0x3a0>
/home/hsk/Desktop/devel/tee-tpm-hyp/optee_os/lib/libmbedtls/mbedtls/library/bignum.c:1887
    4ac2:	a809      	add	r0, sp, #36	; 0x24
    4ac4:	9302      	str	r3, [sp, #8]
    4ac6:	f7fe fcbe 	bl	3446 <mbedtls_mpi_free>
    4aca:	9b02      	ldr	r3, [sp, #8]
/home/hsk/Desktop/devel/tee-tpm-hyp/optee_os/lib/libmbedtls/mbedtls/library/bignum.c:1890
    4acc:	4618      	mov	r0, r3
    4ace:	f20d 6d4c 	addw	sp, sp, #1612	; 0x64c
    4ad2:	e8bd 8ff0 	ldmia.w	sp!, {r4, r5, r6, r7, r8, r9, sl, fp, pc}
/home/hsk/Desktop/devel/tee-tpm-hyp/optee_os/lib/libmbedtls/mbedtls/library/bignum.c:1834
    4ad6:	9a02      	ldr	r2, [sp, #8]
/home/hsk/Desktop/devel/tee-tpm-hyp/optee_os/lib/libmbedtls/mbedtls/library/bignum.c:1833
    4ad8:	3701      	adds	r7, #1
/home/hsk/Desktop/devel/tee-tpm-hyp/optee_os/lib/libmbedtls/mbedtls/library/bignum.c:1834
    4ada:	1bd2      	subs	r2, r2, r7
    4adc:	4093      	lsls	r3, r2
    4ade:	431d      	orrs	r5, r3
/home/hsk/Desktop/devel/tee-tpm-hyp/optee_os/lib/libmbedtls/mbedtls/library/bignum.c:1836
    4ae0:	9b02      	ldr	r3, [sp, #8]
    4ae2:	42bb      	cmp	r3, r7
    4ae4:	d1ac      	bne.n	4a40 <mbedtls_mpi_exp_mod+0x314>
/home/hsk/Desktop/devel/tee-tpm-hyp/optee_os/lib/libmbedtls/mbedtls/library/bignum.c:1841
    4ae6:	2700      	movs	r7, #0
/home/hsk/Desktop/devel/tee-tpm-hyp/optee_os/lib/libmbedtls/mbedtls/library/bignum.c:1842
    4ae8:	9b06      	ldr	r3, [sp, #24]
    4aea:	4622      	mov	r2, r4
    4aec:	9300      	str	r3, [sp, #0]
    4aee:	4651      	mov	r1, sl
    4af0:	4650      	mov	r0, sl
    4af2:	f8db 3000 	ldr.w	r3, [fp]
    4af6:	f7ff fda5 	bl	4644 <mbedtls_mpi_montmul>
    4afa:	4603      	mov	r3, r0
    4afc:	2800      	cmp	r0, #0
    4afe:	d1c4      	bne.n	4a8a <mbedtls_mpi_exp_mod+0x35e>
/home/hsk/Desktop/devel/tee-tpm-hyp/optee_os/lib/libmbedtls/mbedtls/library/bignum.c:1841 (discriminator 2)
    4b00:	9b02      	ldr	r3, [sp, #8]
    4b02:	3701      	adds	r7, #1
    4b04:	42bb      	cmp	r3, r7
    4b06:	d8ef      	bhi.n	4ae8 <mbedtls_mpi_exp_mod+0x3bc>
/home/hsk/Desktop/devel/tee-tpm-hyp/optee_os/lib/libmbedtls/mbedtls/library/bignum.c:1847
    4b08:	9807      	ldr	r0, [sp, #28]
    4b0a:	210c      	movs	r1, #12
    4b0c:	9b06      	ldr	r3, [sp, #24]
    4b0e:	4622      	mov	r2, r4
    4b10:	9300      	str	r3, [sp, #0]
    4b12:	fb01 0105 	mla	r1, r1, r5, r0
    4b16:	f8db 3000 	ldr.w	r3, [fp]
    4b1a:	4650      	mov	r0, sl
    4b1c:	f7ff fd92 	bl	4644 <mbedtls_mpi_montmul>
    4b20:	4603      	mov	r3, r0
    4b22:	2800      	cmp	r0, #0
    4b24:	d1b1      	bne.n	4a8a <mbedtls_mpi_exp_mod+0x35e>
/home/hsk/Desktop/devel/tee-tpm-hyp/optee_os/lib/libmbedtls/mbedtls/library/bignum.c:1849
    4b26:	f04f 0801 	mov.w	r8, #1
/home/hsk/Desktop/devel/tee-tpm-hyp/optee_os/lib/libmbedtls/mbedtls/library/bignum.c:1850
    4b2a:	4605      	mov	r5, r0
/home/hsk/Desktop/devel/tee-tpm-hyp/optee_os/lib/libmbedtls/mbedtls/library/bignum.c:1851
    4b2c:	4607      	mov	r7, r0
    4b2e:	e6df      	b.n	48f0 <mbedtls_mpi_exp_mod+0x1c4>
/home/hsk/Desktop/devel/tee-tpm-hyp/optee_os/lib/libmbedtls/mbedtls/library/bignum.c:1860
    4b30:	4613      	mov	r3, r2
    4b32:	f8cd 9000 	str.w	r9, [sp]
    4b36:	4622      	mov	r2, r4
    4b38:	4651      	mov	r1, sl
    4b3a:	4650      	mov	r0, sl
    4b3c:	f7ff fd82 	bl	4644 <mbedtls_mpi_montmul>
    4b40:	4603      	mov	r3, r0
    4b42:	2800      	cmp	r0, #0
    4b44:	d1a1      	bne.n	4a8a <mbedtls_mpi_exp_mod+0x35e>
/home/hsk/Desktop/devel/tee-tpm-hyp/optee_os/lib/libmbedtls/mbedtls/library/bignum.c:1862
    4b46:	006d      	lsls	r5, r5, #1
/home/hsk/Desktop/devel/tee-tpm-hyp/optee_os/lib/libmbedtls/mbedtls/library/bignum.c:1864
    4b48:	ea1b 0f05 	tst.w	fp, r5
    4b4c:	d101      	bne.n	4b52 <mbedtls_mpi_exp_mod+0x426>
/home/hsk/Desktop/devel/tee-tpm-hyp/optee_os/lib/libmbedtls/mbedtls/library/bignum.c:1858
    4b4e:	3601      	adds	r6, #1
    4b50:	e6e0      	b.n	4914 <mbedtls_mpi_exp_mod+0x1e8>
/home/hsk/Desktop/devel/tee-tpm-hyp/optee_os/lib/libmbedtls/mbedtls/library/bignum.c:1865
    4b52:	f8cd 9000 	str.w	r9, [sp]
    4b56:	4622      	mov	r2, r4
    4b58:	9906      	ldr	r1, [sp, #24]
    4b5a:	4650      	mov	r0, sl
    4b5c:	f8d8 3000 	ldr.w	r3, [r8]
    4b60:	f7ff fd70 	bl	4644 <mbedtls_mpi_montmul>
    4b64:	4603      	mov	r3, r0
    4b66:	2800      	cmp	r0, #0
    4b68:	d0f1      	beq.n	4b4e <mbedtls_mpi_exp_mod+0x422>
    4b6a:	e78e      	b.n	4a8a <mbedtls_mpi_exp_mod+0x35e>
/home/hsk/Desktop/devel/tee-tpm-hyp/optee_os/lib/libmbedtls/mbedtls/library/bignum.c:1882 (discriminator 3)
    4b6c:	fb06 7004 	mla	r0, r6, r4, r7
/home/hsk/Desktop/devel/tee-tpm-hyp/optee_os/lib/libmbedtls/mbedtls/library/bignum.c:1881 (discriminator 3)
    4b70:	3401      	adds	r4, #1
/home/hsk/Desktop/devel/tee-tpm-hyp/optee_os/lib/libmbedtls/mbedtls/library/bignum.c:1882 (discriminator 3)
    4b72:	f7fe fc68 	bl	3446 <mbedtls_mpi_free>
/home/hsk/Desktop/devel/tee-tpm-hyp/optee_os/lib/libmbedtls/mbedtls/library/bignum.c:1881 (discriminator 3)
    4b76:	9b02      	ldr	r3, [sp, #8]
    4b78:	e791      	b.n	4a9e <mbedtls_mpi_exp_mod+0x372>
/home/hsk/Desktop/devel/tee-tpm-hyp/optee_os/lib/libmbedtls/mbedtls/library/bignum.c:1698
    4b7a:	f06f 0303 	mvn.w	r3, #3
    4b7e:	e7a5      	b.n	4acc <mbedtls_mpi_exp_mod+0x3a0>

00004b80 <mbedtls_mpi_gcd>:
mbedtls_mpi_gcd():
/home/hsk/Desktop/devel/tee-tpm-hyp/optee_os/lib/libmbedtls/mbedtls/library/bignum.c:1896
    4b80:	e92d 43f0 	stmdb	sp!, {r4, r5, r6, r7, r8, r9, lr}
    4b84:	4681      	mov	r9, r0
    4b86:	4617      	mov	r7, r2
    4b88:	b08b      	sub	sp, #44	; 0x2c
/home/hsk/Desktop/devel/tee-tpm-hyp/optee_os/lib/libmbedtls/mbedtls/library/bignum.c:1901
    4b8a:	f10d 0804 	add.w	r8, sp, #4
    4b8e:	ae04      	add	r6, sp, #16
    4b90:	4640      	mov	r0, r8
/home/hsk/Desktop/devel/tee-tpm-hyp/optee_os/lib/libmbedtls/mbedtls/library/bignum.c:1902
    4b92:	ad07      	add	r5, sp, #28
/home/hsk/Desktop/devel/tee-tpm-hyp/optee_os/lib/libmbedtls/mbedtls/library/bignum.c:1901
    4b94:	f7fe fc3c 	bl	3410 <mbedtls_mpi_init_mempool>
    4b98:	4630      	mov	r0, r6
    4b9a:	f7fe fc39 	bl	3410 <mbedtls_mpi_init_mempool>
/home/hsk/Desktop/devel/tee-tpm-hyp/optee_os/lib/libmbedtls/mbedtls/library/bignum.c:1902
    4b9e:	4628      	mov	r0, r5
    4ba0:	f7fe fc36 	bl	3410 <mbedtls_mpi_init_mempool>
/home/hsk/Desktop/devel/tee-tpm-hyp/optee_os/lib/libmbedtls/mbedtls/library/bignum.c:1904
    4ba4:	4630      	mov	r0, r6
    4ba6:	f7fe fd2f 	bl	3608 <mbedtls_mpi_copy>
    4baa:	4604      	mov	r4, r0
    4bac:	2800      	cmp	r0, #0
    4bae:	d159      	bne.n	4c64 <mbedtls_mpi_gcd+0xe4>
/home/hsk/Desktop/devel/tee-tpm-hyp/optee_os/lib/libmbedtls/mbedtls/library/bignum.c:1905
    4bb0:	4639      	mov	r1, r7
    4bb2:	4628      	mov	r0, r5
    4bb4:	f7fe fd28 	bl	3608 <mbedtls_mpi_copy>
    4bb8:	4604      	mov	r4, r0
    4bba:	2800      	cmp	r0, #0
    4bbc:	d152      	bne.n	4c64 <mbedtls_mpi_gcd+0xe4>
/home/hsk/Desktop/devel/tee-tpm-hyp/optee_os/lib/libmbedtls/mbedtls/library/bignum.c:1907
    4bbe:	4630      	mov	r0, r6
    4bc0:	f7fe fe32 	bl	3828 <mbedtls_mpi_lsb>
    4bc4:	4607      	mov	r7, r0
/home/hsk/Desktop/devel/tee-tpm-hyp/optee_os/lib/libmbedtls/mbedtls/library/bignum.c:1908
    4bc6:	4628      	mov	r0, r5
    4bc8:	f7fe fe2e 	bl	3828 <mbedtls_mpi_lsb>
    4bcc:	4287      	cmp	r7, r0
    4bce:	bf28      	it	cs
    4bd0:	4607      	movcs	r7, r0
/home/hsk/Desktop/devel/tee-tpm-hyp/optee_os/lib/libmbedtls/mbedtls/library/bignum.c:1913
    4bd2:	4630      	mov	r0, r6
    4bd4:	4639      	mov	r1, r7
    4bd6:	f7fe ff05 	bl	39e4 <mbedtls_mpi_shift_r>
    4bda:	4604      	mov	r4, r0
    4bdc:	2800      	cmp	r0, #0
    4bde:	d141      	bne.n	4c64 <mbedtls_mpi_gcd+0xe4>
/home/hsk/Desktop/devel/tee-tpm-hyp/optee_os/lib/libmbedtls/mbedtls/library/bignum.c:1914
    4be0:	4639      	mov	r1, r7
    4be2:	4628      	mov	r0, r5
    4be4:	f7fe fefe 	bl	39e4 <mbedtls_mpi_shift_r>
    4be8:	4604      	mov	r4, r0
    4bea:	bbd8      	cbnz	r0, 4c64 <mbedtls_mpi_gcd+0xe4>
/home/hsk/Desktop/devel/tee-tpm-hyp/optee_os/lib/libmbedtls/mbedtls/library/bignum.c:1916
    4bec:	2301      	movs	r3, #1
    4bee:	f88d 301c 	strb.w	r3, [sp, #28]
    4bf2:	f88d 3010 	strb.w	r3, [sp, #16]
/home/hsk/Desktop/devel/tee-tpm-hyp/optee_os/lib/libmbedtls/mbedtls/library/bignum.c:1918
    4bf6:	2100      	movs	r1, #0
    4bf8:	4630      	mov	r0, r6
    4bfa:	f7fe ffae 	bl	3b5a <mbedtls_mpi_cmp_int>
    4bfe:	b958      	cbnz	r0, 4c18 <mbedtls_mpi_gcd+0x98>
/home/hsk/Desktop/devel/tee-tpm-hyp/optee_os/lib/libmbedtls/mbedtls/library/bignum.c:1935
    4c00:	4639      	mov	r1, r7
    4c02:	4628      	mov	r0, r5
    4c04:	f7fe fea6 	bl	3954 <mbedtls_mpi_shift_l>
    4c08:	4604      	mov	r4, r0
    4c0a:	bb58      	cbnz	r0, 4c64 <mbedtls_mpi_gcd+0xe4>
/home/hsk/Desktop/devel/tee-tpm-hyp/optee_os/lib/libmbedtls/mbedtls/library/bignum.c:1936
    4c0c:	4629      	mov	r1, r5
    4c0e:	4648      	mov	r0, r9
    4c10:	f7fe fcfa 	bl	3608 <mbedtls_mpi_copy>
    4c14:	4604      	mov	r4, r0
/home/hsk/Desktop/devel/tee-tpm-hyp/optee_os/lib/libmbedtls/mbedtls/library/bignum.c:1938
    4c16:	e025      	b.n	4c64 <mbedtls_mpi_gcd+0xe4>
/home/hsk/Desktop/devel/tee-tpm-hyp/optee_os/lib/libmbedtls/mbedtls/library/bignum.c:1920
    4c18:	4630      	mov	r0, r6
    4c1a:	f7fe fe05 	bl	3828 <mbedtls_mpi_lsb>
    4c1e:	4601      	mov	r1, r0
    4c20:	4630      	mov	r0, r6
    4c22:	f7fe fedf 	bl	39e4 <mbedtls_mpi_shift_r>
    4c26:	4604      	mov	r4, r0
    4c28:	b9e0      	cbnz	r0, 4c64 <mbedtls_mpi_gcd+0xe4>
/home/hsk/Desktop/devel/tee-tpm-hyp/optee_os/lib/libmbedtls/mbedtls/library/bignum.c:1921
    4c2a:	4628      	mov	r0, r5
    4c2c:	f7fe fdfc 	bl	3828 <mbedtls_mpi_lsb>
    4c30:	4601      	mov	r1, r0
    4c32:	4628      	mov	r0, r5
    4c34:	f7fe fed6 	bl	39e4 <mbedtls_mpi_shift_r>
    4c38:	4604      	mov	r4, r0
    4c3a:	b998      	cbnz	r0, 4c64 <mbedtls_mpi_gcd+0xe4>
/home/hsk/Desktop/devel/tee-tpm-hyp/optee_os/lib/libmbedtls/mbedtls/library/bignum.c:1923
    4c3c:	4629      	mov	r1, r5
    4c3e:	4630      	mov	r0, r6
    4c40:	f7fe ff42 	bl	3ac8 <mbedtls_mpi_cmp_mpi>
    4c44:	2800      	cmp	r0, #0
    4c46:	db1a      	blt.n	4c7e <mbedtls_mpi_gcd+0xfe>
/home/hsk/Desktop/devel/tee-tpm-hyp/optee_os/lib/libmbedtls/mbedtls/library/bignum.c:1925
    4c48:	462a      	mov	r2, r5
    4c4a:	4631      	mov	r1, r6
    4c4c:	4630      	mov	r0, r6
    4c4e:	f7fe fff8 	bl	3c42 <mbedtls_mpi_sub_abs>
    4c52:	4604      	mov	r4, r0
    4c54:	b930      	cbnz	r0, 4c64 <mbedtls_mpi_gcd+0xe4>
/home/hsk/Desktop/devel/tee-tpm-hyp/optee_os/lib/libmbedtls/mbedtls/library/bignum.c:1926
    4c56:	2101      	movs	r1, #1
    4c58:	4630      	mov	r0, r6
/home/hsk/Desktop/devel/tee-tpm-hyp/optee_os/lib/libmbedtls/mbedtls/library/bignum.c:1931
    4c5a:	f7fe fec3 	bl	39e4 <mbedtls_mpi_shift_r>
    4c5e:	4604      	mov	r4, r0
    4c60:	2800      	cmp	r0, #0
    4c62:	d0c8      	beq.n	4bf6 <mbedtls_mpi_gcd+0x76>
/home/hsk/Desktop/devel/tee-tpm-hyp/optee_os/lib/libmbedtls/mbedtls/library/bignum.c:1940
    4c64:	4640      	mov	r0, r8
    4c66:	f7fe fbee 	bl	3446 <mbedtls_mpi_free>
    4c6a:	4630      	mov	r0, r6
    4c6c:	f7fe fbeb 	bl	3446 <mbedtls_mpi_free>
    4c70:	4628      	mov	r0, r5
    4c72:	f7fe fbe8 	bl	3446 <mbedtls_mpi_free>
/home/hsk/Desktop/devel/tee-tpm-hyp/optee_os/lib/libmbedtls/mbedtls/library/bignum.c:1943
    4c76:	4620      	mov	r0, r4
    4c78:	b00b      	add	sp, #44	; 0x2c
    4c7a:	e8bd 83f0 	ldmia.w	sp!, {r4, r5, r6, r7, r8, r9, pc}
/home/hsk/Desktop/devel/tee-tpm-hyp/optee_os/lib/libmbedtls/mbedtls/library/bignum.c:1930
    4c7e:	4632      	mov	r2, r6
    4c80:	4628      	mov	r0, r5
    4c82:	f7fe ffde 	bl	3c42 <mbedtls_mpi_sub_abs>
    4c86:	4604      	mov	r4, r0
    4c88:	2800      	cmp	r0, #0
    4c8a:	d1eb      	bne.n	4c64 <mbedtls_mpi_gcd+0xe4>
/home/hsk/Desktop/devel/tee-tpm-hyp/optee_os/lib/libmbedtls/mbedtls/library/bignum.c:1931
    4c8c:	2101      	movs	r1, #1
    4c8e:	4628      	mov	r0, r5
    4c90:	e7e3      	b.n	4c5a <mbedtls_mpi_gcd+0xda>

00004c92 <mbedtls_mpi_fill_random>:
mbedtls_mpi_fill_random():
/home/hsk/Desktop/devel/tee-tpm-hyp/optee_os/lib/libmbedtls/mbedtls/library/bignum.c:1955
    4c92:	b5f0      	push	{r4, r5, r6, r7, lr}
/home/hsk/Desktop/devel/tee-tpm-hyp/optee_os/lib/libmbedtls/mbedtls/library/bignum.c:1959
    4c94:	f5b1 6f80 	cmp.w	r1, #1024	; 0x400
/home/hsk/Desktop/devel/tee-tpm-hyp/optee_os/lib/libmbedtls/mbedtls/library/bignum.c:1955
    4c98:	4606      	mov	r6, r0
    4c9a:	f2ad 4d04 	subw	sp, sp, #1028	; 0x404
    4c9e:	460c      	mov	r4, r1
    4ca0:	4617      	mov	r7, r2
/home/hsk/Desktop/devel/tee-tpm-hyp/optee_os/lib/libmbedtls/mbedtls/library/bignum.c:1959
    4ca2:	d80d      	bhi.n	4cc0 <mbedtls_mpi_fill_random+0x2e>
/home/hsk/Desktop/devel/tee-tpm-hyp/optee_os/lib/libmbedtls/mbedtls/library/bignum.c:1962
    4ca4:	466d      	mov	r5, sp
    4ca6:	460a      	mov	r2, r1
    4ca8:	4618      	mov	r0, r3
    4caa:	4629      	mov	r1, r5
    4cac:	47b8      	blx	r7
    4cae:	b920      	cbnz	r0, 4cba <mbedtls_mpi_fill_random+0x28>
/home/hsk/Desktop/devel/tee-tpm-hyp/optee_os/lib/libmbedtls/mbedtls/library/bignum.c:1963
    4cb0:	4622      	mov	r2, r4
    4cb2:	4629      	mov	r1, r5
    4cb4:	4630      	mov	r0, r6
    4cb6:	f7fe fdf7 	bl	38a8 <mbedtls_mpi_read_binary>
/home/hsk/Desktop/devel/tee-tpm-hyp/optee_os/lib/libmbedtls/mbedtls/library/bignum.c:1967
    4cba:	f20d 4d04 	addw	sp, sp, #1028	; 0x404
    4cbe:	bdf0      	pop	{r4, r5, r6, r7, pc}
/home/hsk/Desktop/devel/tee-tpm-hyp/optee_os/lib/libmbedtls/mbedtls/library/bignum.c:1960
    4cc0:	f06f 0003 	mvn.w	r0, #3
    4cc4:	e7f9      	b.n	4cba <mbedtls_mpi_fill_random+0x28>

00004cc6 <mpi_miller_rabin>:
mpi_miller_rabin():
/home/hsk/Desktop/devel/tee-tpm-hyp/optee_os/lib/libmbedtls/mbedtls/library/bignum.c:2132
    4cc6:	e92d 4ff0 	stmdb	sp!, {r4, r5, r6, r7, r8, r9, sl, fp, lr}
    4cca:	4607      	mov	r7, r0
    4ccc:	b097      	sub	sp, #92	; 0x5c
/home/hsk/Desktop/devel/tee-tpm-hyp/optee_os/lib/libmbedtls/mbedtls/library/bignum.c:2137
    4cce:	ad07      	add	r5, sp, #28
    4cd0:	f10d 0828 	add.w	r8, sp, #40	; 0x28
    4cd4:	4628      	mov	r0, r5
/home/hsk/Desktop/devel/tee-tpm-hyp/optee_os/lib/libmbedtls/mbedtls/library/bignum.c:2132
    4cd6:	9103      	str	r1, [sp, #12]
    4cd8:	9204      	str	r2, [sp, #16]
/home/hsk/Desktop/devel/tee-tpm-hyp/optee_os/lib/libmbedtls/mbedtls/library/bignum.c:2137
    4cda:	f7fe fb99 	bl	3410 <mbedtls_mpi_init_mempool>
    4cde:	4640      	mov	r0, r8
    4ce0:	f7fe fb96 	bl	3410 <mbedtls_mpi_init_mempool>
/home/hsk/Desktop/devel/tee-tpm-hyp/optee_os/lib/libmbedtls/mbedtls/library/bignum.c:2138
    4ce4:	a80d      	add	r0, sp, #52	; 0x34
    4ce6:	f7fe fb93 	bl	3410 <mbedtls_mpi_init_mempool>
    4cea:	a810      	add	r0, sp, #64	; 0x40
    4cec:	f7fe fb90 	bl	3410 <mbedtls_mpi_init_mempool>
/home/hsk/Desktop/devel/tee-tpm-hyp/optee_os/lib/libmbedtls/mbedtls/library/bignum.c:2139
    4cf0:	a813      	add	r0, sp, #76	; 0x4c
    4cf2:	f7fe fb8d 	bl	3410 <mbedtls_mpi_init_mempool>
/home/hsk/Desktop/devel/tee-tpm-hyp/optee_os/lib/libmbedtls/mbedtls/library/bignum.c:2145
    4cf6:	2201      	movs	r2, #1
    4cf8:	4639      	mov	r1, r7
    4cfa:	4628      	mov	r0, r5
    4cfc:	f7ff f83e 	bl	3d7c <mbedtls_mpi_sub_int>
    4d00:	4683      	mov	fp, r0
    4d02:	2800      	cmp	r0, #0
    4d04:	d178      	bne.n	4df8 <mpi_miller_rabin+0x132>
/home/hsk/Desktop/devel/tee-tpm-hyp/optee_os/lib/libmbedtls/mbedtls/library/bignum.c:2146
    4d06:	4628      	mov	r0, r5
    4d08:	f7fe fd8e 	bl	3828 <mbedtls_mpi_lsb>
/home/hsk/Desktop/devel/tee-tpm-hyp/optee_os/lib/libmbedtls/mbedtls/library/bignum.c:2147
    4d0c:	4629      	mov	r1, r5
/home/hsk/Desktop/devel/tee-tpm-hyp/optee_os/lib/libmbedtls/mbedtls/library/bignum.c:2146
    4d0e:	9002      	str	r0, [sp, #8]
/home/hsk/Desktop/devel/tee-tpm-hyp/optee_os/lib/libmbedtls/mbedtls/library/bignum.c:2147
    4d10:	4640      	mov	r0, r8
    4d12:	f7fe fc79 	bl	3608 <mbedtls_mpi_copy>
    4d16:	4683      	mov	fp, r0
    4d18:	2800      	cmp	r0, #0
    4d1a:	d16d      	bne.n	4df8 <mpi_miller_rabin+0x132>
/home/hsk/Desktop/devel/tee-tpm-hyp/optee_os/lib/libmbedtls/mbedtls/library/bignum.c:2148
    4d1c:	9902      	ldr	r1, [sp, #8]
    4d1e:	4640      	mov	r0, r8
    4d20:	f7fe fe60 	bl	39e4 <mbedtls_mpi_shift_r>
    4d24:	4683      	mov	fp, r0
    4d26:	2800      	cmp	r0, #0
    4d28:	d166      	bne.n	4df8 <mpi_miller_rabin+0x132>
/home/hsk/Desktop/devel/tee-tpm-hyp/optee_os/lib/libmbedtls/mbedtls/library/bignum.c:2150
    4d2a:	4638      	mov	r0, r7
    4d2c:	f7fe fd95 	bl	385a <mbedtls_mpi_bitlen>
/home/hsk/Desktop/devel/tee-tpm-hyp/optee_os/lib/libmbedtls/mbedtls/library/bignum.c:2154
    4d30:	f240 5313 	movw	r3, #1299	; 0x513
    4d34:	4298      	cmp	r0, r3
    4d36:	d845      	bhi.n	4dc4 <mpi_miller_rabin+0xfe>
/home/hsk/Desktop/devel/tee-tpm-hyp/optee_os/lib/libmbedtls/mbedtls/library/bignum.c:2154 (discriminator 1)
    4d38:	f240 3351 	movw	r3, #849	; 0x351
    4d3c:	4298      	cmp	r0, r3
    4d3e:	d843      	bhi.n	4dc8 <mpi_miller_rabin+0x102>
/home/hsk/Desktop/devel/tee-tpm-hyp/optee_os/lib/libmbedtls/mbedtls/library/bignum.c:2154 (discriminator 3)
    4d40:	f240 2389 	movw	r3, #649	; 0x289
    4d44:	4298      	cmp	r0, r3
    4d46:	d841      	bhi.n	4dcc <mpi_miller_rabin+0x106>
/home/hsk/Desktop/devel/tee-tpm-hyp/optee_os/lib/libmbedtls/mbedtls/library/bignum.c:2154 (discriminator 5)
    4d48:	f5b0 7faf 	cmp.w	r0, #350	; 0x15e
    4d4c:	d240      	bcs.n	4dd0 <mpi_miller_rabin+0x10a>
/home/hsk/Desktop/devel/tee-tpm-hyp/optee_os/lib/libmbedtls/mbedtls/library/bignum.c:2154 (discriminator 7)
    4d4e:	28f9      	cmp	r0, #249	; 0xf9
    4d50:	d840      	bhi.n	4dd4 <mpi_miller_rabin+0x10e>
/home/hsk/Desktop/devel/tee-tpm-hyp/optee_os/lib/libmbedtls/mbedtls/library/bignum.c:2154 (discriminator 9)
    4d52:	2896      	cmp	r0, #150	; 0x96
    4d54:	f04f 061b 	mov.w	r6, #27
    4d58:	bf28      	it	cs
    4d5a:	2612      	movcs	r6, #18
/home/hsk/Desktop/devel/tee-tpm-hyp/optee_os/lib/libmbedtls/mbedtls/library/bignum.c:2158 (discriminator 24)
    4d5c:	f04f 0900 	mov.w	r9, #0
/home/hsk/Desktop/devel/tee-tpm-hyp/optee_os/lib/libmbedtls/mbedtls/library/bignum.c:2163 (discriminator 24)
    4d60:	ac10      	add	r4, sp, #64	; 0x40
/home/hsk/Desktop/devel/tee-tpm-hyp/optee_os/lib/libmbedtls/mbedtls/library/bignum.c:2205 (discriminator 24)
    4d62:	ab0d      	add	r3, sp, #52	; 0x34
    4d64:	9305      	str	r3, [sp, #20]
/home/hsk/Desktop/devel/tee-tpm-hyp/optee_os/lib/libmbedtls/mbedtls/library/bignum.c:2163
    4d66:	88b9      	ldrh	r1, [r7, #4]
    4d68:	4620      	mov	r0, r4
    4d6a:	9b04      	ldr	r3, [sp, #16]
    4d6c:	9a03      	ldr	r2, [sp, #12]
    4d6e:	0089      	lsls	r1, r1, #2
    4d70:	f7ff ff8f 	bl	4c92 <mbedtls_mpi_fill_random>
    4d74:	4683      	mov	fp, r0
    4d76:	2800      	cmp	r0, #0
    4d78:	d13e      	bne.n	4df8 <mpi_miller_rabin+0x132>
/home/hsk/Desktop/devel/tee-tpm-hyp/optee_os/lib/libmbedtls/mbedtls/library/bignum.c:2165
    4d7a:	4629      	mov	r1, r5
    4d7c:	4620      	mov	r0, r4
    4d7e:	f7fe fea3 	bl	3ac8 <mbedtls_mpi_cmp_mpi>
    4d82:	2800      	cmp	r0, #0
    4d84:	da28      	bge.n	4dd8 <mpi_miller_rabin+0x112>
/home/hsk/Desktop/devel/tee-tpm-hyp/optee_os/lib/libmbedtls/mbedtls/library/bignum.c:2170
    4d86:	9a12      	ldr	r2, [sp, #72]	; 0x48
    4d88:	f44f 7a97 	mov.w	sl, #302	; 0x12e
    4d8c:	6813      	ldr	r3, [r2, #0]
    4d8e:	f043 0303 	orr.w	r3, r3, #3
    4d92:	6013      	str	r3, [r2, #0]
/home/hsk/Desktop/devel/tee-tpm-hyp/optee_os/lib/libmbedtls/mbedtls/library/bignum.c:2174
    4d94:	88b9      	ldrh	r1, [r7, #4]
    4d96:	4620      	mov	r0, r4
    4d98:	9b04      	ldr	r3, [sp, #16]
    4d9a:	9a03      	ldr	r2, [sp, #12]
    4d9c:	0089      	lsls	r1, r1, #2
    4d9e:	f7ff ff78 	bl	4c92 <mbedtls_mpi_fill_random>
    4da2:	4683      	mov	fp, r0
    4da4:	bb40      	cbnz	r0, 4df8 <mpi_miller_rabin+0x132>
/home/hsk/Desktop/devel/tee-tpm-hyp/optee_os/lib/libmbedtls/mbedtls/library/bignum.c:2176
    4da6:	4620      	mov	r0, r4
    4da8:	f7fe fd57 	bl	385a <mbedtls_mpi_bitlen>
    4dac:	4683      	mov	fp, r0
/home/hsk/Desktop/devel/tee-tpm-hyp/optee_os/lib/libmbedtls/mbedtls/library/bignum.c:2177
    4dae:	4628      	mov	r0, r5
    4db0:	f7fe fd53 	bl	385a <mbedtls_mpi_bitlen>
/home/hsk/Desktop/devel/tee-tpm-hyp/optee_os/lib/libmbedtls/mbedtls/library/bignum.c:2178
    4db4:	4583      	cmp	fp, r0
    4db6:	d832      	bhi.n	4e1e <mpi_miller_rabin+0x158>
/home/hsk/Desktop/devel/tee-tpm-hyp/optee_os/lib/libmbedtls/mbedtls/library/bignum.c:2182
    4db8:	f1ba 0a01 	subs.w	sl, sl, #1
    4dbc:	d138      	bne.n	4e30 <mpi_miller_rabin+0x16a>
/home/hsk/Desktop/devel/tee-tpm-hyp/optee_os/lib/libmbedtls/mbedtls/library/bignum.c:2183
    4dbe:	f06f 0b0d 	mvn.w	fp, #13
    4dc2:	e019      	b.n	4df8 <mpi_miller_rabin+0x132>
/home/hsk/Desktop/devel/tee-tpm-hyp/optee_os/lib/libmbedtls/mbedtls/library/bignum.c:2154
    4dc4:	2602      	movs	r6, #2
    4dc6:	e7c9      	b.n	4d5c <mpi_miller_rabin+0x96>
    4dc8:	2603      	movs	r6, #3
    4dca:	e7c7      	b.n	4d5c <mpi_miller_rabin+0x96>
    4dcc:	2604      	movs	r6, #4
    4dce:	e7c5      	b.n	4d5c <mpi_miller_rabin+0x96>
    4dd0:	2608      	movs	r6, #8
    4dd2:	e7c3      	b.n	4d5c <mpi_miller_rabin+0x96>
    4dd4:	260c      	movs	r6, #12
    4dd6:	e7c1      	b.n	4d5c <mpi_miller_rabin+0x96>
/home/hsk/Desktop/devel/tee-tpm-hyp/optee_os/lib/libmbedtls/mbedtls/library/bignum.c:2167
    4dd8:	4620      	mov	r0, r4
    4dda:	f7fe fd3e 	bl	385a <mbedtls_mpi_bitlen>
    4dde:	4682      	mov	sl, r0
    4de0:	4628      	mov	r0, r5
    4de2:	f7fe fd3a 	bl	385a <mbedtls_mpi_bitlen>
/home/hsk/Desktop/devel/tee-tpm-hyp/optee_os/lib/libmbedtls/mbedtls/library/bignum.c:2168
    4de6:	f10a 0101 	add.w	r1, sl, #1
    4dea:	1a09      	subs	r1, r1, r0
    4dec:	4620      	mov	r0, r4
    4dee:	f7fe fdf9 	bl	39e4 <mbedtls_mpi_shift_r>
    4df2:	4683      	mov	fp, r0
    4df4:	2800      	cmp	r0, #0
    4df6:	d0c6      	beq.n	4d86 <mpi_miller_rabin+0xc0>
/home/hsk/Desktop/devel/tee-tpm-hyp/optee_os/lib/libmbedtls/mbedtls/library/bignum.c:2226
    4df8:	4628      	mov	r0, r5
    4dfa:	f7fe fb24 	bl	3446 <mbedtls_mpi_free>
    4dfe:	4640      	mov	r0, r8
    4e00:	f7fe fb21 	bl	3446 <mbedtls_mpi_free>
    4e04:	a80d      	add	r0, sp, #52	; 0x34
    4e06:	f7fe fb1e 	bl	3446 <mbedtls_mpi_free>
    4e0a:	a810      	add	r0, sp, #64	; 0x40
    4e0c:	f7fe fb1b 	bl	3446 <mbedtls_mpi_free>
/home/hsk/Desktop/devel/tee-tpm-hyp/optee_os/lib/libmbedtls/mbedtls/library/bignum.c:2227
    4e10:	a813      	add	r0, sp, #76	; 0x4c
    4e12:	f7fe fb18 	bl	3446 <mbedtls_mpi_free>
/home/hsk/Desktop/devel/tee-tpm-hyp/optee_os/lib/libmbedtls/mbedtls/library/bignum.c:2230
    4e16:	4658      	mov	r0, fp
    4e18:	b017      	add	sp, #92	; 0x5c
    4e1a:	e8bd 8ff0 	ldmia.w	sp!, {r4, r5, r6, r7, r8, r9, sl, fp, pc}
/home/hsk/Desktop/devel/tee-tpm-hyp/optee_os/lib/libmbedtls/mbedtls/library/bignum.c:2179
    4e1e:	ebab 0100 	sub.w	r1, fp, r0
    4e22:	4620      	mov	r0, r4
    4e24:	f7fe fdde 	bl	39e4 <mbedtls_mpi_shift_r>
    4e28:	4683      	mov	fp, r0
    4e2a:	2800      	cmp	r0, #0
    4e2c:	d0c4      	beq.n	4db8 <mpi_miller_rabin+0xf2>
    4e2e:	e7e3      	b.n	4df8 <mpi_miller_rabin+0x132>
/home/hsk/Desktop/devel/tee-tpm-hyp/optee_os/lib/libmbedtls/mbedtls/library/bignum.c:2187
    4e30:	4629      	mov	r1, r5
    4e32:	4620      	mov	r0, r4
    4e34:	f7fe fe48 	bl	3ac8 <mbedtls_mpi_cmp_mpi>
/home/hsk/Desktop/devel/tee-tpm-hyp/optee_os/lib/libmbedtls/mbedtls/library/bignum.c:2188
    4e38:	2800      	cmp	r0, #0
    4e3a:	daab      	bge.n	4d94 <mpi_miller_rabin+0xce>
/home/hsk/Desktop/devel/tee-tpm-hyp/optee_os/lib/libmbedtls/mbedtls/library/bignum.c:2188 (discriminator 1)
    4e3c:	2101      	movs	r1, #1
    4e3e:	4620      	mov	r0, r4
    4e40:	f7fe fe8b 	bl	3b5a <mbedtls_mpi_cmp_int>
/home/hsk/Desktop/devel/tee-tpm-hyp/optee_os/lib/libmbedtls/mbedtls/library/bignum.c:2187 (discriminator 1)
    4e44:	2800      	cmp	r0, #0
    4e46:	dda5      	ble.n	4d94 <mpi_miller_rabin+0xce>
/home/hsk/Desktop/devel/tee-tpm-hyp/optee_os/lib/libmbedtls/mbedtls/library/bignum.c:2193
    4e48:	ab13      	add	r3, sp, #76	; 0x4c
    4e4a:	4642      	mov	r2, r8
    4e4c:	9300      	str	r3, [sp, #0]
    4e4e:	4621      	mov	r1, r4
    4e50:	463b      	mov	r3, r7
    4e52:	4620      	mov	r0, r4
    4e54:	f7ff fc6a 	bl	472c <mbedtls_mpi_exp_mod>
    4e58:	4683      	mov	fp, r0
    4e5a:	2800      	cmp	r0, #0
    4e5c:	d1cc      	bne.n	4df8 <mpi_miller_rabin+0x132>
/home/hsk/Desktop/devel/tee-tpm-hyp/optee_os/lib/libmbedtls/mbedtls/library/bignum.c:2195
    4e5e:	4629      	mov	r1, r5
    4e60:	4620      	mov	r0, r4
    4e62:	f7fe fe31 	bl	3ac8 <mbedtls_mpi_cmp_mpi>
    4e66:	b928      	cbnz	r0, 4e74 <mpi_miller_rabin+0x1ae>
/home/hsk/Desktop/devel/tee-tpm-hyp/optee_os/lib/libmbedtls/mbedtls/library/bignum.c:2158
    4e68:	f109 0901 	add.w	r9, r9, #1
    4e6c:	454e      	cmp	r6, r9
    4e6e:	f47f af7a 	bne.w	4d66 <mpi_miller_rabin+0xa0>
    4e72:	e7c1      	b.n	4df8 <mpi_miller_rabin+0x132>
/home/hsk/Desktop/devel/tee-tpm-hyp/optee_os/lib/libmbedtls/mbedtls/library/bignum.c:2196 (discriminator 1)
    4e74:	2101      	movs	r1, #1
    4e76:	4620      	mov	r0, r4
    4e78:	f7fe fe6f 	bl	3b5a <mbedtls_mpi_cmp_int>
/home/hsk/Desktop/devel/tee-tpm-hyp/optee_os/lib/libmbedtls/mbedtls/library/bignum.c:2195 (discriminator 1)
    4e7c:	2800      	cmp	r0, #0
    4e7e:	d0f3      	beq.n	4e68 <mpi_miller_rabin+0x1a2>
/home/hsk/Desktop/devel/tee-tpm-hyp/optee_os/lib/libmbedtls/mbedtls/library/bignum.c:2199
    4e80:	f04f 0a01 	mov.w	sl, #1
    4e84:	4629      	mov	r1, r5
    4e86:	4620      	mov	r0, r4
    4e88:	f7fe fe1e 	bl	3ac8 <mbedtls_mpi_cmp_mpi>
/home/hsk/Desktop/devel/tee-tpm-hyp/optee_os/lib/libmbedtls/mbedtls/library/bignum.c:2200
    4e8c:	9b02      	ldr	r3, [sp, #8]
    4e8e:	459a      	cmp	sl, r3
    4e90:	d211      	bcs.n	4eb6 <mpi_miller_rabin+0x1f0>
/home/hsk/Desktop/devel/tee-tpm-hyp/optee_os/lib/libmbedtls/mbedtls/library/bignum.c:2200 (discriminator 1)
    4e92:	b180      	cbz	r0, 4eb6 <mpi_miller_rabin+0x1f0>
/home/hsk/Desktop/devel/tee-tpm-hyp/optee_os/lib/libmbedtls/mbedtls/library/bignum.c:2205
    4e94:	4622      	mov	r2, r4
    4e96:	4621      	mov	r1, r4
    4e98:	9805      	ldr	r0, [sp, #20]
    4e9a:	f7fe ff87 	bl	3dac <mbedtls_mpi_mul_mpi>
    4e9e:	b9d8      	cbnz	r0, 4ed8 <mpi_miller_rabin+0x212>
/home/hsk/Desktop/devel/tee-tpm-hyp/optee_os/lib/libmbedtls/mbedtls/library/bignum.c:2206
    4ea0:	463a      	mov	r2, r7
    4ea2:	9905      	ldr	r1, [sp, #20]
    4ea4:	4620      	mov	r0, r4
    4ea6:	f7ff fa74 	bl	4392 <mbedtls_mpi_mod_mpi>
    4eaa:	b9a8      	cbnz	r0, 4ed8 <mpi_miller_rabin+0x212>
/home/hsk/Desktop/devel/tee-tpm-hyp/optee_os/lib/libmbedtls/mbedtls/library/bignum.c:2208
    4eac:	2101      	movs	r1, #1
    4eae:	4620      	mov	r0, r4
    4eb0:	f7fe fe53 	bl	3b5a <mbedtls_mpi_cmp_int>
    4eb4:	b968      	cbnz	r0, 4ed2 <mpi_miller_rabin+0x20c>
/home/hsk/Desktop/devel/tee-tpm-hyp/optee_os/lib/libmbedtls/mbedtls/library/bignum.c:2217
    4eb6:	4629      	mov	r1, r5
    4eb8:	4620      	mov	r0, r4
    4eba:	f7fe fe05 	bl	3ac8 <mbedtls_mpi_cmp_mpi>
    4ebe:	2800      	cmp	r0, #0
    4ec0:	f47f af7d 	bne.w	4dbe <mpi_miller_rabin+0xf8>
/home/hsk/Desktop/devel/tee-tpm-hyp/optee_os/lib/libmbedtls/mbedtls/library/bignum.c:2218 (discriminator 1)
    4ec4:	2101      	movs	r1, #1
    4ec6:	4620      	mov	r0, r4
    4ec8:	f7fe fe47 	bl	3b5a <mbedtls_mpi_cmp_int>
/home/hsk/Desktop/devel/tee-tpm-hyp/optee_os/lib/libmbedtls/mbedtls/library/bignum.c:2217 (discriminator 1)
    4ecc:	2800      	cmp	r0, #0
    4ece:	d1cb      	bne.n	4e68 <mpi_miller_rabin+0x1a2>
    4ed0:	e775      	b.n	4dbe <mpi_miller_rabin+0xf8>
/home/hsk/Desktop/devel/tee-tpm-hyp/optee_os/lib/libmbedtls/mbedtls/library/bignum.c:2211
    4ed2:	f10a 0a01 	add.w	sl, sl, #1
    4ed6:	e7d5      	b.n	4e84 <mpi_miller_rabin+0x1be>
/home/hsk/Desktop/devel/tee-tpm-hyp/optee_os/lib/libmbedtls/mbedtls/library/bignum.c:2225
    4ed8:	4683      	mov	fp, r0
    4eda:	e78d      	b.n	4df8 <mpi_miller_rabin+0x132>

00004edc <mbedtls_mpi_inv_mod>:
mbedtls_mpi_inv_mod():
/home/hsk/Desktop/devel/tee-tpm-hyp/optee_os/lib/libmbedtls/mbedtls/library/bignum.c:1973
    4edc:	e92d 4ff0 	stmdb	sp!, {r4, r5, r6, r7, r8, r9, sl, fp, lr}
    4ee0:	460e      	mov	r6, r1
/home/hsk/Desktop/devel/tee-tpm-hyp/optee_os/lib/libmbedtls/mbedtls/library/bignum.c:1977
    4ee2:	2101      	movs	r1, #1
/home/hsk/Desktop/devel/tee-tpm-hyp/optee_os/lib/libmbedtls/mbedtls/library/bignum.c:1973
    4ee4:	b0a3      	sub	sp, #140	; 0x8c
    4ee6:	4615      	mov	r5, r2
    4ee8:	9005      	str	r0, [sp, #20]
/home/hsk/Desktop/devel/tee-tpm-hyp/optee_os/lib/libmbedtls/mbedtls/library/bignum.c:1977
    4eea:	4610      	mov	r0, r2
    4eec:	f7fe fe35 	bl	3b5a <mbedtls_mpi_cmp_int>
    4ef0:	2800      	cmp	r0, #0
    4ef2:	f340 8157 	ble.w	51a4 <mbedtls_mpi_inv_mod+0x2c8>
/home/hsk/Desktop/devel/tee-tpm-hyp/optee_os/lib/libmbedtls/mbedtls/library/bignum.c:1980
    4ef6:	af0a      	add	r7, sp, #40	; 0x28
    4ef8:	ac0d      	add	r4, sp, #52	; 0x34
    4efa:	4638      	mov	r0, r7
/home/hsk/Desktop/devel/tee-tpm-hyp/optee_os/lib/libmbedtls/mbedtls/library/bignum.c:1981
    4efc:	f10d 0b40 	add.w	fp, sp, #64	; 0x40
/home/hsk/Desktop/devel/tee-tpm-hyp/optee_os/lib/libmbedtls/mbedtls/library/bignum.c:1980
    4f00:	f7fe fa86 	bl	3410 <mbedtls_mpi_init_mempool>
    4f04:	4620      	mov	r0, r4
    4f06:	f7fe fa83 	bl	3410 <mbedtls_mpi_init_mempool>
/home/hsk/Desktop/devel/tee-tpm-hyp/optee_os/lib/libmbedtls/mbedtls/library/bignum.c:1981
    4f0a:	f10d 0a4c 	add.w	sl, sp, #76	; 0x4c
    4f0e:	4658      	mov	r0, fp
/home/hsk/Desktop/devel/tee-tpm-hyp/optee_os/lib/libmbedtls/mbedtls/library/bignum.c:1982
    4f10:	f10d 091c 	add.w	r9, sp, #28
/home/hsk/Desktop/devel/tee-tpm-hyp/optee_os/lib/libmbedtls/mbedtls/library/bignum.c:1981
    4f14:	f7fe fa7c 	bl	3410 <mbedtls_mpi_init_mempool>
    4f18:	4650      	mov	r0, sl
    4f1a:	f7fe fa79 	bl	3410 <mbedtls_mpi_init_mempool>
/home/hsk/Desktop/devel/tee-tpm-hyp/optee_os/lib/libmbedtls/mbedtls/library/bignum.c:1982
    4f1e:	4648      	mov	r0, r9
    4f20:	f7fe fa76 	bl	3410 <mbedtls_mpi_init_mempool>
    4f24:	ab16      	add	r3, sp, #88	; 0x58
    4f26:	4618      	mov	r0, r3
    4f28:	9301      	str	r3, [sp, #4]
    4f2a:	f7fe fa71 	bl	3410 <mbedtls_mpi_init_mempool>
/home/hsk/Desktop/devel/tee-tpm-hyp/optee_os/lib/libmbedtls/mbedtls/library/bignum.c:1983
    4f2e:	ab19      	add	r3, sp, #100	; 0x64
    4f30:	4618      	mov	r0, r3
    4f32:	9302      	str	r3, [sp, #8]
    4f34:	f7fe fa6c 	bl	3410 <mbedtls_mpi_init_mempool>
    4f38:	ab1c      	add	r3, sp, #112	; 0x70
    4f3a:	4618      	mov	r0, r3
    4f3c:	9303      	str	r3, [sp, #12]
    4f3e:	f7fe fa67 	bl	3410 <mbedtls_mpi_init_mempool>
/home/hsk/Desktop/devel/tee-tpm-hyp/optee_os/lib/libmbedtls/mbedtls/library/bignum.c:1984
    4f42:	a81f      	add	r0, sp, #124	; 0x7c
    4f44:	f7fe fa64 	bl	3410 <mbedtls_mpi_init_mempool>
/home/hsk/Desktop/devel/tee-tpm-hyp/optee_os/lib/libmbedtls/mbedtls/library/bignum.c:1986
    4f48:	4631      	mov	r1, r6
    4f4a:	462a      	mov	r2, r5
    4f4c:	4648      	mov	r0, r9
    4f4e:	f7ff fe17 	bl	4b80 <mbedtls_mpi_gcd>
    4f52:	4601      	mov	r1, r0
    4f54:	2800      	cmp	r0, #0
    4f56:	d156      	bne.n	5006 <mbedtls_mpi_inv_mod+0x12a>
/home/hsk/Desktop/devel/tee-tpm-hyp/optee_os/lib/libmbedtls/mbedtls/library/bignum.c:1988
    4f58:	2101      	movs	r1, #1
    4f5a:	4648      	mov	r0, r9
    4f5c:	f7fe fdfd 	bl	3b5a <mbedtls_mpi_cmp_int>
    4f60:	2800      	cmp	r0, #0
    4f62:	f040 811c 	bne.w	519e <mbedtls_mpi_inv_mod+0x2c2>
/home/hsk/Desktop/devel/tee-tpm-hyp/optee_os/lib/libmbedtls/mbedtls/library/bignum.c:1994
    4f66:	4631      	mov	r1, r6
    4f68:	462a      	mov	r2, r5
    4f6a:	4638      	mov	r0, r7
    4f6c:	f7ff fa11 	bl	4392 <mbedtls_mpi_mod_mpi>
    4f70:	4601      	mov	r1, r0
    4f72:	2800      	cmp	r0, #0
    4f74:	d147      	bne.n	5006 <mbedtls_mpi_inv_mod+0x12a>
/home/hsk/Desktop/devel/tee-tpm-hyp/optee_os/lib/libmbedtls/mbedtls/library/bignum.c:1995
    4f76:	4639      	mov	r1, r7
    4f78:	4620      	mov	r0, r4
    4f7a:	f7fe fb45 	bl	3608 <mbedtls_mpi_copy>
    4f7e:	4601      	mov	r1, r0
    4f80:	2800      	cmp	r0, #0
    4f82:	d140      	bne.n	5006 <mbedtls_mpi_inv_mod+0x12a>
/home/hsk/Desktop/devel/tee-tpm-hyp/optee_os/lib/libmbedtls/mbedtls/library/bignum.c:1996
    4f84:	4629      	mov	r1, r5
    4f86:	9801      	ldr	r0, [sp, #4]
    4f88:	f7fe fb3e 	bl	3608 <mbedtls_mpi_copy>
    4f8c:	4601      	mov	r1, r0
    4f8e:	2800      	cmp	r0, #0
    4f90:	d139      	bne.n	5006 <mbedtls_mpi_inv_mod+0x12a>
/home/hsk/Desktop/devel/tee-tpm-hyp/optee_os/lib/libmbedtls/mbedtls/library/bignum.c:1997
    4f92:	4629      	mov	r1, r5
    4f94:	9802      	ldr	r0, [sp, #8]
    4f96:	f7fe fb37 	bl	3608 <mbedtls_mpi_copy>
    4f9a:	4601      	mov	r1, r0
    4f9c:	2800      	cmp	r0, #0
    4f9e:	d132      	bne.n	5006 <mbedtls_mpi_inv_mod+0x12a>
/home/hsk/Desktop/devel/tee-tpm-hyp/optee_os/lib/libmbedtls/mbedtls/library/bignum.c:1999
    4fa0:	2101      	movs	r1, #1
    4fa2:	4658      	mov	r0, fp
    4fa4:	f7fe fbeb 	bl	377e <mbedtls_mpi_lset>
    4fa8:	4601      	mov	r1, r0
    4faa:	bb60      	cbnz	r0, 5006 <mbedtls_mpi_inv_mod+0x12a>
/home/hsk/Desktop/devel/tee-tpm-hyp/optee_os/lib/libmbedtls/mbedtls/library/bignum.c:2000
    4fac:	4650      	mov	r0, sl
    4fae:	f7fe fbe6 	bl	377e <mbedtls_mpi_lset>
    4fb2:	4601      	mov	r1, r0
    4fb4:	bb38      	cbnz	r0, 5006 <mbedtls_mpi_inv_mod+0x12a>
/home/hsk/Desktop/devel/tee-tpm-hyp/optee_os/lib/libmbedtls/mbedtls/library/bignum.c:2001
    4fb6:	9803      	ldr	r0, [sp, #12]
    4fb8:	f7fe fbe1 	bl	377e <mbedtls_mpi_lset>
    4fbc:	4601      	mov	r1, r0
    4fbe:	bb10      	cbnz	r0, 5006 <mbedtls_mpi_inv_mod+0x12a>
/home/hsk/Desktop/devel/tee-tpm-hyp/optee_os/lib/libmbedtls/mbedtls/library/bignum.c:2002
    4fc0:	ae1f      	add	r6, sp, #124	; 0x7c
    4fc2:	2101      	movs	r1, #1
    4fc4:	4630      	mov	r0, r6
    4fc6:	f7fe fbda 	bl	377e <mbedtls_mpi_lset>
    4fca:	4601      	mov	r1, r0
    4fcc:	b9d8      	cbnz	r0, 5006 <mbedtls_mpi_inv_mod+0x12a>
    4fce:	f10d 0864 	add.w	r8, sp, #100	; 0x64
/home/hsk/Desktop/devel/tee-tpm-hyp/optee_os/lib/libmbedtls/mbedtls/library/bignum.c:2026
    4fd2:	ab16      	add	r3, sp, #88	; 0x58
    4fd4:	9304      	str	r3, [sp, #16]
/home/hsk/Desktop/devel/tee-tpm-hyp/optee_os/lib/libmbedtls/mbedtls/library/bignum.c:2006
    4fd6:	9b0f      	ldr	r3, [sp, #60]	; 0x3c
    4fd8:	681b      	ldr	r3, [r3, #0]
    4fda:	07d8      	lsls	r0, r3, #31
    4fdc:	d46a      	bmi.n	50b4 <mbedtls_mpi_inv_mod+0x1d8>
/home/hsk/Desktop/devel/tee-tpm-hyp/optee_os/lib/libmbedtls/mbedtls/library/bignum.c:2008
    4fde:	2101      	movs	r1, #1
    4fe0:	4620      	mov	r0, r4
    4fe2:	f7fe fcff 	bl	39e4 <mbedtls_mpi_shift_r>
    4fe6:	4601      	mov	r1, r0
    4fe8:	b968      	cbnz	r0, 5006 <mbedtls_mpi_inv_mod+0x12a>
/home/hsk/Desktop/devel/tee-tpm-hyp/optee_os/lib/libmbedtls/mbedtls/library/bignum.c:2010
    4fea:	9b12      	ldr	r3, [sp, #72]	; 0x48
    4fec:	681b      	ldr	r3, [r3, #0]
    4fee:	07da      	lsls	r2, r3, #31
    4ff0:	d42a      	bmi.n	5048 <mbedtls_mpi_inv_mod+0x16c>
/home/hsk/Desktop/devel/tee-tpm-hyp/optee_os/lib/libmbedtls/mbedtls/library/bignum.c:2010 (discriminator 1)
    4ff2:	9b15      	ldr	r3, [sp, #84]	; 0x54
    4ff4:	681b      	ldr	r3, [r3, #0]
    4ff6:	07db      	lsls	r3, r3, #31
    4ff8:	d426      	bmi.n	5048 <mbedtls_mpi_inv_mod+0x16c>
/home/hsk/Desktop/devel/tee-tpm-hyp/optee_os/lib/libmbedtls/mbedtls/library/bignum.c:2016
    4ffa:	2101      	movs	r1, #1
    4ffc:	a810      	add	r0, sp, #64	; 0x40
    4ffe:	f7fe fcf1 	bl	39e4 <mbedtls_mpi_shift_r>
    5002:	4601      	mov	r1, r0
    5004:	b388      	cbz	r0, 506a <mbedtls_mpi_inv_mod+0x18e>
/home/hsk/Desktop/devel/tee-tpm-hyp/optee_os/lib/libmbedtls/mbedtls/library/bignum.c:2059
    5006:	4638      	mov	r0, r7
    5008:	9104      	str	r1, [sp, #16]
    500a:	f7fe fa1c 	bl	3446 <mbedtls_mpi_free>
    500e:	4620      	mov	r0, r4
    5010:	f7fe fa19 	bl	3446 <mbedtls_mpi_free>
    5014:	4658      	mov	r0, fp
    5016:	f7fe fa16 	bl	3446 <mbedtls_mpi_free>
    501a:	4650      	mov	r0, sl
    501c:	f7fe fa13 	bl	3446 <mbedtls_mpi_free>
/home/hsk/Desktop/devel/tee-tpm-hyp/optee_os/lib/libmbedtls/mbedtls/library/bignum.c:2060
    5020:	4648      	mov	r0, r9
    5022:	f7fe fa10 	bl	3446 <mbedtls_mpi_free>
    5026:	9801      	ldr	r0, [sp, #4]
    5028:	f7fe fa0d 	bl	3446 <mbedtls_mpi_free>
    502c:	9802      	ldr	r0, [sp, #8]
    502e:	f7fe fa0a 	bl	3446 <mbedtls_mpi_free>
/home/hsk/Desktop/devel/tee-tpm-hyp/optee_os/lib/libmbedtls/mbedtls/library/bignum.c:2061
    5032:	9803      	ldr	r0, [sp, #12]
    5034:	f7fe fa07 	bl	3446 <mbedtls_mpi_free>
    5038:	a81f      	add	r0, sp, #124	; 0x7c
    503a:	f7fe fa04 	bl	3446 <mbedtls_mpi_free>
/home/hsk/Desktop/devel/tee-tpm-hyp/optee_os/lib/libmbedtls/mbedtls/library/bignum.c:2063
    503e:	9904      	ldr	r1, [sp, #16]
/home/hsk/Desktop/devel/tee-tpm-hyp/optee_os/lib/libmbedtls/mbedtls/library/bignum.c:2064
    5040:	4608      	mov	r0, r1
    5042:	b023      	add	sp, #140	; 0x8c
    5044:	e8bd 8ff0 	ldmia.w	sp!, {r4, r5, r6, r7, r8, r9, sl, fp, pc}
/home/hsk/Desktop/devel/tee-tpm-hyp/optee_os/lib/libmbedtls/mbedtls/library/bignum.c:2012
    5048:	a910      	add	r1, sp, #64	; 0x40
    504a:	9a04      	ldr	r2, [sp, #16]
    504c:	4608      	mov	r0, r1
    504e:	f7fe fe35 	bl	3cbc <mbedtls_mpi_add_mpi>
    5052:	4601      	mov	r1, r0
    5054:	2800      	cmp	r0, #0
    5056:	d1d6      	bne.n	5006 <mbedtls_mpi_inv_mod+0x12a>
/home/hsk/Desktop/devel/tee-tpm-hyp/optee_os/lib/libmbedtls/mbedtls/library/bignum.c:2013
    5058:	a913      	add	r1, sp, #76	; 0x4c
    505a:	463a      	mov	r2, r7
    505c:	4608      	mov	r0, r1
    505e:	f7fe fe50 	bl	3d02 <mbedtls_mpi_sub_mpi>
    5062:	4601      	mov	r1, r0
    5064:	2800      	cmp	r0, #0
    5066:	d0c8      	beq.n	4ffa <mbedtls_mpi_inv_mod+0x11e>
    5068:	e7cd      	b.n	5006 <mbedtls_mpi_inv_mod+0x12a>
/home/hsk/Desktop/devel/tee-tpm-hyp/optee_os/lib/libmbedtls/mbedtls/library/bignum.c:2017
    506a:	2101      	movs	r1, #1
    506c:	a813      	add	r0, sp, #76	; 0x4c
    506e:	f7fe fcb9 	bl	39e4 <mbedtls_mpi_shift_r>
    5072:	4601      	mov	r1, r0
    5074:	2800      	cmp	r0, #0
    5076:	d0ae      	beq.n	4fd6 <mbedtls_mpi_inv_mod+0xfa>
/home/hsk/Desktop/devel/tee-tpm-hyp/optee_os/lib/libmbedtls/mbedtls/library/bignum.c:2057
    5078:	e7c5      	b.n	5006 <mbedtls_mpi_inv_mod+0x12a>
/home/hsk/Desktop/devel/tee-tpm-hyp/optee_os/lib/libmbedtls/mbedtls/library/bignum.c:2022
    507a:	2101      	movs	r1, #1
    507c:	4640      	mov	r0, r8
    507e:	f7fe fcb1 	bl	39e4 <mbedtls_mpi_shift_r>
    5082:	4601      	mov	r1, r0
    5084:	2800      	cmp	r0, #0
    5086:	d1be      	bne.n	5006 <mbedtls_mpi_inv_mod+0x12a>
/home/hsk/Desktop/devel/tee-tpm-hyp/optee_os/lib/libmbedtls/mbedtls/library/bignum.c:2024
    5088:	9b1e      	ldr	r3, [sp, #120]	; 0x78
    508a:	681b      	ldr	r3, [r3, #0]
    508c:	07d9      	lsls	r1, r3, #31
    508e:	d44d      	bmi.n	512c <mbedtls_mpi_inv_mod+0x250>
/home/hsk/Desktop/devel/tee-tpm-hyp/optee_os/lib/libmbedtls/mbedtls/library/bignum.c:2024 (discriminator 1)
    5090:	9b21      	ldr	r3, [sp, #132]	; 0x84
    5092:	681b      	ldr	r3, [r3, #0]
    5094:	07da      	lsls	r2, r3, #31
    5096:	d449      	bmi.n	512c <mbedtls_mpi_inv_mod+0x250>
/home/hsk/Desktop/devel/tee-tpm-hyp/optee_os/lib/libmbedtls/mbedtls/library/bignum.c:2030
    5098:	2101      	movs	r1, #1
    509a:	a81c      	add	r0, sp, #112	; 0x70
    509c:	f7fe fca2 	bl	39e4 <mbedtls_mpi_shift_r>
    50a0:	4601      	mov	r1, r0
    50a2:	2800      	cmp	r0, #0
    50a4:	d1af      	bne.n	5006 <mbedtls_mpi_inv_mod+0x12a>
/home/hsk/Desktop/devel/tee-tpm-hyp/optee_os/lib/libmbedtls/mbedtls/library/bignum.c:2031
    50a6:	2101      	movs	r1, #1
    50a8:	4630      	mov	r0, r6
    50aa:	f7fe fc9b 	bl	39e4 <mbedtls_mpi_shift_r>
    50ae:	4601      	mov	r1, r0
    50b0:	2800      	cmp	r0, #0
    50b2:	d1a8      	bne.n	5006 <mbedtls_mpi_inv_mod+0x12a>
/home/hsk/Desktop/devel/tee-tpm-hyp/optee_os/lib/libmbedtls/mbedtls/library/bignum.c:2020
    50b4:	9b1b      	ldr	r3, [sp, #108]	; 0x6c
    50b6:	681b      	ldr	r3, [r3, #0]
    50b8:	07db      	lsls	r3, r3, #31
    50ba:	d5de      	bpl.n	507a <mbedtls_mpi_inv_mod+0x19e>
/home/hsk/Desktop/devel/tee-tpm-hyp/optee_os/lib/libmbedtls/mbedtls/library/bignum.c:2034
    50bc:	4641      	mov	r1, r8
    50be:	4620      	mov	r0, r4
    50c0:	f7fe fd02 	bl	3ac8 <mbedtls_mpi_cmp_mpi>
    50c4:	2800      	cmp	r0, #0
    50c6:	db43      	blt.n	5150 <mbedtls_mpi_inv_mod+0x274>
/home/hsk/Desktop/devel/tee-tpm-hyp/optee_os/lib/libmbedtls/mbedtls/library/bignum.c:2036
    50c8:	4621      	mov	r1, r4
    50ca:	4642      	mov	r2, r8
    50cc:	4620      	mov	r0, r4
    50ce:	f7fe fe18 	bl	3d02 <mbedtls_mpi_sub_mpi>
    50d2:	4601      	mov	r1, r0
    50d4:	2800      	cmp	r0, #0
    50d6:	d196      	bne.n	5006 <mbedtls_mpi_inv_mod+0x12a>
/home/hsk/Desktop/devel/tee-tpm-hyp/optee_os/lib/libmbedtls/mbedtls/library/bignum.c:2037
    50d8:	a910      	add	r1, sp, #64	; 0x40
    50da:	aa1c      	add	r2, sp, #112	; 0x70
    50dc:	4608      	mov	r0, r1
    50de:	f7fe fe10 	bl	3d02 <mbedtls_mpi_sub_mpi>
    50e2:	4601      	mov	r1, r0
    50e4:	2800      	cmp	r0, #0
    50e6:	d18e      	bne.n	5006 <mbedtls_mpi_inv_mod+0x12a>
/home/hsk/Desktop/devel/tee-tpm-hyp/optee_os/lib/libmbedtls/mbedtls/library/bignum.c:2038
    50e8:	a913      	add	r1, sp, #76	; 0x4c
    50ea:	4632      	mov	r2, r6
    50ec:	4608      	mov	r0, r1
    50ee:	f7fe fe08 	bl	3d02 <mbedtls_mpi_sub_mpi>
    50f2:	4601      	mov	r1, r0
    50f4:	2800      	cmp	r0, #0
    50f6:	d186      	bne.n	5006 <mbedtls_mpi_inv_mod+0x12a>
/home/hsk/Desktop/devel/tee-tpm-hyp/optee_os/lib/libmbedtls/mbedtls/library/bignum.c:2047
    50f8:	2100      	movs	r1, #0
    50fa:	4620      	mov	r0, r4
    50fc:	f7fe fd2d 	bl	3b5a <mbedtls_mpi_cmp_int>
    5100:	2800      	cmp	r0, #0
    5102:	f47f af68 	bne.w	4fd6 <mbedtls_mpi_inv_mod+0xfa>
/home/hsk/Desktop/devel/tee-tpm-hyp/optee_os/lib/libmbedtls/mbedtls/library/bignum.c:2049
    5106:	ae1c      	add	r6, sp, #112	; 0x70
    5108:	2100      	movs	r1, #0
    510a:	4630      	mov	r0, r6
    510c:	f7fe fd25 	bl	3b5a <mbedtls_mpi_cmp_int>
    5110:	2800      	cmp	r0, #0
    5112:	db32      	blt.n	517a <mbedtls_mpi_inv_mod+0x29e>
/home/hsk/Desktop/devel/tee-tpm-hyp/optee_os/lib/libmbedtls/mbedtls/library/bignum.c:2052
    5114:	4629      	mov	r1, r5
    5116:	4630      	mov	r0, r6
    5118:	f7fe fcd6 	bl	3ac8 <mbedtls_mpi_cmp_mpi>
    511c:	2800      	cmp	r0, #0
    511e:	da35      	bge.n	518c <mbedtls_mpi_inv_mod+0x2b0>
/home/hsk/Desktop/devel/tee-tpm-hyp/optee_os/lib/libmbedtls/mbedtls/library/bignum.c:2055
    5120:	4631      	mov	r1, r6
    5122:	9805      	ldr	r0, [sp, #20]
    5124:	f7fe fa70 	bl	3608 <mbedtls_mpi_copy>
    5128:	4601      	mov	r1, r0
/home/hsk/Desktop/devel/tee-tpm-hyp/optee_os/lib/libmbedtls/mbedtls/library/bignum.c:2057
    512a:	e76c      	b.n	5006 <mbedtls_mpi_inv_mod+0x12a>
/home/hsk/Desktop/devel/tee-tpm-hyp/optee_os/lib/libmbedtls/mbedtls/library/bignum.c:2026
    512c:	a91c      	add	r1, sp, #112	; 0x70
    512e:	9a04      	ldr	r2, [sp, #16]
    5130:	4608      	mov	r0, r1
    5132:	f7fe fdc3 	bl	3cbc <mbedtls_mpi_add_mpi>
    5136:	4601      	mov	r1, r0
    5138:	2800      	cmp	r0, #0
    513a:	f47f af64 	bne.w	5006 <mbedtls_mpi_inv_mod+0x12a>
/home/hsk/Desktop/devel/tee-tpm-hyp/optee_os/lib/libmbedtls/mbedtls/library/bignum.c:2027
    513e:	4631      	mov	r1, r6
    5140:	463a      	mov	r2, r7
    5142:	4630      	mov	r0, r6
    5144:	f7fe fddd 	bl	3d02 <mbedtls_mpi_sub_mpi>
    5148:	4601      	mov	r1, r0
    514a:	2800      	cmp	r0, #0
    514c:	d0a4      	beq.n	5098 <mbedtls_mpi_inv_mod+0x1bc>
    514e:	e75a      	b.n	5006 <mbedtls_mpi_inv_mod+0x12a>
/home/hsk/Desktop/devel/tee-tpm-hyp/optee_os/lib/libmbedtls/mbedtls/library/bignum.c:2042
    5150:	4622      	mov	r2, r4
    5152:	4640      	mov	r0, r8
    5154:	f7fe fdd5 	bl	3d02 <mbedtls_mpi_sub_mpi>
    5158:	4601      	mov	r1, r0
    515a:	2800      	cmp	r0, #0
    515c:	f47f af53 	bne.w	5006 <mbedtls_mpi_inv_mod+0x12a>
/home/hsk/Desktop/devel/tee-tpm-hyp/optee_os/lib/libmbedtls/mbedtls/library/bignum.c:2043
    5160:	a91c      	add	r1, sp, #112	; 0x70
    5162:	aa10      	add	r2, sp, #64	; 0x40
    5164:	4608      	mov	r0, r1
    5166:	f7fe fdcc 	bl	3d02 <mbedtls_mpi_sub_mpi>
    516a:	4601      	mov	r1, r0
    516c:	2800      	cmp	r0, #0
    516e:	f47f af4a 	bne.w	5006 <mbedtls_mpi_inv_mod+0x12a>
/home/hsk/Desktop/devel/tee-tpm-hyp/optee_os/lib/libmbedtls/mbedtls/library/bignum.c:2044
    5172:	aa13      	add	r2, sp, #76	; 0x4c
    5174:	4631      	mov	r1, r6
    5176:	4630      	mov	r0, r6
    5178:	e7b9      	b.n	50ee <mbedtls_mpi_inv_mod+0x212>
/home/hsk/Desktop/devel/tee-tpm-hyp/optee_os/lib/libmbedtls/mbedtls/library/bignum.c:2050
    517a:	4631      	mov	r1, r6
    517c:	462a      	mov	r2, r5
    517e:	4630      	mov	r0, r6
    5180:	f7fe fd9c 	bl	3cbc <mbedtls_mpi_add_mpi>
    5184:	4601      	mov	r1, r0
    5186:	2800      	cmp	r0, #0
    5188:	d0be      	beq.n	5108 <mbedtls_mpi_inv_mod+0x22c>
/home/hsk/Desktop/devel/tee-tpm-hyp/optee_os/lib/libmbedtls/mbedtls/library/bignum.c:2057
    518a:	e73c      	b.n	5006 <mbedtls_mpi_inv_mod+0x12a>
/home/hsk/Desktop/devel/tee-tpm-hyp/optee_os/lib/libmbedtls/mbedtls/library/bignum.c:2053
    518c:	4631      	mov	r1, r6
    518e:	462a      	mov	r2, r5
    5190:	4630      	mov	r0, r6
    5192:	f7fe fdb6 	bl	3d02 <mbedtls_mpi_sub_mpi>
    5196:	4601      	mov	r1, r0
    5198:	2800      	cmp	r0, #0
    519a:	d0bb      	beq.n	5114 <mbedtls_mpi_inv_mod+0x238>
/home/hsk/Desktop/devel/tee-tpm-hyp/optee_os/lib/libmbedtls/mbedtls/library/bignum.c:2057
    519c:	e733      	b.n	5006 <mbedtls_mpi_inv_mod+0x12a>
/home/hsk/Desktop/devel/tee-tpm-hyp/optee_os/lib/libmbedtls/mbedtls/library/bignum.c:1990
    519e:	f06f 010d 	mvn.w	r1, #13
    51a2:	e730      	b.n	5006 <mbedtls_mpi_inv_mod+0x12a>
/home/hsk/Desktop/devel/tee-tpm-hyp/optee_os/lib/libmbedtls/mbedtls/library/bignum.c:1978
    51a4:	f06f 0103 	mvn.w	r1, #3
    51a8:	e74a      	b.n	5040 <mbedtls_mpi_inv_mod+0x164>

000051aa <mbedtls_mpi_is_prime>:
mbedtls_mpi_is_prime():
/home/hsk/Desktop/devel/tee-tpm-hyp/optee_os/lib/libmbedtls/mbedtls/library/bignum.c:2238
    51aa:	b5f0      	push	{r4, r5, r6, r7, lr}
    51ac:	460e      	mov	r6, r1
/home/hsk/Desktop/devel/tee-tpm-hyp/optee_os/lib/libmbedtls/mbedtls/library/bignum.c:2243
    51ae:	8883      	ldrh	r3, [r0, #4]
/home/hsk/Desktop/devel/tee-tpm-hyp/optee_os/lib/libmbedtls/mbedtls/library/bignum.c:2238
    51b0:	b085      	sub	sp, #20
/home/hsk/Desktop/devel/tee-tpm-hyp/optee_os/lib/libmbedtls/mbedtls/library/bignum.c:2246
    51b2:	2100      	movs	r1, #0
    51b4:	ac01      	add	r4, sp, #4
/home/hsk/Desktop/devel/tee-tpm-hyp/optee_os/lib/libmbedtls/mbedtls/library/bignum.c:2242
    51b6:	2501      	movs	r5, #1
/home/hsk/Desktop/devel/tee-tpm-hyp/optee_os/lib/libmbedtls/mbedtls/library/bignum.c:2238
    51b8:	4617      	mov	r7, r2
/home/hsk/Desktop/devel/tee-tpm-hyp/optee_os/lib/libmbedtls/mbedtls/library/bignum.c:2243
    51ba:	f8ad 3008 	strh.w	r3, [sp, #8]
/home/hsk/Desktop/devel/tee-tpm-hyp/optee_os/lib/libmbedtls/mbedtls/library/bignum.c:2244
    51be:	6883      	ldr	r3, [r0, #8]
/home/hsk/Desktop/devel/tee-tpm-hyp/optee_os/lib/libmbedtls/mbedtls/library/bignum.c:2246
    51c0:	4620      	mov	r0, r4
/home/hsk/Desktop/devel/tee-tpm-hyp/optee_os/lib/libmbedtls/mbedtls/library/bignum.c:2242
    51c2:	f88d 5004 	strb.w	r5, [sp, #4]
/home/hsk/Desktop/devel/tee-tpm-hyp/optee_os/lib/libmbedtls/mbedtls/library/bignum.c:2244
    51c6:	9303      	str	r3, [sp, #12]
/home/hsk/Desktop/devel/tee-tpm-hyp/optee_os/lib/libmbedtls/mbedtls/library/bignum.c:2246
    51c8:	f7fe fcc7 	bl	3b5a <mbedtls_mpi_cmp_int>
    51cc:	b1c0      	cbz	r0, 5200 <mbedtls_mpi_is_prime+0x56>
/home/hsk/Desktop/devel/tee-tpm-hyp/optee_os/lib/libmbedtls/mbedtls/library/bignum.c:2247 (discriminator 1)
    51ce:	4629      	mov	r1, r5
    51d0:	4620      	mov	r0, r4
    51d2:	f7fe fcc2 	bl	3b5a <mbedtls_mpi_cmp_int>
/home/hsk/Desktop/devel/tee-tpm-hyp/optee_os/lib/libmbedtls/mbedtls/library/bignum.c:2246 (discriminator 1)
    51d6:	b198      	cbz	r0, 5200 <mbedtls_mpi_is_prime+0x56>
/home/hsk/Desktop/devel/tee-tpm-hyp/optee_os/lib/libmbedtls/mbedtls/library/bignum.c:2250
    51d8:	2102      	movs	r1, #2
    51da:	4620      	mov	r0, r4
    51dc:	f7fe fcbd 	bl	3b5a <mbedtls_mpi_cmp_int>
    51e0:	b128      	cbz	r0, 51ee <mbedtls_mpi_is_prime+0x44>
/home/hsk/Desktop/devel/tee-tpm-hyp/optee_os/lib/libmbedtls/mbedtls/library/bignum.c:2253
    51e2:	4620      	mov	r0, r4
    51e4:	f7ff f9f2 	bl	45cc <mpi_check_small_factors>
    51e8:	b120      	cbz	r0, 51f4 <mbedtls_mpi_is_prime+0x4a>
/home/hsk/Desktop/devel/tee-tpm-hyp/optee_os/lib/libmbedtls/mbedtls/library/bignum.c:2255
    51ea:	42a8      	cmp	r0, r5
    51ec:	d100      	bne.n	51f0 <mbedtls_mpi_is_prime+0x46>
/home/hsk/Desktop/devel/tee-tpm-hyp/optee_os/lib/libmbedtls/mbedtls/library/bignum.c:2256
    51ee:	2000      	movs	r0, #0
/home/hsk/Desktop/devel/tee-tpm-hyp/optee_os/lib/libmbedtls/mbedtls/library/bignum.c:2262
    51f0:	b005      	add	sp, #20
    51f2:	bdf0      	pop	{r4, r5, r6, r7, pc}
/home/hsk/Desktop/devel/tee-tpm-hyp/optee_os/lib/libmbedtls/mbedtls/library/bignum.c:2261
    51f4:	463a      	mov	r2, r7
    51f6:	4631      	mov	r1, r6
    51f8:	4620      	mov	r0, r4
    51fa:	f7ff fd64 	bl	4cc6 <mpi_miller_rabin>
    51fe:	e7f7      	b.n	51f0 <mbedtls_mpi_is_prime+0x46>
/home/hsk/Desktop/devel/tee-tpm-hyp/optee_os/lib/libmbedtls/mbedtls/library/bignum.c:2248
    5200:	f06f 000d 	mvn.w	r0, #13
    5204:	e7f4      	b.n	51f0 <mbedtls_mpi_is_prime+0x46>

00005206 <mbedtls_mpi_gen_prime>:
mbedtls_mpi_gen_prime():
/home/hsk/Desktop/devel/tee-tpm-hyp/optee_os/lib/libmbedtls/mbedtls/library/bignum.c:2270
    5206:	e92d 43f0 	stmdb	sp!, {r4, r5, r6, r7, r8, r9, lr}
    520a:	4691      	mov	r9, r2
/home/hsk/Desktop/devel/tee-tpm-hyp/optee_os/lib/libmbedtls/mbedtls/library/bignum.c:2276
    520c:	1eca      	subs	r2, r1, #3
/home/hsk/Desktop/devel/tee-tpm-hyp/optee_os/lib/libmbedtls/mbedtls/library/bignum.c:2270
    520e:	4698      	mov	r8, r3
    5210:	b085      	sub	sp, #20
/home/hsk/Desktop/devel/tee-tpm-hyp/optee_os/lib/libmbedtls/mbedtls/library/bignum.c:2276
    5212:	f641 73fd 	movw	r3, #8189	; 0x1ffd
/home/hsk/Desktop/devel/tee-tpm-hyp/optee_os/lib/libmbedtls/mbedtls/library/bignum.c:2270
    5216:	4604      	mov	r4, r0
    5218:	460f      	mov	r7, r1
/home/hsk/Desktop/devel/tee-tpm-hyp/optee_os/lib/libmbedtls/mbedtls/library/bignum.c:2276
    521a:	429a      	cmp	r2, r3
    521c:	f200 808b 	bhi.w	5336 <mbedtls_mpi_gen_prime+0x130>
/home/hsk/Desktop/devel/tee-tpm-hyp/optee_os/lib/libmbedtls/mbedtls/library/bignum.c:2279
    5220:	ae01      	add	r6, sp, #4
    5222:	4630      	mov	r0, r6
    5224:	f7fe f8f4 	bl	3410 <mbedtls_mpi_init_mempool>
/home/hsk/Desktop/devel/tee-tpm-hyp/optee_os/lib/libmbedtls/mbedtls/library/bignum.c:2281
    5228:	f011 011f 	ands.w	r1, r1, #31
    522c:	bf18      	it	ne
    522e:	2101      	movne	r1, #1
/home/hsk/Desktop/devel/tee-tpm-hyp/optee_os/lib/libmbedtls/mbedtls/library/bignum.c:2283
    5230:	9b0c      	ldr	r3, [sp, #48]	; 0x30
/home/hsk/Desktop/devel/tee-tpm-hyp/optee_os/lib/libmbedtls/mbedtls/library/bignum.c:2281
    5232:	eb01 1157 	add.w	r1, r1, r7, lsr #5
/home/hsk/Desktop/devel/tee-tpm-hyp/optee_os/lib/libmbedtls/mbedtls/library/bignum.c:2283
    5236:	4642      	mov	r2, r8
    5238:	4620      	mov	r0, r4
    523a:	0089      	lsls	r1, r1, #2
    523c:	f7ff fd29 	bl	4c92 <mbedtls_mpi_fill_random>
    5240:	4605      	mov	r5, r0
    5242:	2800      	cmp	r0, #0
    5244:	d161      	bne.n	530a <mbedtls_mpi_gen_prime+0x104>
/home/hsk/Desktop/devel/tee-tpm-hyp/optee_os/lib/libmbedtls/mbedtls/library/bignum.c:2285
    5246:	4620      	mov	r0, r4
    5248:	f7fe fb07 	bl	385a <mbedtls_mpi_bitlen>
/home/hsk/Desktop/devel/tee-tpm-hyp/optee_os/lib/libmbedtls/mbedtls/library/bignum.c:2286
    524c:	4287      	cmp	r7, r0
    524e:	d349      	bcc.n	52e4 <mbedtls_mpi_gen_prime+0xde>
/home/hsk/Desktop/devel/tee-tpm-hyp/optee_os/lib/libmbedtls/mbedtls/library/bignum.c:2288
    5250:	2201      	movs	r2, #1
    5252:	1e79      	subs	r1, r7, #1
    5254:	4620      	mov	r0, r4
    5256:	f7fe fabe 	bl	37d6 <mbedtls_mpi_set_bit>
/home/hsk/Desktop/devel/tee-tpm-hyp/optee_os/lib/libmbedtls/mbedtls/library/bignum.c:2290
    525a:	68a2      	ldr	r2, [r4, #8]
    525c:	6813      	ldr	r3, [r2, #0]
/home/hsk/Desktop/devel/tee-tpm-hyp/optee_os/lib/libmbedtls/mbedtls/library/bignum.c:2292
    525e:	f1b9 0f00 	cmp.w	r9, #0
    5262:	d049      	beq.n	52f8 <mbedtls_mpi_gen_prime+0xf2>
/home/hsk/Desktop/devel/tee-tpm-hyp/optee_os/lib/libmbedtls/mbedtls/library/bignum.c:2310
    5264:	f043 0303 	orr.w	r3, r3, #3
mbedtls_mpi_mod_int():
    5268:	4621      	mov	r1, r4
mbedtls_mpi_gen_prime():
    526a:	6013      	str	r3, [r2, #0]
mbedtls_mpi_mod_int():
    526c:	4668      	mov	r0, sp
    526e:	2203      	movs	r2, #3
    5270:	f7fe f8a3 	bl	33ba <mbedtls_mpi_mod_int.part.3>
mbedtls_mpi_gen_prime():
/home/hsk/Desktop/devel/tee-tpm-hyp/optee_os/lib/libmbedtls/mbedtls/library/bignum.c:2312
    5274:	2800      	cmp	r0, #0
    5276:	d13d      	bne.n	52f4 <mbedtls_mpi_gen_prime+0xee>
/home/hsk/Desktop/devel/tee-tpm-hyp/optee_os/lib/libmbedtls/mbedtls/library/bignum.c:2313
    5278:	9b00      	ldr	r3, [sp, #0]
    527a:	2b00      	cmp	r3, #0
    527c:	d157      	bne.n	532e <mbedtls_mpi_gen_prime+0x128>
/home/hsk/Desktop/devel/tee-tpm-hyp/optee_os/lib/libmbedtls/mbedtls/library/bignum.c:2314
    527e:	2208      	movs	r2, #8
/home/hsk/Desktop/devel/tee-tpm-hyp/optee_os/lib/libmbedtls/mbedtls/library/bignum.c:2316
    5280:	4621      	mov	r1, r4
    5282:	4620      	mov	r0, r4
    5284:	f7fe fd62 	bl	3d4c <mbedtls_mpi_add_int>
    5288:	bba0      	cbnz	r0, 52f4 <mbedtls_mpi_gen_prime+0xee>
/home/hsk/Desktop/devel/tee-tpm-hyp/optee_os/lib/libmbedtls/mbedtls/library/bignum.c:2319
    528a:	4621      	mov	r1, r4
    528c:	4630      	mov	r0, r6
    528e:	f7fe f9bb 	bl	3608 <mbedtls_mpi_copy>
    5292:	bb78      	cbnz	r0, 52f4 <mbedtls_mpi_gen_prime+0xee>
/home/hsk/Desktop/devel/tee-tpm-hyp/optee_os/lib/libmbedtls/mbedtls/library/bignum.c:2320
    5294:	2101      	movs	r1, #1
    5296:	4630      	mov	r0, r6
    5298:	f7fe fba4 	bl	39e4 <mbedtls_mpi_shift_r>
    529c:	bb50      	cbnz	r0, 52f4 <mbedtls_mpi_gen_prime+0xee>
/home/hsk/Desktop/devel/tee-tpm-hyp/optee_os/lib/libmbedtls/mbedtls/library/bignum.c:2328
    529e:	4620      	mov	r0, r4
    52a0:	f7ff f994 	bl	45cc <mpi_check_small_factors>
    52a4:	b978      	cbnz	r0, 52c6 <mbedtls_mpi_gen_prime+0xc0>
/home/hsk/Desktop/devel/tee-tpm-hyp/optee_os/lib/libmbedtls/mbedtls/library/bignum.c:2328 (discriminator 1)
    52a6:	4630      	mov	r0, r6
    52a8:	f7ff f990 	bl	45cc <mpi_check_small_factors>
    52ac:	b958      	cbnz	r0, 52c6 <mbedtls_mpi_gen_prime+0xc0>
/home/hsk/Desktop/devel/tee-tpm-hyp/optee_os/lib/libmbedtls/mbedtls/library/bignum.c:2329
    52ae:	9a0c      	ldr	r2, [sp, #48]	; 0x30
    52b0:	4641      	mov	r1, r8
    52b2:	4620      	mov	r0, r4
    52b4:	f7ff fd07 	bl	4cc6 <mpi_miller_rabin>
    52b8:	b928      	cbnz	r0, 52c6 <mbedtls_mpi_gen_prime+0xc0>
/home/hsk/Desktop/devel/tee-tpm-hyp/optee_os/lib/libmbedtls/mbedtls/library/bignum.c:2330
    52ba:	9a0c      	ldr	r2, [sp, #48]	; 0x30
    52bc:	4641      	mov	r1, r8
    52be:	4630      	mov	r0, r6
    52c0:	f7ff fd01 	bl	4cc6 <mpi_miller_rabin>
    52c4:	b308      	cbz	r0, 530a <mbedtls_mpi_gen_prime+0x104>
/home/hsk/Desktop/devel/tee-tpm-hyp/optee_os/lib/libmbedtls/mbedtls/library/bignum.c:2336
    52c6:	f110 0f0e 	cmn.w	r0, #14
    52ca:	d113      	bne.n	52f4 <mbedtls_mpi_gen_prime+0xee>
/home/hsk/Desktop/devel/tee-tpm-hyp/optee_os/lib/libmbedtls/mbedtls/library/bignum.c:2344
    52cc:	220c      	movs	r2, #12
    52ce:	4621      	mov	r1, r4
    52d0:	4620      	mov	r0, r4
    52d2:	f7fe fd3b 	bl	3d4c <mbedtls_mpi_add_int>
    52d6:	b968      	cbnz	r0, 52f4 <mbedtls_mpi_gen_prime+0xee>
/home/hsk/Desktop/devel/tee-tpm-hyp/optee_os/lib/libmbedtls/mbedtls/library/bignum.c:2345
    52d8:	2206      	movs	r2, #6
    52da:	4631      	mov	r1, r6
    52dc:	4630      	mov	r0, r6
    52de:	f7fe fd35 	bl	3d4c <mbedtls_mpi_add_int>
    52e2:	e7db      	b.n	529c <mbedtls_mpi_gen_prime+0x96>
/home/hsk/Desktop/devel/tee-tpm-hyp/optee_os/lib/libmbedtls/mbedtls/library/bignum.c:2286 (discriminator 1)
    52e4:	f1c7 0101 	rsb	r1, r7, #1
    52e8:	4401      	add	r1, r0
    52ea:	4620      	mov	r0, r4
    52ec:	f7fe fb7a 	bl	39e4 <mbedtls_mpi_shift_r>
    52f0:	2800      	cmp	r0, #0
    52f2:	d0ad      	beq.n	5250 <mbedtls_mpi_gen_prime+0x4a>
/home/hsk/Desktop/devel/tee-tpm-hyp/optee_os/lib/libmbedtls/mbedtls/library/bignum.c:2349
    52f4:	4605      	mov	r5, r0
    52f6:	e008      	b.n	530a <mbedtls_mpi_gen_prime+0x104>
/home/hsk/Desktop/devel/tee-tpm-hyp/optee_os/lib/libmbedtls/mbedtls/library/bignum.c:2290
    52f8:	f043 0301 	orr.w	r3, r3, #1
    52fc:	6013      	str	r3, [r2, #0]
/home/hsk/Desktop/devel/tee-tpm-hyp/optee_os/lib/libmbedtls/mbedtls/library/bignum.c:2294
    52fe:	9a0c      	ldr	r2, [sp, #48]	; 0x30
    5300:	4641      	mov	r1, r8
    5302:	4620      	mov	r0, r4
    5304:	f7ff ff51 	bl	51aa <mbedtls_mpi_is_prime>
    5308:	b930      	cbnz	r0, 5318 <mbedtls_mpi_gen_prime+0x112>
/home/hsk/Desktop/devel/tee-tpm-hyp/optee_os/lib/libmbedtls/mbedtls/library/bignum.c:2351
    530a:	4630      	mov	r0, r6
    530c:	f7fe f89b 	bl	3446 <mbedtls_mpi_free>
/home/hsk/Desktop/devel/tee-tpm-hyp/optee_os/lib/libmbedtls/mbedtls/library/bignum.c:2354
    5310:	4628      	mov	r0, r5
    5312:	b005      	add	sp, #20
    5314:	e8bd 83f0 	ldmia.w	sp!, {r4, r5, r6, r7, r8, r9, pc}
/home/hsk/Desktop/devel/tee-tpm-hyp/optee_os/lib/libmbedtls/mbedtls/library/bignum.c:2296
    5318:	f110 0f0e 	cmn.w	r0, #14
    531c:	d1ea      	bne.n	52f4 <mbedtls_mpi_gen_prime+0xee>
/home/hsk/Desktop/devel/tee-tpm-hyp/optee_os/lib/libmbedtls/mbedtls/library/bignum.c:2299
    531e:	2202      	movs	r2, #2
    5320:	4621      	mov	r1, r4
    5322:	4620      	mov	r0, r4
    5324:	f7fe fd12 	bl	3d4c <mbedtls_mpi_add_int>
    5328:	2800      	cmp	r0, #0
    532a:	d0e8      	beq.n	52fe <mbedtls_mpi_gen_prime+0xf8>
/home/hsk/Desktop/devel/tee-tpm-hyp/optee_os/lib/libmbedtls/mbedtls/library/bignum.c:2349
    532c:	e7e2      	b.n	52f4 <mbedtls_mpi_gen_prime+0xee>
/home/hsk/Desktop/devel/tee-tpm-hyp/optee_os/lib/libmbedtls/mbedtls/library/bignum.c:2315
    532e:	2b01      	cmp	r3, #1
    5330:	d1ab      	bne.n	528a <mbedtls_mpi_gen_prime+0x84>
/home/hsk/Desktop/devel/tee-tpm-hyp/optee_os/lib/libmbedtls/mbedtls/library/bignum.c:2316
    5332:	2204      	movs	r2, #4
    5334:	e7a4      	b.n	5280 <mbedtls_mpi_gen_prime+0x7a>
/home/hsk/Desktop/devel/tee-tpm-hyp/optee_os/lib/libmbedtls/mbedtls/library/bignum.c:2277
    5336:	f06f 0503 	mvn.w	r5, #3
    533a:	e7e9      	b.n	5310 <mbedtls_mpi_gen_prime+0x10a>

0000533c <mbedtls_mpi_self_test>:
mbedtls_mpi_self_test():
/home/hsk/Desktop/devel/tee-tpm-hyp/optee_os/lib/libmbedtls/mbedtls/library/bignum.c:2373
    533c:	e92d 4ff0 	stmdb	sp!, {r4, r5, r6, r7, r8, r9, sl, fp, lr}
    5340:	4604      	mov	r4, r0
    5342:	b09b      	sub	sp, #108	; 0x6c
/home/hsk/Desktop/devel/tee-tpm-hyp/optee_os/lib/libmbedtls/mbedtls/library/bignum.c:2377
    5344:	af05      	add	r7, sp, #20
    5346:	f10d 0b20 	add.w	fp, sp, #32
    534a:	4638      	mov	r0, r7
/home/hsk/Desktop/devel/tee-tpm-hyp/optee_os/lib/libmbedtls/mbedtls/library/bignum.c:2378
    534c:	f10d 082c 	add.w	r8, sp, #44	; 0x2c
/home/hsk/Desktop/devel/tee-tpm-hyp/optee_os/lib/libmbedtls/mbedtls/library/bignum.c:2377
    5350:	f7fe f85e 	bl	3410 <mbedtls_mpi_init_mempool>
    5354:	4658      	mov	r0, fp
    5356:	f7fe f85b 	bl	3410 <mbedtls_mpi_init_mempool>
/home/hsk/Desktop/devel/tee-tpm-hyp/optee_os/lib/libmbedtls/mbedtls/library/bignum.c:2378
    535a:	ad0e      	add	r5, sp, #56	; 0x38
    535c:	4640      	mov	r0, r8
/home/hsk/Desktop/devel/tee-tpm-hyp/optee_os/lib/libmbedtls/mbedtls/library/bignum.c:2379
    535e:	f10d 0944 	add.w	r9, sp, #68	; 0x44
/home/hsk/Desktop/devel/tee-tpm-hyp/optee_os/lib/libmbedtls/mbedtls/library/bignum.c:2378
    5362:	f7fe f855 	bl	3410 <mbedtls_mpi_init_mempool>
    5366:	4628      	mov	r0, r5
    5368:	f7fe f852 	bl	3410 <mbedtls_mpi_init_mempool>
/home/hsk/Desktop/devel/tee-tpm-hyp/optee_os/lib/libmbedtls/mbedtls/library/bignum.c:2379
    536c:	ae14      	add	r6, sp, #80	; 0x50
    536e:	4648      	mov	r0, r9
    5370:	f7fe f84e 	bl	3410 <mbedtls_mpi_init_mempool>
    5374:	4630      	mov	r0, r6
    5376:	f7fe f84b 	bl	3410 <mbedtls_mpi_init_mempool>
/home/hsk/Desktop/devel/tee-tpm-hyp/optee_os/lib/libmbedtls/mbedtls/library/bignum.c:2380
    537a:	a817      	add	r0, sp, #92	; 0x5c
    537c:	f7fe f848 	bl	3410 <mbedtls_mpi_init_mempool>
/home/hsk/Desktop/devel/tee-tpm-hyp/optee_os/lib/libmbedtls/mbedtls/library/bignum.c:2382
    5380:	4aa3      	ldr	r2, [pc, #652]	; (5610 <mbedtls_mpi_self_test+0x2d4>)
    5382:	2110      	movs	r1, #16
    5384:	4638      	mov	r0, r7
    5386:	447a      	add	r2, pc
    5388:	f7fe fd8b 	bl	3ea2 <mbedtls_mpi_read_string>
    538c:	4603      	mov	r3, r0
    538e:	2800      	cmp	r0, #0
    5390:	f040 8123 	bne.w	55da <mbedtls_mpi_self_test+0x29e>
/home/hsk/Desktop/devel/tee-tpm-hyp/optee_os/lib/libmbedtls/mbedtls/library/bignum.c:2388
    5394:	4a9f      	ldr	r2, [pc, #636]	; (5614 <mbedtls_mpi_self_test+0x2d8>)
    5396:	2110      	movs	r1, #16
    5398:	4658      	mov	r0, fp
    539a:	447a      	add	r2, pc
    539c:	f7fe fd81 	bl	3ea2 <mbedtls_mpi_read_string>
    53a0:	4603      	mov	r3, r0
    53a2:	2800      	cmp	r0, #0
    53a4:	f040 8119 	bne.w	55da <mbedtls_mpi_self_test+0x29e>
/home/hsk/Desktop/devel/tee-tpm-hyp/optee_os/lib/libmbedtls/mbedtls/library/bignum.c:2394
    53a8:	4a9b      	ldr	r2, [pc, #620]	; (5618 <mbedtls_mpi_self_test+0x2dc>)
    53aa:	2110      	movs	r1, #16
    53ac:	4640      	mov	r0, r8
    53ae:	447a      	add	r2, pc
    53b0:	f7fe fd77 	bl	3ea2 <mbedtls_mpi_read_string>
    53b4:	4603      	mov	r3, r0
    53b6:	2800      	cmp	r0, #0
    53b8:	f040 810f 	bne.w	55da <mbedtls_mpi_self_test+0x29e>
/home/hsk/Desktop/devel/tee-tpm-hyp/optee_os/lib/libmbedtls/mbedtls/library/bignum.c:2399
    53bc:	4642      	mov	r2, r8
    53be:	4639      	mov	r1, r7
    53c0:	4628      	mov	r0, r5
    53c2:	f7fe fcf3 	bl	3dac <mbedtls_mpi_mul_mpi>
    53c6:	4603      	mov	r3, r0
    53c8:	2800      	cmp	r0, #0
    53ca:	f040 8106 	bne.w	55da <mbedtls_mpi_self_test+0x29e>
/home/hsk/Desktop/devel/tee-tpm-hyp/optee_os/lib/libmbedtls/mbedtls/library/bignum.c:2401
    53ce:	4a93      	ldr	r2, [pc, #588]	; (561c <mbedtls_mpi_self_test+0x2e0>)
    53d0:	2110      	movs	r1, #16
    53d2:	4630      	mov	r0, r6
    53d4:	447a      	add	r2, pc
    53d6:	f7fe fd64 	bl	3ea2 <mbedtls_mpi_read_string>
    53da:	4603      	mov	r3, r0
    53dc:	2800      	cmp	r0, #0
    53de:	f040 80fc 	bne.w	55da <mbedtls_mpi_self_test+0x29e>
/home/hsk/Desktop/devel/tee-tpm-hyp/optee_os/lib/libmbedtls/mbedtls/library/bignum.c:2410
    53e2:	b11c      	cbz	r4, 53ec <mbedtls_mpi_self_test+0xb0>
/home/hsk/Desktop/devel/tee-tpm-hyp/optee_os/lib/libmbedtls/mbedtls/library/bignum.c:2411
    53e4:	488e      	ldr	r0, [pc, #568]	; (5620 <mbedtls_mpi_self_test+0x2e4>)
    53e6:	4478      	add	r0, pc
    53e8:	f7fb fc49 	bl	c7e <printf>
/home/hsk/Desktop/devel/tee-tpm-hyp/optee_os/lib/libmbedtls/mbedtls/library/bignum.c:2413
    53ec:	4631      	mov	r1, r6
    53ee:	4628      	mov	r0, r5
    53f0:	f7fe fb6a 	bl	3ac8 <mbedtls_mpi_cmp_mpi>
    53f4:	ab17      	add	r3, sp, #92	; 0x5c
    53f6:	9303      	str	r3, [sp, #12]
    53f8:	b170      	cbz	r0, 5418 <mbedtls_mpi_self_test+0xdc>
/home/hsk/Desktop/devel/tee-tpm-hyp/optee_os/lib/libmbedtls/mbedtls/library/bignum.c:2415
    53fa:	2c00      	cmp	r4, #0
    53fc:	f000 80f0 	beq.w	55e0 <mbedtls_mpi_self_test+0x2a4>
/home/hsk/Desktop/devel/tee-tpm-hyp/optee_os/lib/libmbedtls/mbedtls/library/bignum.c:2416
    5400:	4888      	ldr	r0, [pc, #544]	; (5624 <mbedtls_mpi_self_test+0x2e8>)
    5402:	4478      	add	r0, pc
    5404:	f7fb fc58 	bl	cb8 <puts>
/home/hsk/Desktop/devel/tee-tpm-hyp/optee_os/lib/libmbedtls/mbedtls/library/bignum.c:2508
    5408:	2301      	movs	r3, #1
/home/hsk/Desktop/devel/tee-tpm-hyp/optee_os/lib/libmbedtls/mbedtls/library/bignum.c:2521
    540a:	4887      	ldr	r0, [pc, #540]	; (5628 <mbedtls_mpi_self_test+0x2ec>)
    540c:	4619      	mov	r1, r3
    540e:	9302      	str	r3, [sp, #8]
    5410:	4478      	add	r0, pc
    5412:	f7fb fc34 	bl	c7e <printf>
    5416:	e0bd      	b.n	5594 <mbedtls_mpi_self_test+0x258>
/home/hsk/Desktop/devel/tee-tpm-hyp/optee_os/lib/libmbedtls/mbedtls/library/bignum.c:2422
    5418:	b11c      	cbz	r4, 5422 <mbedtls_mpi_self_test+0xe6>
/home/hsk/Desktop/devel/tee-tpm-hyp/optee_os/lib/libmbedtls/mbedtls/library/bignum.c:2423
    541a:	4884      	ldr	r0, [pc, #528]	; (562c <mbedtls_mpi_self_test+0x2f0>)
    541c:	4478      	add	r0, pc
    541e:	f7fb fc4b 	bl	cb8 <puts>
/home/hsk/Desktop/devel/tee-tpm-hyp/optee_os/lib/libmbedtls/mbedtls/library/bignum.c:2425
    5422:	4643      	mov	r3, r8
    5424:	463a      	mov	r2, r7
    5426:	4649      	mov	r1, r9
    5428:	4628      	mov	r0, r5
    542a:	f7fe fdd0 	bl	3fce <mbedtls_mpi_div_mpi>
    542e:	4603      	mov	r3, r0
    5430:	2800      	cmp	r0, #0
    5432:	f040 80d2 	bne.w	55da <mbedtls_mpi_self_test+0x29e>
/home/hsk/Desktop/devel/tee-tpm-hyp/optee_os/lib/libmbedtls/mbedtls/library/bignum.c:2427
    5436:	4a7e      	ldr	r2, [pc, #504]	; (5630 <mbedtls_mpi_self_test+0x2f4>)
    5438:	2110      	movs	r1, #16
    543a:	4630      	mov	r0, r6
    543c:	447a      	add	r2, pc
    543e:	f7fe fd30 	bl	3ea2 <mbedtls_mpi_read_string>
    5442:	4603      	mov	r3, r0
    5444:	2800      	cmp	r0, #0
    5446:	f040 80c8 	bne.w	55da <mbedtls_mpi_self_test+0x29e>
/home/hsk/Desktop/devel/tee-tpm-hyp/optee_os/lib/libmbedtls/mbedtls/library/bignum.c:2430
    544a:	4a7a      	ldr	r2, [pc, #488]	; (5634 <mbedtls_mpi_self_test+0x2f8>)
    544c:	2110      	movs	r1, #16
    544e:	9803      	ldr	r0, [sp, #12]
    5450:	447a      	add	r2, pc
    5452:	f7fe fd26 	bl	3ea2 <mbedtls_mpi_read_string>
    5456:	4603      	mov	r3, r0
    5458:	2800      	cmp	r0, #0
    545a:	f040 80be 	bne.w	55da <mbedtls_mpi_self_test+0x29e>
/home/hsk/Desktop/devel/tee-tpm-hyp/optee_os/lib/libmbedtls/mbedtls/library/bignum.c:2435
    545e:	b11c      	cbz	r4, 5468 <mbedtls_mpi_self_test+0x12c>
/home/hsk/Desktop/devel/tee-tpm-hyp/optee_os/lib/libmbedtls/mbedtls/library/bignum.c:2436
    5460:	4875      	ldr	r0, [pc, #468]	; (5638 <mbedtls_mpi_self_test+0x2fc>)
    5462:	4478      	add	r0, pc
    5464:	f7fb fc0b 	bl	c7e <printf>
/home/hsk/Desktop/devel/tee-tpm-hyp/optee_os/lib/libmbedtls/mbedtls/library/bignum.c:2438
    5468:	4631      	mov	r1, r6
    546a:	4628      	mov	r0, r5
    546c:	f7fe fb2c 	bl	3ac8 <mbedtls_mpi_cmp_mpi>
    5470:	2800      	cmp	r0, #0
    5472:	d1c2      	bne.n	53fa <mbedtls_mpi_self_test+0xbe>
/home/hsk/Desktop/devel/tee-tpm-hyp/optee_os/lib/libmbedtls/mbedtls/library/bignum.c:2439 (discriminator 1)
    5474:	9903      	ldr	r1, [sp, #12]
    5476:	4648      	mov	r0, r9
    5478:	f7fe fb26 	bl	3ac8 <mbedtls_mpi_cmp_mpi>
/home/hsk/Desktop/devel/tee-tpm-hyp/optee_os/lib/libmbedtls/mbedtls/library/bignum.c:2438 (discriminator 1)
    547c:	2800      	cmp	r0, #0
    547e:	d1bc      	bne.n	53fa <mbedtls_mpi_self_test+0xbe>
/home/hsk/Desktop/devel/tee-tpm-hyp/optee_os/lib/libmbedtls/mbedtls/library/bignum.c:2448
    5480:	b11c      	cbz	r4, 548a <mbedtls_mpi_self_test+0x14e>
/home/hsk/Desktop/devel/tee-tpm-hyp/optee_os/lib/libmbedtls/mbedtls/library/bignum.c:2449
    5482:	486e      	ldr	r0, [pc, #440]	; (563c <mbedtls_mpi_self_test+0x300>)
    5484:	4478      	add	r0, pc
    5486:	f7fb fc17 	bl	cb8 <puts>
/home/hsk/Desktop/devel/tee-tpm-hyp/optee_os/lib/libmbedtls/mbedtls/library/bignum.c:2451
    548a:	2300      	movs	r3, #0
    548c:	465a      	mov	r2, fp
    548e:	9300      	str	r3, [sp, #0]
    5490:	4639      	mov	r1, r7
    5492:	4643      	mov	r3, r8
    5494:	4628      	mov	r0, r5
    5496:	f7ff f949 	bl	472c <mbedtls_mpi_exp_mod>
    549a:	4603      	mov	r3, r0
    549c:	2800      	cmp	r0, #0
    549e:	f040 809c 	bne.w	55da <mbedtls_mpi_self_test+0x29e>
/home/hsk/Desktop/devel/tee-tpm-hyp/optee_os/lib/libmbedtls/mbedtls/library/bignum.c:2453
    54a2:	4a67      	ldr	r2, [pc, #412]	; (5640 <mbedtls_mpi_self_test+0x304>)
    54a4:	2110      	movs	r1, #16
    54a6:	4630      	mov	r0, r6
    54a8:	447a      	add	r2, pc
    54aa:	f7fe fcfa 	bl	3ea2 <mbedtls_mpi_read_string>
    54ae:	4603      	mov	r3, r0
    54b0:	2800      	cmp	r0, #0
    54b2:	f040 8092 	bne.w	55da <mbedtls_mpi_self_test+0x29e>
/home/hsk/Desktop/devel/tee-tpm-hyp/optee_os/lib/libmbedtls/mbedtls/library/bignum.c:2458
    54b6:	b11c      	cbz	r4, 54c0 <mbedtls_mpi_self_test+0x184>
/home/hsk/Desktop/devel/tee-tpm-hyp/optee_os/lib/libmbedtls/mbedtls/library/bignum.c:2459
    54b8:	4862      	ldr	r0, [pc, #392]	; (5644 <mbedtls_mpi_self_test+0x308>)
    54ba:	4478      	add	r0, pc
    54bc:	f7fb fbdf 	bl	c7e <printf>
/home/hsk/Desktop/devel/tee-tpm-hyp/optee_os/lib/libmbedtls/mbedtls/library/bignum.c:2461
    54c0:	4631      	mov	r1, r6
    54c2:	4628      	mov	r0, r5
    54c4:	f7fe fb00 	bl	3ac8 <mbedtls_mpi_cmp_mpi>
    54c8:	2800      	cmp	r0, #0
    54ca:	d196      	bne.n	53fa <mbedtls_mpi_self_test+0xbe>
/home/hsk/Desktop/devel/tee-tpm-hyp/optee_os/lib/libmbedtls/mbedtls/library/bignum.c:2470
    54cc:	b11c      	cbz	r4, 54d6 <mbedtls_mpi_self_test+0x19a>
/home/hsk/Desktop/devel/tee-tpm-hyp/optee_os/lib/libmbedtls/mbedtls/library/bignum.c:2471
    54ce:	485e      	ldr	r0, [pc, #376]	; (5648 <mbedtls_mpi_self_test+0x30c>)
    54d0:	4478      	add	r0, pc
    54d2:	f7fb fbf1 	bl	cb8 <puts>
/home/hsk/Desktop/devel/tee-tpm-hyp/optee_os/lib/libmbedtls/mbedtls/library/bignum.c:2473
    54d6:	4642      	mov	r2, r8
    54d8:	4639      	mov	r1, r7
    54da:	4628      	mov	r0, r5
    54dc:	f7ff fcfe 	bl	4edc <mbedtls_mpi_inv_mod>
    54e0:	4603      	mov	r3, r0
    54e2:	2800      	cmp	r0, #0
    54e4:	d179      	bne.n	55da <mbedtls_mpi_self_test+0x29e>
/home/hsk/Desktop/devel/tee-tpm-hyp/optee_os/lib/libmbedtls/mbedtls/library/bignum.c:2475
    54e6:	4a59      	ldr	r2, [pc, #356]	; (564c <mbedtls_mpi_self_test+0x310>)
    54e8:	2110      	movs	r1, #16
    54ea:	4630      	mov	r0, r6
    54ec:	447a      	add	r2, pc
    54ee:	f7fe fcd8 	bl	3ea2 <mbedtls_mpi_read_string>
    54f2:	4603      	mov	r3, r0
    54f4:	2800      	cmp	r0, #0
    54f6:	d170      	bne.n	55da <mbedtls_mpi_self_test+0x29e>
/home/hsk/Desktop/devel/tee-tpm-hyp/optee_os/lib/libmbedtls/mbedtls/library/bignum.c:2480
    54f8:	b11c      	cbz	r4, 5502 <mbedtls_mpi_self_test+0x1c6>
/home/hsk/Desktop/devel/tee-tpm-hyp/optee_os/lib/libmbedtls/mbedtls/library/bignum.c:2481
    54fa:	4855      	ldr	r0, [pc, #340]	; (5650 <mbedtls_mpi_self_test+0x314>)
    54fc:	4478      	add	r0, pc
    54fe:	f7fb fbbe 	bl	c7e <printf>
/home/hsk/Desktop/devel/tee-tpm-hyp/optee_os/lib/libmbedtls/mbedtls/library/bignum.c:2483
    5502:	4631      	mov	r1, r6
    5504:	4628      	mov	r0, r5
    5506:	f7fe fadf 	bl	3ac8 <mbedtls_mpi_cmp_mpi>
    550a:	9002      	str	r0, [sp, #8]
    550c:	2800      	cmp	r0, #0
    550e:	f47f af74 	bne.w	53fa <mbedtls_mpi_self_test+0xbe>
/home/hsk/Desktop/devel/tee-tpm-hyp/optee_os/lib/libmbedtls/mbedtls/library/bignum.c:2492
    5512:	b13c      	cbz	r4, 5524 <mbedtls_mpi_self_test+0x1e8>
/home/hsk/Desktop/devel/tee-tpm-hyp/optee_os/lib/libmbedtls/mbedtls/library/bignum.c:2493
    5514:	484f      	ldr	r0, [pc, #316]	; (5654 <mbedtls_mpi_self_test+0x318>)
    5516:	4478      	add	r0, pc
    5518:	f7fb fbce 	bl	cb8 <puts>
/home/hsk/Desktop/devel/tee-tpm-hyp/optee_os/lib/libmbedtls/mbedtls/library/bignum.c:2496
    551c:	484e      	ldr	r0, [pc, #312]	; (5658 <mbedtls_mpi_self_test+0x31c>)
    551e:	4478      	add	r0, pc
    5520:	f7fb fbad 	bl	c7e <printf>
    5524:	f8df a134 	ldr.w	sl, [pc, #308]	; 565c <mbedtls_mpi_self_test+0x320>
    5528:	44fa      	add	sl, pc
    552a:	f50a 7a28 	add.w	sl, sl, #672	; 0x2a0
/home/hsk/Desktop/devel/tee-tpm-hyp/optee_os/lib/libmbedtls/mbedtls/library/bignum.c:2500
    552e:	f8da 1000 	ldr.w	r1, [sl]
    5532:	4628      	mov	r0, r5
    5534:	f7fe f923 	bl	377e <mbedtls_mpi_lset>
    5538:	4603      	mov	r3, r0
    553a:	2800      	cmp	r0, #0
    553c:	d14d      	bne.n	55da <mbedtls_mpi_self_test+0x29e>
/home/hsk/Desktop/devel/tee-tpm-hyp/optee_os/lib/libmbedtls/mbedtls/library/bignum.c:2501
    553e:	f8da 1004 	ldr.w	r1, [sl, #4]
    5542:	4648      	mov	r0, r9
    5544:	f7fe f91b 	bl	377e <mbedtls_mpi_lset>
    5548:	4603      	mov	r3, r0
    554a:	2800      	cmp	r0, #0
    554c:	d145      	bne.n	55da <mbedtls_mpi_self_test+0x29e>
/home/hsk/Desktop/devel/tee-tpm-hyp/optee_os/lib/libmbedtls/mbedtls/library/bignum.c:2503
    554e:	464a      	mov	r2, r9
    5550:	4629      	mov	r1, r5
    5552:	4638      	mov	r0, r7
    5554:	f7ff fb14 	bl	4b80 <mbedtls_mpi_gcd>
    5558:	4603      	mov	r3, r0
    555a:	2800      	cmp	r0, #0
    555c:	d13d      	bne.n	55da <mbedtls_mpi_self_test+0x29e>
/home/hsk/Desktop/devel/tee-tpm-hyp/optee_os/lib/libmbedtls/mbedtls/library/bignum.c:2505
    555e:	f8da 1008 	ldr.w	r1, [sl, #8]
    5562:	4638      	mov	r0, r7
    5564:	f7fe faf9 	bl	3b5a <mbedtls_mpi_cmp_int>
    5568:	b138      	cbz	r0, 557a <mbedtls_mpi_self_test+0x23e>
/home/hsk/Desktop/devel/tee-tpm-hyp/optee_os/lib/libmbedtls/mbedtls/library/bignum.c:2507
    556a:	2c00      	cmp	r4, #0
    556c:	d038      	beq.n	55e0 <mbedtls_mpi_self_test+0x2a4>
/home/hsk/Desktop/devel/tee-tpm-hyp/optee_os/lib/libmbedtls/mbedtls/library/bignum.c:2508
    556e:	483c      	ldr	r0, [pc, #240]	; (5660 <mbedtls_mpi_self_test+0x324>)
    5570:	9902      	ldr	r1, [sp, #8]
    5572:	4478      	add	r0, pc
    5574:	f7fb fb83 	bl	c7e <printf>
    5578:	e746      	b.n	5408 <mbedtls_mpi_self_test+0xcc>
/home/hsk/Desktop/devel/tee-tpm-hyp/optee_os/lib/libmbedtls/mbedtls/library/bignum.c:2498 (discriminator 2)
    557a:	9a02      	ldr	r2, [sp, #8]
    557c:	f10a 0a0c 	add.w	sl, sl, #12
    5580:	3201      	adds	r2, #1
    5582:	9202      	str	r2, [sp, #8]
    5584:	2a03      	cmp	r2, #3
    5586:	d1d2      	bne.n	552e <mbedtls_mpi_self_test+0x1f2>
/home/hsk/Desktop/devel/tee-tpm-hyp/optee_os/lib/libmbedtls/mbedtls/library/bignum.c:2515
    5588:	b32c      	cbz	r4, 55d6 <mbedtls_mpi_self_test+0x29a>
    558a:	9002      	str	r0, [sp, #8]
/home/hsk/Desktop/devel/tee-tpm-hyp/optee_os/lib/libmbedtls/mbedtls/library/bignum.c:2516
    558c:	4835      	ldr	r0, [pc, #212]	; (5664 <mbedtls_mpi_self_test+0x328>)
    558e:	4478      	add	r0, pc
    5590:	f7fb fb92 	bl	cb8 <puts>
    5594:	9b02      	ldr	r3, [sp, #8]
/home/hsk/Desktop/devel/tee-tpm-hyp/optee_os/lib/libmbedtls/mbedtls/library/bignum.c:2523
    5596:	4638      	mov	r0, r7
    5598:	9302      	str	r3, [sp, #8]
    559a:	f7fd ff54 	bl	3446 <mbedtls_mpi_free>
    559e:	4658      	mov	r0, fp
    55a0:	f7fd ff51 	bl	3446 <mbedtls_mpi_free>
    55a4:	4640      	mov	r0, r8
    55a6:	f7fd ff4e 	bl	3446 <mbedtls_mpi_free>
    55aa:	4628      	mov	r0, r5
    55ac:	f7fd ff4b 	bl	3446 <mbedtls_mpi_free>
/home/hsk/Desktop/devel/tee-tpm-hyp/optee_os/lib/libmbedtls/mbedtls/library/bignum.c:2524
    55b0:	4648      	mov	r0, r9
    55b2:	f7fd ff48 	bl	3446 <mbedtls_mpi_free>
    55b6:	4630      	mov	r0, r6
    55b8:	f7fd ff45 	bl	3446 <mbedtls_mpi_free>
    55bc:	a817      	add	r0, sp, #92	; 0x5c
    55be:	f7fd ff42 	bl	3446 <mbedtls_mpi_free>
/home/hsk/Desktop/devel/tee-tpm-hyp/optee_os/lib/libmbedtls/mbedtls/library/bignum.c:2526
    55c2:	9b02      	ldr	r3, [sp, #8]
    55c4:	b11c      	cbz	r4, 55ce <mbedtls_mpi_self_test+0x292>
/home/hsk/Desktop/devel/tee-tpm-hyp/optee_os/lib/libmbedtls/mbedtls/library/bignum.c:2527
    55c6:	200a      	movs	r0, #10
    55c8:	f7fb fb88 	bl	cdc <putchar>
/home/hsk/Desktop/devel/tee-tpm-hyp/optee_os/lib/libmbedtls/mbedtls/library/bignum.c:2529
    55cc:	9b02      	ldr	r3, [sp, #8]
/home/hsk/Desktop/devel/tee-tpm-hyp/optee_os/lib/libmbedtls/mbedtls/library/bignum.c:2530
    55ce:	4618      	mov	r0, r3
    55d0:	b01b      	add	sp, #108	; 0x6c
    55d2:	e8bd 8ff0 	ldmia.w	sp!, {r4, r5, r6, r7, r8, r9, sl, fp, pc}
/home/hsk/Desktop/devel/tee-tpm-hyp/optee_os/lib/libmbedtls/mbedtls/library/bignum.c:2518
    55d6:	4623      	mov	r3, r4
    55d8:	e7dd      	b.n	5596 <mbedtls_mpi_self_test+0x25a>
/home/hsk/Desktop/devel/tee-tpm-hyp/optee_os/lib/libmbedtls/mbedtls/library/bignum.c:2520
    55da:	2c00      	cmp	r4, #0
    55dc:	d0db      	beq.n	5596 <mbedtls_mpi_self_test+0x25a>
    55de:	e714      	b.n	540a <mbedtls_mpi_self_test+0xce>
/home/hsk/Desktop/devel/tee-tpm-hyp/optee_os/lib/libmbedtls/mbedtls/library/bignum.c:2523
    55e0:	4638      	mov	r0, r7
    55e2:	f7fd ff30 	bl	3446 <mbedtls_mpi_free>
    55e6:	4658      	mov	r0, fp
    55e8:	f7fd ff2d 	bl	3446 <mbedtls_mpi_free>
    55ec:	4640      	mov	r0, r8
    55ee:	f7fd ff2a 	bl	3446 <mbedtls_mpi_free>
    55f2:	4628      	mov	r0, r5
    55f4:	f7fd ff27 	bl	3446 <mbedtls_mpi_free>
/home/hsk/Desktop/devel/tee-tpm-hyp/optee_os/lib/libmbedtls/mbedtls/library/bignum.c:2524
    55f8:	4648      	mov	r0, r9
    55fa:	f7fd ff24 	bl	3446 <mbedtls_mpi_free>
    55fe:	4630      	mov	r0, r6
    5600:	f7fd ff21 	bl	3446 <mbedtls_mpi_free>
    5604:	9803      	ldr	r0, [sp, #12]
    5606:	f7fd ff1e 	bl	3446 <mbedtls_mpi_free>
    560a:	2301      	movs	r3, #1
    560c:	e7df      	b.n	55ce <mbedtls_mpi_self_test+0x292>
    560e:	bf00      	nop
    5610:	00001aa6 	.word	0x00001aa6
    5614:	00001b13 	.word	0x00001b13
    5618:	00001b80 	.word	0x00001b80
    561c:	00001bbb 	.word	0x00001bbb
    5620:	00001c88 	.word	0x00001c88
    5624:	00001c86 	.word	0x00001c86
    5628:	00001e42 	.word	0x00001e42
    562c:	00001c73 	.word	0x00001c73
    5630:	00001c5a 	.word	0x00001c5a
    5634:	00001c6a 	.word	0x00001c6a
    5638:	00001cb7 	.word	0x00001cb7
    563c:	00001c0b 	.word	0x00001c0b
    5640:	00001c8b 	.word	0x00001c8b
    5644:	00001cd8 	.word	0x00001cd8
    5648:	00001bbf 	.word	0x00001bbf
    564c:	00001cc0 	.word	0x00001cc0
    5650:	00001d11 	.word	0x00001d11
    5654:	00001b79 	.word	0x00001b79
    5658:	00001d09 	.word	0x00001d09
    565c:	00001108 	.word	0x00001108
    5660:	00001cd2 	.word	0x00001cd2
    5664:	00001b01 	.word	0x00001b01

00005668 <raw_malloc_return_hook.isra.3>:
raw_malloc_return_hook():
/home/hsk/Desktop/devel/tee-tpm-hyp/optee_os/lib/libutils/isoc/bget_malloc.c:167
    5668:	4b09      	ldr	r3, [pc, #36]	; (5690 <raw_malloc_return_hook.isra.3+0x28>)
/home/hsk/Desktop/devel/tee-tpm-hyp/optee_os/lib/libutils/isoc/bget_malloc.c:164
    566a:	b510      	push	{r4, lr}
/home/hsk/Desktop/devel/tee-tpm-hyp/optee_os/lib/libutils/isoc/bget_malloc.c:167
    566c:	447b      	add	r3, pc
    566e:	6a5c      	ldr	r4, [r3, #36]	; 0x24
    5670:	42a2      	cmp	r2, r4
    5672:	d900      	bls.n	5676 <raw_malloc_return_hook.isra.3+0xe>
/home/hsk/Desktop/devel/tee-tpm-hyp/optee_os/lib/libutils/isoc/bget_malloc.c:168
    5674:	625a      	str	r2, [r3, #36]	; 0x24
/home/hsk/Desktop/devel/tee-tpm-hyp/optee_os/lib/libutils/isoc/bget_malloc.c:170
    5676:	b948      	cbnz	r0, 568c <raw_malloc_return_hook.isra.3+0x24>
/home/hsk/Desktop/devel/tee-tpm-hyp/optee_os/lib/libutils/isoc/bget_malloc.c:171
    5678:	4b06      	ldr	r3, [pc, #24]	; (5694 <raw_malloc_return_hook.isra.3+0x2c>)
    567a:	447b      	add	r3, pc
    567c:	6ad8      	ldr	r0, [r3, #44]	; 0x2c
    567e:	3001      	adds	r0, #1
    5680:	62d8      	str	r0, [r3, #44]	; 0x2c
/home/hsk/Desktop/devel/tee-tpm-hyp/optee_os/lib/libutils/isoc/bget_malloc.c:172
    5682:	6b18      	ldr	r0, [r3, #48]	; 0x30
    5684:	4288      	cmp	r0, r1
    5686:	d201      	bcs.n	568c <raw_malloc_return_hook.isra.3+0x24>
/home/hsk/Desktop/devel/tee-tpm-hyp/optee_os/lib/libutils/isoc/bget_malloc.c:173
    5688:	6319      	str	r1, [r3, #48]	; 0x30
/home/hsk/Desktop/devel/tee-tpm-hyp/optee_os/lib/libutils/isoc/bget_malloc.c:174
    568a:	635a      	str	r2, [r3, #52]	; 0x34
/home/hsk/Desktop/devel/tee-tpm-hyp/optee_os/lib/libutils/isoc/bget_malloc.c:177
    568c:	bd10      	pop	{r4, pc}
    568e:	bf00      	nop
    5690:	00005a58 	.word	0x00005a58
    5694:	00005a4a 	.word	0x00005a4a

00005698 <create_free_block.constprop.11>:
create_free_block():
/home/hsk/Desktop/devel/tee-tpm-hyp/optee_os/lib/libutils/isoc/bget_malloc.c:380
    5698:	b508      	push	{r3, lr}
/home/hsk/Desktop/devel/tee-tpm-hyp/optee_os/lib/libutils/isoc/bget_malloc.c:383
    569a:	1843      	adds	r3, r0, r1
    569c:	4293      	cmp	r3, r2
    569e:	d00b      	beq.n	56b8 <create_free_block.constprop.11+0x20>
    56a0:	4b23      	ldr	r3, [pc, #140]	; (5730 <create_free_block.constprop.11+0x98>)
    56a2:	f240 127f 	movw	r2, #383	; 0x17f
    56a6:	4923      	ldr	r1, [pc, #140]	; (5734 <create_free_block.constprop.11+0x9c>)
    56a8:	4823      	ldr	r0, [pc, #140]	; (5738 <create_free_block.constprop.11+0xa0>)
    56aa:	447b      	add	r3, pc
    56ac:	4479      	add	r1, pc
    56ae:	4478      	add	r0, pc
/home/hsk/Desktop/devel/tee-tpm-hyp/optee_os/lib/libutils/isoc/bget_malloc.c:384
    56b0:	f000 fe58 	bl	6364 <_assert_log>
    56b4:	f000 fe6a 	bl	638c <_assert_break>
    56b8:	685b      	ldr	r3, [r3, #4]
    56ba:	2b00      	cmp	r3, #0
    56bc:	db08      	blt.n	56d0 <create_free_block.constprop.11+0x38>
    56be:	4b1f      	ldr	r3, [pc, #124]	; (573c <create_free_block.constprop.11+0xa4>)
    56c0:	f44f 72c0 	mov.w	r2, #384	; 0x180
    56c4:	491e      	ldr	r1, [pc, #120]	; (5740 <create_free_block.constprop.11+0xa8>)
    56c6:	481f      	ldr	r0, [pc, #124]	; (5744 <create_free_block.constprop.11+0xac>)
    56c8:	447b      	add	r3, pc
    56ca:	4479      	add	r1, pc
    56cc:	4478      	add	r0, pc
    56ce:	e7ef      	b.n	56b0 <create_free_block.constprop.11+0x18>
/home/hsk/Desktop/devel/tee-tpm-hyp/optee_os/lib/libutils/isoc/bget_malloc.c:386
    56d0:	5843      	ldr	r3, [r0, r1]
    56d2:	b143      	cbz	r3, 56e6 <create_free_block.constprop.11+0x4e>
    56d4:	4b1c      	ldr	r3, [pc, #112]	; (5748 <create_free_block.constprop.11+0xb0>)
    56d6:	f44f 72c1 	mov.w	r2, #386	; 0x182
    56da:	491c      	ldr	r1, [pc, #112]	; (574c <create_free_block.constprop.11+0xb4>)
    56dc:	481c      	ldr	r0, [pc, #112]	; (5750 <create_free_block.constprop.11+0xb8>)
    56de:	447b      	add	r3, pc
    56e0:	4479      	add	r1, pc
    56e2:	4478      	add	r0, pc
    56e4:	e7e4      	b.n	56b0 <create_free_block.constprop.11+0x18>
/home/hsk/Desktop/devel/tee-tpm-hyp/optee_os/lib/libutils/isoc/bget_malloc.c:390
    56e6:	6003      	str	r3, [r0, #0]
/home/hsk/Desktop/devel/tee-tpm-hyp/optee_os/lib/libutils/isoc/bget_malloc.c:396
    56e8:	4b1a      	ldr	r3, [pc, #104]	; (5754 <create_free_block.constprop.11+0xbc>)
/home/hsk/Desktop/devel/tee-tpm-hyp/optee_os/lib/libutils/isoc/bget_malloc.c:389
    56ea:	6041      	str	r1, [r0, #4]
/home/hsk/Desktop/devel/tee-tpm-hyp/optee_os/lib/libutils/isoc/bget_malloc.c:396
    56ec:	447b      	add	r3, pc
/home/hsk/Desktop/devel/tee-tpm-hyp/optee_os/lib/libutils/isoc/bget_malloc.c:393
    56ee:	5041      	str	r1, [r0, r1]
/home/hsk/Desktop/devel/tee-tpm-hyp/optee_os/lib/libutils/isoc/bget_malloc.c:396
    56f0:	68d9      	ldr	r1, [r3, #12]
    56f2:	688a      	ldr	r2, [r1, #8]
    56f4:	429a      	cmp	r2, r3
    56f6:	d008      	beq.n	570a <create_free_block.constprop.11+0x72>
    56f8:	4b17      	ldr	r3, [pc, #92]	; (5758 <create_free_block.constprop.11+0xc0>)
    56fa:	f44f 72c6 	mov.w	r2, #396	; 0x18c
    56fe:	4917      	ldr	r1, [pc, #92]	; (575c <create_free_block.constprop.11+0xc4>)
    5700:	4817      	ldr	r0, [pc, #92]	; (5760 <create_free_block.constprop.11+0xc8>)
    5702:	447b      	add	r3, pc
    5704:	4479      	add	r1, pc
    5706:	4478      	add	r0, pc
    5708:	e7d2      	b.n	56b0 <create_free_block.constprop.11+0x18>
/home/hsk/Desktop/devel/tee-tpm-hyp/optee_os/lib/libutils/isoc/bget_malloc.c:397
    570a:	6893      	ldr	r3, [r2, #8]
    570c:	68db      	ldr	r3, [r3, #12]
    570e:	4293      	cmp	r3, r2
    5710:	d008      	beq.n	5724 <create_free_block.constprop.11+0x8c>
    5712:	4b14      	ldr	r3, [pc, #80]	; (5764 <create_free_block.constprop.11+0xcc>)
    5714:	f240 128d 	movw	r2, #397	; 0x18d
    5718:	4913      	ldr	r1, [pc, #76]	; (5768 <create_free_block.constprop.11+0xd0>)
    571a:	4814      	ldr	r0, [pc, #80]	; (576c <create_free_block.constprop.11+0xd4>)
    571c:	447b      	add	r3, pc
    571e:	4479      	add	r1, pc
    5720:	4478      	add	r0, pc
    5722:	e7c5      	b.n	56b0 <create_free_block.constprop.11+0x18>
/home/hsk/Desktop/devel/tee-tpm-hyp/optee_os/lib/libutils/isoc/bget_malloc.c:398
    5724:	6083      	str	r3, [r0, #8]
/home/hsk/Desktop/devel/tee-tpm-hyp/optee_os/lib/libutils/isoc/bget_malloc.c:399
    5726:	60c1      	str	r1, [r0, #12]
/home/hsk/Desktop/devel/tee-tpm-hyp/optee_os/lib/libutils/isoc/bget_malloc.c:400
    5728:	60d8      	str	r0, [r3, #12]
/home/hsk/Desktop/devel/tee-tpm-hyp/optee_os/lib/libutils/isoc/bget_malloc.c:401
    572a:	68c3      	ldr	r3, [r0, #12]
    572c:	6098      	str	r0, [r3, #8]
/home/hsk/Desktop/devel/tee-tpm-hyp/optee_os/lib/libutils/isoc/bget_malloc.c:402
    572e:	bd08      	pop	{r3, pc}
    5730:	00001bce 	.word	0x00001bce
    5734:	00001c56 	.word	0x00001c56
    5738:	00001c74 	.word	0x00001c74
    573c:	00001bb0 	.word	0x00001bb0
    5740:	00001c38 	.word	0x00001c38
    5744:	00001c72 	.word	0x00001c72
    5748:	00001b9a 	.word	0x00001b9a
    574c:	00001c22 	.word	0x00001c22
    5750:	00001c6a 	.word	0x00001c6a
    5754:	0000398c 	.word	0x0000398c
    5758:	00001b76 	.word	0x00001b76
    575c:	00001bfe 	.word	0x00001bfe
    5760:	00001c58 	.word	0x00001c58
    5764:	00001b5c 	.word	0x00001b5c
    5768:	00001be4 	.word	0x00001be4
    576c:	00001c79 	.word	0x00001c79

00005770 <bget>:
bget():
/home/hsk/Desktop/devel/tee-tpm-hyp/optee_os/lib/libutils/isoc/bget.c:582
    5770:	b570      	push	{r4, r5, r6, lr}
/home/hsk/Desktop/devel/tee-tpm-hyp/optee_os/lib/libutils/isoc/bget.c:593
    5772:	1e03      	subs	r3, r0, #0
    5774:	dc0c      	bgt.n	5790 <bget+0x20>
/home/hsk/Desktop/devel/tee-tpm-hyp/optee_os/lib/libutils/isoc/bget.c:593 (discriminator 1)
    5776:	4b3c      	ldr	r3, [pc, #240]	; (5868 <bget+0xf8>)
    5778:	f240 2251 	movw	r2, #593	; 0x251
    577c:	493b      	ldr	r1, [pc, #236]	; (586c <bget+0xfc>)
    577e:	483c      	ldr	r0, [pc, #240]	; (5870 <bget+0x100>)
    5780:	447b      	add	r3, pc
    5782:	3312      	adds	r3, #18
    5784:	4479      	add	r1, pc
    5786:	4478      	add	r0, pc
/home/hsk/Desktop/devel/tee-tpm-hyp/optee_os/lib/libutils/isoc/bget.c:653 (discriminator 1)
    5788:	f000 fdec 	bl	6364 <_assert_log>
    578c:	f000 fdfe 	bl	638c <_assert_break>
/home/hsk/Desktop/devel/tee-tpm-hyp/optee_os/lib/libutils/isoc/bget.c:600
    5790:	2b08      	cmp	r3, #8
/home/hsk/Desktop/devel/tee-tpm-hyp/optee_os/lib/libutils/isoc/bget.c:614
    5792:	6888      	ldr	r0, [r1, #8]
/home/hsk/Desktop/devel/tee-tpm-hyp/optee_os/lib/libutils/isoc/bget.c:600
    5794:	bfb8      	it	lt
    5796:	2308      	movlt	r3, #8
    5798:	3307      	adds	r3, #7
    579a:	f023 0307 	bic.w	r3, r3, #7
/home/hsk/Desktop/devel/tee-tpm-hyp/optee_os/lib/libutils/isoc/bget.c:604
    579e:	3308      	adds	r3, #8
/home/hsk/Desktop/devel/tee-tpm-hyp/optee_os/lib/libutils/isoc/bget.c:636
    57a0:	4281      	cmp	r1, r0
    57a2:	d101      	bne.n	57a8 <bget+0x38>
/home/hsk/Desktop/devel/tee-tpm-hyp/optee_os/lib/libutils/isoc/bget.c:764
    57a4:	2000      	movs	r0, #0
    57a6:	e021      	b.n	57ec <bget+0x7c>
/home/hsk/Desktop/devel/tee-tpm-hyp/optee_os/lib/libutils/isoc/bget.c:637
    57a8:	6842      	ldr	r2, [r0, #4]
    57aa:	429a      	cmp	r2, r3
    57ac:	db59      	blt.n	5862 <bget+0xf2>
/home/hsk/Desktop/devel/tee-tpm-hyp/optee_os/lib/libutils/isoc/bget.c:648
    57ae:	1ad4      	subs	r4, r2, r3
    57b0:	2c10      	cmp	r4, #16
    57b2:	dd1c      	ble.n	57ee <bget+0x7e>
/home/hsk/Desktop/devel/tee-tpm-hyp/optee_os/lib/libutils/isoc/bget.c:651
    57b4:	1905      	adds	r5, r0, r4
/home/hsk/Desktop/devel/tee-tpm-hyp/optee_os/lib/libutils/isoc/bget.c:653
    57b6:	58ee      	ldr	r6, [r5, r3]
    57b8:	42b2      	cmp	r2, r6
    57ba:	d009      	beq.n	57d0 <bget+0x60>
/home/hsk/Desktop/devel/tee-tpm-hyp/optee_os/lib/libutils/isoc/bget.c:653 (discriminator 1)
    57bc:	4b2d      	ldr	r3, [pc, #180]	; (5874 <bget+0x104>)
    57be:	f240 228d 	movw	r2, #653	; 0x28d
    57c2:	492d      	ldr	r1, [pc, #180]	; (5878 <bget+0x108>)
    57c4:	482d      	ldr	r0, [pc, #180]	; (587c <bget+0x10c>)
    57c6:	447b      	add	r3, pc
    57c8:	3312      	adds	r3, #18
    57ca:	4479      	add	r1, pc
    57cc:	4478      	add	r0, pc
    57ce:	e7db      	b.n	5788 <bget+0x18>
/home/hsk/Desktop/devel/tee-tpm-hyp/optee_os/lib/libutils/isoc/bget.c:655
    57d0:	6044      	str	r4, [r0, #4]
/home/hsk/Desktop/devel/tee-tpm-hyp/optee_os/lib/libutils/isoc/bget.c:659
    57d2:	425a      	negs	r2, r3
/home/hsk/Desktop/devel/tee-tpm-hyp/optee_os/lib/libutils/isoc/bget.c:657
    57d4:	5104      	str	r4, [r0, r4]
/home/hsk/Desktop/devel/tee-tpm-hyp/optee_os/lib/libutils/isoc/bget.c:667
    57d6:	f105 0008 	add.w	r0, r5, #8
/home/hsk/Desktop/devel/tee-tpm-hyp/optee_os/lib/libutils/isoc/bget.c:659
    57da:	606a      	str	r2, [r5, #4]
/home/hsk/Desktop/devel/tee-tpm-hyp/optee_os/lib/libutils/isoc/bget.c:661
    57dc:	2200      	movs	r2, #0
    57de:	50ea      	str	r2, [r5, r3]
/home/hsk/Desktop/devel/tee-tpm-hyp/optee_os/lib/libutils/isoc/bget.c:664
    57e0:	690a      	ldr	r2, [r1, #16]
    57e2:	4413      	add	r3, r2
    57e4:	610b      	str	r3, [r1, #16]
/home/hsk/Desktop/devel/tee-tpm-hyp/optee_os/lib/libutils/isoc/bget.c:665
    57e6:	694b      	ldr	r3, [r1, #20]
    57e8:	3301      	adds	r3, #1
    57ea:	614b      	str	r3, [r1, #20]
/home/hsk/Desktop/devel/tee-tpm-hyp/optee_os/lib/libutils/isoc/bget.c:765
    57ec:	bd70      	pop	{r4, r5, r6, pc}
/home/hsk/Desktop/devel/tee-tpm-hyp/optee_os/lib/libutils/isoc/bget.c:674
    57ee:	5883      	ldr	r3, [r0, r2]
/home/hsk/Desktop/devel/tee-tpm-hyp/optee_os/lib/libutils/isoc/bget.c:673
    57f0:	1885      	adds	r5, r0, r2
/home/hsk/Desktop/devel/tee-tpm-hyp/optee_os/lib/libutils/isoc/bget.c:674
    57f2:	429a      	cmp	r2, r3
    57f4:	d009      	beq.n	580a <bget+0x9a>
/home/hsk/Desktop/devel/tee-tpm-hyp/optee_os/lib/libutils/isoc/bget.c:674 (discriminator 1)
    57f6:	4b22      	ldr	r3, [pc, #136]	; (5880 <bget+0x110>)
    57f8:	f240 22a2 	movw	r2, #674	; 0x2a2
    57fc:	4921      	ldr	r1, [pc, #132]	; (5884 <bget+0x114>)
    57fe:	4822      	ldr	r0, [pc, #136]	; (5888 <bget+0x118>)
    5800:	447b      	add	r3, pc
    5802:	3312      	adds	r3, #18
    5804:	4479      	add	r1, pc
    5806:	4478      	add	r0, pc
    5808:	e7be      	b.n	5788 <bget+0x18>
/home/hsk/Desktop/devel/tee-tpm-hyp/optee_os/lib/libutils/isoc/bget.c:679
    580a:	68c3      	ldr	r3, [r0, #12]
    580c:	689c      	ldr	r4, [r3, #8]
    580e:	4284      	cmp	r4, r0
    5810:	d009      	beq.n	5826 <bget+0xb6>
/home/hsk/Desktop/devel/tee-tpm-hyp/optee_os/lib/libutils/isoc/bget.c:679 (discriminator 1)
    5812:	4b1e      	ldr	r3, [pc, #120]	; (588c <bget+0x11c>)
    5814:	f240 22a7 	movw	r2, #679	; 0x2a7
    5818:	491d      	ldr	r1, [pc, #116]	; (5890 <bget+0x120>)
    581a:	481e      	ldr	r0, [pc, #120]	; (5894 <bget+0x124>)
    581c:	447b      	add	r3, pc
    581e:	3312      	adds	r3, #18
    5820:	4479      	add	r1, pc
    5822:	4478      	add	r0, pc
    5824:	e7b0      	b.n	5788 <bget+0x18>
/home/hsk/Desktop/devel/tee-tpm-hyp/optee_os/lib/libutils/isoc/bget.c:680
    5826:	6884      	ldr	r4, [r0, #8]
    5828:	68e6      	ldr	r6, [r4, #12]
    582a:	4286      	cmp	r6, r0
    582c:	d009      	beq.n	5842 <bget+0xd2>
/home/hsk/Desktop/devel/tee-tpm-hyp/optee_os/lib/libutils/isoc/bget.c:680 (discriminator 1)
    582e:	4b1a      	ldr	r3, [pc, #104]	; (5898 <bget+0x128>)
    5830:	f44f 722a 	mov.w	r2, #680	; 0x2a8
    5834:	4919      	ldr	r1, [pc, #100]	; (589c <bget+0x12c>)
    5836:	481a      	ldr	r0, [pc, #104]	; (58a0 <bget+0x130>)
    5838:	447b      	add	r3, pc
    583a:	3312      	adds	r3, #18
    583c:	4479      	add	r1, pc
    583e:	4478      	add	r0, pc
    5840:	e7a2      	b.n	5788 <bget+0x18>
/home/hsk/Desktop/devel/tee-tpm-hyp/optee_os/lib/libutils/isoc/bget.c:681
    5842:	609c      	str	r4, [r3, #8]
/home/hsk/Desktop/devel/tee-tpm-hyp/optee_os/lib/libutils/isoc/bget.c:696
    5844:	3008      	adds	r0, #8
/home/hsk/Desktop/devel/tee-tpm-hyp/optee_os/lib/libutils/isoc/bget.c:682
    5846:	6804      	ldr	r4, [r0, #0]
    5848:	60e3      	str	r3, [r4, #12]
/home/hsk/Desktop/devel/tee-tpm-hyp/optee_os/lib/libutils/isoc/bget.c:685
    584a:	690b      	ldr	r3, [r1, #16]
    584c:	4413      	add	r3, r2
    584e:	610b      	str	r3, [r1, #16]
/home/hsk/Desktop/devel/tee-tpm-hyp/optee_os/lib/libutils/isoc/bget.c:686
    5850:	694b      	ldr	r3, [r1, #20]
/home/hsk/Desktop/devel/tee-tpm-hyp/optee_os/lib/libutils/isoc/bget.c:689
    5852:	4252      	negs	r2, r2
/home/hsk/Desktop/devel/tee-tpm-hyp/optee_os/lib/libutils/isoc/bget.c:686
    5854:	3301      	adds	r3, #1
    5856:	614b      	str	r3, [r1, #20]
/home/hsk/Desktop/devel/tee-tpm-hyp/optee_os/lib/libutils/isoc/bget.c:689
    5858:	f840 2c04 	str.w	r2, [r0, #-4]
/home/hsk/Desktop/devel/tee-tpm-hyp/optee_os/lib/libutils/isoc/bget.c:693
    585c:	2300      	movs	r3, #0
    585e:	602b      	str	r3, [r5, #0]
/home/hsk/Desktop/devel/tee-tpm-hyp/optee_os/lib/libutils/isoc/bget.c:698
    5860:	e7c4      	b.n	57ec <bget+0x7c>
/home/hsk/Desktop/devel/tee-tpm-hyp/optee_os/lib/libutils/isoc/bget.c:701
    5862:	6880      	ldr	r0, [r0, #8]
    5864:	e79c      	b.n	57a0 <bget+0x30>
    5866:	bf00      	nop
    5868:	00001af8 	.word	0x00001af8
    586c:	00001c50 	.word	0x00001c50
    5870:	00001e45 	.word	0x00001e45
    5874:	00001ab2 	.word	0x00001ab2
    5878:	00001c0a 	.word	0x00001c0a
    587c:	00001c21 	.word	0x00001c21
    5880:	00001a78 	.word	0x00001a78
    5884:	00001bd0 	.word	0x00001bd0
    5888:	00001c03 	.word	0x00001c03
    588c:	00001a5c 	.word	0x00001a5c
    5890:	00001bb4 	.word	0x00001bb4
    5894:	00001c03 	.word	0x00001c03
    5898:	00001a40 	.word	0x00001a40
    589c:	00001b98 	.word	0x00001b98
    58a0:	00001c02 	.word	0x00001c02

000058a4 <bgetz>:
bgetz():
/home/hsk/Desktop/devel/tee-tpm-hyp/optee_os/lib/libutils/isoc/bget.c:774
    58a4:	b510      	push	{r4, lr}
    58a6:	4604      	mov	r4, r0
/home/hsk/Desktop/devel/tee-tpm-hyp/optee_os/lib/libutils/isoc/bget.c:775
    58a8:	f7ff ff62 	bl	5770 <bget>
/home/hsk/Desktop/devel/tee-tpm-hyp/optee_os/lib/libutils/isoc/bget.c:777
    58ac:	4603      	mov	r3, r0
    58ae:	b1f8      	cbz	r0, 58f0 <bgetz+0x4c>
/home/hsk/Desktop/devel/tee-tpm-hyp/optee_os/lib/libutils/isoc/bget.c:782
    58b0:	f850 2c04 	ldr.w	r2, [r0, #-4]
/home/hsk/Desktop/devel/tee-tpm-hyp/optee_os/lib/libutils/isoc/bget.c:783
    58b4:	b98a      	cbnz	r2, 58da <bgetz+0x36>
/home/hsk/Desktop/devel/tee-tpm-hyp/optee_os/lib/libutils/isoc/bget.c:787
    58b6:	f850 2c0c 	ldr.w	r2, [r0, #-12]
    58ba:	3a0c      	subs	r2, #12
/home/hsk/Desktop/devel/tee-tpm-hyp/optee_os/lib/libutils/isoc/bget.c:791
    58bc:	42a2      	cmp	r2, r4
    58be:	da12      	bge.n	58e6 <bgetz+0x42>
    58c0:	4b0c      	ldr	r3, [pc, #48]	; (58f4 <bgetz+0x50>)
    58c2:	f240 3217 	movw	r2, #791	; 0x317
    58c6:	490c      	ldr	r1, [pc, #48]	; (58f8 <bgetz+0x54>)
    58c8:	480c      	ldr	r0, [pc, #48]	; (58fc <bgetz+0x58>)
    58ca:	447b      	add	r3, pc
    58cc:	3317      	adds	r3, #23
    58ce:	4479      	add	r1, pc
    58d0:	4478      	add	r0, pc
    58d2:	f000 fd47 	bl	6364 <_assert_log>
    58d6:	f000 fd59 	bl	638c <_assert_break>
/home/hsk/Desktop/devel/tee-tpm-hyp/optee_os/lib/libutils/isoc/bget.c:789
    58da:	f1c2 22ff 	rsb	r2, r2, #4278255360	; 0xff00ff00
    58de:	f502 027f 	add.w	r2, r2, #16711680	; 0xff0000
    58e2:	32f8      	adds	r2, #248	; 0xf8
    58e4:	e7ea      	b.n	58bc <bgetz+0x18>
memset_unchecked():
/home/hsk/Desktop/devel/tee-tpm-hyp/optee_os/lib/libutils/isoc/bget_malloc.c:141
    58e6:	4618      	mov	r0, r3
    58e8:	2100      	movs	r1, #0
    58ea:	f000 fe6c 	bl	65c6 <memset>
    58ee:	4603      	mov	r3, r0
bgetz():
/home/hsk/Desktop/devel/tee-tpm-hyp/optee_os/lib/libutils/isoc/bget.c:795
    58f0:	4618      	mov	r0, r3
    58f2:	bd10      	pop	{r4, pc}
    58f4:	000019ae 	.word	0x000019ae
    58f8:	00001b06 	.word	0x00001b06
    58fc:	00001b8b 	.word	0x00001b8b

00005900 <brel>:
brel():
/home/hsk/Desktop/devel/tee-tpm-hyp/optee_os/lib/libutils/isoc/bget.c:852
    5900:	698a      	ldr	r2, [r1, #24]
/home/hsk/Desktop/devel/tee-tpm-hyp/optee_os/lib/libutils/isoc/bget.c:846
    5902:	b5f8      	push	{r3, r4, r5, r6, r7, lr}
/home/hsk/Desktop/devel/tee-tpm-hyp/optee_os/lib/libutils/isoc/bget.c:850
    5904:	f1a0 0308 	sub.w	r3, r0, #8
/home/hsk/Desktop/devel/tee-tpm-hyp/optee_os/lib/libutils/isoc/bget.c:852
    5908:	3201      	adds	r2, #1
    590a:	618a      	str	r2, [r1, #24]
/home/hsk/Desktop/devel/tee-tpm-hyp/optee_os/lib/libutils/isoc/bget.c:854
    590c:	b960      	cbnz	r0, 5928 <brel+0x28>
/home/hsk/Desktop/devel/tee-tpm-hyp/optee_os/lib/libutils/isoc/bget.c:854 (discriminator 1)
    590e:	4b59      	ldr	r3, [pc, #356]	; (5a74 <brel+0x174>)
    5910:	f240 3256 	movw	r2, #854	; 0x356
    5914:	4958      	ldr	r1, [pc, #352]	; (5a78 <brel+0x178>)
    5916:	4859      	ldr	r0, [pc, #356]	; (5a7c <brel+0x17c>)
    5918:	447b      	add	r3, pc
    591a:	331d      	adds	r3, #29
    591c:	4479      	add	r1, pc
    591e:	4478      	add	r0, pc
/home/hsk/Desktop/devel/tee-tpm-hyp/optee_os/lib/libutils/isoc/bget.c:885 (discriminator 1)
    5920:	f000 fd20 	bl	6364 <_assert_log>
    5924:	f000 fd32 	bl	638c <_assert_break>
/home/hsk/Desktop/devel/tee-tpm-hyp/optee_os/lib/libutils/isoc/bget.c:882
    5928:	f850 2c04 	ldr.w	r2, [r0, #-4]
/home/hsk/Desktop/devel/tee-tpm-hyp/optee_os/lib/libutils/isoc/bget.c:885
    592c:	2a00      	cmp	r2, #0
    592e:	db09      	blt.n	5944 <brel+0x44>
/home/hsk/Desktop/devel/tee-tpm-hyp/optee_os/lib/libutils/isoc/bget.c:885 (discriminator 1)
    5930:	4b53      	ldr	r3, [pc, #332]	; (5a80 <brel+0x180>)
    5932:	f240 3275 	movw	r2, #885	; 0x375
    5936:	4953      	ldr	r1, [pc, #332]	; (5a84 <brel+0x184>)
    5938:	4853      	ldr	r0, [pc, #332]	; (5a88 <brel+0x188>)
    593a:	447b      	add	r3, pc
    593c:	331d      	adds	r3, #29
    593e:	4479      	add	r1, pc
    5940:	4478      	add	r0, pc
    5942:	e7ed      	b.n	5920 <brel+0x20>
/home/hsk/Desktop/devel/tee-tpm-hyp/optee_os/lib/libutils/isoc/bget.c:891
    5944:	1a9c      	subs	r4, r3, r2
    5946:	6824      	ldr	r4, [r4, #0]
    5948:	b14c      	cbz	r4, 595e <brel+0x5e>
/home/hsk/Desktop/devel/tee-tpm-hyp/optee_os/lib/libutils/isoc/bget.c:891 (discriminator 1)
    594a:	4b50      	ldr	r3, [pc, #320]	; (5a8c <brel+0x18c>)
    594c:	f240 327b 	movw	r2, #891	; 0x37b
    5950:	494f      	ldr	r1, [pc, #316]	; (5a90 <brel+0x190>)
    5952:	4850      	ldr	r0, [pc, #320]	; (5a94 <brel+0x194>)
    5954:	447b      	add	r3, pc
    5956:	331d      	adds	r3, #29
    5958:	4479      	add	r1, pc
    595a:	4478      	add	r0, pc
    595c:	e7e0      	b.n	5920 <brel+0x20>
/home/hsk/Desktop/devel/tee-tpm-hyp/optee_os/lib/libutils/isoc/bget.c:894
    595e:	690c      	ldr	r4, [r1, #16]
    5960:	4414      	add	r4, r2
    5962:	610c      	str	r4, [r1, #16]
/home/hsk/Desktop/devel/tee-tpm-hyp/optee_os/lib/libutils/isoc/bget.c:895
    5964:	2c00      	cmp	r4, #0
    5966:	da09      	bge.n	597c <brel+0x7c>
/home/hsk/Desktop/devel/tee-tpm-hyp/optee_os/lib/libutils/isoc/bget.c:895 (discriminator 1)
    5968:	4b4b      	ldr	r3, [pc, #300]	; (5a98 <brel+0x198>)
    596a:	f240 327f 	movw	r2, #895	; 0x37f
    596e:	494b      	ldr	r1, [pc, #300]	; (5a9c <brel+0x19c>)
    5970:	484b      	ldr	r0, [pc, #300]	; (5aa0 <brel+0x1a0>)
    5972:	447b      	add	r3, pc
    5974:	331d      	adds	r3, #29
    5976:	4479      	add	r1, pc
    5978:	4478      	add	r0, pc
    597a:	e7d1      	b.n	5920 <brel+0x20>
/home/hsk/Desktop/devel/tee-tpm-hyp/optee_os/lib/libutils/isoc/bget.c:900
    597c:	f850 4c08 	ldr.w	r4, [r0, #-8]
    5980:	b30c      	cbz	r4, 59c6 <brel+0xc6>
/home/hsk/Desktop/devel/tee-tpm-hyp/optee_os/lib/libutils/isoc/bget.c:911
    5982:	1b1b      	subs	r3, r3, r4
    5984:	6859      	ldr	r1, [r3, #4]
    5986:	428c      	cmp	r4, r1
    5988:	d009      	beq.n	599e <brel+0x9e>
/home/hsk/Desktop/devel/tee-tpm-hyp/optee_os/lib/libutils/isoc/bget.c:911 (discriminator 1)
    598a:	4b46      	ldr	r3, [pc, #280]	; (5aa4 <brel+0x1a4>)
    598c:	f240 328f 	movw	r2, #911	; 0x38f
    5990:	4945      	ldr	r1, [pc, #276]	; (5aa8 <brel+0x1a8>)
    5992:	4846      	ldr	r0, [pc, #280]	; (5aac <brel+0x1ac>)
    5994:	447b      	add	r3, pc
    5996:	331d      	adds	r3, #29
    5998:	4479      	add	r1, pc
    599a:	4478      	add	r0, pc
    599c:	e7c0      	b.n	5920 <brel+0x20>
/home/hsk/Desktop/devel/tee-tpm-hyp/optee_os/lib/libutils/isoc/bget.c:913
    599e:	1aa2      	subs	r2, r4, r2
    59a0:	605a      	str	r2, [r3, #4]
/home/hsk/Desktop/devel/tee-tpm-hyp/optee_os/lib/libutils/isoc/bget.c:933
    59a2:	6859      	ldr	r1, [r3, #4]
    59a4:	185a      	adds	r2, r3, r1
/home/hsk/Desktop/devel/tee-tpm-hyp/optee_os/lib/libutils/isoc/bget.c:934
    59a6:	6850      	ldr	r0, [r2, #4]
    59a8:	2800      	cmp	r0, #0
    59aa:	dd53      	ble.n	5a54 <brel+0x154>
/home/hsk/Desktop/devel/tee-tpm-hyp/optee_os/lib/libutils/isoc/bget.c:939
    59ac:	5814      	ldr	r4, [r2, r0]
    59ae:	42a0      	cmp	r0, r4
    59b0:	d02e      	beq.n	5a10 <brel+0x110>
/home/hsk/Desktop/devel/tee-tpm-hyp/optee_os/lib/libutils/isoc/bget.c:939 (discriminator 1)
    59b2:	4b3f      	ldr	r3, [pc, #252]	; (5ab0 <brel+0x1b0>)
    59b4:	f240 32ab 	movw	r2, #939	; 0x3ab
    59b8:	493e      	ldr	r1, [pc, #248]	; (5ab4 <brel+0x1b4>)
    59ba:	483f      	ldr	r0, [pc, #252]	; (5ab8 <brel+0x1b8>)
    59bc:	447b      	add	r3, pc
    59be:	331d      	adds	r3, #29
    59c0:	4479      	add	r1, pc
    59c2:	4478      	add	r0, pc
    59c4:	e7ac      	b.n	5920 <brel+0x20>
/home/hsk/Desktop/devel/tee-tpm-hyp/optee_os/lib/libutils/isoc/bget.c:919
    59c6:	68cd      	ldr	r5, [r1, #12]
    59c8:	68ac      	ldr	r4, [r5, #8]
    59ca:	428c      	cmp	r4, r1
    59cc:	d009      	beq.n	59e2 <brel+0xe2>
/home/hsk/Desktop/devel/tee-tpm-hyp/optee_os/lib/libutils/isoc/bget.c:919 (discriminator 1)
    59ce:	4b3b      	ldr	r3, [pc, #236]	; (5abc <brel+0x1bc>)
    59d0:	f240 3297 	movw	r2, #919	; 0x397
    59d4:	493a      	ldr	r1, [pc, #232]	; (5ac0 <brel+0x1c0>)
    59d6:	483b      	ldr	r0, [pc, #236]	; (5ac4 <brel+0x1c4>)
    59d8:	447b      	add	r3, pc
    59da:	331d      	adds	r3, #29
    59dc:	4479      	add	r1, pc
    59de:	4478      	add	r0, pc
    59e0:	e79e      	b.n	5920 <brel+0x20>
/home/hsk/Desktop/devel/tee-tpm-hyp/optee_os/lib/libutils/isoc/bget.c:920
    59e2:	68a1      	ldr	r1, [r4, #8]
    59e4:	68c9      	ldr	r1, [r1, #12]
    59e6:	428c      	cmp	r4, r1
    59e8:	d009      	beq.n	59fe <brel+0xfe>
/home/hsk/Desktop/devel/tee-tpm-hyp/optee_os/lib/libutils/isoc/bget.c:920 (discriminator 1)
    59ea:	4b37      	ldr	r3, [pc, #220]	; (5ac8 <brel+0x1c8>)
    59ec:	f44f 7266 	mov.w	r2, #920	; 0x398
    59f0:	4936      	ldr	r1, [pc, #216]	; (5acc <brel+0x1cc>)
    59f2:	4837      	ldr	r0, [pc, #220]	; (5ad0 <brel+0x1d0>)
    59f4:	447b      	add	r3, pc
    59f6:	331d      	adds	r3, #29
    59f8:	4479      	add	r1, pc
    59fa:	4478      	add	r0, pc
    59fc:	e790      	b.n	5920 <brel+0x20>
/home/hsk/Desktop/devel/tee-tpm-hyp/optee_os/lib/libutils/isoc/bget.c:922
    59fe:	e9c0 4500 	strd	r4, r5, [r0]
/home/hsk/Desktop/devel/tee-tpm-hyp/optee_os/lib/libutils/isoc/bget.c:886
    5a02:	4252      	negs	r2, r2
/home/hsk/Desktop/devel/tee-tpm-hyp/optee_os/lib/libutils/isoc/bget.c:923
    5a04:	60e3      	str	r3, [r4, #12]
/home/hsk/Desktop/devel/tee-tpm-hyp/optee_os/lib/libutils/isoc/bget.c:924
    5a06:	6841      	ldr	r1, [r0, #4]
    5a08:	608b      	str	r3, [r1, #8]
/home/hsk/Desktop/devel/tee-tpm-hyp/optee_os/lib/libutils/isoc/bget.c:925
    5a0a:	f840 2c04 	str.w	r2, [r0, #-4]
    5a0e:	e7c8      	b.n	59a2 <brel+0xa2>
/home/hsk/Desktop/devel/tee-tpm-hyp/optee_os/lib/libutils/isoc/bget.c:940
    5a10:	68d4      	ldr	r4, [r2, #12]
    5a12:	68a5      	ldr	r5, [r4, #8]
    5a14:	4295      	cmp	r5, r2
    5a16:	d009      	beq.n	5a2c <brel+0x12c>
/home/hsk/Desktop/devel/tee-tpm-hyp/optee_os/lib/libutils/isoc/bget.c:940 (discriminator 1)
    5a18:	4b2e      	ldr	r3, [pc, #184]	; (5ad4 <brel+0x1d4>)
    5a1a:	f44f 726b 	mov.w	r2, #940	; 0x3ac
    5a1e:	492e      	ldr	r1, [pc, #184]	; (5ad8 <brel+0x1d8>)
    5a20:	482e      	ldr	r0, [pc, #184]	; (5adc <brel+0x1dc>)
    5a22:	447b      	add	r3, pc
    5a24:	331d      	adds	r3, #29
    5a26:	4479      	add	r1, pc
    5a28:	4478      	add	r0, pc
    5a2a:	e779      	b.n	5920 <brel+0x20>
/home/hsk/Desktop/devel/tee-tpm-hyp/optee_os/lib/libutils/isoc/bget.c:941
    5a2c:	68ae      	ldr	r6, [r5, #8]
    5a2e:	68f7      	ldr	r7, [r6, #12]
    5a30:	42af      	cmp	r7, r5
    5a32:	d009      	beq.n	5a48 <brel+0x148>
/home/hsk/Desktop/devel/tee-tpm-hyp/optee_os/lib/libutils/isoc/bget.c:941 (discriminator 1)
    5a34:	4b2a      	ldr	r3, [pc, #168]	; (5ae0 <brel+0x1e0>)
    5a36:	f240 32ad 	movw	r2, #941	; 0x3ad
    5a3a:	492a      	ldr	r1, [pc, #168]	; (5ae4 <brel+0x1e4>)
    5a3c:	482a      	ldr	r0, [pc, #168]	; (5ae8 <brel+0x1e8>)
    5a3e:	447b      	add	r3, pc
    5a40:	331d      	adds	r3, #29
    5a42:	4479      	add	r1, pc
    5a44:	4478      	add	r0, pc
    5a46:	e76b      	b.n	5920 <brel+0x20>
/home/hsk/Desktop/devel/tee-tpm-hyp/optee_os/lib/libutils/isoc/bget.c:942
    5a48:	60a6      	str	r6, [r4, #8]
/home/hsk/Desktop/devel/tee-tpm-hyp/optee_os/lib/libutils/isoc/bget.c:943
    5a4a:	6892      	ldr	r2, [r2, #8]
    5a4c:	60d4      	str	r4, [r2, #12]
/home/hsk/Desktop/devel/tee-tpm-hyp/optee_os/lib/libutils/isoc/bget.c:944
    5a4e:	180a      	adds	r2, r1, r0
    5a50:	605a      	str	r2, [r3, #4]
/home/hsk/Desktop/devel/tee-tpm-hyp/optee_os/lib/libutils/isoc/bget.c:953
    5a52:	441a      	add	r2, r3
/home/hsk/Desktop/devel/tee-tpm-hyp/optee_os/lib/libutils/isoc/bget.c:959
    5a54:	6851      	ldr	r1, [r2, #4]
    5a56:	2900      	cmp	r1, #0
    5a58:	db09      	blt.n	5a6e <brel+0x16e>
/home/hsk/Desktop/devel/tee-tpm-hyp/optee_os/lib/libutils/isoc/bget.c:959 (discriminator 1)
    5a5a:	4b24      	ldr	r3, [pc, #144]	; (5aec <brel+0x1ec>)
    5a5c:	f240 32bf 	movw	r2, #959	; 0x3bf
    5a60:	4923      	ldr	r1, [pc, #140]	; (5af0 <brel+0x1f0>)
    5a62:	4824      	ldr	r0, [pc, #144]	; (5af4 <brel+0x1f4>)
    5a64:	447b      	add	r3, pc
    5a66:	331d      	adds	r3, #29
    5a68:	4479      	add	r1, pc
    5a6a:	4478      	add	r0, pc
    5a6c:	e758      	b.n	5920 <brel+0x20>
/home/hsk/Desktop/devel/tee-tpm-hyp/optee_os/lib/libutils/isoc/bget.c:964
    5a6e:	685b      	ldr	r3, [r3, #4]
    5a70:	6013      	str	r3, [r2, #0]
/home/hsk/Desktop/devel/tee-tpm-hyp/optee_os/lib/libutils/isoc/bget.c:992
    5a72:	bdf8      	pop	{r3, r4, r5, r6, r7, pc}
    5a74:	00001960 	.word	0x00001960
    5a78:	00001ab8 	.word	0x00001ab8
    5a7c:	00001b4b 	.word	0x00001b4b
    5a80:	0000193e 	.word	0x0000193e
    5a84:	00001a96 	.word	0x00001a96
    5a88:	00001b35 	.word	0x00001b35
    5a8c:	00001924 	.word	0x00001924
    5a90:	00001a7c 	.word	0x00001a7c
    5a94:	00001b2b 	.word	0x00001b2b
    5a98:	00001906 	.word	0x00001906
    5a9c:	00001a5e 	.word	0x00001a5e
    5aa0:	00001b39 	.word	0x00001b39
    5aa4:	000018e4 	.word	0x000018e4
    5aa8:	00001a3c 	.word	0x00001a3c
    5aac:	00001b2e 	.word	0x00001b2e
    5ab0:	000018bc 	.word	0x000018bc
    5ab4:	00001a14 	.word	0x00001a14
    5ab8:	00001b3f 	.word	0x00001b3f
    5abc:	000018a0 	.word	0x000018a0
    5ac0:	000019f8 	.word	0x000019f8
    5ac4:	00001980 	.word	0x00001980
    5ac8:	00001884 	.word	0x00001884
    5acc:	000019dc 	.word	0x000019dc
    5ad0:	0000199f 	.word	0x0000199f
    5ad4:	00001856 	.word	0x00001856
    5ad8:	000019ae 	.word	0x000019ae
    5adc:	00001b12 	.word	0x00001b12
    5ae0:	0000183a 	.word	0x0000183a
    5ae4:	00001992 	.word	0x00001992
    5ae8:	00001b13 	.word	0x00001b13
    5aec:	00001814 	.word	0x00001814
    5af0:	0000196c 	.word	0x0000196c
    5af4:	00001b0a 	.word	0x00001b0a

00005af8 <bgetr>:
bgetr():
/home/hsk/Desktop/devel/tee-tpm-hyp/optee_os/lib/libutils/isoc/bget.c:806
    5af8:	e92d 41f0 	stmdb	sp!, {r4, r5, r6, r7, r8, lr}
    5afc:	460e      	mov	r6, r1
    5afe:	4605      	mov	r5, r0
/home/hsk/Desktop/devel/tee-tpm-hyp/optee_os/lib/libutils/isoc/bget.c:811
    5b00:	4611      	mov	r1, r2
    5b02:	4630      	mov	r0, r6
/home/hsk/Desktop/devel/tee-tpm-hyp/optee_os/lib/libutils/isoc/bget.c:806
    5b04:	4690      	mov	r8, r2
/home/hsk/Desktop/devel/tee-tpm-hyp/optee_os/lib/libutils/isoc/bget.c:811
    5b06:	f7ff fe33 	bl	5770 <bget>
    5b0a:	4607      	mov	r7, r0
    5b0c:	b340      	cbz	r0, 5b60 <bgetr+0x68>
/home/hsk/Desktop/devel/tee-tpm-hyp/optee_os/lib/libutils/isoc/bget.c:814
    5b0e:	b33d      	cbz	r5, 5b60 <bgetr+0x68>
    5b10:	f855 4c04 	ldr.w	r4, [r5, #-4]
    5b14:	f1c4 24ff 	rsb	r4, r4, #4278255360	; 0xff00ff00
    5b18:	f504 047f 	add.w	r4, r4, #16711680	; 0xff0000
    5b1c:	34f8      	adds	r4, #248	; 0xf8
/home/hsk/Desktop/devel/tee-tpm-hyp/optee_os/lib/libutils/isoc/bget.c:829
    5b1e:	2c00      	cmp	r4, #0
    5b20:	dc0c      	bgt.n	5b3c <bgetr+0x44>
    5b22:	4b11      	ldr	r3, [pc, #68]	; (5b68 <bgetr+0x70>)
    5b24:	f240 323d 	movw	r2, #829	; 0x33d
    5b28:	4910      	ldr	r1, [pc, #64]	; (5b6c <bgetr+0x74>)
    5b2a:	4811      	ldr	r0, [pc, #68]	; (5b70 <bgetr+0x78>)
    5b2c:	447b      	add	r3, pc
    5b2e:	3322      	adds	r3, #34	; 0x22
    5b30:	4479      	add	r1, pc
    5b32:	4478      	add	r0, pc
    5b34:	f000 fc16 	bl	6364 <_assert_log>
    5b38:	f000 fc28 	bl	638c <_assert_break>
/home/hsk/Desktop/devel/tee-tpm-hyp/optee_os/lib/libutils/isoc/bget.c:830
    5b3c:	42a6      	cmp	r6, r4
    5b3e:	4632      	mov	r2, r6
    5b40:	4629      	mov	r1, r5
    5b42:	bfa8      	it	ge
    5b44:	4622      	movge	r2, r4
    5b46:	f000 fd1a 	bl	657e <memcpy>
/home/hsk/Desktop/devel/tee-tpm-hyp/optee_os/lib/libutils/isoc/bget.c:834
    5b4a:	42a6      	cmp	r6, r4
    5b4c:	dd04      	ble.n	5b58 <bgetr+0x60>
/home/hsk/Desktop/devel/tee-tpm-hyp/optee_os/lib/libutils/isoc/bget.c:835
    5b4e:	1b32      	subs	r2, r6, r4
    5b50:	2100      	movs	r1, #0
    5b52:	1938      	adds	r0, r7, r4
    5b54:	f000 fd37 	bl	65c6 <memset>
/home/hsk/Desktop/devel/tee-tpm-hyp/optee_os/lib/libutils/isoc/bget.c:837
    5b58:	4641      	mov	r1, r8
    5b5a:	4628      	mov	r0, r5
    5b5c:	f7ff fed0 	bl	5900 <brel>
/home/hsk/Desktop/devel/tee-tpm-hyp/optee_os/lib/libutils/isoc/bget.c:839
    5b60:	4638      	mov	r0, r7
    5b62:	e8bd 81f0 	ldmia.w	sp!, {r4, r5, r6, r7, r8, pc}
    5b66:	bf00      	nop
    5b68:	0000174c 	.word	0x0000174c
    5b6c:	000018a4 	.word	0x000018a4
    5b70:	00001a53 	.word	0x00001a53

00005b74 <bpool>:
bpool():
/home/hsk/Desktop/devel/tee-tpm-hyp/optee_os/lib/libutils/isoc/bget.c:1023
    5b74:	f021 0107 	bic.w	r1, r1, #7
/home/hsk/Desktop/devel/tee-tpm-hyp/optee_os/lib/libutils/isoc/bget.c:1018
    5b78:	b510      	push	{r4, lr}
/home/hsk/Desktop/devel/tee-tpm-hyp/optee_os/lib/libutils/isoc/bget.c:1042
    5b7a:	3908      	subs	r1, #8
    5b7c:	d50c      	bpl.n	5b98 <bpool+0x24>
    5b7e:	4b1b      	ldr	r3, [pc, #108]	; (5bec <bpool+0x78>)
    5b80:	f240 4212 	movw	r2, #1042	; 0x412
    5b84:	491a      	ldr	r1, [pc, #104]	; (5bf0 <bpool+0x7c>)
    5b86:	481b      	ldr	r0, [pc, #108]	; (5bf4 <bpool+0x80>)
    5b88:	447b      	add	r3, pc
    5b8a:	3328      	adds	r3, #40	; 0x28
    5b8c:	4479      	add	r1, pc
    5b8e:	4478      	add	r0, pc
/home/hsk/Desktop/devel/tee-tpm-hyp/optee_os/lib/libutils/isoc/bget.c:1052 (discriminator 1)
    5b90:	f000 fbe8 	bl	6364 <_assert_log>
    5b94:	f000 fbfa 	bl	638c <_assert_break>
/home/hsk/Desktop/devel/tee-tpm-hyp/optee_os/lib/libutils/isoc/bget.c:1052
    5b98:	68d4      	ldr	r4, [r2, #12]
/home/hsk/Desktop/devel/tee-tpm-hyp/optee_os/lib/libutils/isoc/bget.c:1048
    5b9a:	2300      	movs	r3, #0
    5b9c:	6003      	str	r3, [r0, #0]
/home/hsk/Desktop/devel/tee-tpm-hyp/optee_os/lib/libutils/isoc/bget.c:1052
    5b9e:	68a3      	ldr	r3, [r4, #8]
    5ba0:	4293      	cmp	r3, r2
    5ba2:	d009      	beq.n	5bb8 <bpool+0x44>
/home/hsk/Desktop/devel/tee-tpm-hyp/optee_os/lib/libutils/isoc/bget.c:1052 (discriminator 1)
    5ba4:	4b14      	ldr	r3, [pc, #80]	; (5bf8 <bpool+0x84>)
    5ba6:	f240 421c 	movw	r2, #1052	; 0x41c
    5baa:	4914      	ldr	r1, [pc, #80]	; (5bfc <bpool+0x88>)
    5bac:	4814      	ldr	r0, [pc, #80]	; (5c00 <bpool+0x8c>)
    5bae:	447b      	add	r3, pc
    5bb0:	3328      	adds	r3, #40	; 0x28
    5bb2:	4479      	add	r1, pc
    5bb4:	4478      	add	r0, pc
    5bb6:	e7eb      	b.n	5b90 <bpool+0x1c>
/home/hsk/Desktop/devel/tee-tpm-hyp/optee_os/lib/libutils/isoc/bget.c:1053
    5bb8:	689a      	ldr	r2, [r3, #8]
    5bba:	68d2      	ldr	r2, [r2, #12]
    5bbc:	4293      	cmp	r3, r2
    5bbe:	d009      	beq.n	5bd4 <bpool+0x60>
/home/hsk/Desktop/devel/tee-tpm-hyp/optee_os/lib/libutils/isoc/bget.c:1053 (discriminator 1)
    5bc0:	4b10      	ldr	r3, [pc, #64]	; (5c04 <bpool+0x90>)
    5bc2:	f240 421d 	movw	r2, #1053	; 0x41d
    5bc6:	4910      	ldr	r1, [pc, #64]	; (5c08 <bpool+0x94>)
    5bc8:	4810      	ldr	r0, [pc, #64]	; (5c0c <bpool+0x98>)
    5bca:	447b      	add	r3, pc
    5bcc:	3328      	adds	r3, #40	; 0x28
    5bce:	4479      	add	r1, pc
    5bd0:	4478      	add	r0, pc
    5bd2:	e7dd      	b.n	5b90 <bpool+0x1c>
/home/hsk/Desktop/devel/tee-tpm-hyp/optee_os/lib/libutils/isoc/bget.c:1054
    5bd4:	6083      	str	r3, [r0, #8]
/home/hsk/Desktop/devel/tee-tpm-hyp/optee_os/lib/libutils/isoc/bget.c:1077
    5bd6:	f04f 4200 	mov.w	r2, #2147483648	; 0x80000000
/home/hsk/Desktop/devel/tee-tpm-hyp/optee_os/lib/libutils/isoc/bget.c:1055
    5bda:	60c4      	str	r4, [r0, #12]
/home/hsk/Desktop/devel/tee-tpm-hyp/optee_os/lib/libutils/isoc/bget.c:1056
    5bdc:	60d8      	str	r0, [r3, #12]
/home/hsk/Desktop/devel/tee-tpm-hyp/optee_os/lib/libutils/isoc/bget.c:1057
    5bde:	68c3      	ldr	r3, [r0, #12]
    5be0:	6098      	str	r0, [r3, #8]
/home/hsk/Desktop/devel/tee-tpm-hyp/optee_os/lib/libutils/isoc/bget.c:1073
    5be2:	1843      	adds	r3, r0, r1
/home/hsk/Desktop/devel/tee-tpm-hyp/optee_os/lib/libutils/isoc/bget.c:1068
    5be4:	6041      	str	r1, [r0, #4]
/home/hsk/Desktop/devel/tee-tpm-hyp/optee_os/lib/libutils/isoc/bget.c:1074
    5be6:	5041      	str	r1, [r0, r1]
/home/hsk/Desktop/devel/tee-tpm-hyp/optee_os/lib/libutils/isoc/bget.c:1077
    5be8:	605a      	str	r2, [r3, #4]
/home/hsk/Desktop/devel/tee-tpm-hyp/optee_os/lib/libutils/isoc/bget.c:1078
    5bea:	bd10      	pop	{r4, pc}
    5bec:	000016f0 	.word	0x000016f0
    5bf0:	00001848 	.word	0x00001848
    5bf4:	00001a01 	.word	0x00001a01
    5bf8:	000016ca 	.word	0x000016ca
    5bfc:	00001822 	.word	0x00001822
    5c00:	000017aa 	.word	0x000017aa
    5c04:	000016ae 	.word	0x000016ae
    5c08:	00001806 	.word	0x00001806
    5c0c:	000017c9 	.word	0x000017c9

00005c10 <bstats>:
bstats():
/home/hsk/Desktop/devel/tee-tpm-hyp/optee_os/lib/libutils/isoc/bget.c:1088
    5c10:	b570      	push	{r4, r5, r6, lr}
    5c12:	9d05      	ldr	r5, [sp, #20]
/home/hsk/Desktop/devel/tee-tpm-hyp/optee_os/lib/libutils/isoc/bget.c:1091
    5c14:	696e      	ldr	r6, [r5, #20]
/home/hsk/Desktop/devel/tee-tpm-hyp/optee_os/lib/libutils/isoc/bget.c:1089
    5c16:	68ac      	ldr	r4, [r5, #8]
/home/hsk/Desktop/devel/tee-tpm-hyp/optee_os/lib/libutils/isoc/bget.c:1091
    5c18:	601e      	str	r6, [r3, #0]
/home/hsk/Desktop/devel/tee-tpm-hyp/optee_os/lib/libutils/isoc/bget.c:1092
    5c1a:	9b04      	ldr	r3, [sp, #16]
    5c1c:	69ae      	ldr	r6, [r5, #24]
    5c1e:	601e      	str	r6, [r3, #0]
/home/hsk/Desktop/devel/tee-tpm-hyp/optee_os/lib/libutils/isoc/bget.c:1093
    5c20:	692b      	ldr	r3, [r5, #16]
    5c22:	6003      	str	r3, [r0, #0]
/home/hsk/Desktop/devel/tee-tpm-hyp/optee_os/lib/libutils/isoc/bget.c:1094
    5c24:	2300      	movs	r3, #0
    5c26:	600b      	str	r3, [r1, #0]
/home/hsk/Desktop/devel/tee-tpm-hyp/optee_os/lib/libutils/isoc/bget.c:1095
    5c28:	f04f 33ff 	mov.w	r3, #4294967295	; 0xffffffff
    5c2c:	6013      	str	r3, [r2, #0]
/home/hsk/Desktop/devel/tee-tpm-hyp/optee_os/lib/libutils/isoc/bget.c:1096
    5c2e:	42a5      	cmp	r5, r4
    5c30:	d100      	bne.n	5c34 <bstats+0x24>
/home/hsk/Desktop/devel/tee-tpm-hyp/optee_os/lib/libutils/isoc/bget.c:1104
    5c32:	bd70      	pop	{r4, r5, r6, pc}
/home/hsk/Desktop/devel/tee-tpm-hyp/optee_os/lib/libutils/isoc/bget.c:1097
    5c34:	6860      	ldr	r0, [r4, #4]
    5c36:	2800      	cmp	r0, #0
    5c38:	dc0c      	bgt.n	5c54 <bstats+0x44>
/home/hsk/Desktop/devel/tee-tpm-hyp/optee_os/lib/libutils/isoc/bget.c:1097 (discriminator 1)
    5c3a:	4b0b      	ldr	r3, [pc, #44]	; (5c68 <bstats+0x58>)
    5c3c:	f240 4249 	movw	r2, #1097	; 0x449
    5c40:	490a      	ldr	r1, [pc, #40]	; (5c6c <bstats+0x5c>)
    5c42:	480b      	ldr	r0, [pc, #44]	; (5c70 <bstats+0x60>)
    5c44:	447b      	add	r3, pc
    5c46:	332e      	adds	r3, #46	; 0x2e
    5c48:	4479      	add	r1, pc
    5c4a:	4478      	add	r0, pc
    5c4c:	f000 fb8a 	bl	6364 <_assert_log>
    5c50:	f000 fb9c 	bl	638c <_assert_break>
/home/hsk/Desktop/devel/tee-tpm-hyp/optee_os/lib/libutils/isoc/bget.c:1098
    5c54:	680b      	ldr	r3, [r1, #0]
    5c56:	4403      	add	r3, r0
    5c58:	600b      	str	r3, [r1, #0]
/home/hsk/Desktop/devel/tee-tpm-hyp/optee_os/lib/libutils/isoc/bget.c:1099
    5c5a:	6863      	ldr	r3, [r4, #4]
    5c5c:	6810      	ldr	r0, [r2, #0]
    5c5e:	4283      	cmp	r3, r0
    5c60:	dd00      	ble.n	5c64 <bstats+0x54>
/home/hsk/Desktop/devel/tee-tpm-hyp/optee_os/lib/libutils/isoc/bget.c:1100
    5c62:	6013      	str	r3, [r2, #0]
/home/hsk/Desktop/devel/tee-tpm-hyp/optee_os/lib/libutils/isoc/bget.c:1102
    5c64:	68a4      	ldr	r4, [r4, #8]
    5c66:	e7e2      	b.n	5c2e <bstats+0x1e>
    5c68:	00001634 	.word	0x00001634
    5c6c:	0000178c 	.word	0x0000178c
    5c70:	0000197a 	.word	0x0000197a

00005c74 <malloc_reset_stats>:
malloc_reset_stats():
/home/hsk/Desktop/devel/tee-tpm-hyp/optee_os/lib/libutils/isoc/bget_malloc.c:183
    5c74:	4b03      	ldr	r3, [pc, #12]	; (5c84 <malloc_reset_stats+0x10>)
    5c76:	2200      	movs	r2, #0
    5c78:	447b      	add	r3, pc
    5c7a:	625a      	str	r2, [r3, #36]	; 0x24
/home/hsk/Desktop/devel/tee-tpm-hyp/optee_os/lib/libutils/isoc/bget_malloc.c:184
    5c7c:	62da      	str	r2, [r3, #44]	; 0x2c
/home/hsk/Desktop/devel/tee-tpm-hyp/optee_os/lib/libutils/isoc/bget_malloc.c:185
    5c7e:	631a      	str	r2, [r3, #48]	; 0x30
/home/hsk/Desktop/devel/tee-tpm-hyp/optee_os/lib/libutils/isoc/bget_malloc.c:186
    5c80:	635a      	str	r2, [r3, #52]	; 0x34
/home/hsk/Desktop/devel/tee-tpm-hyp/optee_os/lib/libutils/isoc/bget_malloc.c:188
    5c82:	4770      	bx	lr
    5c84:	0000544c 	.word	0x0000544c

00005c88 <malloc_get_stats>:
malloc_get_stats():
/home/hsk/Desktop/devel/tee-tpm-hyp/optee_os/lib/libutils/isoc/bget_malloc.c:194
    5c88:	4905      	ldr	r1, [pc, #20]	; (5ca0 <malloc_get_stats+0x18>)
    5c8a:	2238      	movs	r2, #56	; 0x38
/home/hsk/Desktop/devel/tee-tpm-hyp/optee_os/lib/libutils/isoc/bget_malloc.c:191
    5c8c:	b508      	push	{r3, lr}
/home/hsk/Desktop/devel/tee-tpm-hyp/optee_os/lib/libutils/isoc/bget_malloc.c:194
    5c8e:	4479      	add	r1, pc
    5c90:	f000 fc75 	bl	657e <memcpy>
/home/hsk/Desktop/devel/tee-tpm-hyp/optee_os/lib/libutils/isoc/bget_malloc.c:195
    5c94:	4a03      	ldr	r2, [pc, #12]	; (5ca4 <malloc_get_stats+0x1c>)
    5c96:	447a      	add	r2, pc
    5c98:	6912      	ldr	r2, [r2, #16]
    5c9a:	6202      	str	r2, [r0, #32]
/home/hsk/Desktop/devel/tee-tpm-hyp/optee_os/lib/libutils/isoc/bget_malloc.c:197
    5c9c:	bd08      	pop	{r3, pc}
    5c9e:	bf00      	nop
    5ca0:	00005436 	.word	0x00005436
    5ca4:	000033e2 	.word	0x000033e2

00005ca8 <malloc>:
malloc():
/home/hsk/Desktop/devel/tee-tpm-hyp/optee_os/lib/libutils/isoc/bget_malloc.c:817
    5ca8:	b538      	push	{r3, r4, r5, lr}
raw_malloc():
/home/hsk/Desktop/devel/tee-tpm-hyp/optee_os/lib/libutils/isoc/bget_malloc.c:304
    5caa:	1e05      	subs	r5, r0, #0
    5cac:	db12      	blt.n	5cd4 <malloc+0x2c>
/home/hsk/Desktop/devel/tee-tpm-hyp/optee_os/lib/libutils/isoc/bget_malloc.c:313
    5cae:	490a      	ldr	r1, [pc, #40]	; (5cd8 <malloc+0x30>)
    5cb0:	4628      	mov	r0, r5
    5cb2:	bf18      	it	ne
    5cb4:	4628      	movne	r0, r5
    5cb6:	bf08      	it	eq
    5cb8:	2001      	moveq	r0, #1
    5cba:	4479      	add	r1, pc
    5cbc:	f7ff fd58 	bl	5770 <bget>
    5cc0:	4604      	mov	r4, r0
/home/hsk/Desktop/devel/tee-tpm-hyp/optee_os/lib/libutils/isoc/bget_malloc.c:315
    5cc2:	4b06      	ldr	r3, [pc, #24]	; (5cdc <malloc+0x34>)
    5cc4:	4620      	mov	r0, r4
    5cc6:	4629      	mov	r1, r5
    5cc8:	447b      	add	r3, pc
    5cca:	691a      	ldr	r2, [r3, #16]
    5ccc:	f7ff fccc 	bl	5668 <raw_malloc_return_hook.isra.3>
malloc():
/home/hsk/Desktop/devel/tee-tpm-hyp/optee_os/lib/libutils/isoc/bget_malloc.c:824
    5cd0:	4620      	mov	r0, r4
    5cd2:	bd38      	pop	{r3, r4, r5, pc}
raw_malloc():
/home/hsk/Desktop/devel/tee-tpm-hyp/optee_os/lib/libutils/isoc/bget_malloc.c:291
    5cd4:	2400      	movs	r4, #0
    5cd6:	e7f4      	b.n	5cc2 <malloc+0x1a>
    5cd8:	000033be 	.word	0x000033be
    5cdc:	000033b0 	.word	0x000033b0

00005ce0 <free>:
raw_free():
/home/hsk/Desktop/devel/tee-tpm-hyp/optee_os/lib/libutils/isoc/bget_malloc.c:324
    5ce0:	b118      	cbz	r0, 5cea <free+0xa>
/home/hsk/Desktop/devel/tee-tpm-hyp/optee_os/lib/libutils/isoc/bget_malloc.c:325
    5ce2:	4902      	ldr	r1, [pc, #8]	; (5cec <free+0xc>)
    5ce4:	4479      	add	r1, pc
    5ce6:	f7ff be0b 	b.w	5900 <brel>
free():
/home/hsk/Desktop/devel/tee-tpm-hyp/optee_os/lib/libutils/isoc/bget_malloc.c:832
    5cea:	4770      	bx	lr
    5cec:	00003394 	.word	0x00003394

00005cf0 <calloc>:
raw_calloc():
/home/hsk/Desktop/devel/tee-tpm-hyp/optee_os/lib/libutils/isoc/bget_malloc.c:337
    5cf0:	fba0 2301 	umull	r2, r3, r0, r1
calloc():
/home/hsk/Desktop/devel/tee-tpm-hyp/optee_os/lib/libutils/isoc/bget_malloc.c:835
    5cf4:	b570      	push	{r4, r5, r6, lr}
    5cf6:	4605      	mov	r5, r0
    5cf8:	460e      	mov	r6, r1
raw_calloc():
/home/hsk/Desktop/devel/tee-tpm-hyp/optee_os/lib/libutils/isoc/bget_malloc.c:337
    5cfa:	4610      	mov	r0, r2
    5cfc:	2a00      	cmp	r2, #0
    5cfe:	bfa8      	it	ge
    5d00:	2b00      	cmpge	r3, #0
    5d02:	d113      	bne.n	5d2c <calloc+0x3c>
/home/hsk/Desktop/devel/tee-tpm-hyp/optee_os/lib/libutils/isoc/bget_malloc.c:348
    5d04:	490a      	ldr	r1, [pc, #40]	; (5d30 <calloc+0x40>)
/home/hsk/Desktop/devel/tee-tpm-hyp/optee_os/lib/libutils/isoc/bget_malloc.c:345
    5d06:	2a00      	cmp	r2, #0
/home/hsk/Desktop/devel/tee-tpm-hyp/optee_os/lib/libutils/isoc/bget_malloc.c:348
    5d08:	bf18      	it	ne
    5d0a:	4610      	movne	r0, r2
    5d0c:	bf08      	it	eq
    5d0e:	2001      	moveq	r0, #1
    5d10:	4479      	add	r1, pc
    5d12:	f7ff fdc7 	bl	58a4 <bgetz>
    5d16:	4604      	mov	r4, r0
/home/hsk/Desktop/devel/tee-tpm-hyp/optee_os/lib/libutils/isoc/bget_malloc.c:350
    5d18:	4b06      	ldr	r3, [pc, #24]	; (5d34 <calloc+0x44>)
    5d1a:	4620      	mov	r0, r4
    5d1c:	fb06 f105 	mul.w	r1, r6, r5
    5d20:	447b      	add	r3, pc
    5d22:	691a      	ldr	r2, [r3, #16]
    5d24:	f7ff fca0 	bl	5668 <raw_malloc_return_hook.isra.3>
calloc():
/home/hsk/Desktop/devel/tee-tpm-hyp/optee_os/lib/libutils/isoc/bget_malloc.c:842
    5d28:	4620      	mov	r0, r4
    5d2a:	bd70      	pop	{r4, r5, r6, pc}
raw_calloc():
/home/hsk/Desktop/devel/tee-tpm-hyp/optee_os/lib/libutils/isoc/bget_malloc.c:331
    5d2c:	2400      	movs	r4, #0
    5d2e:	e7f3      	b.n	5d18 <calloc+0x28>
    5d30:	00003368 	.word	0x00003368
    5d34:	00003358 	.word	0x00003358

00005d38 <realloc>:
realloc():
/home/hsk/Desktop/devel/tee-tpm-hyp/optee_os/lib/libutils/isoc/bget_malloc.c:850
    5d38:	b538      	push	{r3, r4, r5, lr}
raw_realloc():
/home/hsk/Desktop/devel/tee-tpm-hyp/optee_os/lib/libutils/isoc/bget_malloc.c:362
    5d3a:	1e0d      	subs	r5, r1, #0
    5d3c:	db12      	blt.n	5d64 <realloc+0x2c>
/home/hsk/Desktop/devel/tee-tpm-hyp/optee_os/lib/libutils/isoc/bget_malloc.c:373
    5d3e:	4a0a      	ldr	r2, [pc, #40]	; (5d68 <realloc+0x30>)
    5d40:	4629      	mov	r1, r5
    5d42:	bf18      	it	ne
    5d44:	4629      	movne	r1, r5
    5d46:	bf08      	it	eq
    5d48:	2101      	moveq	r1, #1
    5d4a:	447a      	add	r2, pc
    5d4c:	f7ff fed4 	bl	5af8 <bgetr>
    5d50:	4604      	mov	r4, r0
/home/hsk/Desktop/devel/tee-tpm-hyp/optee_os/lib/libutils/isoc/bget_malloc.c:375
    5d52:	4b06      	ldr	r3, [pc, #24]	; (5d6c <realloc+0x34>)
    5d54:	4620      	mov	r0, r4
    5d56:	4629      	mov	r1, r5
    5d58:	447b      	add	r3, pc
    5d5a:	691a      	ldr	r2, [r3, #16]
    5d5c:	f7ff fc84 	bl	5668 <raw_malloc_return_hook.isra.3>
realloc():
/home/hsk/Desktop/devel/tee-tpm-hyp/optee_os/lib/libutils/isoc/bget_malloc.c:857
    5d60:	4620      	mov	r0, r4
    5d62:	bd38      	pop	{r3, r4, r5, pc}
raw_realloc():
/home/hsk/Desktop/devel/tee-tpm-hyp/optee_os/lib/libutils/isoc/bget_malloc.c:358
    5d64:	2400      	movs	r4, #0
    5d66:	e7f4      	b.n	5d52 <realloc+0x1a>
    5d68:	0000332e 	.word	0x0000332e
    5d6c:	00003320 	.word	0x00003320

00005d70 <memalign>:
memalign():
/home/hsk/Desktop/devel/tee-tpm-hyp/optee_os/lib/libutils/isoc/bget_malloc.c:860
    5d70:	b5f8      	push	{r3, r4, r5, r6, r7, lr}
    5d72:	460e      	mov	r6, r1
raw_memalign():
/home/hsk/Desktop/devel/tee-tpm-hyp/optee_os/lib/libutils/isoc/bget_malloc.c:535
    5d74:	4604      	mov	r4, r0
    5d76:	b1b0      	cbz	r0, 5da6 <memalign+0x36>
    5d78:	4245      	negs	r5, r0
    5d7a:	ea30 0305 	bics.w	r3, r0, r5
    5d7e:	d11c      	bne.n	5dba <memalign+0x4a>
/home/hsk/Desktop/devel/tee-tpm-hyp/optee_os/lib/libutils/isoc/bget_malloc.c:542
    5d80:	2808      	cmp	r0, #8
    5d82:	d814      	bhi.n	5dae <memalign+0x3e>
raw_malloc():
/home/hsk/Desktop/devel/tee-tpm-hyp/optee_os/lib/libutils/isoc/bget_malloc.c:304
    5d84:	2900      	cmp	r1, #0
    5d86:	db10      	blt.n	5daa <memalign+0x3a>
/home/hsk/Desktop/devel/tee-tpm-hyp/optee_os/lib/libutils/isoc/bget_malloc.c:313
    5d88:	4986      	ldr	r1, [pc, #536]	; (5fa4 <memalign+0x234>)
    5d8a:	4630      	mov	r0, r6
    5d8c:	bf08      	it	eq
    5d8e:	2001      	moveq	r0, #1
    5d90:	4479      	add	r1, pc
    5d92:	f7ff fced 	bl	5770 <bget>
    5d96:	4604      	mov	r4, r0
/home/hsk/Desktop/devel/tee-tpm-hyp/optee_os/lib/libutils/isoc/bget_malloc.c:315
    5d98:	4b83      	ldr	r3, [pc, #524]	; (5fa8 <memalign+0x238>)
    5d9a:	447b      	add	r3, pc
raw_memalign():
/home/hsk/Desktop/devel/tee-tpm-hyp/optee_os/lib/libutils/isoc/bget_malloc.c:589
    5d9c:	691a      	ldr	r2, [r3, #16]
    5d9e:	4631      	mov	r1, r6
    5da0:	4620      	mov	r0, r4
    5da2:	f7ff fc61 	bl	5668 <raw_malloc_return_hook.isra.3>
memalign():
/home/hsk/Desktop/devel/tee-tpm-hyp/optee_os/lib/libutils/isoc/bget_malloc.c:867
    5da6:	4620      	mov	r0, r4
    5da8:	bdf8      	pop	{r3, r4, r5, r6, r7, pc}
raw_malloc():
/home/hsk/Desktop/devel/tee-tpm-hyp/optee_os/lib/libutils/isoc/bget_malloc.c:291
    5daa:	2400      	movs	r4, #0
    5dac:	e7f4      	b.n	5d98 <memalign+0x28>
    5dae:	f101 0710 	add.w	r7, r1, #16
    5db2:	19c7      	adds	r7, r0, r7
    5db4:	d201      	bcs.n	5dba <memalign+0x4a>
raw_memalign():
/home/hsk/Desktop/devel/tee-tpm-hyp/optee_os/lib/libutils/isoc/bget_malloc.c:549
    5db6:	42b9      	cmp	r1, r7
    5db8:	d901      	bls.n	5dbe <memalign+0x4e>
/home/hsk/Desktop/devel/tee-tpm-hyp/optee_os/lib/libutils/isoc/bget_malloc.c:536
    5dba:	2400      	movs	r4, #0
memalign():
/home/hsk/Desktop/devel/tee-tpm-hyp/optee_os/lib/libutils/isoc/bget_malloc.c:866
    5dbc:	e7f3      	b.n	5da6 <memalign+0x36>
raw_memalign():
/home/hsk/Desktop/devel/tee-tpm-hyp/optee_os/lib/libutils/isoc/bget_malloc.c:552
    5dbe:	497b      	ldr	r1, [pc, #492]	; (5fac <memalign+0x23c>)
    5dc0:	4638      	mov	r0, r7
    5dc2:	4479      	add	r1, pc
    5dc4:	f7ff fcd4 	bl	5770 <bget>
/home/hsk/Desktop/devel/tee-tpm-hyp/optee_os/lib/libutils/isoc/bget_malloc.c:553
    5dc8:	4603      	mov	r3, r0
    5dca:	2800      	cmp	r0, #0
    5dcc:	f000 80e5 	beq.w	5f9a <memalign+0x22a>
/home/hsk/Desktop/devel/tee-tpm-hyp/optee_os/lib/libutils/isoc/bget_malloc.c:556
    5dd0:	1e62      	subs	r2, r4, #1
    5dd2:	4210      	tst	r0, r2
    5dd4:	d063      	beq.n	5e9e <memalign+0x12e>
/home/hsk/Desktop/devel/tee-tpm-hyp/optee_os/lib/libutils/isoc/bget_malloc.c:569
    5dd6:	1822      	adds	r2, r4, r0
/home/hsk/Desktop/devel/tee-tpm-hyp/optee_os/lib/libutils/isoc/bget_malloc.c:574
    5dd8:	4407      	add	r7, r0
/home/hsk/Desktop/devel/tee-tpm-hyp/optee_os/lib/libutils/isoc/bget_malloc.c:570
    5dda:	4015      	ands	r5, r2
/home/hsk/Desktop/devel/tee-tpm-hyp/optee_os/lib/libutils/isoc/bget_malloc.c:572
    5ddc:	1a2a      	subs	r2, r5, r0
    5dde:	2a0f      	cmp	r2, #15
/home/hsk/Desktop/devel/tee-tpm-hyp/optee_os/lib/libutils/isoc/bget_malloc.c:573
    5de0:	bf98      	it	ls
    5de2:	192d      	addls	r5, r5, r4
/home/hsk/Desktop/devel/tee-tpm-hyp/optee_os/lib/libutils/isoc/bget_malloc.c:574
    5de4:	1972      	adds	r2, r6, r5
    5de6:	42ba      	cmp	r2, r7
    5de8:	d90c      	bls.n	5e04 <memalign+0x94>
    5dea:	4b71      	ldr	r3, [pc, #452]	; (5fb0 <memalign+0x240>)
    5dec:	f240 223e 	movw	r2, #574	; 0x23e
    5df0:	4970      	ldr	r1, [pc, #448]	; (5fb4 <memalign+0x244>)
    5df2:	4871      	ldr	r0, [pc, #452]	; (5fb8 <memalign+0x248>)
    5df4:	447b      	add	r3, pc
    5df6:	3335      	adds	r3, #53	; 0x35
    5df8:	4479      	add	r1, pc
    5dfa:	4478      	add	r0, pc
brel_before():
/home/hsk/Desktop/devel/tee-tpm-hyp/optee_os/lib/libutils/isoc/bget_malloc.c:411
    5dfc:	f000 fab2 	bl	6364 <_assert_log>
    5e00:	f000 fac4 	bl	638c <_assert_break>
    5e04:	42a8      	cmp	r0, r5
    5e06:	d309      	bcc.n	5e1c <memalign+0xac>
    5e08:	4b6c      	ldr	r3, [pc, #432]	; (5fbc <memalign+0x24c>)
    5e0a:	f240 129b 	movw	r2, #411	; 0x19b
    5e0e:	496c      	ldr	r1, [pc, #432]	; (5fc0 <memalign+0x250>)
    5e10:	486c      	ldr	r0, [pc, #432]	; (5fc4 <memalign+0x254>)
    5e12:	447b      	add	r3, pc
    5e14:	3342      	adds	r3, #66	; 0x42
    5e16:	4479      	add	r1, pc
    5e18:	4478      	add	r0, pc
    5e1a:	e7ef      	b.n	5dfc <memalign+0x8c>
/home/hsk/Desktop/devel/tee-tpm-hyp/optee_os/lib/libutils/isoc/bget_malloc.c:413
    5e1c:	1a2c      	subs	r4, r5, r0
/home/hsk/Desktop/devel/tee-tpm-hyp/optee_os/lib/libutils/isoc/bget_malloc.c:414
    5e1e:	2c0f      	cmp	r4, #15
    5e20:	d809      	bhi.n	5e36 <memalign+0xc6>
    5e22:	4b69      	ldr	r3, [pc, #420]	; (5fc8 <memalign+0x258>)
    5e24:	f44f 72cf 	mov.w	r2, #414	; 0x19e
    5e28:	4968      	ldr	r1, [pc, #416]	; (5fcc <memalign+0x25c>)
    5e2a:	4869      	ldr	r0, [pc, #420]	; (5fd0 <memalign+0x260>)
    5e2c:	447b      	add	r3, pc
    5e2e:	3342      	adds	r3, #66	; 0x42
    5e30:	4479      	add	r1, pc
    5e32:	4478      	add	r0, pc
    5e34:	e7e2      	b.n	5dfc <memalign+0x8c>
/home/hsk/Desktop/devel/tee-tpm-hyp/optee_os/lib/libutils/isoc/bget_malloc.c:418
    5e36:	f853 2c04 	ldr.w	r2, [r3, #-4]
/home/hsk/Desktop/devel/tee-tpm-hyp/optee_os/lib/libutils/isoc/bget_malloc.c:417
    5e3a:	3808      	subs	r0, #8
/home/hsk/Desktop/devel/tee-tpm-hyp/optee_os/lib/libutils/isoc/bget_malloc.c:423
    5e3c:	f853 3c08 	ldr.w	r3, [r3, #-8]
    5e40:	4422      	add	r2, r4
    5e42:	b323      	cbz	r3, 5e8e <memalign+0x11e>
/home/hsk/Desktop/devel/tee-tpm-hyp/optee_os/lib/libutils/isoc/bget_malloc.c:428
    5e44:	1ac0      	subs	r0, r0, r3
/home/hsk/Desktop/devel/tee-tpm-hyp/optee_os/lib/libutils/isoc/bget_malloc.c:429
    5e46:	6841      	ldr	r1, [r0, #4]
    5e48:	428b      	cmp	r3, r1
    5e4a:	d009      	beq.n	5e60 <memalign+0xf0>
    5e4c:	4b61      	ldr	r3, [pc, #388]	; (5fd4 <memalign+0x264>)
    5e4e:	f240 12ad 	movw	r2, #429	; 0x1ad
    5e52:	4961      	ldr	r1, [pc, #388]	; (5fd8 <memalign+0x268>)
    5e54:	4861      	ldr	r0, [pc, #388]	; (5fdc <memalign+0x26c>)
    5e56:	447b      	add	r3, pc
    5e58:	3342      	adds	r3, #66	; 0x42
    5e5a:	4479      	add	r1, pc
    5e5c:	4478      	add	r0, pc
    5e5e:	e7cd      	b.n	5dfc <memalign+0x8c>
/home/hsk/Desktop/devel/tee-tpm-hyp/optee_os/lib/libutils/isoc/bget_malloc.c:430
    5e60:	4423      	add	r3, r4
    5e62:	6043      	str	r3, [r0, #4]
/home/hsk/Desktop/devel/tee-tpm-hyp/optee_os/lib/libutils/isoc/bget_malloc.c:433
    5e64:	f845 3c08 	str.w	r3, [r5, #-8]
/home/hsk/Desktop/devel/tee-tpm-hyp/optee_os/lib/libutils/isoc/bget_malloc.c:435
    5e68:	f845 2c04 	str.w	r2, [r5, #-4]
/home/hsk/Desktop/devel/tee-tpm-hyp/optee_os/lib/libutils/isoc/bget_malloc.c:449
    5e6c:	4a5c      	ldr	r2, [pc, #368]	; (5fe0 <memalign+0x270>)
    5e6e:	447a      	add	r2, pc
    5e70:	6913      	ldr	r3, [r2, #16]
    5e72:	1b1c      	subs	r4, r3, r4
    5e74:	6114      	str	r4, [r2, #16]
/home/hsk/Desktop/devel/tee-tpm-hyp/optee_os/lib/libutils/isoc/bget_malloc.c:450
    5e76:	2c00      	cmp	r4, #0
    5e78:	da12      	bge.n	5ea0 <memalign+0x130>
    5e7a:	4b5a      	ldr	r3, [pc, #360]	; (5fe4 <memalign+0x274>)
    5e7c:	f44f 72e1 	mov.w	r2, #450	; 0x1c2
    5e80:	4959      	ldr	r1, [pc, #356]	; (5fe8 <memalign+0x278>)
    5e82:	485a      	ldr	r0, [pc, #360]	; (5fec <memalign+0x27c>)
    5e84:	447b      	add	r3, pc
    5e86:	3342      	adds	r3, #66	; 0x42
    5e88:	4479      	add	r1, pc
    5e8a:	4478      	add	r0, pc
    5e8c:	e7b6      	b.n	5dfc <memalign+0x8c>
/home/hsk/Desktop/devel/tee-tpm-hyp/optee_os/lib/libutils/isoc/bget_malloc.c:443
    5e8e:	f845 2c04 	str.w	r2, [r5, #-4]
/home/hsk/Desktop/devel/tee-tpm-hyp/optee_os/lib/libutils/isoc/bget_malloc.c:445
    5e92:	4621      	mov	r1, r4
    5e94:	f1a5 0208 	sub.w	r2, r5, #8
    5e98:	f7ff fbfe 	bl	5698 <create_free_block.constprop.11>
    5e9c:	e7e6      	b.n	5e6c <memalign+0xfc>
raw_memalign():
/home/hsk/Desktop/devel/tee-tpm-hyp/optee_os/lib/libutils/isoc/bget_malloc.c:556
    5e9e:	4605      	mov	r5, r0
brel_after():
/home/hsk/Desktop/devel/tee-tpm-hyp/optee_os/lib/libutils/isoc/bget_malloc.c:466
    5ea0:	2e08      	cmp	r6, #8
    5ea2:	4630      	mov	r0, r6
    5ea4:	bf38      	it	cc
    5ea6:	2008      	movcc	r0, #8
/home/hsk/Desktop/devel/tee-tpm-hyp/optee_os/lib/libutils/isoc/bget_malloc.c:470
    5ea8:	f855 1c04 	ldr.w	r1, [r5, #-4]
/home/hsk/Desktop/devel/tee-tpm-hyp/optee_os/lib/libutils/isoc/bget_malloc.c:466
    5eac:	3007      	adds	r0, #7
    5eae:	f020 0007 	bic.w	r0, r0, #7
/home/hsk/Desktop/devel/tee-tpm-hyp/optee_os/lib/libutils/isoc/bget_malloc.c:470
    5eb2:	424c      	negs	r4, r1
/home/hsk/Desktop/devel/tee-tpm-hyp/optee_os/lib/libutils/isoc/bget_malloc.c:469
    5eb4:	f100 0308 	add.w	r3, r0, #8
/home/hsk/Desktop/devel/tee-tpm-hyp/optee_os/lib/libutils/isoc/bget_malloc.c:470
    5eb8:	42a3      	cmp	r3, r4
    5eba:	dd09      	ble.n	5ed0 <memalign+0x160>
    5ebc:	4b4c      	ldr	r3, [pc, #304]	; (5ff0 <memalign+0x280>)
    5ebe:	f44f 72eb 	mov.w	r2, #470	; 0x1d6
    5ec2:	494c      	ldr	r1, [pc, #304]	; (5ff4 <memalign+0x284>)
    5ec4:	484c      	ldr	r0, [pc, #304]	; (5ff8 <memalign+0x288>)
    5ec6:	447b      	add	r3, pc
    5ec8:	334e      	adds	r3, #78	; 0x4e
    5eca:	4479      	add	r1, pc
    5ecc:	4478      	add	r0, pc
    5ece:	e795      	b.n	5dfc <memalign+0x8c>
/home/hsk/Desktop/devel/tee-tpm-hyp/optee_os/lib/libutils/isoc/bget_malloc.c:476
    5ed0:	1ae4      	subs	r4, r4, r3
/home/hsk/Desktop/devel/tee-tpm-hyp/optee_os/lib/libutils/isoc/bget_malloc.c:477
    5ed2:	2c0f      	cmp	r4, #15
    5ed4:	dd62      	ble.n	5f9c <memalign+0x22c>
/home/hsk/Desktop/devel/tee-tpm-hyp/optee_os/lib/libutils/isoc/bget_malloc.c:480
    5ed6:	f1c1 21ff 	rsb	r1, r1, #4278255360	; 0xff00ff00
/home/hsk/Desktop/devel/tee-tpm-hyp/optee_os/lib/libutils/isoc/bget_malloc.c:484
    5eda:	425b      	negs	r3, r3
/home/hsk/Desktop/devel/tee-tpm-hyp/optee_os/lib/libutils/isoc/bget_malloc.c:480
    5edc:	f501 017f 	add.w	r1, r1, #16711680	; 0xff0000
/home/hsk/Desktop/devel/tee-tpm-hyp/optee_os/lib/libutils/isoc/bget_malloc.c:484
    5ee0:	f845 3c04 	str.w	r3, [r5, #-4]
/home/hsk/Desktop/devel/tee-tpm-hyp/optee_os/lib/libutils/isoc/bget_malloc.c:480
    5ee4:	31f8      	adds	r1, #248	; 0xf8
    5ee6:	4428      	add	r0, r5
    5ee8:	186a      	adds	r2, r5, r1
/home/hsk/Desktop/devel/tee-tpm-hyp/optee_os/lib/libutils/isoc/bget_malloc.c:485
    5eea:	6853      	ldr	r3, [r2, #4]
    5eec:	2b00      	cmp	r3, #0
    5eee:	dd50      	ble.n	5f92 <memalign+0x222>
/home/hsk/Desktop/devel/tee-tpm-hyp/optee_os/lib/libutils/isoc/bget_malloc.c:491
    5ef0:	5869      	ldr	r1, [r5, r1]
    5ef2:	b149      	cbz	r1, 5f08 <memalign+0x198>
    5ef4:	4b41      	ldr	r3, [pc, #260]	; (5ffc <memalign+0x28c>)
    5ef6:	f240 12eb 	movw	r2, #491	; 0x1eb
    5efa:	4941      	ldr	r1, [pc, #260]	; (6000 <memalign+0x290>)
    5efc:	4841      	ldr	r0, [pc, #260]	; (6004 <memalign+0x294>)
    5efe:	447b      	add	r3, pc
    5f00:	334e      	adds	r3, #78	; 0x4e
    5f02:	4479      	add	r1, pc
    5f04:	4478      	add	r0, pc
    5f06:	e779      	b.n	5dfc <memalign+0x8c>
/home/hsk/Desktop/devel/tee-tpm-hyp/optee_os/lib/libutils/isoc/bget_malloc.c:492
    5f08:	58d7      	ldr	r7, [r2, r3]
    5f0a:	42bb      	cmp	r3, r7
    5f0c:	d009      	beq.n	5f22 <memalign+0x1b2>
    5f0e:	4b3e      	ldr	r3, [pc, #248]	; (6008 <memalign+0x298>)
    5f10:	f44f 72f6 	mov.w	r2, #492	; 0x1ec
    5f14:	493d      	ldr	r1, [pc, #244]	; (600c <memalign+0x29c>)
    5f16:	483e      	ldr	r0, [pc, #248]	; (6010 <memalign+0x2a0>)
    5f18:	447b      	add	r3, pc
    5f1a:	334e      	adds	r3, #78	; 0x4e
    5f1c:	4479      	add	r1, pc
    5f1e:	4478      	add	r0, pc
    5f20:	e76c      	b.n	5dfc <memalign+0x8c>
/home/hsk/Desktop/devel/tee-tpm-hyp/optee_os/lib/libutils/isoc/bget_malloc.c:495
    5f22:	6001      	str	r1, [r0, #0]
/home/hsk/Desktop/devel/tee-tpm-hyp/optee_os/lib/libutils/isoc/bget_malloc.c:496
    5f24:	18e1      	adds	r1, r4, r3
    5f26:	6041      	str	r1, [r0, #4]
/home/hsk/Desktop/devel/tee-tpm-hyp/optee_os/lib/libutils/isoc/bget_malloc.c:499
    5f28:	58d1      	ldr	r1, [r2, r3]
    5f2a:	4421      	add	r1, r4
    5f2c:	50d1      	str	r1, [r2, r3]
/home/hsk/Desktop/devel/tee-tpm-hyp/optee_os/lib/libutils/isoc/bget_malloc.c:505
    5f2e:	68d3      	ldr	r3, [r2, #12]
    5f30:	6899      	ldr	r1, [r3, #8]
    5f32:	428a      	cmp	r2, r1
    5f34:	d009      	beq.n	5f4a <memalign+0x1da>
    5f36:	4b37      	ldr	r3, [pc, #220]	; (6014 <memalign+0x2a4>)
    5f38:	f240 12f9 	movw	r2, #505	; 0x1f9
    5f3c:	4936      	ldr	r1, [pc, #216]	; (6018 <memalign+0x2a8>)
    5f3e:	4837      	ldr	r0, [pc, #220]	; (601c <memalign+0x2ac>)
    5f40:	447b      	add	r3, pc
    5f42:	334e      	adds	r3, #78	; 0x4e
    5f44:	4479      	add	r1, pc
    5f46:	4478      	add	r0, pc
    5f48:	e758      	b.n	5dfc <memalign+0x8c>
/home/hsk/Desktop/devel/tee-tpm-hyp/optee_os/lib/libutils/isoc/bget_malloc.c:506
    5f4a:	6891      	ldr	r1, [r2, #8]
    5f4c:	68cf      	ldr	r7, [r1, #12]
    5f4e:	42ba      	cmp	r2, r7
    5f50:	d009      	beq.n	5f66 <memalign+0x1f6>
    5f52:	4b33      	ldr	r3, [pc, #204]	; (6020 <memalign+0x2b0>)
    5f54:	f44f 72fd 	mov.w	r2, #506	; 0x1fa
    5f58:	4932      	ldr	r1, [pc, #200]	; (6024 <memalign+0x2b4>)
    5f5a:	4833      	ldr	r0, [pc, #204]	; (6028 <memalign+0x2b8>)
    5f5c:	447b      	add	r3, pc
    5f5e:	334e      	adds	r3, #78	; 0x4e
    5f60:	4479      	add	r1, pc
    5f62:	4478      	add	r0, pc
    5f64:	e74a      	b.n	5dfc <memalign+0x8c>
/home/hsk/Desktop/devel/tee-tpm-hyp/optee_os/lib/libutils/isoc/bget_malloc.c:509
    5f66:	60c3      	str	r3, [r0, #12]
/home/hsk/Desktop/devel/tee-tpm-hyp/optee_os/lib/libutils/isoc/bget_malloc.c:510
    5f68:	6081      	str	r1, [r0, #8]
/home/hsk/Desktop/devel/tee-tpm-hyp/optee_os/lib/libutils/isoc/bget_malloc.c:513
    5f6a:	6098      	str	r0, [r3, #8]
/home/hsk/Desktop/devel/tee-tpm-hyp/optee_os/lib/libutils/isoc/bget_malloc.c:514
    5f6c:	6883      	ldr	r3, [r0, #8]
    5f6e:	60d8      	str	r0, [r3, #12]
/home/hsk/Desktop/devel/tee-tpm-hyp/optee_os/lib/libutils/isoc/bget_malloc.c:521
    5f70:	4a2e      	ldr	r2, [pc, #184]	; (602c <memalign+0x2bc>)
    5f72:	447a      	add	r2, pc
    5f74:	6913      	ldr	r3, [r2, #16]
    5f76:	1b1c      	subs	r4, r3, r4
    5f78:	6114      	str	r4, [r2, #16]
/home/hsk/Desktop/devel/tee-tpm-hyp/optee_os/lib/libutils/isoc/bget_malloc.c:522
    5f7a:	2c00      	cmp	r4, #0
    5f7c:	da0e      	bge.n	5f9c <memalign+0x22c>
    5f7e:	4b2c      	ldr	r3, [pc, #176]	; (6030 <memalign+0x2c0>)
    5f80:	f240 220a 	movw	r2, #522	; 0x20a
    5f84:	492b      	ldr	r1, [pc, #172]	; (6034 <memalign+0x2c4>)
    5f86:	482c      	ldr	r0, [pc, #176]	; (6038 <memalign+0x2c8>)
    5f88:	447b      	add	r3, pc
    5f8a:	334e      	adds	r3, #78	; 0x4e
    5f8c:	4479      	add	r1, pc
    5f8e:	4478      	add	r0, pc
    5f90:	e734      	b.n	5dfc <memalign+0x8c>
/home/hsk/Desktop/devel/tee-tpm-hyp/optee_os/lib/libutils/isoc/bget_malloc.c:517
    5f92:	4621      	mov	r1, r4
    5f94:	f7ff fb80 	bl	5698 <create_free_block.constprop.11>
    5f98:	e7ea      	b.n	5f70 <memalign+0x200>
raw_memalign():
/home/hsk/Desktop/devel/tee-tpm-hyp/optee_os/lib/libutils/isoc/bget_malloc.c:553
    5f9a:	4605      	mov	r5, r0
/home/hsk/Desktop/devel/tee-tpm-hyp/optee_os/lib/libutils/isoc/bget_malloc.c:589
    5f9c:	4b27      	ldr	r3, [pc, #156]	; (603c <memalign+0x2cc>)
    5f9e:	462c      	mov	r4, r5
    5fa0:	447b      	add	r3, pc
    5fa2:	e6fb      	b.n	5d9c <memalign+0x2c>
    5fa4:	000032e8 	.word	0x000032e8
    5fa8:	000032de 	.word	0x000032de
    5fac:	000032b6 	.word	0x000032b6
    5fb0:	00001484 	.word	0x00001484
    5fb4:	0000150a 	.word	0x0000150a
    5fb8:	000017da 	.word	0x000017da
    5fbc:	00001466 	.word	0x00001466
    5fc0:	000014ec 	.word	0x000014ec
    5fc4:	000017e8 	.word	0x000017e8
    5fc8:	0000144c 	.word	0x0000144c
    5fcc:	000014d2 	.word	0x000014d2
    5fd0:	000017e1 	.word	0x000017e1
    5fd4:	00001422 	.word	0x00001422
    5fd8:	000014a8 	.word	0x000014a8
    5fdc:	000017de 	.word	0x000017de
    5fe0:	0000320a 	.word	0x0000320a
    5fe4:	000013f4 	.word	0x000013f4
    5fe8:	0000147a 	.word	0x0000147a
    5fec:	00001627 	.word	0x00001627
    5ff0:	000013b2 	.word	0x000013b2
    5ff4:	00001438 	.word	0x00001438
    5ff8:	0000178f 	.word	0x0000178f
    5ffc:	0000137a 	.word	0x0000137a
    6000:	00001400 	.word	0x00001400
    6004:	0000176d 	.word	0x0000176d
    6008:	00001360 	.word	0x00001360
    600c:	000013e6 	.word	0x000013e6
    6010:	00001769 	.word	0x00001769
    6014:	00001338 	.word	0x00001338
    6018:	000013be 	.word	0x000013be
    601c:	00001760 	.word	0x00001760
    6020:	0000131c 	.word	0x0000131c
    6024:	000013a2 	.word	0x000013a2
    6028:	00001763 	.word	0x00001763
    602c:	00003106 	.word	0x00003106
    6030:	000012f0 	.word	0x000012f0
    6034:	00001376 	.word	0x00001376
    6038:	00001523 	.word	0x00001523
    603c:	000030d8 	.word	0x000030d8

00006040 <malloc_add_pool>:
malloc_add_pool():
/home/hsk/Desktop/devel/tee-tpm-hyp/optee_os/lib/libutils/isoc/bget_malloc.c:878
    6040:	e92d 41f3 	stmdb	sp!, {r0, r1, r4, r5, r6, r7, r8, lr}
/home/hsk/Desktop/devel/tee-tpm-hyp/optee_os/lib/libutils/isoc/bget_malloc.c:883
    6044:	1844      	adds	r4, r0, r1
/home/hsk/Desktop/devel/tee-tpm-hyp/optee_os/lib/libutils/isoc/bget_malloc.c:889
    6046:	3007      	adds	r0, #7
    6048:	f020 0607 	bic.w	r6, r0, #7
/home/hsk/Desktop/devel/tee-tpm-hyp/optee_os/lib/libutils/isoc/bget_malloc.c:890
    604c:	f024 0407 	bic.w	r4, r4, #7
/home/hsk/Desktop/devel/tee-tpm-hyp/optee_os/lib/libutils/isoc/bget_malloc.c:891
    6050:	42a6      	cmp	r6, r4
    6052:	d30c      	bcc.n	606e <malloc_add_pool+0x2e>
/home/hsk/Desktop/devel/tee-tpm-hyp/optee_os/lib/libutils/isoc/bget_malloc.c:891 (discriminator 1)
    6054:	4b2c      	ldr	r3, [pc, #176]	; (6108 <malloc_add_pool+0xc8>)
    6056:	f240 327b 	movw	r2, #891	; 0x37b
    605a:	492c      	ldr	r1, [pc, #176]	; (610c <malloc_add_pool+0xcc>)
    605c:	482c      	ldr	r0, [pc, #176]	; (6110 <malloc_add_pool+0xd0>)
    605e:	447b      	add	r3, pc
    6060:	3359      	adds	r3, #89	; 0x59
    6062:	4479      	add	r1, pc
    6064:	4478      	add	r0, pc
/home/hsk/Desktop/devel/tee-tpm-hyp/optee_os/lib/libutils/isoc/bget_malloc.c:904 (discriminator 1)
    6066:	f000 f97d 	bl	6364 <_assert_log>
    606a:	f000 f98f 	bl	638c <_assert_break>
/home/hsk/Desktop/devel/tee-tpm-hyp/optee_os/lib/libutils/isoc/bget_malloc.c:893
    606e:	1ba4      	subs	r4, r4, r6
    6070:	2c17      	cmp	r4, #23
    6072:	d80e      	bhi.n	6092 <malloc_add_pool+0x52>
/home/hsk/Desktop/devel/tee-tpm-hyp/optee_os/lib/libutils/isoc/bget_malloc.c:894
    6074:	4827      	ldr	r0, [pc, #156]	; (6114 <malloc_add_pool+0xd4>)
    6076:	2203      	movs	r2, #3
    6078:	4b27      	ldr	r3, [pc, #156]	; (6118 <malloc_add_pool+0xd8>)
    607a:	f240 317e 	movw	r1, #894	; 0x37e
    607e:	4478      	add	r0, pc
    6080:	447b      	add	r3, pc
    6082:	3059      	adds	r0, #89	; 0x59
    6084:	9300      	str	r3, [sp, #0]
    6086:	2301      	movs	r3, #1
    6088:	f7fa f928 	bl	2dc <trace_printf>
/home/hsk/Desktop/devel/tee-tpm-hyp/optee_os/lib/libutils/isoc/bget_malloc.c:913
    608c:	b002      	add	sp, #8
    608e:	e8bd 81f0 	ldmia.w	sp!, {r4, r5, r6, r7, r8, pc}
/home/hsk/Desktop/devel/tee-tpm-hyp/optee_os/lib/libutils/isoc/bget_malloc.c:901
    6092:	4d22      	ldr	r5, [pc, #136]	; (611c <malloc_add_pool+0xdc>)
    6094:	4630      	mov	r0, r6
    6096:	4621      	mov	r1, r4
    6098:	447d      	add	r5, pc
    609a:	462a      	mov	r2, r5
    609c:	f7ff fd6a 	bl	5b74 <bpool>
/home/hsk/Desktop/devel/tee-tpm-hyp/optee_os/lib/libutils/isoc/bget_malloc.c:902
    60a0:	4b1f      	ldr	r3, [pc, #124]	; (6120 <malloc_add_pool+0xe0>)
    60a2:	447b      	add	r3, pc
    60a4:	6b9f      	ldr	r7, [r3, #56]	; 0x38
/home/hsk/Desktop/devel/tee-tpm-hyp/optee_os/lib/libutils/isoc/bget_malloc.c:903
    60a6:	6bd8      	ldr	r0, [r3, #60]	; 0x3c
/home/hsk/Desktop/devel/tee-tpm-hyp/optee_os/lib/libutils/isoc/bget_malloc.c:902
    60a8:	3701      	adds	r7, #1
raw_realloc():
/home/hsk/Desktop/devel/tee-tpm-hyp/optee_os/lib/libutils/isoc/bget_malloc.c:362
    60aa:	ea5f 08c7 	movs.w	r8, r7, lsl #3
    60ae:	d41a      	bmi.n	60e6 <malloc_add_pool+0xa6>
/home/hsk/Desktop/devel/tee-tpm-hyp/optee_os/lib/libutils/isoc/bget_malloc.c:371
    60b0:	f1b8 0f00 	cmp.w	r8, #0
/home/hsk/Desktop/devel/tee-tpm-hyp/optee_os/lib/libutils/isoc/bget_malloc.c:373
    60b4:	462a      	mov	r2, r5
    60b6:	4641      	mov	r1, r8
    60b8:	bf08      	it	eq
    60ba:	2101      	moveq	r1, #1
    60bc:	f7ff fd1c 	bl	5af8 <bgetr>
    60c0:	4605      	mov	r5, r0
/home/hsk/Desktop/devel/tee-tpm-hyp/optee_os/lib/libutils/isoc/bget_malloc.c:375
    60c2:	4b18      	ldr	r3, [pc, #96]	; (6124 <malloc_add_pool+0xe4>)
    60c4:	4641      	mov	r1, r8
    60c6:	4628      	mov	r0, r5
    60c8:	447b      	add	r3, pc
    60ca:	691a      	ldr	r2, [r3, #16]
    60cc:	f7ff facc 	bl	5668 <raw_malloc_return_hook.isra.3>
malloc_add_pool():
/home/hsk/Desktop/devel/tee-tpm-hyp/optee_os/lib/libutils/isoc/bget_malloc.c:904
    60d0:	b95d      	cbnz	r5, 60ea <malloc_add_pool+0xaa>
/home/hsk/Desktop/devel/tee-tpm-hyp/optee_os/lib/libutils/isoc/bget_malloc.c:904 (discriminator 1)
    60d2:	4b15      	ldr	r3, [pc, #84]	; (6128 <malloc_add_pool+0xe8>)
    60d4:	f44f 7262 	mov.w	r2, #904	; 0x388
    60d8:	4914      	ldr	r1, [pc, #80]	; (612c <malloc_add_pool+0xec>)
    60da:	4815      	ldr	r0, [pc, #84]	; (6130 <malloc_add_pool+0xf0>)
    60dc:	447b      	add	r3, pc
    60de:	3359      	adds	r3, #89	; 0x59
    60e0:	4479      	add	r1, pc
    60e2:	4478      	add	r0, pc
    60e4:	e7bf      	b.n	6066 <malloc_add_pool+0x26>
raw_realloc():
/home/hsk/Desktop/devel/tee-tpm-hyp/optee_os/lib/libutils/isoc/bget_malloc.c:358
    60e6:	2500      	movs	r5, #0
    60e8:	e7eb      	b.n	60c2 <malloc_add_pool+0x82>
malloc_add_pool():
/home/hsk/Desktop/devel/tee-tpm-hyp/optee_os/lib/libutils/isoc/bget_malloc.c:905
    60ea:	4b12      	ldr	r3, [pc, #72]	; (6134 <malloc_add_pool+0xf4>)
    60ec:	447b      	add	r3, pc
/home/hsk/Desktop/devel/tee-tpm-hyp/optee_os/lib/libutils/isoc/bget_malloc.c:906
    60ee:	6b9a      	ldr	r2, [r3, #56]	; 0x38
/home/hsk/Desktop/devel/tee-tpm-hyp/optee_os/lib/libutils/isoc/bget_malloc.c:905
    60f0:	63dd      	str	r5, [r3, #60]	; 0x3c
/home/hsk/Desktop/devel/tee-tpm-hyp/optee_os/lib/libutils/isoc/bget_malloc.c:911
    60f2:	639f      	str	r7, [r3, #56]	; 0x38
/home/hsk/Desktop/devel/tee-tpm-hyp/optee_os/lib/libutils/isoc/bget_malloc.c:906
    60f4:	eb05 01c2 	add.w	r1, r5, r2, lsl #3
    60f8:	f845 6032 	str.w	r6, [r5, r2, lsl #3]
/home/hsk/Desktop/devel/tee-tpm-hyp/optee_os/lib/libutils/isoc/bget_malloc.c:907
    60fc:	604c      	str	r4, [r1, #4]
/home/hsk/Desktop/devel/tee-tpm-hyp/optee_os/lib/libutils/isoc/bget_malloc.c:909
    60fe:	6a99      	ldr	r1, [r3, #40]	; 0x28
    6100:	440c      	add	r4, r1
    6102:	629c      	str	r4, [r3, #40]	; 0x28
    6104:	e7c2      	b.n	608c <malloc_add_pool+0x4c>
    6106:	bf00      	nop
    6108:	0000121a 	.word	0x0000121a
    610c:	000012a0 	.word	0x000012a0
    6110:	00001680 	.word	0x00001680
    6114:	000011fa 	.word	0x000011fa
    6118:	00001670 	.word	0x00001670
    611c:	00002fe0 	.word	0x00002fe0
    6120:	00005022 	.word	0x00005022
    6124:	00002fb0 	.word	0x00002fb0
    6128:	0000119c 	.word	0x0000119c
    612c:	00001222 	.word	0x00001222
    6130:	00001626 	.word	0x00001626
    6134:	00004fd8 	.word	0x00004fd8

00006138 <malloc_buffer_is_within_alloced>:
malloc_buffer_is_within_alloced():
/home/hsk/Desktop/devel/tee-tpm-hyp/optee_os/lib/libutils/isoc/bget_malloc.c:916
    6138:	b5f8      	push	{r3, r4, r5, r6, r7, lr}
/home/hsk/Desktop/devel/tee-tpm-hyp/optee_os/lib/libutils/isoc/bget_malloc.c:927
    613a:	1841      	adds	r1, r0, r1
    613c:	d253      	bcs.n	61e6 <malloc_buffer_is_within_alloced+0xae>
bpool_foreach_iterator_init():
/home/hsk/Desktop/devel/tee-tpm-hyp/optee_os/lib/libutils/isoc/bget_malloc.c:230
    613e:	4a2b      	ldr	r2, [pc, #172]	; (61ec <malloc_buffer_is_within_alloced+0xb4>)
/home/hsk/Desktop/devel/tee-tpm-hyp/optee_os/lib/libutils/isoc/bget_malloc.c:229
    6140:	2500      	movs	r5, #0
    6142:	f06f 0707 	mvn.w	r7, #7
/home/hsk/Desktop/devel/tee-tpm-hyp/optee_os/lib/libutils/isoc/bget_malloc.c:230
    6146:	447a      	add	r2, pc
    6148:	6bd6      	ldr	r6, [r2, #60]	; 0x3c
bpool_foreach():
/home/hsk/Desktop/devel/tee-tpm-hyp/optee_os/lib/libutils/isoc/bget_malloc.c:275
    614a:	f8d2 c038 	ldr.w	ip, [r2, #56]	; 0x38
bpool_foreach_iterator_init():
/home/hsk/Desktop/devel/tee-tpm-hyp/optee_os/lib/libutils/isoc/bget_malloc.c:230
    614e:	6833      	ldr	r3, [r6, #0]
bpool_foreach_pool():
/home/hsk/Desktop/devel/tee-tpm-hyp/optee_os/lib/libutils/isoc/bget_malloc.c:237
    6150:	685a      	ldr	r2, [r3, #4]
/home/hsk/Desktop/devel/tee-tpm-hyp/optee_os/lib/libutils/isoc/bget_malloc.c:239
    6152:	f1b2 4f00 	cmp.w	r2, #2147483648	; 0x80000000
    6156:	d043      	beq.n	61e0 <malloc_buffer_is_within_alloced+0xa8>
/home/hsk/Desktop/devel/tee-tpm-hyp/optee_os/lib/libutils/isoc/bget_malloc.c:242
    6158:	2a00      	cmp	r2, #0
    615a:	da1e      	bge.n	619a <malloc_buffer_is_within_alloced+0x62>
/home/hsk/Desktop/devel/tee-tpm-hyp/optee_os/lib/libutils/isoc/bget_malloc.c:244
    615c:	4254      	negs	r4, r2
/home/hsk/Desktop/devel/tee-tpm-hyp/optee_os/lib/libutils/isoc/bget_malloc.c:246
    615e:	f04f 0e00 	mov.w	lr, #0
/home/hsk/Desktop/devel/tee-tpm-hyp/optee_os/lib/libutils/isoc/bget_malloc.c:259
    6162:	441c      	add	r4, r3
bpool_foreach():
/home/hsk/Desktop/devel/tee-tpm-hyp/optee_os/lib/libutils/isoc/bget_malloc.c:270
    6164:	f1be 0f00 	cmp.w	lr, #0
    6168:	d115      	bne.n	6196 <malloc_buffer_is_within_alloced+0x5e>
    616a:	1aba      	subs	r2, r7, r2
bget_buf_size():
/home/hsk/Desktop/devel/tee-tpm-hyp/optee_os/lib/libutils/isoc/bget_malloc.c:612
    616c:	2a00      	cmp	r2, #0
    616e:	dc0c      	bgt.n	618a <malloc_buffer_is_within_alloced+0x52>
    6170:	4b1f      	ldr	r3, [pc, #124]	; (61f0 <malloc_buffer_is_within_alloced+0xb8>)
    6172:	f44f 7219 	mov.w	r2, #612	; 0x264
    6176:	491f      	ldr	r1, [pc, #124]	; (61f4 <malloc_buffer_is_within_alloced+0xbc>)
    6178:	481f      	ldr	r0, [pc, #124]	; (61f8 <malloc_buffer_is_within_alloced+0xc0>)
    617a:	447b      	add	r3, pc
    617c:	3369      	adds	r3, #105	; 0x69
    617e:	4479      	add	r1, pc
    6180:	4478      	add	r0, pc
bpool_foreach_pool():
/home/hsk/Desktop/devel/tee-tpm-hyp/optee_os/lib/libutils/isoc/bget_malloc.c:252
    6182:	f000 f8ef 	bl	6364 <_assert_log>
    6186:	f000 f901 	bl	638c <_assert_break>
/home/hsk/Desktop/devel/tee-tpm-hyp/optee_os/lib/libutils/isoc/bget_malloc.c:256
    618a:	3308      	adds	r3, #8
malloc_buffer_is_within_alloced():
/home/hsk/Desktop/devel/tee-tpm-hyp/optee_os/lib/libutils/isoc/bget_malloc.c:938
    618c:	4298      	cmp	r0, r3
    618e:	d302      	bcc.n	6196 <malloc_buffer_is_within_alloced+0x5e>
/home/hsk/Desktop/devel/tee-tpm-hyp/optee_os/lib/libutils/isoc/bget_malloc.c:936 (discriminator 1)
    6190:	441a      	add	r2, r3
/home/hsk/Desktop/devel/tee-tpm-hyp/optee_os/lib/libutils/isoc/bget_malloc.c:938 (discriminator 1)
    6192:	4291      	cmp	r1, r2
    6194:	d922      	bls.n	61dc <malloc_buffer_is_within_alloced+0xa4>
bpool_foreach_iterator_init():
/home/hsk/Desktop/devel/tee-tpm-hyp/optee_os/lib/libutils/isoc/bget_malloc.c:229
    6196:	4623      	mov	r3, r4
    6198:	e7da      	b.n	6150 <malloc_buffer_is_within_alloced+0x18>
bpool_foreach_pool():
/home/hsk/Desktop/devel/tee-tpm-hyp/optee_os/lib/libutils/isoc/bget_malloc.c:252
    619a:	68dc      	ldr	r4, [r3, #12]
    619c:	68a4      	ldr	r4, [r4, #8]
    619e:	429c      	cmp	r4, r3
    61a0:	d008      	beq.n	61b4 <malloc_buffer_is_within_alloced+0x7c>
    61a2:	4b16      	ldr	r3, [pc, #88]	; (61fc <malloc_buffer_is_within_alloced+0xc4>)
    61a4:	22fc      	movs	r2, #252	; 0xfc
    61a6:	4916      	ldr	r1, [pc, #88]	; (6200 <malloc_buffer_is_within_alloced+0xc8>)
    61a8:	4816      	ldr	r0, [pc, #88]	; (6204 <malloc_buffer_is_within_alloced+0xcc>)
    61aa:	447b      	add	r3, pc
    61ac:	3377      	adds	r3, #119	; 0x77
    61ae:	4479      	add	r1, pc
    61b0:	4478      	add	r0, pc
    61b2:	e7e6      	b.n	6182 <malloc_buffer_is_within_alloced+0x4a>
/home/hsk/Desktop/devel/tee-tpm-hyp/optee_os/lib/libutils/isoc/bget_malloc.c:253
    61b4:	689c      	ldr	r4, [r3, #8]
    61b6:	68e4      	ldr	r4, [r4, #12]
    61b8:	429c      	cmp	r4, r3
    61ba:	d008      	beq.n	61ce <malloc_buffer_is_within_alloced+0x96>
    61bc:	4b12      	ldr	r3, [pc, #72]	; (6208 <malloc_buffer_is_within_alloced+0xd0>)
    61be:	22fd      	movs	r2, #253	; 0xfd
    61c0:	4912      	ldr	r1, [pc, #72]	; (620c <malloc_buffer_is_within_alloced+0xd4>)
    61c2:	4813      	ldr	r0, [pc, #76]	; (6210 <malloc_buffer_is_within_alloced+0xd8>)
    61c4:	447b      	add	r3, pc
    61c6:	3377      	adds	r3, #119	; 0x77
    61c8:	4479      	add	r1, pc
    61ca:	4478      	add	r0, pc
    61cc:	e7d9      	b.n	6182 <malloc_buffer_is_within_alloced+0x4a>
    61ce:	4614      	mov	r4, r2
/home/hsk/Desktop/devel/tee-tpm-hyp/optee_os/lib/libutils/isoc/bget_malloc.c:249
    61d0:	f04f 0e01 	mov.w	lr, #1
    61d4:	e7c5      	b.n	6162 <malloc_buffer_is_within_alloced+0x2a>
bpool_foreach():
/home/hsk/Desktop/devel/tee-tpm-hyp/optee_os/lib/libutils/isoc/bget_malloc.c:279
    61d6:	f856 4035 	ldr.w	r4, [r6, r5, lsl #3]
    61da:	e7dc      	b.n	6196 <malloc_buffer_is_within_alloced+0x5e>
malloc_buffer_is_within_alloced():
/home/hsk/Desktop/devel/tee-tpm-hyp/optee_os/lib/libutils/isoc/bget_malloc.c:939
    61dc:	2001      	movs	r0, #1
/home/hsk/Desktop/devel/tee-tpm-hyp/optee_os/lib/libutils/isoc/bget_malloc.c:947
    61de:	e003      	b.n	61e8 <malloc_buffer_is_within_alloced+0xb0>
bpool_foreach():
/home/hsk/Desktop/devel/tee-tpm-hyp/optee_os/lib/libutils/isoc/bget_malloc.c:275
    61e0:	3501      	adds	r5, #1
    61e2:	4565      	cmp	r5, ip
    61e4:	d3f7      	bcc.n	61d6 <malloc_buffer_is_within_alloced+0x9e>
malloc_buffer_is_within_alloced():
/home/hsk/Desktop/devel/tee-tpm-hyp/optee_os/lib/libutils/isoc/bget_malloc.c:921
    61e6:	2000      	movs	r0, #0
/home/hsk/Desktop/devel/tee-tpm-hyp/optee_os/lib/libutils/isoc/bget_malloc.c:948
    61e8:	bdf8      	pop	{r3, r4, r5, r6, r7, pc}
    61ea:	bf00      	nop
    61ec:	00004f7e 	.word	0x00004f7e
    61f0:	000010fe 	.word	0x000010fe
    61f4:	00001184 	.word	0x00001184
    61f8:	00001405 	.word	0x00001405
    61fc:	000010ce 	.word	0x000010ce
    6200:	00001154 	.word	0x00001154
    6204:	00001275 	.word	0x00001275
    6208:	000010b4 	.word	0x000010b4
    620c:	0000113a 	.word	0x0000113a
    6210:	00001276 	.word	0x00001276

00006214 <malloc_buffer_overlaps_heap>:
malloc_buffer_overlaps_heap():
/home/hsk/Desktop/devel/tee-tpm-hyp/optee_os/lib/libutils/isoc/bget_malloc.c:960
    6214:	4b11      	ldr	r3, [pc, #68]	; (625c <malloc_buffer_overlaps_heap+0x48>)
    6216:	eb10 0c01 	adds.w	ip, r0, r1
/home/hsk/Desktop/devel/tee-tpm-hyp/optee_os/lib/libutils/isoc/bget_malloc.c:951
    621a:	b5f0      	push	{r4, r5, r6, r7, lr}
    621c:	f04f 0101 	mov.w	r1, #1
/home/hsk/Desktop/devel/tee-tpm-hyp/optee_os/lib/libutils/isoc/bget_malloc.c:960
    6220:	447b      	add	r3, pc
    6222:	bf38      	it	cc
    6224:	2100      	movcc	r1, #0
    6226:	6b9f      	ldr	r7, [r3, #56]	; 0x38
/home/hsk/Desktop/devel/tee-tpm-hyp/optee_os/lib/libutils/isoc/bget_malloc.c:961
    6228:	6bdd      	ldr	r5, [r3, #60]	; 0x3c
/home/hsk/Desktop/devel/tee-tpm-hyp/optee_os/lib/libutils/isoc/bget_malloc.c:960
    622a:	2300      	movs	r3, #0
/home/hsk/Desktop/devel/tee-tpm-hyp/optee_os/lib/libutils/isoc/bget_malloc.c:960 (discriminator 1)
    622c:	429f      	cmp	r7, r3
    622e:	d101      	bne.n	6234 <malloc_buffer_overlaps_heap+0x20>
/home/hsk/Desktop/devel/tee-tpm-hyp/optee_os/lib/libutils/isoc/bget_malloc.c:955
    6230:	2000      	movs	r0, #0
/home/hsk/Desktop/devel/tee-tpm-hyp/optee_os/lib/libutils/isoc/bget_malloc.c:978
    6232:	bdf0      	pop	{r4, r5, r6, r7, pc}
/home/hsk/Desktop/devel/tee-tpm-hyp/optee_os/lib/libutils/isoc/bget_malloc.c:962
    6234:	eb05 02c3 	add.w	r2, r5, r3, lsl #3
/home/hsk/Desktop/devel/tee-tpm-hyp/optee_os/lib/libutils/isoc/bget_malloc.c:961
    6238:	f855 4033 	ldr.w	r4, [r5, r3, lsl #3]
    623c:	2600      	movs	r6, #0
    623e:	6852      	ldr	r2, [r2, #4]
    6240:	1912      	adds	r2, r2, r4
    6242:	bf28      	it	cs
    6244:	2601      	movcs	r6, #1
/home/hsk/Desktop/devel/tee-tpm-hyp/optee_os/lib/libutils/isoc/bget_malloc.c:964
    6246:	b931      	cbnz	r1, 6256 <malloc_buffer_overlaps_heap+0x42>
/home/hsk/Desktop/devel/tee-tpm-hyp/optee_os/lib/libutils/isoc/bget_malloc.c:964 (discriminator 1)
    6248:	b92e      	cbnz	r6, 6256 <malloc_buffer_overlaps_heap+0x42>
/home/hsk/Desktop/devel/tee-tpm-hyp/optee_os/lib/libutils/isoc/bget_malloc.c:969
    624a:	45a4      	cmp	ip, r4
    624c:	d803      	bhi.n	6256 <malloc_buffer_overlaps_heap+0x42>
/home/hsk/Desktop/devel/tee-tpm-hyp/optee_os/lib/libutils/isoc/bget_malloc.c:969 (discriminator 1)
    624e:	4290      	cmp	r0, r2
    6250:	d301      	bcc.n	6256 <malloc_buffer_overlaps_heap+0x42>
/home/hsk/Desktop/devel/tee-tpm-hyp/optee_os/lib/libutils/isoc/bget_malloc.c:960 (discriminator 2)
    6252:	3301      	adds	r3, #1
    6254:	e7ea      	b.n	622c <malloc_buffer_overlaps_heap+0x18>
/home/hsk/Desktop/devel/tee-tpm-hyp/optee_os/lib/libutils/isoc/bget_malloc.c:965
    6256:	2001      	movs	r0, #1
    6258:	e7eb      	b.n	6232 <malloc_buffer_overlaps_heap+0x1e>
    625a:	bf00      	nop
    625c:	00004ea4 	.word	0x00004ea4

00006260 <mempool_alloc_pool>:
mempool_alloc_pool():
/home/hsk/Desktop/devel/tee-tpm-hyp/optee_os/lib/libutils/ext/mempool.c:130
    6260:	b538      	push	{r3, r4, r5, lr}
    6262:	4604      	mov	r4, r0
    6264:	460d      	mov	r5, r1
/home/hsk/Desktop/devel/tee-tpm-hyp/optee_os/lib/libutils/ext/mempool.c:131
    6266:	2001      	movs	r0, #1
    6268:	210c      	movs	r1, #12
    626a:	f7ff fd41 	bl	5cf0 <calloc>
/home/hsk/Desktop/devel/tee-tpm-hyp/optee_os/lib/libutils/ext/mempool.c:134
    626e:	07a3      	lsls	r3, r4, #30
    6270:	d00a      	beq.n	6288 <mempool_alloc_pool+0x28>
/home/hsk/Desktop/devel/tee-tpm-hyp/optee_os/lib/libutils/ext/mempool.c:134 (discriminator 1)
    6272:	4b09      	ldr	r3, [pc, #36]	; (6298 <mempool_alloc_pool+0x38>)
    6274:	2286      	movs	r2, #134	; 0x86
    6276:	4909      	ldr	r1, [pc, #36]	; (629c <mempool_alloc_pool+0x3c>)
    6278:	4809      	ldr	r0, [pc, #36]	; (62a0 <mempool_alloc_pool+0x40>)
    627a:	447b      	add	r3, pc
    627c:	4479      	add	r1, pc
    627e:	4478      	add	r0, pc
    6280:	f000 f870 	bl	6364 <_assert_log>
    6284:	f000 f882 	bl	638c <_assert_break>
/home/hsk/Desktop/devel/tee-tpm-hyp/optee_os/lib/libutils/ext/mempool.c:136
    6288:	b120      	cbz	r0, 6294 <mempool_alloc_pool+0x34>
/home/hsk/Desktop/devel/tee-tpm-hyp/optee_os/lib/libutils/ext/mempool.c:139
    628a:	f04f 33ff 	mov.w	r3, #4294967295	; 0xffffffff
/home/hsk/Desktop/devel/tee-tpm-hyp/optee_os/lib/libutils/ext/mempool.c:137
    628e:	6005      	str	r5, [r0, #0]
/home/hsk/Desktop/devel/tee-tpm-hyp/optee_os/lib/libutils/ext/mempool.c:138
    6290:	6084      	str	r4, [r0, #8]
/home/hsk/Desktop/devel/tee-tpm-hyp/optee_os/lib/libutils/ext/mempool.c:139
    6292:	6043      	str	r3, [r0, #4]
/home/hsk/Desktop/devel/tee-tpm-hyp/optee_os/lib/libutils/ext/mempool.c:149
    6294:	bd38      	pop	{r3, r4, r5, pc}
    6296:	bf00      	nop
    6298:	00001490 	.word	0x00001490
    629c:	000014af 	.word	0x000014af
    62a0:	000014c8 	.word	0x000014c8

000062a4 <mempool_alloc>:
mempool_alloc():
/home/hsk/Desktop/devel/tee-tpm-hyp/optee_os/lib/libutils/ext/mempool.c:152
    62a4:	b573      	push	{r0, r1, r4, r5, r6, lr}
    62a6:	e9d0 2400 	ldrd	r2, r4, [r0]
/home/hsk/Desktop/devel/tee-tpm-hyp/optee_os/lib/libutils/ext/mempool.c:159
    62aa:	2c00      	cmp	r4, #0
    62ac:	db16      	blt.n	62dc <mempool_alloc+0x38>
/home/hsk/Desktop/devel/tee-tpm-hyp/optee_os/lib/libutils/ext/mempool.c:162
    62ae:	6886      	ldr	r6, [r0, #8]
/home/hsk/Desktop/devel/tee-tpm-hyp/optee_os/lib/libutils/ext/mempool.c:166
    62b0:	1ce3      	adds	r3, r4, #3
/home/hsk/Desktop/devel/tee-tpm-hyp/optee_os/lib/libutils/ext/mempool.c:162
    62b2:	19a5      	adds	r5, r4, r6
/home/hsk/Desktop/devel/tee-tpm-hyp/optee_os/lib/libutils/ext/mempool.c:166
    62b4:	59a6      	ldr	r6, [r4, r6]
    62b6:	4433      	add	r3, r6
    62b8:	f023 0303 	bic.w	r3, r3, #3
/home/hsk/Desktop/devel/tee-tpm-hyp/optee_os/lib/libutils/ext/mempool.c:167
    62bc:	429a      	cmp	r2, r3
    62be:	d20f      	bcs.n	62e0 <mempool_alloc+0x3c>
/home/hsk/Desktop/devel/tee-tpm-hyp/optee_os/lib/libutils/ext/mempool.c:194
    62c0:	4b11      	ldr	r3, [pc, #68]	; (6308 <mempool_alloc+0x64>)
    62c2:	4812      	ldr	r0, [pc, #72]	; (630c <mempool_alloc+0x68>)
    62c4:	447b      	add	r3, pc
    62c6:	9300      	str	r3, [sp, #0]
    62c8:	4478      	add	r0, pc
    62ca:	2301      	movs	r3, #1
    62cc:	9101      	str	r1, [sp, #4]
    62ce:	3013      	adds	r0, #19
    62d0:	461a      	mov	r2, r3
    62d2:	21c2      	movs	r1, #194	; 0xc2
    62d4:	f7fa f802 	bl	2dc <trace_printf>
/home/hsk/Desktop/devel/tee-tpm-hyp/optee_os/lib/libutils/ext/mempool.c:196
    62d8:	2000      	movs	r0, #0
    62da:	e013      	b.n	6304 <mempool_alloc+0x60>
/home/hsk/Desktop/devel/tee-tpm-hyp/optee_os/lib/libutils/ext/mempool.c:155
    62dc:	2500      	movs	r5, #0
/home/hsk/Desktop/devel/tee-tpm-hyp/optee_os/lib/libutils/ext/mempool.c:160
    62de:	462b      	mov	r3, r5
/home/hsk/Desktop/devel/tee-tpm-hyp/optee_os/lib/libutils/ext/mempool.c:172
    62e0:	310f      	adds	r1, #15
    62e2:	f021 0103 	bic.w	r1, r1, #3
/home/hsk/Desktop/devel/tee-tpm-hyp/optee_os/lib/libutils/ext/mempool.c:173
    62e6:	185e      	adds	r6, r3, r1
    62e8:	4296      	cmp	r6, r2
    62ea:	d8e9      	bhi.n	62c0 <mempool_alloc+0x1c>
/home/hsk/Desktop/devel/tee-tpm-hyp/optee_os/lib/libutils/ext/mempool.c:176
    62ec:	6886      	ldr	r6, [r0, #8]
    62ee:	199a      	adds	r2, r3, r6
/home/hsk/Desktop/devel/tee-tpm-hyp/optee_os/lib/libutils/ext/mempool.c:177
    62f0:	5199      	str	r1, [r3, r6]
/home/hsk/Desktop/devel/tee-tpm-hyp/optee_os/lib/libutils/ext/mempool.c:178
    62f2:	6054      	str	r4, [r2, #4]
/home/hsk/Desktop/devel/tee-tpm-hyp/optee_os/lib/libutils/ext/mempool.c:179
    62f4:	b105      	cbz	r5, 62f8 <mempool_alloc+0x54>
/home/hsk/Desktop/devel/tee-tpm-hyp/optee_os/lib/libutils/ext/mempool.c:180
    62f6:	60ab      	str	r3, [r5, #8]
/home/hsk/Desktop/devel/tee-tpm-hyp/optee_os/lib/libutils/ext/mempool.c:181
    62f8:	f04f 31ff 	mov.w	r1, #4294967295	; 0xffffffff
    62fc:	6091      	str	r1, [r2, #8]
/home/hsk/Desktop/devel/tee-tpm-hyp/optee_os/lib/libutils/ext/mempool.c:182
    62fe:	6043      	str	r3, [r0, #4]
/home/hsk/Desktop/devel/tee-tpm-hyp/optee_os/lib/libutils/ext/mempool.c:191
    6300:	f102 000c 	add.w	r0, r2, #12
/home/hsk/Desktop/devel/tee-tpm-hyp/optee_os/lib/libutils/ext/mempool.c:197
    6304:	b002      	add	sp, #8
    6306:	bd70      	pop	{r4, r5, r6, pc}
    6308:	000014a6 	.word	0x000014a6
    630c:	00001442 	.word	0x00001442

00006310 <mempool_calloc>:
mempool_calloc():
/home/hsk/Desktop/devel/tee-tpm-hyp/optee_os/lib/libutils/ext/mempool.c:200
    6310:	b570      	push	{r4, r5, r6, lr}
/home/hsk/Desktop/devel/tee-tpm-hyp/optee_os/lib/libutils/ext/mempool.c:204
    6312:	fba1 4502 	umull	r4, r5, r1, r2
    6316:	b935      	cbnz	r5, 6326 <mempool_calloc+0x16>
/home/hsk/Desktop/devel/tee-tpm-hyp/optee_os/lib/libutils/ext/mempool.c:207
    6318:	4621      	mov	r1, r4
    631a:	f7ff ffc3 	bl	62a4 <mempool_alloc>
/home/hsk/Desktop/devel/tee-tpm-hyp/optee_os/lib/libutils/ext/mempool.c:208
    631e:	4606      	mov	r6, r0
    6320:	b918      	cbnz	r0, 632a <mempool_calloc+0x1a>
/home/hsk/Desktop/devel/tee-tpm-hyp/optee_os/lib/libutils/ext/mempool.c:212
    6322:	4630      	mov	r0, r6
    6324:	bd70      	pop	{r4, r5, r6, pc}
/home/hsk/Desktop/devel/tee-tpm-hyp/optee_os/lib/libutils/ext/mempool.c:205
    6326:	2600      	movs	r6, #0
    6328:	e7fb      	b.n	6322 <mempool_calloc+0x12>
/home/hsk/Desktop/devel/tee-tpm-hyp/optee_os/lib/libutils/ext/mempool.c:209
    632a:	4622      	mov	r2, r4
    632c:	4629      	mov	r1, r5
    632e:	f000 f94a 	bl	65c6 <memset>
    6332:	e7f6      	b.n	6322 <mempool_calloc+0x12>

00006334 <mempool_free>:
mempool_free():
/home/hsk/Desktop/devel/tee-tpm-hyp/optee_os/lib/libutils/ext/mempool.c:215
    6334:	b510      	push	{r4, lr}
/home/hsk/Desktop/devel/tee-tpm-hyp/optee_os/lib/libutils/ext/mempool.c:221
    6336:	b181      	cbz	r1, 635a <mempool_free+0x26>
/home/hsk/Desktop/devel/tee-tpm-hyp/optee_os/lib/libutils/ext/mempool.c:224
    6338:	390c      	subs	r1, #12
/home/hsk/Desktop/devel/tee-tpm-hyp/optee_os/lib/libutils/ext/mempool.c:226
    633a:	684b      	ldr	r3, [r1, #4]
    633c:	2b00      	cmp	r3, #0
    633e:	db0d      	blt.n	635c <mempool_free+0x28>
/home/hsk/Desktop/devel/tee-tpm-hyp/optee_os/lib/libutils/ext/mempool.c:229
    6340:	6882      	ldr	r2, [r0, #8]
    6342:	688c      	ldr	r4, [r1, #8]
    6344:	441a      	add	r2, r3
    6346:	6094      	str	r4, [r2, #8]
    6348:	461a      	mov	r2, r3
/home/hsk/Desktop/devel/tee-tpm-hyp/optee_os/lib/libutils/ext/mempool.c:233
    634a:	6889      	ldr	r1, [r1, #8]
    634c:	2900      	cmp	r1, #0
    634e:	db03      	blt.n	6358 <mempool_free+0x24>
/home/hsk/Desktop/devel/tee-tpm-hyp/optee_os/lib/libutils/ext/mempool.c:236
    6350:	6882      	ldr	r2, [r0, #8]
    6352:	440a      	add	r2, r1
    6354:	6053      	str	r3, [r2, #4]
/home/hsk/Desktop/devel/tee-tpm-hyp/optee_os/lib/libutils/ext/mempool.c:237
    6356:	6842      	ldr	r2, [r0, #4]
/home/hsk/Desktop/devel/tee-tpm-hyp/optee_os/lib/libutils/ext/mempool.c:240
    6358:	6042      	str	r2, [r0, #4]
/home/hsk/Desktop/devel/tee-tpm-hyp/optee_os/lib/libutils/ext/mempool.c:242
    635a:	bd10      	pop	{r4, pc}
/home/hsk/Desktop/devel/tee-tpm-hyp/optee_os/lib/libutils/ext/mempool.c:219
    635c:	f04f 32ff 	mov.w	r2, #4294967295	; 0xffffffff
    6360:	e7f3      	b.n	634a <mempool_free+0x16>
    6362:	bf00      	nop

00006364 <_assert_log>:
_assert_log():
/home/hsk/Desktop/devel/tee-tpm-hyp/optee_os/lib/libutee/assert.c:17
    6364:	b57f      	push	{r0, r1, r2, r3, r4, r5, r6, lr}
/home/hsk/Desktop/devel/tee-tpm-hyp/optee_os/lib/libutee/assert.c:18
    6366:	9304      	str	r3, [sp, #16]
    6368:	4b07      	ldr	r3, [pc, #28]	; (6388 <_assert_log+0x24>)
    636a:	9102      	str	r1, [sp, #8]
    636c:	2100      	movs	r1, #0
    636e:	447b      	add	r3, pc
    6370:	9300      	str	r3, [sp, #0]
    6372:	2301      	movs	r3, #1
    6374:	9203      	str	r2, [sp, #12]
    6376:	9001      	str	r0, [sp, #4]
    6378:	461a      	mov	r2, r3
    637a:	4608      	mov	r0, r1
    637c:	f7f9 ffae 	bl	2dc <trace_printf>
/home/hsk/Desktop/devel/tee-tpm-hyp/optee_os/lib/libutee/assert.c:20
    6380:	b007      	add	sp, #28
    6382:	f85d fb04 	ldr.w	pc, [sp], #4
    6386:	bf00      	nop
    6388:	00001434 	.word	0x00001434

0000638c <_assert_break>:
_assert_break():
/home/hsk/Desktop/devel/tee-tpm-hyp/optee_os/lib/libutee/assert.c:23
    638c:	b508      	push	{r3, lr}
/home/hsk/Desktop/devel/tee-tpm-hyp/optee_os/lib/libutee/assert.c:24
    638e:	4802      	ldr	r0, [pc, #8]	; (6398 <_assert_break+0xc>)
    6390:	f7fb eb06 	blx	19a0 <utee_panic>
    6394:	e7fe      	b.n	6394 <_assert_break+0x8>
    6396:	bf00      	nop
    6398:	ffff0000 	.word	0xffff0000

0000639c <tahead_get_trace_level>:
tahead_get_trace_level():
/home/hsk/Desktop/devel/tee-tpm-hyp/optee_os/out/arm/export-ta_arm32/src/user_ta_header.c:107
    639c:	2004      	movs	r0, #4
    639e:	4770      	bx	lr

000063a0 <__aeabi_unwind_cpp_pr0>:
__aeabi_unwind_cpp_pr0():
/home/hsk/Desktop/devel/tee-tpm-hyp/optee_os/lib/libutils/ext/arch/arm/aeabi_unwind.c:9
    63a0:	4770      	bx	lr

000063a2 <__aeabi_unwind_cpp_pr1>:
__aeabi_unwind_cpp_pr1():
    63a2:	4770      	bx	lr

000063a4 <__aeabi_unwind_cpp_pr2>:
__aeabi_unwind_cpp_pr2():
    63a4:	4770      	bx	lr

000063a6 <memchr>:
memchr():
/home/hsk/Desktop/devel/tee-tpm-hyp/optee_os/lib/libutils/isoc/newlib/memchr.c:109
    63a6:	b2c9      	uxtb	r1, r1
    63a8:	4402      	add	r2, r0
/home/hsk/Desktop/devel/tee-tpm-hyp/optee_os/lib/libutils/isoc/newlib/memchr.c:107
    63aa:	b510      	push	{r4, lr}
    63ac:	4603      	mov	r3, r0
/home/hsk/Desktop/devel/tee-tpm-hyp/optee_os/lib/libutils/isoc/newlib/memchr.c:153
    63ae:	4290      	cmp	r0, r2
    63b0:	d101      	bne.n	63b6 <memchr+0x10>
/home/hsk/Desktop/devel/tee-tpm-hyp/optee_os/lib/libutils/isoc/newlib/memchr.c:159
    63b2:	2300      	movs	r3, #0
    63b4:	e003      	b.n	63be <memchr+0x18>
/home/hsk/Desktop/devel/tee-tpm-hyp/optee_os/lib/libutils/isoc/newlib/memchr.c:154
    63b6:	781c      	ldrb	r4, [r3, #0]
    63b8:	3001      	adds	r0, #1
    63ba:	428c      	cmp	r4, r1
    63bc:	d1f6      	bne.n	63ac <memchr+0x6>
/home/hsk/Desktop/devel/tee-tpm-hyp/optee_os/lib/libutils/isoc/newlib/memchr.c:160
    63be:	4618      	mov	r0, r3
    63c0:	bd10      	pop	{r4, pc}

000063c2 <strlen>:
strlen():
/home/hsk/Desktop/devel/tee-tpm-hyp/optee_os/lib/libutils/isoc/newlib/strlen.c:92
    63c2:	4603      	mov	r3, r0
/home/hsk/Desktop/devel/tee-tpm-hyp/optee_os/lib/libutils/isoc/newlib/strlen.c:117
    63c4:	781a      	ldrb	r2, [r3, #0]
    63c6:	1c59      	adds	r1, r3, #1
    63c8:	b90a      	cbnz	r2, 63ce <strlen+0xc>
/home/hsk/Desktop/devel/tee-tpm-hyp/optee_os/lib/libutils/isoc/newlib/strlen.c:120
    63ca:	1a18      	subs	r0, r3, r0
    63cc:	4770      	bx	lr
    63ce:	460b      	mov	r3, r1
    63d0:	e7f8      	b.n	63c4 <strlen+0x2>

000063d2 <__ul_divmod>:
__ul_divmod():
/home/hsk/Desktop/devel/tee-tpm-hyp/optee_os/lib/libutils/isoc/arch/arm/arm32_aeabi_ldivmod.c:68
    63d2:	e9d0 2302 	ldrd	r2, r3, [r0, #8]
/home/hsk/Desktop/devel/tee-tpm-hyp/optee_os/lib/libutils/isoc/arch/arm/arm32_aeabi_ldivmod.c:66
    63d6:	e92d 43f0 	stmdb	sp!, {r4, r5, r6, r7, r8, r9, lr}
division_lqr():
/home/hsk/Desktop/devel/tee-tpm-hyp/optee_os/lib/libutils/isoc/arch/arm/arm32_aeabi_ldivmod.c:22
    63da:	ea52 0103 	orrs.w	r1, r2, r3
__ul_divmod():
/home/hsk/Desktop/devel/tee-tpm-hyp/optee_os/lib/libutils/isoc/arch/arm/arm32_aeabi_ldivmod.c:67
    63de:	e9d0 6700 	ldrd	r6, r7, [r0]
division_lqr():
/home/hsk/Desktop/devel/tee-tpm-hyp/optee_os/lib/libutils/isoc/arch/arm/arm32_aeabi_ldivmod.c:22
    63e2:	d02c      	beq.n	643e <__ul_divmod+0x6c>
/home/hsk/Desktop/devel/tee-tpm-hyp/optee_os/lib/libutils/isoc/arch/arm/arm32_aeabi_ldivmod.c:21
    63e4:	2401      	movs	r4, #1
    63e6:	2500      	movs	r5, #0
/home/hsk/Desktop/devel/tee-tpm-hyp/optee_os/lib/libutils/isoc/arch/arm/arm32_aeabi_ldivmod.c:27
    63e8:	2a00      	cmp	r2, #0
    63ea:	f173 0100 	sbcs.w	r1, r3, #0
    63ee:	da0c      	bge.n	640a <__ul_divmod+0x38>
    63f0:	4690      	mov	r8, r2
    63f2:	4699      	mov	r9, r3
/home/hsk/Desktop/devel/tee-tpm-hyp/optee_os/lib/libutils/isoc/arch/arm/arm32_aeabi_ldivmod.c:21
    63f4:	2200      	movs	r2, #0
    63f6:	2300      	movs	r3, #0
/home/hsk/Desktop/devel/tee-tpm-hyp/optee_os/lib/libutils/isoc/arch/arm/arm32_aeabi_ldivmod.c:32
    63f8:	ea54 0105 	orrs.w	r1, r4, r5
    63fc:	d10a      	bne.n	6414 <__ul_divmod+0x42>
__ul_divmod():
/home/hsk/Desktop/devel/tee-tpm-hyp/optee_os/lib/libutils/isoc/arch/arm/arm32_aeabi_ldivmod.c:73
    63fe:	e9c0 2300 	strd	r2, r3, [r0]
/home/hsk/Desktop/devel/tee-tpm-hyp/optee_os/lib/libutils/isoc/arch/arm/arm32_aeabi_ldivmod.c:74
    6402:	e9c0 6702 	strd	r6, r7, [r0, #8]
/home/hsk/Desktop/devel/tee-tpm-hyp/optee_os/lib/libutils/isoc/arch/arm/arm32_aeabi_ldivmod.c:75
    6406:	e8bd 83f0 	ldmia.w	sp!, {r4, r5, r6, r7, r8, r9, pc}
division_lqr():
/home/hsk/Desktop/devel/tee-tpm-hyp/optee_os/lib/libutils/isoc/arch/arm/arm32_aeabi_ldivmod.c:28
    640a:	1924      	adds	r4, r4, r4
    640c:	416d      	adcs	r5, r5
/home/hsk/Desktop/devel/tee-tpm-hyp/optee_os/lib/libutils/isoc/arch/arm/arm32_aeabi_ldivmod.c:29
    640e:	1892      	adds	r2, r2, r2
    6410:	415b      	adcs	r3, r3
    6412:	e7e9      	b.n	63e8 <__ul_divmod+0x16>
/home/hsk/Desktop/devel/tee-tpm-hyp/optee_os/lib/libutils/isoc/arch/arm/arm32_aeabi_ldivmod.c:33
    6414:	1892      	adds	r2, r2, r2
    6416:	415b      	adcs	r3, r3
/home/hsk/Desktop/devel/tee-tpm-hyp/optee_os/lib/libutils/isoc/arch/arm/arm32_aeabi_ldivmod.c:34
    6418:	454f      	cmp	r7, r9
    641a:	bf08      	it	eq
    641c:	4546      	cmpeq	r6, r8
    641e:	d306      	bcc.n	642e <__ul_divmod+0x5c>
/home/hsk/Desktop/devel/tee-tpm-hyp/optee_os/lib/libutils/isoc/arch/arm/arm32_aeabi_ldivmod.c:35
    6420:	ebb6 0608 	subs.w	r6, r6, r8
    6424:	eb67 0709 	sbc.w	r7, r7, r9
/home/hsk/Desktop/devel/tee-tpm-hyp/optee_os/lib/libutils/isoc/arch/arm/arm32_aeabi_ldivmod.c:36
    6428:	3201      	adds	r2, #1
    642a:	f143 0300 	adc.w	r3, r3, #0
/home/hsk/Desktop/devel/tee-tpm-hyp/optee_os/lib/libutils/isoc/arch/arm/arm32_aeabi_ldivmod.c:38
    642e:	ea5f 0959 	movs.w	r9, r9, lsr #1
    6432:	ea4f 0838 	mov.w	r8, r8, rrx
/home/hsk/Desktop/devel/tee-tpm-hyp/optee_os/lib/libutils/isoc/arch/arm/arm32_aeabi_ldivmod.c:39
    6436:	086d      	lsrs	r5, r5, #1
    6438:	ea4f 0434 	mov.w	r4, r4, rrx
    643c:	e7dc      	b.n	63f8 <__ul_divmod+0x26>
/home/hsk/Desktop/devel/tee-tpm-hyp/optee_os/lib/libutils/isoc/arch/arm/arm32_aeabi_ldivmod.c:23
    643e:	f04f 36ff 	mov.w	r6, #4294967295	; 0xffffffff
    6442:	f04f 37ff 	mov.w	r7, #4294967295	; 0xffffffff
    6446:	e7da      	b.n	63fe <__ul_divmod+0x2c>

00006448 <__l_divmod>:
__l_divmod():
/home/hsk/Desktop/devel/tee-tpm-hyp/optee_os/lib/libutils/isoc/arch/arm/arm32_aeabi_ldivmod.c:85
    6448:	e92d 43f0 	stmdb	sp!, {r4, r5, r6, r7, r8, r9, lr}
/home/hsk/Desktop/devel/tee-tpm-hyp/optee_os/lib/libutils/isoc/arch/arm/arm32_aeabi_ldivmod.c:86
    644c:	e9d0 4500 	ldrd	r4, r5, [r0]
/home/hsk/Desktop/devel/tee-tpm-hyp/optee_os/lib/libutils/isoc/arch/arm/arm32_aeabi_ldivmod.c:87
    6450:	e9d0 2302 	ldrd	r2, r3, [r0, #8]
/home/hsk/Desktop/devel/tee-tpm-hyp/optee_os/lib/libutils/isoc/arch/arm/arm32_aeabi_ldivmod.c:90
    6454:	2c00      	cmp	r4, #0
    6456:	f175 0100 	sbcs.w	r1, r5, #0
    645a:	da34      	bge.n	64c6 <__l_divmod+0x7e>
/home/hsk/Desktop/devel/tee-tpm-hyp/optee_os/lib/libutils/isoc/arch/arm/arm32_aeabi_ldivmod.c:90 (discriminator 1)
    645c:	2a01      	cmp	r2, #1
/home/hsk/Desktop/devel/tee-tpm-hyp/optee_os/lib/libutils/isoc/arch/arm/arm32_aeabi_ldivmod.c:95 (discriminator 1)
    645e:	f04f 0c01 	mov.w	ip, #1
/home/hsk/Desktop/devel/tee-tpm-hyp/optee_os/lib/libutils/isoc/arch/arm/arm32_aeabi_ldivmod.c:90 (discriminator 1)
    6462:	f173 0100 	sbcs.w	r1, r3, #0
    6466:	f04f 0101 	mov.w	r1, #1
    646a:	bfb8      	it	lt
    646c:	2100      	movlt	r1, #0
/home/hsk/Desktop/devel/tee-tpm-hyp/optee_os/lib/libutils/isoc/arch/arm/arm32_aeabi_ldivmod.c:94 (discriminator 1)
    646e:	4264      	negs	r4, r4
    6470:	eb65 0545 	sbc.w	r5, r5, r5, lsl #1
division_lqr():
/home/hsk/Desktop/devel/tee-tpm-hyp/optee_os/lib/libutils/isoc/arch/arm/arm32_aeabi_ldivmod.c:22 (discriminator 1)
    6474:	ea52 0603 	orrs.w	r6, r2, r3
    6478:	d04b      	beq.n	6512 <__l_divmod+0xca>
__l_divmod():
/home/hsk/Desktop/devel/tee-tpm-hyp/optee_os/lib/libutils/isoc/arch/arm/arm32_aeabi_ldivmod.c:100
    647a:	2a00      	cmp	r2, #0
    647c:	f173 0600 	sbcs.w	r6, r3, #0
    6480:	da02      	bge.n	6488 <__l_divmod+0x40>
    6482:	4252      	negs	r2, r2
    6484:	eb63 0343 	sbc.w	r3, r3, r3, lsl #1
    6488:	4616      	mov	r6, r2
    648a:	461f      	mov	r7, r3
division_lqr():
/home/hsk/Desktop/devel/tee-tpm-hyp/optee_os/lib/libutils/isoc/arch/arm/arm32_aeabi_ldivmod.c:21
    648c:	f04f 0801 	mov.w	r8, #1
    6490:	f04f 0900 	mov.w	r9, #0
/home/hsk/Desktop/devel/tee-tpm-hyp/optee_os/lib/libutils/isoc/arch/arm/arm32_aeabi_ldivmod.c:27
    6494:	2e00      	cmp	r6, #0
    6496:	f177 0300 	sbcs.w	r3, r7, #0
    649a:	da1f      	bge.n	64dc <__l_divmod+0x94>
/home/hsk/Desktop/devel/tee-tpm-hyp/optee_os/lib/libutils/isoc/arch/arm/arm32_aeabi_ldivmod.c:21
    649c:	2200      	movs	r2, #0
    649e:	2300      	movs	r3, #0
/home/hsk/Desktop/devel/tee-tpm-hyp/optee_os/lib/libutils/isoc/arch/arm/arm32_aeabi_ldivmod.c:32
    64a0:	ea58 0e09 	orrs.w	lr, r8, r9
    64a4:	d121      	bne.n	64ea <__l_divmod+0xa2>
ul_div_qr():
/home/hsk/Desktop/devel/tee-tpm-hyp/optee_os/lib/libutils/isoc/arch/arm/arm32_aeabi_ldivmod.c:52
    64a6:	b111      	cbz	r1, 64ae <__l_divmod+0x66>
/home/hsk/Desktop/devel/tee-tpm-hyp/optee_os/lib/libutils/isoc/arch/arm/arm32_aeabi_ldivmod.c:53
    64a8:	4252      	negs	r2, r2
    64aa:	eb63 0343 	sbc.w	r3, r3, r3, lsl #1
/home/hsk/Desktop/devel/tee-tpm-hyp/optee_os/lib/libutils/isoc/arch/arm/arm32_aeabi_ldivmod.c:54
    64ae:	f1bc 0f00 	cmp.w	ip, #0
    64b2:	d002      	beq.n	64ba <__l_divmod+0x72>
/home/hsk/Desktop/devel/tee-tpm-hyp/optee_os/lib/libutils/isoc/arch/arm/arm32_aeabi_ldivmod.c:55
    64b4:	4264      	negs	r4, r4
    64b6:	eb65 0545 	sbc.w	r5, r5, r5, lsl #1
__l_divmod():
/home/hsk/Desktop/devel/tee-tpm-hyp/optee_os/lib/libutils/isoc/arch/arm/arm32_aeabi_ldivmod.c:102
    64ba:	e9c0 2300 	strd	r2, r3, [r0]
/home/hsk/Desktop/devel/tee-tpm-hyp/optee_os/lib/libutils/isoc/arch/arm/arm32_aeabi_ldivmod.c:103
    64be:	e9c0 4502 	strd	r4, r5, [r0, #8]
/home/hsk/Desktop/devel/tee-tpm-hyp/optee_os/lib/libutils/isoc/arch/arm/arm32_aeabi_ldivmod.c:104
    64c2:	e8bd 83f0 	ldmia.w	sp!, {r4, r5, r6, r7, r8, r9, pc}
/home/hsk/Desktop/devel/tee-tpm-hyp/optee_os/lib/libutils/isoc/arch/arm/arm32_aeabi_ldivmod.c:90 (discriminator 3)
    64c6:	ea54 0105 	orrs.w	r1, r4, r5
    64ca:	d02c      	beq.n	6526 <__l_divmod+0xde>
/home/hsk/Desktop/devel/tee-tpm-hyp/optee_os/lib/libutils/isoc/arch/arm/arm32_aeabi_ldivmod.c:91
    64cc:	2a00      	cmp	r2, #0
    64ce:	f173 0100 	sbcs.w	r1, r3, #0
    64d2:	da28      	bge.n	6526 <__l_divmod+0xde>
/home/hsk/Desktop/devel/tee-tpm-hyp/optee_os/lib/libutils/isoc/arch/arm/arm32_aeabi_ldivmod.c:92
    64d4:	2101      	movs	r1, #1
/home/hsk/Desktop/devel/tee-tpm-hyp/optee_os/lib/libutils/isoc/arch/arm/arm32_aeabi_ldivmod.c:88
    64d6:	f04f 0c00 	mov.w	ip, #0
    64da:	e7ce      	b.n	647a <__l_divmod+0x32>
division_lqr():
/home/hsk/Desktop/devel/tee-tpm-hyp/optee_os/lib/libutils/isoc/arch/arm/arm32_aeabi_ldivmod.c:28
    64dc:	eb18 0808 	adds.w	r8, r8, r8
    64e0:	eb49 0909 	adc.w	r9, r9, r9
/home/hsk/Desktop/devel/tee-tpm-hyp/optee_os/lib/libutils/isoc/arch/arm/arm32_aeabi_ldivmod.c:29
    64e4:	19b6      	adds	r6, r6, r6
    64e6:	417f      	adcs	r7, r7
    64e8:	e7d4      	b.n	6494 <__l_divmod+0x4c>
/home/hsk/Desktop/devel/tee-tpm-hyp/optee_os/lib/libutils/isoc/arch/arm/arm32_aeabi_ldivmod.c:33
    64ea:	1892      	adds	r2, r2, r2
    64ec:	415b      	adcs	r3, r3
/home/hsk/Desktop/devel/tee-tpm-hyp/optee_os/lib/libutils/isoc/arch/arm/arm32_aeabi_ldivmod.c:34
    64ee:	42bd      	cmp	r5, r7
    64f0:	bf08      	it	eq
    64f2:	42b4      	cmpeq	r4, r6
    64f4:	d305      	bcc.n	6502 <__l_divmod+0xba>
/home/hsk/Desktop/devel/tee-tpm-hyp/optee_os/lib/libutils/isoc/arch/arm/arm32_aeabi_ldivmod.c:35
    64f6:	1ba4      	subs	r4, r4, r6
    64f8:	eb65 0507 	sbc.w	r5, r5, r7
/home/hsk/Desktop/devel/tee-tpm-hyp/optee_os/lib/libutils/isoc/arch/arm/arm32_aeabi_ldivmod.c:36
    64fc:	3201      	adds	r2, #1
    64fe:	f143 0300 	adc.w	r3, r3, #0
/home/hsk/Desktop/devel/tee-tpm-hyp/optee_os/lib/libutils/isoc/arch/arm/arm32_aeabi_ldivmod.c:38
    6502:	087f      	lsrs	r7, r7, #1
    6504:	ea4f 0636 	mov.w	r6, r6, rrx
/home/hsk/Desktop/devel/tee-tpm-hyp/optee_os/lib/libutils/isoc/arch/arm/arm32_aeabi_ldivmod.c:39
    6508:	ea5f 0959 	movs.w	r9, r9, lsr #1
    650c:	ea4f 0838 	mov.w	r8, r8, rrx
    6510:	e7c6      	b.n	64a0 <__l_divmod+0x58>
/home/hsk/Desktop/devel/tee-tpm-hyp/optee_os/lib/libutils/isoc/arch/arm/arm32_aeabi_ldivmod.c:23
    6512:	f04f 34ff 	mov.w	r4, #4294967295	; 0xffffffff
    6516:	f04f 35ff 	mov.w	r5, #4294967295	; 0xffffffff
    651a:	e7c4      	b.n	64a6 <__l_divmod+0x5e>
    651c:	f04f 34ff 	mov.w	r4, #4294967295	; 0xffffffff
    6520:	f04f 35ff 	mov.w	r5, #4294967295	; 0xffffffff
    6524:	e7c9      	b.n	64ba <__l_divmod+0x72>
/home/hsk/Desktop/devel/tee-tpm-hyp/optee_os/lib/libutils/isoc/arch/arm/arm32_aeabi_ldivmod.c:22
    6526:	ea52 0103 	orrs.w	r1, r2, r3
    652a:	d0f7      	beq.n	651c <__l_divmod+0xd4>
    652c:	2100      	movs	r1, #0
    652e:	e7d2      	b.n	64d6 <__l_divmod+0x8e>

00006530 <TEE_Panic>:
TEE_Panic():
/home/hsk/Desktop/devel/tee-tpm-hyp/optee_os/lib/libutee/tee_api_panic.c:12
    6530:	f000 b85a 	b.w	65e8 <__utee_panic_from_thumb>

00006534 <snprintf>:
snprintf():
/home/hsk/Desktop/devel/tee-tpm-hyp/optee_os/lib/libutils/isoc/snprintf.c:10
    6534:	b40c      	push	{r2, r3}
    6536:	b51f      	push	{r0, r1, r2, r3, r4, lr}
/home/hsk/Desktop/devel/tee-tpm-hyp/optee_os/lib/libutils/isoc/snprintf.c:15
    6538:	2400      	movs	r4, #0
/home/hsk/Desktop/devel/tee-tpm-hyp/optee_os/lib/libutils/isoc/snprintf.c:10
    653a:	ab06      	add	r3, sp, #24
    653c:	f853 2b04 	ldr.w	r2, [r3], #4
/home/hsk/Desktop/devel/tee-tpm-hyp/optee_os/lib/libutils/isoc/snprintf.c:15
    6540:	9400      	str	r4, [sp, #0]
/home/hsk/Desktop/devel/tee-tpm-hyp/optee_os/lib/libutils/isoc/snprintf.c:14
    6542:	9303      	str	r3, [sp, #12]
/home/hsk/Desktop/devel/tee-tpm-hyp/optee_os/lib/libutils/isoc/snprintf.c:15
    6544:	f7f9 ffe4 	bl	510 <__vsnprintf>
/home/hsk/Desktop/devel/tee-tpm-hyp/optee_os/lib/libutils/isoc/snprintf.c:19
    6548:	b004      	add	sp, #16
    654a:	e8bd 4010 	ldmia.w	sp!, {r4, lr}
    654e:	b002      	add	sp, #8
    6550:	4770      	bx	lr

00006552 <vsnprintf>:
vsnprintf():
/home/hsk/Desktop/devel/tee-tpm-hyp/optee_os/lib/libutils/isoc/snprintf.c:22
    6552:	b513      	push	{r0, r1, r4, lr}
/home/hsk/Desktop/devel/tee-tpm-hyp/optee_os/lib/libutils/isoc/snprintf.c:23
    6554:	2400      	movs	r4, #0
    6556:	9400      	str	r4, [sp, #0]
    6558:	f7f9 ffda 	bl	510 <__vsnprintf>
/home/hsk/Desktop/devel/tee-tpm-hyp/optee_os/lib/libutils/isoc/snprintf.c:24
    655c:	b002      	add	sp, #8
    655e:	bd10      	pop	{r4, pc}

00006560 <memcmp>:
memcmp():
/home/hsk/Desktop/devel/tee-tpm-hyp/optee_os/lib/libutils/isoc/newlib/memcmp.c:85
    6560:	b530      	push	{r4, r5, lr}
/home/hsk/Desktop/devel/tee-tpm-hyp/optee_os/lib/libutils/isoc/newlib/memcmp.c:90
    6562:	2400      	movs	r4, #0
    6564:	42a2      	cmp	r2, r4
    6566:	d101      	bne.n	656c <memcmp+0xc>
/home/hsk/Desktop/devel/tee-tpm-hyp/optee_os/lib/libutils/isoc/newlib/memcmp.c:96
    6568:	2000      	movs	r0, #0
    656a:	e007      	b.n	657c <memcmp+0x1c>
/home/hsk/Desktop/devel/tee-tpm-hyp/optee_os/lib/libutils/isoc/newlib/memcmp.c:91
    656c:	5d03      	ldrb	r3, [r0, r4]
    656e:	3401      	adds	r4, #1
    6570:	190d      	adds	r5, r1, r4
    6572:	f815 5c01 	ldrb.w	r5, [r5, #-1]
    6576:	42ab      	cmp	r3, r5
    6578:	d0f4      	beq.n	6564 <memcmp+0x4>
/home/hsk/Desktop/devel/tee-tpm-hyp/optee_os/lib/libutils/isoc/newlib/memcmp.c:92
    657a:	1b58      	subs	r0, r3, r5
/home/hsk/Desktop/devel/tee-tpm-hyp/optee_os/lib/libutils/isoc/newlib/memcmp.c:136
    657c:	bd30      	pop	{r4, r5, pc}

0000657e <memcpy>:
memcpy():
/home/hsk/Desktop/devel/tee-tpm-hyp/optee_os/lib/libutils/isoc/newlib/memcpy.c:87
    657e:	1e43      	subs	r3, r0, #1
    6580:	440a      	add	r2, r1
    6582:	b510      	push	{r4, lr}
/home/hsk/Desktop/devel/tee-tpm-hyp/optee_os/lib/libutils/isoc/newlib/memcpy.c:94
    6584:	4291      	cmp	r1, r2
    6586:	d100      	bne.n	658a <memcpy+0xc>
/home/hsk/Desktop/devel/tee-tpm-hyp/optee_os/lib/libutils/isoc/newlib/memcpy.c:135
    6588:	bd10      	pop	{r4, pc}
/home/hsk/Desktop/devel/tee-tpm-hyp/optee_os/lib/libutils/isoc/newlib/memcpy.c:95
    658a:	f811 4b01 	ldrb.w	r4, [r1], #1
    658e:	f803 4f01 	strb.w	r4, [r3, #1]!
    6592:	e7f7      	b.n	6584 <memcpy+0x6>

00006594 <memmove>:
memmove():
/home/hsk/Desktop/devel/tee-tpm-hyp/optee_os/lib/libutils/isoc/newlib/memmove.c:91
    6594:	b510      	push	{r4, lr}
/home/hsk/Desktop/devel/tee-tpm-hyp/optee_os/lib/libutils/isoc/newlib/memmove.c:96
    6596:	4288      	cmp	r0, r1
    6598:	eb01 0302 	add.w	r3, r1, r2
    659c:	d807      	bhi.n	65ae <memmove+0x1a>
    659e:	1e42      	subs	r2, r0, #1
/home/hsk/Desktop/devel/tee-tpm-hyp/optee_os/lib/libutils/isoc/newlib/memmove.c:103
    65a0:	4299      	cmp	r1, r3
    65a2:	d00a      	beq.n	65ba <memmove+0x26>
/home/hsk/Desktop/devel/tee-tpm-hyp/optee_os/lib/libutils/isoc/newlib/memmove.c:104
    65a4:	f811 4b01 	ldrb.w	r4, [r1], #1
    65a8:	f802 4f01 	strb.w	r4, [r2, #1]!
    65ac:	e7f8      	b.n	65a0 <memmove+0xc>
/home/hsk/Desktop/devel/tee-tpm-hyp/optee_os/lib/libutils/isoc/newlib/memmove.c:96 (discriminator 1)
    65ae:	4283      	cmp	r3, r0
    65b0:	d9f5      	bls.n	659e <memmove+0xa>
/home/hsk/Desktop/devel/tee-tpm-hyp/optee_os/lib/libutils/isoc/newlib/memmove.c:99
    65b2:	1881      	adds	r1, r0, r2
    65b4:	1ad2      	subs	r2, r2, r3
/home/hsk/Desktop/devel/tee-tpm-hyp/optee_os/lib/libutils/isoc/newlib/memmove.c:100
    65b6:	42d3      	cmn	r3, r2
    65b8:	d100      	bne.n	65bc <memmove+0x28>
/home/hsk/Desktop/devel/tee-tpm-hyp/optee_os/lib/libutils/isoc/newlib/memmove.c:157
    65ba:	bd10      	pop	{r4, pc}
/home/hsk/Desktop/devel/tee-tpm-hyp/optee_os/lib/libutils/isoc/newlib/memmove.c:101
    65bc:	f813 4d01 	ldrb.w	r4, [r3, #-1]!
    65c0:	f801 4d01 	strb.w	r4, [r1, #-1]!
    65c4:	e7f7      	b.n	65b6 <memmove+0x22>

000065c6 <memset>:
memset():
/home/hsk/Desktop/devel/tee-tpm-hyp/optee_os/lib/libutils/isoc/newlib/memset.c:76
    65c6:	4402      	add	r2, r0
/home/hsk/Desktop/devel/tee-tpm-hyp/optee_os/lib/libutils/isoc/newlib/memset.c:77
    65c8:	4603      	mov	r3, r0
/home/hsk/Desktop/devel/tee-tpm-hyp/optee_os/lib/libutils/isoc/newlib/memset.c:125
    65ca:	4293      	cmp	r3, r2
    65cc:	d100      	bne.n	65d0 <memset+0xa>
/home/hsk/Desktop/devel/tee-tpm-hyp/optee_os/lib/libutils/isoc/newlib/memset.c:129
    65ce:	4770      	bx	lr
/home/hsk/Desktop/devel/tee-tpm-hyp/optee_os/lib/libutils/isoc/newlib/memset.c:126
    65d0:	f803 1b01 	strb.w	r1, [r3], #1
    65d4:	e7f9      	b.n	65ca <memset+0x4>
	...

000065d8 <__utee_log_from_thumb>:
__utee_log_from_thumb():
    65d8:	4778      	bx	pc
    65da:	46c0      	nop			; (mov r8, r8)
    65dc:	e59fc000 	ldr	ip, [pc]	; 65e4 <__utee_log_from_thumb+0xc>
    65e0:	e08cf00f 	add	pc, ip, pc
    65e4:	ffffb3e0 	.word	0xffffb3e0

000065e8 <__utee_panic_from_thumb>:
__utee_panic_from_thumb():
    65e8:	4778      	bx	pc
    65ea:	46c0      	nop			; (mov r8, r8)
    65ec:	e59fc000 	ldr	ip, [pc]	; 65f4 <__utee_panic_from_thumb+0xc>
    65f0:	e08cf00f 	add	pc, ip, pc
    65f4:	ffffb3a8 	.word	0xffffb3a8

000065f8 <__utee_check_access_rights_from_thumb>:
__utee_check_access_rights_from_thumb():
    65f8:	4778      	bx	pc
    65fa:	46c0      	nop			; (mov r8, r8)
    65fc:	e59fc000 	ldr	ip, [pc]	; 6604 <__utee_check_access_rights_from_thumb+0xc>
    6600:	e08cf00f 	add	pc, ip, pc
    6604:	ffffb46c 	.word	0xffffb46c

00006608 <__utee_cache_operation_from_thumb>:
__utee_cache_operation_from_thumb():
    6608:	4778      	bx	pc
    660a:	46c0      	nop			; (mov r8, r8)
    660c:	e59fc000 	ldr	ip, [pc]	; 6614 <__utee_cache_operation_from_thumb+0xc>
    6610:	e08cf00f 	add	pc, ip, pc
    6614:	ffffb824 	.word	0xffffb824
