
b6c53aba-9669-4668-a7f2-205629d00f86.elf:     file format elf32-littlearm
b6c53aba-9669-4668-a7f2-205629d00f86.elf
architecture: arm, flags 0x00000150:
HAS_SYMS, DYNAMIC, D_PAGED
start address 0x00000020

Program Header:
0x70000001 off    0x00018c20 vaddr 0x00008c20 paddr 0x00008c20 align 2**2
         filesz 0x00000640 memsz 0x00000640 flags r--
    LOAD off    0x00010000 vaddr 0x00000000 paddr 0x00000000 align 2**16
         filesz 0x00007a30 memsz 0x00007a30 flags r-x
    LOAD off    0x00017a30 vaddr 0x00007a30 paddr 0x00007a30 align 2**16
         filesz 0x00001c14 memsz 0x00001c14 flags r--
    LOAD off    0x0001a000 vaddr 0x0000a000 paddr 0x0000a000 align 2**16
         filesz 0x00000098 memsz 0x0000a108 flags rw-
 DYNAMIC off    0x000193b4 vaddr 0x000093b4 paddr 0x000093b4 align 2**2
         filesz 0x00000080 memsz 0x00000080 flags rw-

Dynamic Section:
  HASH                 0x000095f4
  STRTAB               0x00009524
  SYMTAB               0x00009434
  STRSZ                0x000000ce
  SYMENT               0x00000010
  DEBUG                0x00000000
  REL                  0x0000929c
  RELSZ                0x00000118
  RELENT               0x00000008
  FLAGS_1              0x08000000
  RELCOUNT             0x00000017
private flags = 5000400: [Version5 EABI] [hard-float ABI]

Sections:
Idx Name          Size      VMA       LMA       File off  Algn
  0 .ta_head      00000020  00000000  00000000  00010000  2**3
                  CONTENTS, ALLOC, LOAD, DATA
  1 .text         00007a10  00000020  00000020  00010020  2**3
                  CONTENTS, ALLOC, LOAD, READONLY, CODE
  2 .rodata       000010c2  00007a30  00007a30  00017a30  2**2
                  CONTENTS, ALLOC, LOAD, READONLY, DATA
  3 .ARM.extab    000000fc  00008af4  00008af4  00018af4  2**2
                  CONTENTS, ALLOC, LOAD, READONLY, DATA
  4 .ARM.extab.text.__aeabi_ldivmod 0000000c  00008bf0  00008bf0  00018bf0  2**2
                  CONTENTS, ALLOC, LOAD, READONLY, DATA
  5 .ARM.extab.text.__aeabi_uldivmod 0000000c  00008bfc  00008bfc  00018bfc  2**2
                  CONTENTS, ALLOC, LOAD, READONLY, DATA
  6 .ARM.extab.text.utee_panic 0000000c  00008c08  00008c08  00018c08  2**2
                  CONTENTS, ALLOC, LOAD, READONLY, DATA
  7 .ARM.extab.text.unlikely 0000000c  00008c14  00008c14  00018c14  2**2
                  CONTENTS, ALLOC, LOAD, READONLY, DATA
  8 .ARM.exidx    00000640  00008c20  00008c20  00018c20  2**2
                  CONTENTS, ALLOC, LOAD, READONLY, DATA
  9 .got          0000003c  00009260  00009260  00019260  2**2
                  CONTENTS, ALLOC, LOAD, DATA
 10 .dynsym       000000f0  00009434  00009434  00019434  2**2
                  CONTENTS, ALLOC, LOAD, READONLY, DATA
 11 .rel.got      00000060  00009354  00009354  00019354  2**2
                  CONTENTS, ALLOC, LOAD, READONLY, DATA
 12 .dynamic      00000080  000093b4  000093b4  000193b4  2**2
                  CONTENTS, ALLOC, LOAD, DATA
 13 .dynstr       000000ce  00009524  00009524  00019524  2**0
                  CONTENTS, ALLOC, LOAD, READONLY, DATA
 14 .hash         00000050  000095f4  000095f4  000195f4  2**2
                  CONTENTS, ALLOC, LOAD, READONLY, DATA
 15 .data         00000098  0000a000  0000a000  0001a000  2**2
                  CONTENTS, ALLOC, LOAD, DATA
 16 .bss          0000a070  0000a098  0000a098  0001a098  2**2
                  ALLOC
 17 .debug_info   00011357  00000000  00000000  0001a098  2**0
                  CONTENTS, READONLY, DEBUGGING
 18 .debug_abbrev 00002d20  00000000  00000000  0002b3ef  2**0
                  CONTENTS, READONLY, DEBUGGING
 19 .debug_loc    00010b45  00000000  00000000  0002e10f  2**0
                  CONTENTS, READONLY, DEBUGGING
 20 .debug_aranges 00000550  00000000  00000000  0003ec58  2**3
                  CONTENTS, READONLY, DEBUGGING
 21 .debug_ranges 00000838  00000000  00000000  0003f1a8  2**3
                  CONTENTS, READONLY, DEBUGGING
 22 .debug_macro  00013eba  00000000  00000000  0003f9e0  2**0
                  CONTENTS, READONLY, DEBUGGING
 23 .debug_line   0000549e  00000000  00000000  0005389a  2**0
                  CONTENTS, READONLY, DEBUGGING
 24 .debug_str    00011e5a  00000000  00000000  00058d38  2**0
                  CONTENTS, READONLY, DEBUGGING
 25 .comment      00000074  00000000  00000000  0006ab92  2**0
                  CONTENTS, READONLY
 26 .ARM.attributes 00000036  00000000  00000000  0006ac06  2**0
                  CONTENTS, READONLY
 27 .debug_frame  00001f38  00000000  00000000  0006ac3c  2**2
                  CONTENTS, READONLY, DEBUGGING
 28 .rel.dyn      000000b8  0000929c  0000929c  0001929c  2**2
                  CONTENTS, ALLOC, LOAD, READONLY, DATA
SYMBOL TABLE:
00000000 l    d  .ta_head	00000000 .ta_head
00000020 l    d  .text	00000000 .text
00007a30 l    d  .rodata	00000000 .rodata
00008af4 l    d  .ARM.extab	00000000 .ARM.extab
00008bf0 l    d  .ARM.extab.text.__aeabi_ldivmod	00000000 .ARM.extab.text.__aeabi_ldivmod
00008bfc l    d  .ARM.extab.text.__aeabi_uldivmod	00000000 .ARM.extab.text.__aeabi_uldivmod
00008c08 l    d  .ARM.extab.text.utee_panic	00000000 .ARM.extab.text.utee_panic
00008c14 l    d  .ARM.extab.text.unlikely	00000000 .ARM.extab.text.unlikely
00008c20 l    d  .ARM.exidx	00000000 .ARM.exidx
00009260 l    d  .got	00000000 .got
00009354 l    d  .rel.got	00000000 .rel.got
000093b4 l    d  .dynamic	00000000 .dynamic
00009434 l    d  .dynsym	00000000 .dynsym
00009524 l    d  .dynstr	00000000 .dynstr
000095f4 l    d  .hash	00000000 .hash
0000a000 l    d  .data	00000000 .data
0000a098 l    d  .bss	00000000 .bss
00000000 l    d  .debug_info	00000000 .debug_info
00000000 l    d  .debug_abbrev	00000000 .debug_abbrev
00000000 l    d  .debug_loc	00000000 .debug_loc
00000000 l    d  .debug_aranges	00000000 .debug_aranges
00000000 l    d  .debug_ranges	00000000 .debug_ranges
00000000 l    d  .debug_macro	00000000 .debug_macro
00000000 l    d  .debug_line	00000000 .debug_line
00000000 l    d  .debug_str	00000000 .debug_str
00000000 l    d  .comment	00000000 .comment
00000000 l    d  .ARM.attributes	00000000 .ARM.attributes
00000000 l    d  .debug_frame	00000000 .debug_frame
0000929c l    d  .rel.dyn	00000000 .rel.dyn
00000000 l    df *ABS*	00000000 user_ta_header.c
00007a34 l     O .rodata	00000004 __compound_literal.5
00007a38 l     O .rodata	00000004 __compound_literal.4
00007a3c l     O .rodata	00000004 __compound_literal.3
00007a40 l     O .rodata	00000001 __compound_literal.2
00007a41 l     O .rodata	00000001 __compound_literal.1
00007a42 l     O .rodata	00000001 __compound_literal.0
00000000 l    df *ABS*	00000000 random_example_ta.c
00007d10 l     O .rodata	00000017 __func__.6165
00000000 l    df *ABS*	00000000 trace.c
00000094 l     F .text	0000004e append
00007e6b l     O .rodata	00000005 lvl_strs.5573
00007e70 l     O .rodata	0000000a __func__.5627
00000000 l    df *ABS*	00000000 snprintk.c
00007eb4 l     O .rodata	00000011 HEXDIGITS
00007ec5 l     O .rodata	00000011 hexdigits
00000000 l    df *ABS*	00000000 arm32_aeabi_ldivmod_a32.o
00000000 l    df *ABS*	00000000 trace_ext.c
00000000 l    df *ABS*	00000000 tee_api_operations.c
00000b38 l     F .text	00000154 tee_buffer_update
00000000 l    df *ABS*	00000000 user_ta_entry.c
000020e8 l     F .text	0000001c ta_header_get_session
00002104 l     F .text	00000068 ta_header_remove_session
0000a098 l     O .bss	00000001 init_done
0000a074 l     O .data	00000008 ta_sessions
00000000 l    df *ABS*	00000000 utee_syscalls_a32.o
00000000 l    df *ABS*	00000000 gprof_a32.o
00000000 l    df *ABS*	00000000 tee_api.c
00007f0e l     O .rodata	0000000b __func__.6740
0000a0c0 l     O .bss	00000004 tee_api_instance_data
00000000 l    df *ABS*	00000000 tee_api_objects.c
00007f2a l     O .rodata	00000010 __func__.6655
00000000 l    df *ABS*	00000000 tee_api_arith_mpi.c
00004254 l     F .text	00000020 api_panic
00003244 l     F .text	00000020 mpi_panic
00003264 l     F .text	00000024 get_mpi
00003288 l     F .text	00000010 mpi_is_odd
00003298 l     F .text	00000016 rng_read
000032ae l     F .text	0000001c put_mpi
000032ca l     F .text	0000045a mpi_egcd
00003724 l     F .text	00000044 get_const_mpi
00003768 l     F .text	00000088 bigint_binary
0000a0c4 l     O .bss	00002000 data.6740
000039f8 l     F .text	000000e8 bigint_binary_mod
00007f4a l     O .rodata	00000009 __func__.7008
00007f53 l     O .rodata	0000000e __func__.6769
00007f61 l     O .rodata	0000000e __func__.6868
00007f6f l     O .rodata	00000012 __func__.6741
00007f81 l     O .rodata	0000000f __func__.6779
00007f90 l     O .rodata	0000001f __func__.6797
00007faf l     O .rodata	00000019 __func__.6804
00007fc8 l     O .rodata	00000012 __func__.6879
00007fda l     O .rodata	00000015 __func__.6834
00007fef l     O .rodata	0000000e __func__.6906
00007ffd l     O .rodata	0000000e __func__.6934
0000800b l     O .rodata	0000000e __func__.6940
00008019 l     O .rodata	00000011 __func__.6969
0000802a l     O .rodata	00000018 __func__.6985
00008042 l     O .rodata	0000001d __func__.7065
0000805f l     O .rodata	00000019 __func__.7115
00008078 l     O .rodata	00000015 __func__.7129
00000000 l    df *ABS*	00000000 bignum.c
00004274 l     F .text	00000038 mpi_get_digit
000042ac l     F .text	0000005c mpi_sub_hlp
00004308 l     F .text	0000049a mpi_mul_hlp
000047a2 l     F .text	00000048 mbedtls_mpi_mod_int.part.3
00005818 l     F .text	0000006e mpi_write_hlp
000059b4 l     F .text	00000050 mpi_check_small_factors
000060ae l     F .text	00000216 mpi_miller_rabin
00007a4c l     O .rodata	000002a0 small_prime
00007cec l     O .rodata	00000024 gcd_pairs
00000000 l    df *ABS*	00000000 bget_malloc.c
00006a50 l     F .text	00000030 raw_malloc_return_hook.isra.3
00006a80 l     F .text	000000d8 create_free_block.constprop.11
000085a1 l     O .rodata	00000012 __func__.5866
000085b3 l     O .rodata	00000005 __func__.5722
000085b8 l     O .rodata	00000006 __func__.5737
000085be l     O .rodata	00000005 __func__.5754
000085c3 l     O .rodata	00000006 __func__.5746
000085c9 l     O .rodata	00000006 __func__.5763
000085cf l     O .rodata	00000007 __func__.5773
000085d6 l     O .rodata	0000000d __func__.5902
000085e3 l     O .rodata	0000000c __func__.5876
000085ef l     O .rodata	0000000b __func__.5887
000085fa l     O .rodata	00000010 __func__.5954
0000860a l     O .rodata	0000000e __func__.5908
00008618 l     O .rodata	00000013 __func__.5814
0000c0c8 l     O .bss	00000038 mstats
0000c100 l     O .bss	00000004 malloc_pool_len
0000c104 l     O .bss	00000004 malloc_pool
0000a07c l     O .data	0000001c malloc_poolset
00000000 l    df *ABS*	00000000 mempool.c
00008a33 l     O .rodata	00000013 __func__.5630
00008a46 l     O .rodata	0000000e __func__.5639
00000000 l    df *ABS*	00000000 assert.c
00000000 l    df *ABS*	00000000 aeabi_unwind.c
00000000 l    df *ABS*	00000000 memchr.c
00000000 l    df *ABS*	00000000 strlen.c
00000000 l    df *ABS*	00000000 arm32_aeabi_ldivmod.c
00000000 l    df *ABS*	00000000 tee_api_panic.c
00000000 l    df *ABS*	00000000 snprintf.c
00000000 l    df *ABS*	00000000 memcmp.c
00000000 l    df *ABS*	00000000 memcpy.c
00000000 l    df *ABS*	00000000 memmove.c
00000000 l    df *ABS*	00000000 memset.c
00000000 l    df *ABS*	00000000 buf_compare_ct.c
00000000 l    df *ABS*	00000000 
000093b4 l     O *ABS*	00000000 _DYNAMIC
00009260 l     O *ABS*	00000000 _GLOBAL_OFFSET_TABLE_
000079f0 l     F .text	00000010 __utee_cache_operation_from_thumb
00007a00 l     F .text	00000010 __utee_check_access_rights_from_thumb
00007a10 l     F .text	00000010 __utee_panic_from_thumb
00007a20 l     F .text	00000010 __utee_log_from_thumb
00000b14 g     F .text	00000022 putchar
00002cfc g     F .text	00000070 TEE_PopulateTransientObject
00004166 g     F .text	00000004 TEE_BigIntConvertToFMM
00003eac g     F .text	00000008 TEE_BigIntSquareMod
00003ae0 g     F .text	000000f4 TEE_BigIntShiftRight
0000268c g     F .text	00000018 utee_storage_obj_create
0000487c g     F .text	000000a8 mbedtls_mpi_grow
00007830 g     F .text	000000e8 __l_divmod
0000230c g     F .text	00000014 utee_return
00001528 g     F .text	00000030 TEE_DigestUpdate
00002a78 g     F .text	00000004 TEE_Realloc
00001390 g     F .text	000000f4 TEE_SetOperationKey2
00000ab6 g     F .text	0000003a printf
00002320 g     F .text	00000014 utee_log
00002d6c g     F .text	00000022 TEE_InitRefAttribute
00002896 g     F .text	00000066 TEE_InvokeTACommand
000047f8 g     F .text	00000024 mbedtls_mpi_init_mempool
00004cf6 g     F .text	00000046 mbedtls_mpi_write_binary
00001b08 g     F .text	00000118 TEE_AEEncryptFinal
00000a44 g     F .text	0000000e vsnprintk
00005164 g     F .text	00000030 mbedtls_mpi_sub_int
0000797c g     F .text	00000032 memmove
0000791c g     F .text	0000001e snprintf
000039d2 g     F .text	00000026 TEE_BigIntCmpS32
00002d8e g     F .text	00000022 TEE_InitValueAttribute
00004924 g     F .text	000000cc mbedtls_mpi_shrink
00007788 g     F .text	00000002 __aeabi_unwind_cpp_pr0
00003c20 g     F .text	0000001c TEE_BigIntAdd
00002360 g     F .text	00000014 utee_get_property_name_to_index
00007a44 g     O .rodata	00000004 ta_heap_size
00002ccc g     F .text	00000030 TEE_ResetTransientObject
00002444 g     F .text	00000018 utee_cryp_state_alloc
00002614 g     F .text	00000018 utee_authenc_enc_final
0000528a g     F .text	0000012c mbedtls_mpi_read_string
000015c8 g     F .text	00000056 TEE_CipherInit
00003c58 g     F .text	00000058 TEE_BigIntNeg
00000020 g       .text	00000000 __text_start
00003090 g     F .text	0000002c TEE_StartPersistentObjectEnumerator
00004dcc g     F .text	0000007c mbedtls_mpi_shift_r
000075fc g     F .text	0000004c malloc_buffer_overlaps_heap
00003e74 g     F .text	0000001c TEE_BigIntSubMod
000065ee g     F .text	00000136 mbedtls_mpi_gen_prime
00004b9e g     F .text	00000020 mbedtls_mpi_get_bit
00004c90 g     F .text	00000066 mbedtls_mpi_read_binary
00001984 g     F .text	00000070 TEE_AEInit
00000114 g     F .text	0000013c trace_printf
00005a2c g     F .text	000000c4 mbedtls_mpi_montmul
00007966 g     F .text	00000016 memcpy
00002470 g     F .text	00000014 utee_cryp_state_free
0000416a g     F .text	0000004a TEE_BigIntConvertFromFMM
00007918 g     F .text	00000004 TEE_Panic
00000a84 g     F .text	00000018 __aeabi_uldivmod
00001484 g     F .text	000000a4 TEE_CopyOperation
00000af0 g     F .text	00000024 puts
000041b4 g     F .text	000000a0 TEE_BigIntComputeFMM
00007070 g     F .text	00000020 malloc_get_stats
000024f0 g     F .text	00000018 utee_cipher_final
00002a18 g     F .text	00000016 TEE_GetREETime
00003030 g     F .text	00000038 TEE_AllocatePersistentObjectEnumerator
0000a004 g     O .data	0000006c ta_props
00001d28 g     F .text	000000bc TEE_AsymmetricEncrypt
00007090 g     F .text	00000038 malloc
00002558 g     F .text	00000014 utee_cryp_obj_close
00002e48 g     F .text	0000006c TEE_GenerateKey
0000793a g     F .text	0000000e vsnprintf
0000a000 g     O .data	00000004 trace_level
0000399c g     F .text	00000036 TEE_BigIntCmp
00007a30 g     O .rodata	00000004 ta_num_props
00006ee0 g     F .text	0000007c bgetr
000025fc g     F .text	00000018 utee_authenc_update_payload
0000771c g     F .text	0000002e mempool_free
0000161e g     F .text	000000e6 TEE_CipherUpdate
000038b4 g     F .text	00000058 TEE_BigIntConvertToOctetString
0000120a g     F .text	000000b6 TEE_GetOperationInfoMultiple
00002794 g     F .text	00000014 utee_cache_operation
00004c42 g     F .text	00000042 mbedtls_mpi_bitlen
000025d0 g     F .text	00000018 utee_authenc_init
00003bd4 g     F .text	0000002a TEE_BigIntGetBit
00007a48 g     O .rodata	00000003 trace_ext_prefix
00006c8c g     F .text	0000005c bgetz
00002968 g     F .text	0000000c TEE_GetInstanceData
00002996 g     F .text	0000001e TEE_Wait
00002744 g     F .text	00000014 utee_storage_obj_write
00005194 g     F .text	000000d8 mbedtls_mpi_mul_mpi
0000778c g     F .text	00000002 __aeabi_unwind_cpp_pr2
00002a86 g     F .text	00000006 TEE_CacheFlush
00000024 g     F .text	00000002 TA_DestroyEntryPoint
000047ea g     F .text	0000000e mbedtls_mpi_init
00004c10 g     F .text	00000032 mbedtls_mpi_lsb
0000774c g     F .text	00000028 _assert_log
00004162 g     F .text	00000004 TEE_BigIntFMMContextSizeInU32
0000191c g     F .text	00000068 TEE_MACCompareFinal
00002fea g     F .text	00000046 TEE_RenamePersistentObject
00001558 g     F .text	00000070 TEE_DigestDoFinal
000037f0 g     F .text	00000044 _TEE_MathAPI_Init
000050a4 g     F .text	00000046 mbedtls_mpi_add_mpi
0000271c g     F .text	00000014 utee_storage_next_enum
0000c108 g     O .bss	00008000 ta_heap
00003eb4 g     F .text	000000a4 TEE_BigIntInvMod
00000034 g     F .text	00000002 TA_CloseSessionEntryPoint
00001de4 g     F .text	000000c0 TEE_AsymmetricDecrypt
00002eb4 g     F .text	00000064 TEE_OpenPersistentObject
000050ea g     F .text	0000004a mbedtls_mpi_sub_mpi
00002334 g     F .text	00000014 __utee_panic
0000245c g     F .text	00000014 utee_cryp_state_copy
00000036 g     F .text	0000005e TA_InvokeCommandEntryPoint
0000768c g     F .text	0000006c mempool_alloc
00002544 g     F .text	00000014 utee_cryp_obj_alloc
00002430 g     F .text	00000014 utee_set_ta_time
00002530 g     F .text	00000014 utee_cryp_obj_get_attr
000076f8 g     F .text	00000024 mempool_calloc
00002e18 g     F .text	00000030 TEE_CopyObjectAttributes
000070d8 g     F .text	00000048 calloc
00002a2e g     F .text	0000004a TEE_Malloc
000023f4 g     F .text	00000014 utee_mask_cancellation
0000256c g     F .text	00000014 utee_cryp_obj_reset
00002950 g     F .text	0000000a TEE_CheckMemoryAccessRights
00014108 g       .bss	00000000 __gprof_buf_end
000077ba g     F .text	00000076 __ul_divmod
00004b66 g     F .text	00000038 mbedtls_mpi_lset
00003110 g     F .text	00000040 TEE_ReadObjectData
00002b64 g     F .text	00000070 TEE_GetObjectBufferAttribute
00000026 g     F .text	0000000e TA_OpenSessionEntryPoint
00002708 g     F .text	00000014 utee_storage_start_enum
00000c8c g     F .text	00000026 TEE_FreeOperation
000026b8 g     F .text	00000014 utee_storage_obj_rename
0000a09c g     O .bss	00000004 ta_param_types
0000574c g     F .text	0000002e mbedtls_mpi_div_int
00002a94 g     F .text	00000038 __utee_from_attr
00004124 g     F .text	00000030 TEE_BigIntIsProbablePrime
0000526c g     F .text	0000001e mbedtls_mpi_mul_int
00002fb0 g     F .text	00000024 TEE_CloseAndDeletePersistentObject1
00005b14 g     F .text	00000454 mbedtls_mpi_exp_mod
00004a74 g     F .text	0000006c mbedtls_mpi_safe_cond_assign
00002348 g     F .text	00000018 utee_get_property
00001c20 g     F .text	00000108 TEE_AEDecryptFinal
00003834 g     F .text	00000040 TEE_BigIntInit
00002974 g     F .text	00000004 TEE_MemMove
00003874 g     F .text	00000040 TEE_BigIntConvertFromOctetString
0000a070 g     O .data	00000004 _ref__utee_mcount
00004e48 g     F .text	00000068 mbedtls_mpi_cmp_abs
00001810 g     F .text	00000056 TEE_MACInit
00001ea4 g     F .text	000000b4 TEE_AsymmetricSignDigest
0000778e g     F .text	0000001c memchr
00002918 g     F .text	0000001c TEE_UnmaskCancellation
00002acc g     F .text	0000002c TEE_GetObjectInfo
00006724 g     F .text	0000032c mbedtls_mpi_self_test
000026a4 g     F .text	00000014 utee_storage_obj_del
00001a3a g     F .text	000000ce TEE_AEUpdate
0000276c g     F .text	00000014 utee_storage_obj_seek
00002c9c g     F .text	00000030 TEE_FreeTransientObject
00004f42 g     F .text	00000030 mbedtls_mpi_cmp_int
00002498 g     F .text	00000014 utee_hash_update
000020d0 g     F .text	00000018 rand
000027a8  w    F .text	0000000c __utee_mcount
000011e8 g     F .text	00000022 TEE_GetOperationInfo
00003e08 g     F .text	00000050 TEE_BigIntMod
000057de g     F .text	0000003a mbedtls_mpi_mod_int
0000238c g     F .text	00000014 utee_close_ta_session
00003d5a g     F .text	000000ae TEE_BigIntDiv
000049f0 g     F .text	00000056 mbedtls_mpi_copy
0000705c g     F .text	00000014 malloc_reset_stats
000024d8 g     F .text	00000018 utee_cipher_update
00002b18 g     F .text	00000020 TEE_RestrictObjectUsage1
00007120 g     F .text	00000038 realloc
00004a46 g     F .text	0000002e mbedtls_mpi_swap
00007648 g     F .text	00000044 mempool_alloc_pool
0000265c g     F .text	00000018 utee_asymm_verify
00003cb0 g     F .text	000000a4 TEE_BigIntMul
000012c0 g     F .text	00000040 TEE_ResetOperation
00004d3c g     F .text	00000090 mbedtls_mpi_shift_l
00004eb0 g     F .text	00000092 mbedtls_mpi_cmp_mpi
0000297c g     F .text	00000004 TEE_MemFill
00007948 g     F .text	0000001e memcmp
00007428 g     F .text	000000f8 malloc_add_pool
00001866 g     F .text	0000004e TEE_MACUpdate
00000100 g     F .text	00000014 trace_get_level
00004f72 g     F .text	000000b8 mbedtls_mpi_add_abs
000025bc g     F .text	00000014 utee_cryp_random_number_generate
00002b38 g     F .text	0000002c TEE_RestrictObjectUsage
0000415a g     F .text	00000008 TEE_BigIntFMMSizeInU32
00004154 g     F .text	00000004 TEE_BigIntInitFMM
00002644 g     F .text	00000018 utee_asymm_operate
00002c58 g     F .text	00000014 TEE_CloseObject
0000216c g     F .text	0000018c __utee_entry
00007a30 g       .text	00000000 __text_end
00003f58 g     F .text	0000007c TEE_BigIntRelativePrime
0000577a g     F .text	00000064 mbedtls_mpi_mod_mpi
00006f5c g     F .text	0000009c bpool
000028fc g     F .text	0000001c TEE_GetCancellationFlag
00005f68 g     F .text	00000112 mbedtls_mpi_gcd
000029f0 g     F .text	00000028 TEE_SetTAPersistentTime
000079ae g     F .text	00000010 memset
000029b4 g     F .text	0000003c TEE_GetTAPersistentTime
00000250 g     F .text	000000f8 dhex_dump
00002f18 g     F .text	00000098 TEE_CreatePersistentObject
00002934 g     F .text	0000001c TEE_MaskCancellation
00002730 g     F .text	00000014 utee_storage_obj_read
000019f4 g     F .text	00000046 TEE_AEUpdateAAD
00003190 g     F .text	00000038 TEE_TruncateObjectData
00002580 g     F .text	00000014 utee_cryp_obj_populate
00002af8 g     F .text	00000020 TEE_GetObjectInfo1
000000e2 g     F .text	0000001e trace_set_level
00002508 g     F .text	00000014 utee_cryp_obj_get_info
00002bd4 g     F .text	00000084 TEE_GetObjectValueAttribute
00001300 g     F .text	00000090 TEE_SetOperationKey
000026cc g     F .text	00000014 utee_storage_alloc_enum
000026f4 g     F .text	00000014 utee_storage_reset_enum
00002758 g     F .text	00000014 utee_storage_obj_trunc
00003944 g     F .text	00000058 TEE_BigIntConvertToS32
00003c3c g     F .text	0000001c TEE_BigIntSub
000023b8 g     F .text	00000014 utee_get_cancellation_flag
00002484 g     F .text	00000014 utee_hash_init
00007784 g     F .text	00000004 tahead_get_trace_level
000027b4 g     F .text	0000004e __utee_from_param
000031c8 g     F .text	0000007c TEE_SeekObjectData
00002802 g     F .text	0000003c __utee_to_param
00005af0 g     F .text	00000024 mbedtls_mpi_montred
00007158 g     F .text	000002d0 memalign
00001704 g     F .text	0000010c TEE_CipherDoFinal
0000390c g     F .text	00000038 TEE_BigIntConvertFromS32
00005134 g     F .text	00000030 mbedtls_mpi_add_int
0000251c g     F .text	00000014 utee_cryp_obj_restrict_usage
00007520 g     F .text	000000dc malloc_buffer_is_within_alloced
00002594 g     F .text	00000014 utee_cryp_obj_copy
00004158 g     F .text	00000002 TEE_BigIntInitFMMContext
000025a8 g     F .text	00000014 utee_cryp_derive_key
0000262c g     F .text	00000018 utee_authenc_dec_final
00003150 g     F .text	00000040 TEE_WriteObjectData
0000307c g     F .text	00000014 TEE_ResetPersistentObjectEnumerator
00003d54 g     F .text	00000006 TEE_BigIntSquare
00000020 g     F .text	00000004 TA_CreateEntryPoint
00005a04 g     F .text	00000028 mbedtls_mpi_montg_init
00000a52 g     F .text	0000001a snprintk
00003bfe g     F .text	00000022 TEE_BigIntGetBitCount
00003e90 g     F .text	0000001c TEE_BigIntMulMod
000062c4 g     F .text	000002ce mbedtls_mpi_inv_mod
00002004 g     F .text	000000ba TEE_DeriveKey
0000a0a0 g     O .bss	00000020 ta_params
000053b6 g     F .text	00000396 mbedtls_mpi_div_mpi
00004c84 g     F .text	0000000c mbedtls_mpi_size
00006b58 g     F .text	00000134 bget
00002c6c g     F .text	00000030 TEE_AllocateTransientObject
00004bbe g     F .text	00000052 mbedtls_mpi_set_bit
0000481c g     F .text	00000012 mbedtls_mpi_init_static
00002a7c g     F .text	00000004 TEE_Free
00006592 g     F .text	0000005c mbedtls_mpi_is_prime
00002a8c g     F .text	00000006 TEE_CacheInvalidate
000024c4 g     F .text	00000014 utee_cipher_init
00007774 g     F .text	00000010 _assert_break
00003e58 g     F .text	0000001c TEE_BigIntAddMod
000026e0 g     F .text	00000014 utee_storage_free_enum
000025e8 g     F .text	00000014 utee_authenc_update_aad
00000cb2 g     F .text	00000536 TEE_AllocateOperation
000020be g     F .text	00000012 TEE_GenerateRandom
00002978 g     F .text	00000004 TEE_MemCompare
00000348 g     F .text	000006fc __vsnprintf
00003068 g     F .text	00000014 TEE_FreePersistentObjectEnumerator
0000283e g     F .text	00000044 TEE_OpenTASession
000022f8 g     F .text	00000014 utee_panic
00000a9c g     F .text	00000014 trace_ext_puts
00000ab0 g     F .text	00000006 trace_ext_get_thread_id
00002fd4 g     F .text	00000016 TEE_CloseAndDeletePersistentObject
0000482e g     F .text	0000004e mbedtls_mpi_free
00002a80 g     F .text	00000006 TEE_CacheClean
00002374 g     F .text	00000018 utee_open_ta_session
000079be g     F .text	0000002c buf_compare_ct
00004ae0 g     F .text	00000086 mbedtls_mpi_safe_cond_swap
00002db0 g     F .text	00000068 TEE_CopyObjectAttributes1
000024ac g     F .text	00000018 utee_hash_final
000077aa g     F .text	00000010 strlen
00003fd4 g     F .text	00000150 TEE_BigIntComputeExtendedGcd
0000778a g     F .text	00000002 __aeabi_unwind_cpp_pr1
00002674 g     F .text	00000018 utee_storage_obj_open
000023a0 g     F .text	00000018 utee_invoke_ta_command
00002408 g     F .text	00000014 utee_wait
00002980 g     F .text	00000016 TEE_GetSystemTime
00000000 g     O .ta_head	00000020 ta_head
00006ce8 g     F .text	000001f8 brel
0000502a g     F .text	0000007a mbedtls_mpi_sub_abs
0000241c g     F .text	00000014 utee_get_time
0000607a g     F .text	00000034 mbedtls_mpi_fill_random
0000295a g     F .text	0000000e TEE_SetInstanceData
000023e0 g     F .text	00000014 utee_unmask_cancellation
00000a6c g     F .text	00000018 __aeabi_ldivmod
000023cc g     F .text	00000014 utee_check_access_rights
00005886 g     F .text	0000012e mbedtls_mpi_write_string
000030bc g     F .text	00000054 TEE_GetNextPersistentObject
00002780 g     F .text	00000014 utee_cryp_obj_generate_key
00002882 g     F .text	00000014 TEE_CloseTASession
00001f58 g     F .text	000000ac TEE_AsymmetricVerifyDigest
00014108 g       .bss	00000000 __gprof_buf_start
000070c8 g     F .text	00000010 free
00006ff8 g     F .text	00000064 bstats
000018b4 g     F .text	00000068 TEE_MACComputeFinal
0000c0c4 g     O .bss	00000004 mbedtls_mpi_mempool



Disassembly of section .text:

00000020 <TA_CreateEntryPoint>:
TA_CreateEntryPoint():
/home/hsk/Desktop/devel/tee-tpm-hyp/optee_examples/random/ta/random_example_ta.c:36
      20:	2000      	movs	r0, #0
      22:	4770      	bx	lr

00000024 <TA_DestroyEntryPoint>:
TA_DestroyEntryPoint():
/home/hsk/Desktop/devel/tee-tpm-hyp/optee_examples/random/ta/random_example_ta.c:40
      24:	4770      	bx	lr

00000026 <TA_OpenSessionEntryPoint>:
TA_OpenSessionEntryPoint():
/home/hsk/Desktop/devel/tee-tpm-hyp/optee_examples/random/ta/random_example_ta.c:50
      26:	2800      	cmp	r0, #0
/home/hsk/Desktop/devel/tee-tpm-hyp/optee_examples/random/ta/random_example_ta.c:57
      28:	4801      	ldr	r0, [pc, #4]	; (30 <TA_OpenSessionEntryPoint+0xa>)
      2a:	bf08      	it	eq
      2c:	2000      	moveq	r0, #0
      2e:	4770      	bx	lr
      30:	ffff0006 	.word	0xffff0006

00000034 <TA_CloseSessionEntryPoint>:
TA_CloseSessionEntryPoint():
/home/hsk/Desktop/devel/tee-tpm-hyp/optee_examples/random/ta/random_example_ta.c:62
      34:	4770      	bx	lr

00000036 <TA_InvokeCommandEntryPoint>:
TA_InvokeCommandEntryPoint():
/home/hsk/Desktop/devel/tee-tpm-hyp/optee_examples/random/ta/random_example_ta.c:94
      36:	b5f7      	push	{r0, r1, r2, r4, r5, r6, r7, lr}
      38:	4617      	mov	r7, r2
      3a:	461d      	mov	r5, r3
/home/hsk/Desktop/devel/tee-tpm-hyp/optee_examples/random/ta/random_example_ta.c:97
      3c:	460c      	mov	r4, r1
      3e:	b9f1      	cbnz	r1, 7e <TA_InvokeCommandEntryPoint+0x48>
random_number_generate():
/home/hsk/Desktop/devel/tee-tpm-hyp/optee_examples/random/ta/random_example_ta.c:73
      40:	4e11      	ldr	r6, [pc, #68]	; (88 <TA_InvokeCommandEntryPoint+0x52>)
      42:	2203      	movs	r2, #3
      44:	4b11      	ldr	r3, [pc, #68]	; (8c <TA_InvokeCommandEntryPoint+0x56>)
      46:	2149      	movs	r1, #73	; 0x49
      48:	447e      	add	r6, pc
      4a:	447b      	add	r3, pc
      4c:	4630      	mov	r0, r6
      4e:	9300      	str	r3, [sp, #0]
      50:	2301      	movs	r3, #1
      52:	f000 f85f 	bl	114 <trace_printf>
/home/hsk/Desktop/devel/tee-tpm-hyp/optee_examples/random/ta/random_example_ta.c:74
      56:	2f06      	cmp	r7, #6
      58:	d111      	bne.n	7e <TA_InvokeCommandEntryPoint+0x48>
/home/hsk/Desktop/devel/tee-tpm-hyp/optee_examples/random/ta/random_example_ta.c:77
      5a:	686b      	ldr	r3, [r5, #4]
      5c:	2202      	movs	r2, #2
      5e:	9301      	str	r3, [sp, #4]
      60:	214d      	movs	r1, #77	; 0x4d
      62:	4b0b      	ldr	r3, [pc, #44]	; (90 <TA_InvokeCommandEntryPoint+0x5a>)
      64:	4630      	mov	r0, r6
      66:	447b      	add	r3, pc
      68:	9300      	str	r3, [sp, #0]
      6a:	2301      	movs	r3, #1
      6c:	f000 f852 	bl	114 <trace_printf>
/home/hsk/Desktop/devel/tee-tpm-hyp/optee_examples/random/ta/random_example_ta.c:86
      70:	e9d5 0100 	ldrd	r0, r1, [r5]
      74:	f002 f823 	bl	20be <TEE_GenerateRandom>
/home/hsk/Desktop/devel/tee-tpm-hyp/optee_examples/random/ta/random_example_ta.c:88
      78:	4620      	mov	r0, r4
TA_InvokeCommandEntryPoint():
/home/hsk/Desktop/devel/tee-tpm-hyp/optee_examples/random/ta/random_example_ta.c:103
      7a:	b003      	add	sp, #12
      7c:	bdf0      	pop	{r4, r5, r6, r7, pc}
random_number_generate():
/home/hsk/Desktop/devel/tee-tpm-hyp/optee_examples/random/ta/random_example_ta.c:75
      7e:	4801      	ldr	r0, [pc, #4]	; (84 <TA_InvokeCommandEntryPoint+0x4e>)
      80:	e7fb      	b.n	7a <TA_InvokeCommandEntryPoint+0x44>
      82:	bf00      	nop
      84:	ffff0006 	.word	0xffff0006
      88:	00007cc4 	.word	0x00007cc4
      8c:	00007cd9 	.word	0x00007cd9
      90:	00007ccd 	.word	0x00007ccd

00000094 <append>:
append():
/home/hsk/Desktop/devel/tee-tpm-hyp/optee_os/lib/libutils/ext/trace.c:198
      94:	b40e      	push	{r1, r2, r3}
/home/hsk/Desktop/devel/tee-tpm-hyp/optee_os/lib/libutils/ext/trace.c:203
      96:	f8d0 3100 	ldr.w	r3, [r0, #256]	; 0x100
/home/hsk/Desktop/devel/tee-tpm-hyp/optee_os/lib/libutils/ext/trace.c:198
      9a:	b533      	push	{r0, r1, r4, r5, lr}
      9c:	4604      	mov	r4, r0
/home/hsk/Desktop/devel/tee-tpm-hyp/optee_os/lib/libutils/ext/trace.c:203
      9e:	b90b      	cbnz	r3, a4 <append+0x10>
/home/hsk/Desktop/devel/tee-tpm-hyp/optee_os/lib/libutils/ext/trace.c:204
      a0:	f8c4 0100 	str.w	r0, [r4, #256]	; 0x100
/home/hsk/Desktop/devel/tee-tpm-hyp/optee_os/lib/libutils/ext/trace.c:205
      a4:	f8d4 0100 	ldr.w	r0, [r4, #256]	; 0x100
/home/hsk/Desktop/devel/tee-tpm-hyp/optee_os/lib/libutils/ext/trace.c:206
      a8:	ab06      	add	r3, sp, #24
/home/hsk/Desktop/devel/tee-tpm-hyp/optee_os/lib/libutils/ext/trace.c:207
      aa:	9a05      	ldr	r2, [sp, #20]
/home/hsk/Desktop/devel/tee-tpm-hyp/optee_os/lib/libutils/ext/trace.c:205
      ac:	1b05      	subs	r5, r0, r4
/home/hsk/Desktop/devel/tee-tpm-hyp/optee_os/lib/libutils/ext/trace.c:206
      ae:	9301      	str	r3, [sp, #4]
/home/hsk/Desktop/devel/tee-tpm-hyp/optee_os/lib/libutils/ext/trace.c:205
      b0:	f5c5 7580 	rsb	r5, r5, #256	; 0x100
/home/hsk/Desktop/devel/tee-tpm-hyp/optee_os/lib/libutils/ext/trace.c:207
      b4:	4629      	mov	r1, r5
      b6:	f000 fcc5 	bl	a44 <vsnprintk>
/home/hsk/Desktop/devel/tee-tpm-hyp/optee_os/lib/libutils/ext/trace.c:209
      ba:	2800      	cmp	r0, #0
      bc:	db0f      	blt.n	de <append+0x4a>
/home/hsk/Desktop/devel/tee-tpm-hyp/optee_os/lib/libutils/ext/trace.c:213
      be:	4285      	cmp	r5, r0
      c0:	dd0d      	ble.n	de <append+0x4a>
/home/hsk/Desktop/devel/tee-tpm-hyp/optee_os/lib/libutils/ext/trace.c:217
      c2:	4285      	cmp	r5, r0
      c4:	bfa8      	it	ge
      c6:	4605      	movge	r5, r0
      c8:	f8d4 0100 	ldr.w	r0, [r4, #256]	; 0x100
      cc:	4405      	add	r5, r0
/home/hsk/Desktop/devel/tee-tpm-hyp/optee_os/lib/libutils/ext/trace.c:218
      ce:	2001      	movs	r0, #1
/home/hsk/Desktop/devel/tee-tpm-hyp/optee_os/lib/libutils/ext/trace.c:217
      d0:	f8c4 5100 	str.w	r5, [r4, #256]	; 0x100
/home/hsk/Desktop/devel/tee-tpm-hyp/optee_os/lib/libutils/ext/trace.c:219
      d4:	b002      	add	sp, #8
      d6:	e8bd 4030 	ldmia.w	sp!, {r4, r5, lr}
      da:	b003      	add	sp, #12
      dc:	4770      	bx	lr
/home/hsk/Desktop/devel/tee-tpm-hyp/optee_os/lib/libutils/ext/trace.c:211
      de:	2000      	movs	r0, #0
      e0:	e7f8      	b.n	d4 <append+0x40>

000000e2 <trace_set_level>:
trace_set_level():
/home/hsk/Desktop/devel/tee-tpm-hyp/optee_os/lib/libutils/ext/trace.c:25
      e2:	4b05      	ldr	r3, [pc, #20]	; (f8 <trace_set_level+0x16>)
/home/hsk/Desktop/devel/tee-tpm-hyp/optee_os/lib/libutils/ext/trace.c:26
      e4:	2804      	cmp	r0, #4
      e6:	4a05      	ldr	r2, [pc, #20]	; (fc <trace_set_level+0x1a>)
/home/hsk/Desktop/devel/tee-tpm-hyp/optee_os/lib/libutils/ext/trace.c:25
      e8:	447b      	add	r3, pc
      ea:	589b      	ldr	r3, [r3, r2]
/home/hsk/Desktop/devel/tee-tpm-hyp/optee_os/lib/libutils/ext/trace.c:26
      ec:	d801      	bhi.n	f2 <trace_set_level+0x10>
/home/hsk/Desktop/devel/tee-tpm-hyp/optee_os/lib/libutils/ext/trace.c:27
      ee:	6018      	str	r0, [r3, #0]
      f0:	4770      	bx	lr
/home/hsk/Desktop/devel/tee-tpm-hyp/optee_os/lib/libutils/ext/trace.c:29
      f2:	2204      	movs	r2, #4
      f4:	601a      	str	r2, [r3, #0]
/home/hsk/Desktop/devel/tee-tpm-hyp/optee_os/lib/libutils/ext/trace.c:30
      f6:	4770      	bx	lr
      f8:	00009174 	.word	0x00009174
      fc:	00000010 	.word	0x00000010

00000100 <trace_get_level>:
trace_get_level():
/home/hsk/Desktop/devel/tee-tpm-hyp/optee_os/lib/libutils/ext/trace.c:33
     100:	4b02      	ldr	r3, [pc, #8]	; (10c <trace_get_level+0xc>)
/home/hsk/Desktop/devel/tee-tpm-hyp/optee_os/lib/libutils/ext/trace.c:34
     102:	4a03      	ldr	r2, [pc, #12]	; (110 <trace_get_level+0x10>)
/home/hsk/Desktop/devel/tee-tpm-hyp/optee_os/lib/libutils/ext/trace.c:33
     104:	447b      	add	r3, pc
/home/hsk/Desktop/devel/tee-tpm-hyp/optee_os/lib/libutils/ext/trace.c:34
     106:	589b      	ldr	r3, [r3, r2]
/home/hsk/Desktop/devel/tee-tpm-hyp/optee_os/lib/libutils/ext/trace.c:35
     108:	6818      	ldr	r0, [r3, #0]
     10a:	4770      	bx	lr
     10c:	00009158 	.word	0x00009158
     110:	00000010 	.word	0x00000010

00000114 <trace_printf>:
trace_printf():
/home/hsk/Desktop/devel/tee-tpm-hyp/optee_os/lib/libutils/ext/trace.c:97
     114:	e92d 47f0 	stmdb	sp!, {r4, r5, r6, r7, r8, r9, sl, lr}
     118:	4607      	mov	r7, r0
     11a:	f8df 910c 	ldr.w	r9, [pc, #268]	; 228 <trace_printf+0x114>
     11e:	b0c6      	sub	sp, #280	; 0x118
     120:	4688      	mov	r8, r1
     122:	44f9      	add	r9, pc
     124:	4614      	mov	r4, r2
/home/hsk/Desktop/devel/tee-tpm-hyp/optee_os/lib/libutils/ext/trace.c:103
     126:	469a      	mov	sl, r3
     128:	2b00      	cmp	r3, #0
     12a:	d06a      	beq.n	202 <trace_printf+0xee>
/home/hsk/Desktop/devel/tee-tpm-hyp/optee_os/lib/libutils/ext/trace.c:103 (discriminator 1)
     12c:	4b3f      	ldr	r3, [pc, #252]	; (22c <trace_printf+0x118>)
     12e:	f859 3003 	ldr.w	r3, [r9, r3]
     132:	681b      	ldr	r3, [r3, #0]
     134:	4293      	cmp	r3, r2
     136:	db61      	blt.n	1fc <trace_printf+0xe8>
trace_level_to_string():
/home/hsk/Desktop/devel/tee-tpm-hyp/optee_os/lib/libutils/ext/trace.c:47
     138:	4613      	mov	r3, r2
     13a:	2a05      	cmp	r2, #5
/home/hsk/Desktop/devel/tee-tpm-hyp/optee_os/lib/libutils/ext/trace.c:55
     13c:	4a3c      	ldr	r2, [pc, #240]	; (230 <trace_printf+0x11c>)
/home/hsk/Desktop/devel/tee-tpm-hyp/optee_os/lib/libutils/ext/trace.c:47
     13e:	bf28      	it	cs
     140:	2300      	movcs	r3, #0
/home/hsk/Desktop/devel/tee-tpm-hyp/optee_os/lib/libutils/ext/trace.c:55
     142:	447a      	add	r2, pc
     144:	5cd3      	ldrb	r3, [r2, r3]
trace_printf():
/home/hsk/Desktop/devel/tee-tpm-hyp/optee_os/lib/libutils/ext/trace.c:107
     146:	4a3b      	ldr	r2, [pc, #236]	; (234 <trace_printf+0x120>)
     148:	ad06      	add	r5, sp, #24
     14a:	f44f 7180 	mov.w	r1, #256	; 0x100
     14e:	4628      	mov	r0, r5
     150:	447a      	add	r2, pc
     152:	f000 fc7e 	bl	a52 <snprintk>
/home/hsk/Desktop/devel/tee-tpm-hyp/optee_os/lib/libutils/ext/trace.c:109
     156:	1e06      	subs	r6, r0, #0
     158:	db50      	blt.n	1fc <trace_printf+0xe8>
/home/hsk/Desktop/devel/tee-tpm-hyp/optee_os/lib/libutils/ext/trace.c:114
     15a:	4b37      	ldr	r3, [pc, #220]	; (238 <trace_printf+0x124>)
     15c:	f5c6 7180 	rsb	r1, r6, #256	; 0x100
     160:	4a36      	ldr	r2, [pc, #216]	; (23c <trace_printf+0x128>)
     162:	19a8      	adds	r0, r5, r6
     164:	447a      	add	r2, pc
     166:	f859 3003 	ldr.w	r3, [r9, r3]
     16a:	9303      	str	r3, [sp, #12]
     16c:	f000 fc71 	bl	a52 <snprintk>
/home/hsk/Desktop/devel/tee-tpm-hyp/optee_os/lib/libutils/ext/trace.c:116
     170:	2800      	cmp	r0, #0
     172:	db43      	blt.n	1fc <trace_printf+0xe8>
/home/hsk/Desktop/devel/tee-tpm-hyp/optee_os/lib/libutils/ext/trace.c:118
     174:	4406      	add	r6, r0
/home/hsk/Desktop/devel/tee-tpm-hyp/optee_os/lib/libutils/ext/trace.c:120
     176:	f1ba 0f00 	cmp.w	sl, #0
     17a:	d04b      	beq.n	214 <trace_printf+0x100>
/home/hsk/Desktop/devel/tee-tpm-hyp/optee_os/lib/libutils/ext/trace.c:120 (discriminator 1)
     17c:	231a      	movs	r3, #26
     17e:	fa23 f404 	lsr.w	r4, r3, r4
     182:	07e3      	lsls	r3, r4, #31
     184:	d546      	bpl.n	214 <trace_printf+0x100>
print_thread_id():
/home/hsk/Desktop/devel/tee-tpm-hyp/optee_os/lib/libutils/ext/trace.c:65
     186:	f000 fc93 	bl	ab0 <trace_ext_get_thread_id>
trace_printf():
/home/hsk/Desktop/devel/tee-tpm-hyp/optee_os/lib/libutils/ext/trace.c:122
     18a:	19ac      	adds	r4, r5, r6
     18c:	f5c6 7980 	rsb	r9, r6, #256	; 0x100
print_thread_id():
/home/hsk/Desktop/devel/tee-tpm-hyp/optee_os/lib/libutils/ext/trace.c:67
     190:	2800      	cmp	r0, #0
     192:	db38      	blt.n	206 <trace_printf+0xf2>
/home/hsk/Desktop/devel/tee-tpm-hyp/optee_os/lib/libutils/ext/trace.c:68
     194:	4a2a      	ldr	r2, [pc, #168]	; (240 <trace_printf+0x12c>)
     196:	2301      	movs	r3, #1
     198:	9000      	str	r0, [sp, #0]
     19a:	447a      	add	r2, pc
/home/hsk/Desktop/devel/tee-tpm-hyp/optee_os/lib/libutils/ext/trace.c:70
     19c:	4649      	mov	r1, r9
     19e:	4620      	mov	r0, r4
     1a0:	f000 fc57 	bl	a52 <snprintk>
trace_printf():
/home/hsk/Desktop/devel/tee-tpm-hyp/optee_os/lib/libutils/ext/trace.c:129
     1a4:	2800      	cmp	r0, #0
     1a6:	db29      	blt.n	1fc <trace_printf+0xe8>
/home/hsk/Desktop/devel/tee-tpm-hyp/optee_os/lib/libutils/ext/trace.c:131
     1a8:	1984      	adds	r4, r0, r6
/home/hsk/Desktop/devel/tee-tpm-hyp/optee_os/lib/libutils/ext/trace.c:133
     1aa:	b167      	cbz	r7, 1c6 <trace_printf+0xb2>
/home/hsk/Desktop/devel/tee-tpm-hyp/optee_os/lib/libutils/ext/trace.c:134
     1ac:	4a25      	ldr	r2, [pc, #148]	; (244 <trace_printf+0x130>)
     1ae:	463b      	mov	r3, r7
     1b0:	f8cd 8000 	str.w	r8, [sp]
     1b4:	f5c4 7180 	rsb	r1, r4, #256	; 0x100
     1b8:	447a      	add	r2, pc
     1ba:	1928      	adds	r0, r5, r4
     1bc:	f000 fc49 	bl	a52 <snprintk>
/home/hsk/Desktop/devel/tee-tpm-hyp/optee_os/lib/libutils/ext/trace.c:136
     1c0:	2800      	cmp	r0, #0
     1c2:	db1b      	blt.n	1fc <trace_printf+0xe8>
/home/hsk/Desktop/devel/tee-tpm-hyp/optee_os/lib/libutils/ext/trace.c:138
     1c4:	4404      	add	r4, r0
/home/hsk/Desktop/devel/tee-tpm-hyp/optee_os/lib/libutils/ext/trace.c:148
     1c6:	ab4f      	add	r3, sp, #316	; 0x13c
/home/hsk/Desktop/devel/tee-tpm-hyp/optee_os/lib/libutils/ext/trace.c:149
     1c8:	f5c4 7180 	rsb	r1, r4, #256	; 0x100
     1cc:	1928      	adds	r0, r5, r4
     1ce:	9a4e      	ldr	r2, [sp, #312]	; 0x138
/home/hsk/Desktop/devel/tee-tpm-hyp/optee_os/lib/libutils/ext/trace.c:148
     1d0:	9305      	str	r3, [sp, #20]
/home/hsk/Desktop/devel/tee-tpm-hyp/optee_os/lib/libutils/ext/trace.c:149
     1d2:	f000 fc37 	bl	a44 <vsnprintk>
/home/hsk/Desktop/devel/tee-tpm-hyp/optee_os/lib/libutils/ext/trace.c:151
     1d6:	2800      	cmp	r0, #0
/home/hsk/Desktop/devel/tee-tpm-hyp/optee_os/lib/libutils/ext/trace.c:157
     1d8:	f04f 030a 	mov.w	r3, #10
/home/hsk/Desktop/devel/tee-tpm-hyp/optee_os/lib/libutils/ext/trace.c:152
     1dc:	bfc8      	it	gt
     1de:	1824      	addgt	r4, r4, r0
     1e0:	2cfe      	cmp	r4, #254	; 0xfe
     1e2:	bf28      	it	cs
     1e4:	24fe      	movcs	r4, #254	; 0xfe
/home/hsk/Desktop/devel/tee-tpm-hyp/optee_os/lib/libutils/ext/trace.c:157
     1e6:	552b      	strb	r3, [r5, r4]
/home/hsk/Desktop/devel/tee-tpm-hyp/optee_os/lib/libutils/ext/trace.c:158
     1e8:	b114      	cbz	r4, 1f0 <trace_printf+0xdc>
/home/hsk/Desktop/devel/tee-tpm-hyp/optee_os/lib/libutils/ext/trace.c:158 (discriminator 1)
     1ea:	5d2b      	ldrb	r3, [r5, r4]
     1ec:	2b0a      	cmp	r3, #10
     1ee:	d019      	beq.n	224 <trace_printf+0x110>
/home/hsk/Desktop/devel/tee-tpm-hyp/optee_os/lib/libutils/ext/trace.c:161
     1f0:	442c      	add	r4, r5
/home/hsk/Desktop/devel/tee-tpm-hyp/optee_os/lib/libutils/ext/trace.c:163
     1f2:	4628      	mov	r0, r5
/home/hsk/Desktop/devel/tee-tpm-hyp/optee_os/lib/libutils/ext/trace.c:161
     1f4:	2300      	movs	r3, #0
     1f6:	70a3      	strb	r3, [r4, #2]
/home/hsk/Desktop/devel/tee-tpm-hyp/optee_os/lib/libutils/ext/trace.c:163
     1f8:	f000 fc50 	bl	a9c <trace_ext_puts>
/home/hsk/Desktop/devel/tee-tpm-hyp/optee_os/lib/libutils/ext/trace.c:164
     1fc:	b046      	add	sp, #280	; 0x118
     1fe:	e8bd 87f0 	ldmia.w	sp!, {r4, r5, r6, r7, r8, r9, sl, pc}
trace_level_to_string():
/home/hsk/Desktop/devel/tee-tpm-hyp/optee_os/lib/libutils/ext/trace.c:50
     202:	234d      	movs	r3, #77	; 0x4d
     204:	e79f      	b.n	146 <trace_printf+0x32>
print_thread_id():
/home/hsk/Desktop/devel/tee-tpm-hyp/optee_os/lib/libutils/ext/trace.c:70
     206:	4b10      	ldr	r3, [pc, #64]	; (248 <trace_printf+0x134>)
     208:	4a10      	ldr	r2, [pc, #64]	; (24c <trace_printf+0x138>)
     20a:	447b      	add	r3, pc
     20c:	9300      	str	r3, [sp, #0]
     20e:	447a      	add	r2, pc
     210:	2301      	movs	r3, #1
     212:	e7c3      	b.n	19c <trace_printf+0x88>
trace_printf():
/home/hsk/Desktop/devel/tee-tpm-hyp/optee_os/lib/libutils/ext/trace.c:142
     214:	2efe      	cmp	r6, #254	; 0xfe
     216:	d8f1      	bhi.n	1fc <trace_printf+0xe8>
/home/hsk/Desktop/devel/tee-tpm-hyp/optee_os/lib/libutils/ext/trace.c:144
     218:	1c74      	adds	r4, r6, #1
     21a:	2320      	movs	r3, #32
     21c:	55ab      	strb	r3, [r5, r6]
/home/hsk/Desktop/devel/tee-tpm-hyp/optee_os/lib/libutils/ext/trace.c:145
     21e:	2300      	movs	r3, #0
     220:	552b      	strb	r3, [r5, r4]
     222:	e7d0      	b.n	1c6 <trace_printf+0xb2>
/home/hsk/Desktop/devel/tee-tpm-hyp/optee_os/lib/libutils/ext/trace.c:159
     224:	3c01      	subs	r4, #1
     226:	e7df      	b.n	1e8 <trace_printf+0xd4>
     228:	0000913a 	.word	0x0000913a
     22c:	00000010 	.word	0x00000010
     230:	00007d25 	.word	0x00007d25
     234:	00007d26 	.word	0x00007d26
     238:	00000018 	.word	0x00000018
     23c:	00007d16 	.word	0x00007d16
     240:	00007ce4 	.word	0x00007ce4
     244:	00007cd1 	.word	0x00007cd1
     248:	00008392 	.word	0x00008392
     24c:	00007c76 	.word	0x00007c76

00000250 <dhex_dump>:
dhex_dump():
/home/hsk/Desktop/devel/tee-tpm-hyp/optee_os/lib/libutils/ext/trace.c:225
     250:	e92d 4ff0 	stmdb	sp!, {r4, r5, r6, r7, r8, r9, sl, fp, lr}
     254:	4617      	mov	r7, r2
     256:	4a33      	ldr	r2, [pc, #204]	; (324 <dhex_dump+0xd4>)
     258:	4689      	mov	r9, r1
/home/hsk/Desktop/devel/tee-tpm-hyp/optee_os/lib/libutils/ext/trace.c:231
     25a:	4933      	ldr	r1, [pc, #204]	; (328 <dhex_dump+0xd8>)
/home/hsk/Desktop/devel/tee-tpm-hyp/optee_os/lib/libutils/ext/trace.c:225
     25c:	447a      	add	r2, pc
     25e:	b0c7      	sub	sp, #284	; 0x11c
     260:	4680      	mov	r8, r0
/home/hsk/Desktop/devel/tee-tpm-hyp/optee_os/lib/libutils/ext/trace.c:231
     262:	5852      	ldr	r2, [r2, r1]
     264:	6812      	ldr	r2, [r2, #0]
     266:	42ba      	cmp	r2, r7
     268:	db1d      	blt.n	2a6 <dhex_dump+0x56>
     26a:	461e      	mov	r6, r3
/home/hsk/Desktop/devel/tee-tpm-hyp/optee_os/lib/libutils/ext/trace.c:240
     26c:	4b2f      	ldr	r3, [pc, #188]	; (32c <dhex_dump+0xdc>)
/home/hsk/Desktop/devel/tee-tpm-hyp/optee_os/lib/libutils/ext/trace.c:232
     26e:	ac05      	add	r4, sp, #20
/home/hsk/Desktop/devel/tee-tpm-hyp/optee_os/lib/libutils/ext/trace.c:235
     270:	f8df b0bc 	ldr.w	fp, [pc, #188]	; 330 <dhex_dump+0xe0>
/home/hsk/Desktop/devel/tee-tpm-hyp/optee_os/lib/libutils/ext/trace.c:240
     274:	447b      	add	r3, pc
     276:	9302      	str	r3, [sp, #8]
/home/hsk/Desktop/devel/tee-tpm-hyp/optee_os/lib/libutils/ext/trace.c:248
     278:	4b2e      	ldr	r3, [pc, #184]	; (334 <dhex_dump+0xe4>)
/home/hsk/Desktop/devel/tee-tpm-hyp/optee_os/lib/libutils/ext/trace.c:235
     27a:	44fb      	add	fp, pc
/home/hsk/Desktop/devel/tee-tpm-hyp/optee_os/lib/libutils/ext/trace.c:232
     27c:	2500      	movs	r5, #0
     27e:	f8c4 5100 	str.w	r5, [r4, #256]	; 0x100
/home/hsk/Desktop/devel/tee-tpm-hyp/optee_os/lib/libutils/ext/trace.c:248
     282:	447b      	add	r3, pc
     284:	9303      	str	r3, [sp, #12]
/home/hsk/Desktop/devel/tee-tpm-hyp/optee_os/lib/libutils/ext/trace.c:233 (discriminator 1)
     286:	9b50      	ldr	r3, [sp, #320]	; 0x140
     288:	429d      	cmp	r5, r3
     28a:	db0f      	blt.n	2ac <dhex_dump+0x5c>
/home/hsk/Desktop/devel/tee-tpm-hyp/optee_os/lib/libutils/ext/trace.c:253
     28c:	f8d4 3100 	ldr.w	r3, [r4, #256]	; 0x100
     290:	b14b      	cbz	r3, 2a6 <dhex_dump+0x56>
/home/hsk/Desktop/devel/tee-tpm-hyp/optee_os/lib/libutils/ext/trace.c:255
     292:	4b29      	ldr	r3, [pc, #164]	; (338 <dhex_dump+0xe8>)
     294:	463a      	mov	r2, r7
     296:	9401      	str	r4, [sp, #4]
     298:	4649      	mov	r1, r9
     29a:	447b      	add	r3, pc
     29c:	4640      	mov	r0, r8
     29e:	9300      	str	r3, [sp, #0]
     2a0:	2301      	movs	r3, #1
     2a2:	f7ff ff37 	bl	114 <trace_printf>
/home/hsk/Desktop/devel/tee-tpm-hyp/optee_os/lib/libutils/ext/trace.c:263
     2a6:	b047      	add	sp, #284	; 0x11c
     2a8:	e8bd 8ff0 	ldmia.w	sp!, {r4, r5, r6, r7, r8, r9, sl, fp, pc}
/home/hsk/Desktop/devel/tee-tpm-hyp/optee_os/lib/libutils/ext/trace.c:234
     2ac:	f015 0a0f 	ands.w	sl, r5, #15
     2b0:	d013      	beq.n	2da <dhex_dump+0x8a>
/home/hsk/Desktop/devel/tee-tpm-hyp/optee_os/lib/libutils/ext/trace.c:240
     2b2:	f816 2b01 	ldrb.w	r2, [r6], #1
     2b6:	4620      	mov	r0, r4
     2b8:	9902      	ldr	r1, [sp, #8]
     2ba:	f7ff feeb 	bl	94 <append>
/home/hsk/Desktop/devel/tee-tpm-hyp/optee_os/lib/libutils/ext/trace.c:241
     2be:	b9a8      	cbnz	r0, 2ec <dhex_dump+0x9c>
/home/hsk/Desktop/devel/tee-tpm-hyp/optee_os/lib/libutils/ext/trace.c:262
     2c0:	481e      	ldr	r0, [pc, #120]	; (33c <dhex_dump+0xec>)
     2c2:	2203      	movs	r2, #3
     2c4:	4b1e      	ldr	r3, [pc, #120]	; (340 <dhex_dump+0xf0>)
     2c6:	f44f 7183 	mov.w	r1, #262	; 0x106
     2ca:	4478      	add	r0, pc
     2cc:	447b      	add	r3, pc
     2ce:	3005      	adds	r0, #5
     2d0:	9300      	str	r3, [sp, #0]
     2d2:	2301      	movs	r3, #1
     2d4:	f7ff ff1e 	bl	114 <trace_printf>
     2d8:	e7e5      	b.n	2a6 <dhex_dump+0x56>
/home/hsk/Desktop/devel/tee-tpm-hyp/optee_os/lib/libutils/ext/trace.c:235
     2da:	4633      	mov	r3, r6
     2dc:	2208      	movs	r2, #8
     2de:	4659      	mov	r1, fp
     2e0:	4620      	mov	r0, r4
     2e2:	f7ff fed7 	bl	94 <append>
/home/hsk/Desktop/devel/tee-tpm-hyp/optee_os/lib/libutils/ext/trace.c:237
     2e6:	2800      	cmp	r0, #0
     2e8:	d1e3      	bne.n	2b2 <dhex_dump+0x62>
     2ea:	e7e9      	b.n	2c0 <dhex_dump+0x70>
/home/hsk/Desktop/devel/tee-tpm-hyp/optee_os/lib/libutils/ext/trace.c:243
     2ec:	f1ba 0f07 	cmp.w	sl, #7
     2f0:	d108      	bne.n	304 <dhex_dump+0xb4>
/home/hsk/Desktop/devel/tee-tpm-hyp/optee_os/lib/libutils/ext/trace.c:244
     2f2:	4914      	ldr	r1, [pc, #80]	; (344 <dhex_dump+0xf4>)
     2f4:	4620      	mov	r0, r4
     2f6:	4479      	add	r1, pc
     2f8:	f7ff fecc 	bl	94 <append>
/home/hsk/Desktop/devel/tee-tpm-hyp/optee_os/lib/libutils/ext/trace.c:245
     2fc:	2800      	cmp	r0, #0
     2fe:	d0df      	beq.n	2c0 <dhex_dump+0x70>
/home/hsk/Desktop/devel/tee-tpm-hyp/optee_os/lib/libutils/ext/trace.c:233 (discriminator 2)
     300:	3501      	adds	r5, #1
     302:	e7c0      	b.n	286 <dhex_dump+0x36>
/home/hsk/Desktop/devel/tee-tpm-hyp/optee_os/lib/libutils/ext/trace.c:247
     304:	f1ba 0f0f 	cmp.w	sl, #15
     308:	d1fa      	bne.n	300 <dhex_dump+0xb0>
/home/hsk/Desktop/devel/tee-tpm-hyp/optee_os/lib/libutils/ext/trace.c:248
     30a:	9b03      	ldr	r3, [sp, #12]
     30c:	463a      	mov	r2, r7
     30e:	9300      	str	r3, [sp, #0]
     310:	4649      	mov	r1, r9
     312:	2301      	movs	r3, #1
     314:	9401      	str	r4, [sp, #4]
     316:	4640      	mov	r0, r8
     318:	f7ff fefc 	bl	114 <trace_printf>
/home/hsk/Desktop/devel/tee-tpm-hyp/optee_os/lib/libutils/ext/trace.c:250
     31c:	2300      	movs	r3, #0
     31e:	f8c4 3100 	str.w	r3, [r4, #256]	; 0x100
     322:	e7ed      	b.n	300 <dhex_dump+0xb0>
     324:	00009000 	.word	0x00009000
     328:	00000010 	.word	0x00000010
     32c:	00007c1c 	.word	0x00007c1c
     330:	00007c1c 	.word	0x00007c1c
     334:	00007c1c 	.word	0x00007c1c
     338:	00007c04 	.word	0x00007c04
     33c:	00007b9d 	.word	0x00007b9d
     340:	00007bd5 	.word	0x00007bd5
     344:	00007ba6 	.word	0x00007ba6

00000348 <__vsnprintf>:
__vsnprintf():
/home/hsk/Desktop/devel/tee-tpm-hyp/optee_os/lib/libutils/ext/snprintk.c:137
     348:	e92d 4ff0 	stmdb	sp!, {r4, r5, r6, r7, r8, r9, sl, fp, lr}
/home/hsk/Desktop/devel/tee-tpm-hyp/optee_os/lib/libutils/ext/snprintk.c:141
     34c:	4607      	mov	r7, r0
     34e:	469b      	mov	fp, r3
/home/hsk/Desktop/devel/tee-tpm-hyp/optee_os/lib/libutils/ext/snprintk.c:137
     350:	b09f      	sub	sp, #124	; 0x7c
kprintf():
/home/hsk/Desktop/devel/tee-tpm-hyp/optee_os/lib/libutils/ext/snprintk.c:269
     352:	2300      	movs	r3, #0
__vsnprintf():
/home/hsk/Desktop/devel/tee-tpm-hyp/optee_os/lib/libutils/ext/snprintk.c:137
     354:	920b      	str	r2, [sp, #44]	; 0x2c
     356:	f89d 20a0 	ldrb.w	r2, [sp, #160]	; 0xa0
     35a:	9213      	str	r2, [sp, #76]	; 0x4c
/home/hsk/Desktop/devel/tee-tpm-hyp/optee_os/lib/libutils/ext/snprintk.c:141
     35c:	4602      	mov	r2, r0
     35e:	440a      	add	r2, r1
/home/hsk/Desktop/devel/tee-tpm-hyp/optee_os/lib/libutils/ext/snprintk.c:137
     360:	9010      	str	r0, [sp, #64]	; 0x40
     362:	9112      	str	r1, [sp, #72]	; 0x48
/home/hsk/Desktop/devel/tee-tpm-hyp/optee_os/lib/libutils/ext/snprintk.c:141
     364:	920e      	str	r2, [sp, #56]	; 0x38
kprintf():
/home/hsk/Desktop/devel/tee-tpm-hyp/optee_os/lib/libutils/ext/snprintk.c:269
     366:	930f      	str	r3, [sp, #60]	; 0x3c
/home/hsk/Desktop/devel/tee-tpm-hyp/optee_os/lib/libutils/ext/snprintk.c:267
     368:	930c      	str	r3, [sp, #48]	; 0x30
/home/hsk/Desktop/devel/tee-tpm-hyp/optee_os/lib/libutils/ext/snprintk.c:275
     36a:	9b0b      	ldr	r3, [sp, #44]	; 0x2c
     36c:	781b      	ldrb	r3, [r3, #0]
     36e:	2b25      	cmp	r3, #37	; 0x25
     370:	d021      	beq.n	3b6 <__vsnprintf+0x6e>
     372:	b99b      	cbnz	r3, 39c <__vsnprintf+0x54>
__vsnprintf():
/home/hsk/Desktop/devel/tee-tpm-hyp/optee_os/lib/libutils/ext/snprintk.c:143
     374:	9b10      	ldr	r3, [sp, #64]	; 0x40
     376:	b16b      	cbz	r3, 394 <__vsnprintf+0x4c>
/home/hsk/Desktop/devel/tee-tpm-hyp/optee_os/lib/libutils/ext/snprintk.c:143 (discriminator 1)
     378:	9b12      	ldr	r3, [sp, #72]	; 0x48
     37a:	b15b      	cbz	r3, 394 <__vsnprintf+0x4c>
/home/hsk/Desktop/devel/tee-tpm-hyp/optee_os/lib/libutils/ext/snprintk.c:145
     37c:	9b0c      	ldr	r3, [sp, #48]	; 0x30
     37e:	9a12      	ldr	r2, [sp, #72]	; 0x48
     380:	4293      	cmp	r3, r2
     382:	f04f 0300 	mov.w	r3, #0
/home/hsk/Desktop/devel/tee-tpm-hyp/optee_os/lib/libutils/ext/snprintk.c:146
     386:	9a10      	ldr	r2, [sp, #64]	; 0x40
/home/hsk/Desktop/devel/tee-tpm-hyp/optee_os/lib/libutils/ext/snprintk.c:145
     388:	f0c0 8341 	bcc.w	a0e <__vsnprintf+0x6c6>
/home/hsk/Desktop/devel/tee-tpm-hyp/optee_os/lib/libutils/ext/snprintk.c:146
     38c:	9912      	ldr	r1, [sp, #72]	; 0x48
     38e:	440a      	add	r2, r1
     390:	f802 3c01 	strb.w	r3, [r2, #-1]
/home/hsk/Desktop/devel/tee-tpm-hyp/optee_os/lib/libutils/ext/snprintk.c:151
     394:	980c      	ldr	r0, [sp, #48]	; 0x30
     396:	b01f      	add	sp, #124	; 0x7c
     398:	e8bd 8ff0 	ldmia.w	sp!, {r4, r5, r6, r7, r8, r9, sl, fp, pc}
kprintf():
/home/hsk/Desktop/devel/tee-tpm-hyp/optee_os/lib/libutils/ext/snprintk.c:276
     39c:	9a0c      	ldr	r2, [sp, #48]	; 0x30
     39e:	3201      	adds	r2, #1
     3a0:	920c      	str	r2, [sp, #48]	; 0x30
/home/hsk/Desktop/devel/tee-tpm-hyp/optee_os/lib/libutils/ext/snprintk.c:277
     3a2:	b127      	cbz	r7, 3ae <__vsnprintf+0x66>
     3a4:	9a0e      	ldr	r2, [sp, #56]	; 0x38
     3a6:	42ba      	cmp	r2, r7
     3a8:	d901      	bls.n	3ae <__vsnprintf+0x66>
     3aa:	703b      	strb	r3, [r7, #0]
     3ac:	3701      	adds	r7, #1
/home/hsk/Desktop/devel/tee-tpm-hyp/optee_os/lib/libutils/ext/snprintk.c:275
     3ae:	9b0b      	ldr	r3, [sp, #44]	; 0x2c
     3b0:	3301      	adds	r3, #1
     3b2:	930b      	str	r3, [sp, #44]	; 0x2c
     3b4:	e7d9      	b.n	36a <__vsnprintf+0x22>
/home/hsk/Desktop/devel/tee-tpm-hyp/optee_os/lib/libutils/ext/snprintk.c:282
     3b6:	9b0b      	ldr	r3, [sp, #44]	; 0x2c
/home/hsk/Desktop/devel/tee-tpm-hyp/optee_os/lib/libutils/ext/snprintk.c:288
     3b8:	f04f 0900 	mov.w	r9, #0
/home/hsk/Desktop/devel/tee-tpm-hyp/optee_os/lib/libutils/ext/snprintk.c:284
     3bc:	464e      	mov	r6, r9
/home/hsk/Desktop/devel/tee-tpm-hyp/optee_os/lib/libutils/ext/snprintk.c:287
     3be:	f04f 32ff 	mov.w	r2, #4294967295	; 0xffffffff
/home/hsk/Desktop/devel/tee-tpm-hyp/optee_os/lib/libutils/ext/snprintk.c:282
     3c2:	3301      	adds	r3, #1
     3c4:	930b      	str	r3, [sp, #44]	; 0x2c
     3c6:	465b      	mov	r3, fp
/home/hsk/Desktop/devel/tee-tpm-hyp/optee_os/lib/libutils/ext/snprintk.c:287
     3c8:	920a      	str	r2, [sp, #40]	; 0x28
/home/hsk/Desktop/devel/tee-tpm-hyp/optee_os/lib/libutils/ext/snprintk.c:286
     3ca:	f8cd 9034 	str.w	r9, [sp, #52]	; 0x34
/home/hsk/Desktop/devel/tee-tpm-hyp/optee_os/lib/libutils/ext/snprintk.c:290
     3ce:	9a0b      	ldr	r2, [sp, #44]	; 0x2c
     3d0:	3201      	adds	r2, #1
     3d2:	f812 8c01 	ldrb.w	r8, [r2, #-1]
/home/hsk/Desktop/devel/tee-tpm-hyp/optee_os/lib/libutils/ext/snprintk.c:319
     3d6:	920b      	str	r2, [sp, #44]	; 0x2c
/home/hsk/Desktop/devel/tee-tpm-hyp/optee_os/lib/libutils/ext/snprintk.c:291
     3d8:	f1b8 0f63 	cmp.w	r8, #99	; 0x63
     3dc:	f000 8166 	beq.w	6ac <__vsnprintf+0x364>
     3e0:	dc61      	bgt.n	4a6 <__vsnprintf+0x15e>
     3e2:	f1b8 0f30 	cmp.w	r8, #48	; 0x30
     3e6:	f000 814b 	beq.w	680 <__vsnprintf+0x338>
     3ea:	dc25      	bgt.n	438 <__vsnprintf+0xf0>
     3ec:	f1b8 0f2a 	cmp.w	r8, #42	; 0x2a
     3f0:	f000 811c 	beq.w	62c <__vsnprintf+0x2e4>
     3f4:	dc13      	bgt.n	41e <__vsnprintf+0xd6>
     3f6:	f1b8 0f20 	cmp.w	r8, #32
     3fa:	f000 810d 	beq.w	618 <__vsnprintf+0x2d0>
     3fe:	f1b8 0f23 	cmp.w	r8, #35	; 0x23
     402:	f000 8110 	beq.w	626 <__vsnprintf+0x2de>
/home/hsk/Desktop/devel/tee-tpm-hyp/optee_os/lib/libutils/ext/snprintk.c:541
     406:	f1b8 0f00 	cmp.w	r8, #0
     40a:	d0b3      	beq.n	374 <__vsnprintf+0x2c>
/home/hsk/Desktop/devel/tee-tpm-hyp/optee_os/lib/libutils/ext/snprintk.c:545
     40c:	f10d 0a78 	add.w	sl, sp, #120	; 0x78
     410:	469b      	mov	fp, r3
/home/hsk/Desktop/devel/tee-tpm-hyp/optee_os/lib/libutils/ext/snprintk.c:546
     412:	2301      	movs	r3, #1
/home/hsk/Desktop/devel/tee-tpm-hyp/optee_os/lib/libutils/ext/snprintk.c:545
     414:	f80a 8d28 	strb.w	r8, [sl, #-40]!
     418:	e090      	b.n	53c <__vsnprintf+0x1f4>
/home/hsk/Desktop/devel/tee-tpm-hyp/optee_os/lib/libutils/ext/snprintk.c:311
     41a:	4613      	mov	r3, r2
     41c:	e7d7      	b.n	3ce <__vsnprintf+0x86>
/home/hsk/Desktop/devel/tee-tpm-hyp/optee_os/lib/libutils/ext/snprintk.c:291
     41e:	f1b8 0f2d 	cmp.w	r8, #45	; 0x2d
     422:	f000 810c 	beq.w	63e <__vsnprintf+0x2f6>
     426:	f1b8 0f2e 	cmp.w	r8, #46	; 0x2e
     42a:	f000 810b 	beq.w	644 <__vsnprintf+0x2fc>
     42e:	f1b8 0f2b 	cmp.w	r8, #43	; 0x2b
     432:	d1e8      	bne.n	406 <__vsnprintf+0xbe>
/home/hsk/Desktop/devel/tee-tpm-hyp/optee_os/lib/libutils/ext/snprintk.c:319
     434:	46c1      	mov	r9, r8
     436:	e7ca      	b.n	3ce <__vsnprintf+0x86>
/home/hsk/Desktop/devel/tee-tpm-hyp/optee_os/lib/libutils/ext/snprintk.c:291
     438:	f1b8 0f44 	cmp.w	r8, #68	; 0x44
     43c:	f000 818a 	beq.w	754 <__vsnprintf+0x40c>
     440:	dc13      	bgt.n	46a <__vsnprintf+0x122>
     442:	f1b8 0f39 	cmp.w	r8, #57	; 0x39
     446:	dcde      	bgt.n	406 <__vsnprintf+0xbe>
     448:	9a0b      	ldr	r2, [sp, #44]	; 0x2c
/home/hsk/Desktop/devel/tee-tpm-hyp/optee_os/lib/libutils/ext/snprintk.c:344
     44a:	2100      	movs	r1, #0
     44c:	910d      	str	r1, [sp, #52]	; 0x34
/home/hsk/Desktop/devel/tee-tpm-hyp/optee_os/lib/libutils/ext/snprintk.c:346
     44e:	990d      	ldr	r1, [sp, #52]	; 0x34
     450:	f1a8 0830 	sub.w	r8, r8, #48	; 0x30
     454:	200a      	movs	r0, #10
     456:	fb00 8101 	mla	r1, r0, r1, r8
/home/hsk/Desktop/devel/tee-tpm-hyp/optee_os/lib/libutils/ext/snprintk.c:347
     45a:	f812 8b01 	ldrb.w	r8, [r2], #1
/home/hsk/Desktop/devel/tee-tpm-hyp/optee_os/lib/libutils/ext/snprintk.c:346
     45e:	910d      	str	r1, [sp, #52]	; 0x34
/home/hsk/Desktop/devel/tee-tpm-hyp/optee_os/lib/libutils/ext/snprintk.c:348
     460:	f1a8 0130 	sub.w	r1, r8, #48	; 0x30
     464:	2909      	cmp	r1, #9
     466:	d9f2      	bls.n	44e <__vsnprintf+0x106>
     468:	e7b5      	b.n	3d6 <__vsnprintf+0x8e>
/home/hsk/Desktop/devel/tee-tpm-hyp/optee_os/lib/libutils/ext/snprintk.c:291
     46a:	f1b8 0f55 	cmp.w	r8, #85	; 0x55
     46e:	f000 8228 	beq.w	8c2 <__vsnprintf+0x57a>
     472:	f1b8 0f58 	cmp.w	r8, #88	; 0x58
     476:	d07d      	beq.n	574 <__vsnprintf+0x22c>
     478:	f1b8 0f4f 	cmp.w	r8, #79	; 0x4f
     47c:	d1c3      	bne.n	406 <__vsnprintf+0xbe>
/home/hsk/Desktop/devel/tee-tpm-hyp/optee_os/lib/libutils/ext/snprintk.c:408
     47e:	f046 0610 	orr.w	r6, r6, #16
/home/hsk/Desktop/devel/tee-tpm-hyp/optee_os/lib/libutils/ext/snprintk.c:411
     482:	0632      	lsls	r2, r6, #24
     484:	f140 81b2 	bpl.w	7ec <__vsnprintf+0x4a4>
     488:	3307      	adds	r3, #7
     48a:	f023 0307 	bic.w	r3, r3, #7
     48e:	f103 0b08 	add.w	fp, r3, #8
     492:	e9d3 4500 	ldrd	r4, r5, [r3]
/home/hsk/Desktop/devel/tee-tpm-hyp/optee_os/lib/libutils/ext/snprintk.c:488
     496:	f04f 0900 	mov.w	r9, #0
     49a:	9b0a      	ldr	r3, [sp, #40]	; 0x28
     49c:	3301      	adds	r3, #1
     49e:	f000 8098 	beq.w	5d2 <__vsnprintf+0x28a>
     4a2:	464b      	mov	r3, r9
     4a4:	e084      	b.n	5b0 <__vsnprintf+0x268>
/home/hsk/Desktop/devel/tee-tpm-hyp/optee_os/lib/libutils/ext/snprintk.c:291
     4a6:	f1b8 0f6f 	cmp.w	r8, #111	; 0x6f
     4aa:	d0ea      	beq.n	482 <__vsnprintf+0x13a>
     4ac:	dc1c      	bgt.n	4e8 <__vsnprintf+0x1a0>
     4ae:	f1b8 0f69 	cmp.w	r8, #105	; 0x69
     4b2:	f000 8151 	beq.w	758 <__vsnprintf+0x410>
     4b6:	dc09      	bgt.n	4cc <__vsnprintf+0x184>
     4b8:	f1b8 0f64 	cmp.w	r8, #100	; 0x64
     4bc:	f000 814c 	beq.w	758 <__vsnprintf+0x410>
     4c0:	f1b8 0f68 	cmp.w	r8, #104	; 0x68
     4c4:	d19f      	bne.n	406 <__vsnprintf+0xbe>
/home/hsk/Desktop/devel/tee-tpm-hyp/optee_os/lib/libutils/ext/snprintk.c:352
     4c6:	f046 0640 	orr.w	r6, r6, #64	; 0x40
     4ca:	e780      	b.n	3ce <__vsnprintf+0x86>
/home/hsk/Desktop/devel/tee-tpm-hyp/optee_os/lib/libutils/ext/snprintk.c:291
     4cc:	f1b8 0f6c 	cmp.w	r8, #108	; 0x6c
     4d0:	f000 80d9 	beq.w	686 <__vsnprintf+0x33e>
     4d4:	f1b8 0f6e 	cmp.w	r8, #110	; 0x6e
     4d8:	f000 816d 	beq.w	7b6 <__vsnprintf+0x46e>
     4dc:	f1b8 0f6a 	cmp.w	r8, #106	; 0x6a
     4e0:	d191      	bne.n	406 <__vsnprintf+0xbe>
/home/hsk/Desktop/devel/tee-tpm-hyp/optee_os/lib/libutils/ext/snprintk.c:355
     4e2:	f046 0680 	orr.w	r6, r6, #128	; 0x80
     4e6:	e772      	b.n	3ce <__vsnprintf+0x86>
/home/hsk/Desktop/devel/tee-tpm-hyp/optee_os/lib/libutils/ext/snprintk.c:291
     4e8:	f1b8 0f74 	cmp.w	r8, #116	; 0x74
     4ec:	f000 80d8 	beq.w	6a0 <__vsnprintf+0x358>
     4f0:	dc26      	bgt.n	540 <__vsnprintf+0x1f8>
     4f2:	f1b8 0f71 	cmp.w	r8, #113	; 0x71
     4f6:	f000 80cd 	beq.w	694 <__vsnprintf+0x34c>
     4fa:	f2c0 818b 	blt.w	814 <__vsnprintf+0x4cc>
     4fe:	f1b8 0f73 	cmp.w	r8, #115	; 0x73
     502:	d180      	bne.n	406 <__vsnprintf+0xbe>
/home/hsk/Desktop/devel/tee-tpm-hyp/optee_os/lib/libutils/ext/snprintk.c:442
     504:	f8d3 a000 	ldr.w	sl, [r3]
     508:	f103 0b04 	add.w	fp, r3, #4
     50c:	f1ba 0f00 	cmp.w	sl, #0
     510:	d102      	bne.n	518 <__vsnprintf+0x1d0>
/home/hsk/Desktop/devel/tee-tpm-hyp/optee_os/lib/libutils/ext/snprintk.c:444
     512:	f8df a51c 	ldr.w	sl, [pc, #1308]	; a30 <__vsnprintf+0x6e8>
     516:	44fa      	add	sl, pc
/home/hsk/Desktop/devel/tee-tpm-hyp/optee_os/lib/libutils/ext/snprintk.c:445
     518:	9b0a      	ldr	r3, [sp, #40]	; 0x28
     51a:	1c5d      	adds	r5, r3, #1
     51c:	f000 81cd 	beq.w	8ba <__vsnprintf+0x572>
/home/hsk/Desktop/devel/tee-tpm-hyp/optee_os/lib/libutils/ext/snprintk.c:451
     520:	461a      	mov	r2, r3
     522:	2100      	movs	r1, #0
     524:	4650      	mov	r0, sl
     526:	f007 f932 	bl	778e <memchr>
/home/hsk/Desktop/devel/tee-tpm-hyp/optee_os/lib/libutils/ext/snprintk.c:453
     52a:	2800      	cmp	r0, #0
     52c:	f000 81a2 	beq.w	874 <__vsnprintf+0x52c>
     530:	9b0a      	ldr	r3, [sp, #40]	; 0x28
/home/hsk/Desktop/devel/tee-tpm-hyp/optee_os/lib/libutils/ext/snprintk.c:454
     532:	eba0 000a 	sub.w	r0, r0, sl
     536:	4283      	cmp	r3, r0
     538:	bfa8      	it	ge
     53a:	4603      	movge	r3, r0
/home/hsk/Desktop/devel/tee-tpm-hyp/optee_os/lib/libutils/ext/snprintk.c:546
     53c:	930a      	str	r3, [sp, #40]	; 0x28
     53e:	e198      	b.n	872 <__vsnprintf+0x52a>
/home/hsk/Desktop/devel/tee-tpm-hyp/optee_os/lib/libutils/ext/snprintk.c:291
     540:	f1b8 0f78 	cmp.w	r8, #120	; 0x78
     544:	f000 81de 	beq.w	904 <__vsnprintf+0x5bc>
     548:	f1b8 0f7a 	cmp.w	r8, #122	; 0x7a
     54c:	f000 80ab 	beq.w	6a6 <__vsnprintf+0x35e>
     550:	f1b8 0f75 	cmp.w	r8, #117	; 0x75
     554:	f47f af57 	bne.w	406 <__vsnprintf+0xbe>
/home/hsk/Desktop/devel/tee-tpm-hyp/optee_os/lib/libutils/ext/snprintk.c:467
     558:	f016 0280 	ands.w	r2, r6, #128	; 0x80
     55c:	f000 81b4 	beq.w	8c8 <__vsnprintf+0x580>
     560:	3307      	adds	r3, #7
     562:	f023 0307 	bic.w	r3, r3, #7
     566:	f103 0b08 	add.w	fp, r3, #8
     56a:	e9d3 4500 	ldrd	r4, r5, [r3]
/home/hsk/Desktop/devel/tee-tpm-hyp/optee_os/lib/libutils/ext/snprintk.c:482
     56e:	f04f 0900 	mov.w	r9, #0
     572:	e103      	b.n	77c <__vsnprintf+0x434>
/home/hsk/Desktop/devel/tee-tpm-hyp/optee_os/lib/libutils/ext/snprintk.c:471
     574:	f8df 24bc 	ldr.w	r2, [pc, #1212]	; a34 <__vsnprintf+0x6ec>
     578:	447a      	add	r2, pc
/home/hsk/Desktop/devel/tee-tpm-hyp/optee_os/lib/libutils/ext/snprintk.c:474
     57a:	920f      	str	r2, [sp, #60]	; 0x3c
/home/hsk/Desktop/devel/tee-tpm-hyp/optee_os/lib/libutils/ext/snprintk.c:475
     57c:	0634      	lsls	r4, r6, #24
     57e:	f140 81c5 	bpl.w	90c <__vsnprintf+0x5c4>
     582:	3307      	adds	r3, #7
     584:	f023 0307 	bic.w	r3, r3, #7
     588:	f103 0b08 	add.w	fp, r3, #8
     58c:	e9d3 4500 	ldrd	r4, r5, [r3]
/home/hsk/Desktop/devel/tee-tpm-hyp/optee_os/lib/libutils/ext/snprintk.c:478
     590:	07f0      	lsls	r0, r6, #31
     592:	f140 817a 	bpl.w	88a <__vsnprintf+0x542>
     596:	ea54 0305 	orrs.w	r3, r4, r5
     59a:	f000 8241 	beq.w	a20 <__vsnprintf+0x6d8>
/home/hsk/Desktop/devel/tee-tpm-hyp/optee_os/lib/libutils/ext/snprintk.c:488
     59e:	9b0a      	ldr	r3, [sp, #40]	; 0x28
/home/hsk/Desktop/devel/tee-tpm-hyp/optee_os/lib/libutils/ext/snprintk.c:479
     5a0:	f046 0602 	orr.w	r6, r6, #2
/home/hsk/Desktop/devel/tee-tpm-hyp/optee_os/lib/libutils/ext/snprintk.c:488
     5a4:	3301      	adds	r3, #1
     5a6:	f000 823e 	beq.w	a26 <__vsnprintf+0x6de>
     5aa:	f04f 0900 	mov.w	r9, #0
     5ae:	2302      	movs	r3, #2
/home/hsk/Desktop/devel/tee-tpm-hyp/optee_os/lib/libutils/ext/snprintk.c:489
     5b0:	f426 6680 	bic.w	r6, r6, #1024	; 0x400
/home/hsk/Desktop/devel/tee-tpm-hyp/optee_os/lib/libutils/ext/snprintk.c:497
     5b4:	ea54 0205 	orrs.w	r2, r4, r5
     5b8:	d105      	bne.n	5c6 <__vsnprintf+0x27e>
     5ba:	9a0a      	ldr	r2, [sp, #40]	; 0x28
     5bc:	2a00      	cmp	r2, #0
     5be:	f000 81dc 	beq.w	97a <__vsnprintf+0x632>
     5c2:	2400      	movs	r4, #0
     5c4:	2500      	movs	r5, #0
/home/hsk/Desktop/devel/tee-tpm-hyp/optee_os/lib/libutils/ext/snprintk.c:503
     5c6:	2b01      	cmp	r3, #1
     5c8:	f000 80dc 	beq.w	784 <__vsnprintf+0x43c>
     5cc:	2b02      	cmp	r3, #2
     5ce:	f000 8162 	beq.w	896 <__vsnprintf+0x54e>
/home/hsk/Desktop/devel/tee-tpm-hyp/optee_os/lib/libutils/ext/snprintk.c:504
     5d2:	f10d 0375 	add.w	r3, sp, #117	; 0x75
/home/hsk/Desktop/devel/tee-tpm-hyp/optee_os/lib/libutils/ext/snprintk.c:507
     5d6:	08e1      	lsrs	r1, r4, #3
     5d8:	08e8      	lsrs	r0, r5, #3
     5da:	ea41 7145 	orr.w	r1, r1, r5, lsl #29
/home/hsk/Desktop/devel/tee-tpm-hyp/optee_os/lib/libutils/ext/snprintk.c:506
     5de:	f004 0207 	and.w	r2, r4, #7
/home/hsk/Desktop/devel/tee-tpm-hyp/optee_os/lib/libutils/ext/snprintk.c:507
     5e2:	4605      	mov	r5, r0
     5e4:	460c      	mov	r4, r1
/home/hsk/Desktop/devel/tee-tpm-hyp/optee_os/lib/libutils/ext/snprintk.c:506
     5e6:	3230      	adds	r2, #48	; 0x30
     5e8:	f103 3aff 	add.w	sl, r3, #4294967295	; 0xffffffff
     5ec:	f803 2c01 	strb.w	r2, [r3, #-1]
/home/hsk/Desktop/devel/tee-tpm-hyp/optee_os/lib/libutils/ext/snprintk.c:508
     5f0:	ea54 0105 	orrs.w	r1, r4, r5
     5f4:	f040 81a0 	bne.w	938 <__vsnprintf+0x5f0>
/home/hsk/Desktop/devel/tee-tpm-hyp/optee_os/lib/libutils/ext/snprintk.c:510
     5f8:	07f1      	lsls	r1, r6, #31
     5fa:	d506      	bpl.n	60a <__vsnprintf+0x2c2>
     5fc:	2a30      	cmp	r2, #48	; 0x30
     5fe:	d004      	beq.n	60a <__vsnprintf+0x2c2>
/home/hsk/Desktop/devel/tee-tpm-hyp/optee_os/lib/libutils/ext/snprintk.c:511
     600:	2230      	movs	r2, #48	; 0x30
     602:	f80a 2c01 	strb.w	r2, [sl, #-1]
     606:	f1a3 0a02 	sub.w	sl, r3, #2
/home/hsk/Desktop/devel/tee-tpm-hyp/optee_os/lib/libutils/ext/snprintk.c:537
     60a:	f10d 0375 	add.w	r3, sp, #117	; 0x75
     60e:	980a      	ldr	r0, [sp, #40]	; 0x28
     610:	eba3 030a 	sub.w	r3, r3, sl
     614:	930a      	str	r3, [sp, #40]	; 0x28
     616:	e055      	b.n	6c4 <__vsnprintf+0x37c>
/home/hsk/Desktop/devel/tee-tpm-hyp/optee_os/lib/libutils/ext/snprintk.c:299
     618:	f1b9 0f00 	cmp.w	r9, #0
     61c:	f04f 0220 	mov.w	r2, #32
     620:	bf08      	it	eq
     622:	4691      	moveq	r9, r2
     624:	e6d3      	b.n	3ce <__vsnprintf+0x86>
/home/hsk/Desktop/devel/tee-tpm-hyp/optee_os/lib/libutils/ext/snprintk.c:302
     626:	f046 0601 	orr.w	r6, r6, #1
     62a:	e6d0      	b.n	3ce <__vsnprintf+0x86>
/home/hsk/Desktop/devel/tee-tpm-hyp/optee_os/lib/libutils/ext/snprintk.c:311
     62c:	1d1a      	adds	r2, r3, #4
     62e:	681b      	ldr	r3, [r3, #0]
     630:	930d      	str	r3, [sp, #52]	; 0x34
     632:	2b00      	cmp	r3, #0
     634:	f6bf aef1 	bge.w	41a <__vsnprintf+0xd2>
/home/hsk/Desktop/devel/tee-tpm-hyp/optee_os/lib/libutils/ext/snprintk.c:313
     638:	425b      	negs	r3, r3
     63a:	930d      	str	r3, [sp, #52]	; 0x34
/home/hsk/Desktop/devel/tee-tpm-hyp/optee_os/lib/libutils/ext/snprintk.c:311
     63c:	4613      	mov	r3, r2
/home/hsk/Desktop/devel/tee-tpm-hyp/optee_os/lib/libutils/ext/snprintk.c:316
     63e:	f046 0604 	orr.w	r6, r6, #4
     642:	e6c4      	b.n	3ce <__vsnprintf+0x86>
/home/hsk/Desktop/devel/tee-tpm-hyp/optee_os/lib/libutils/ext/snprintk.c:322
     644:	990b      	ldr	r1, [sp, #44]	; 0x2c
     646:	9a0b      	ldr	r2, [sp, #44]	; 0x2c
     648:	f891 8000 	ldrb.w	r8, [r1]
     64c:	3201      	adds	r2, #1
     64e:	f1b8 0f2a 	cmp.w	r8, #42	; 0x2a
     652:	d112      	bne.n	67a <__vsnprintf+0x332>
/home/hsk/Desktop/devel/tee-tpm-hyp/optee_os/lib/libutils/ext/snprintk.c:324
     654:	6819      	ldr	r1, [r3, #0]
/home/hsk/Desktop/devel/tee-tpm-hyp/optee_os/lib/libutils/ext/snprintk.c:323
     656:	3304      	adds	r3, #4
/home/hsk/Desktop/devel/tee-tpm-hyp/optee_os/lib/libutils/ext/snprintk.c:322
     658:	920b      	str	r2, [sp, #44]	; 0x2c
/home/hsk/Desktop/devel/tee-tpm-hyp/optee_os/lib/libutils/ext/snprintk.c:324
     65a:	ea41 71e1 	orr.w	r1, r1, r1, asr #31
     65e:	910a      	str	r1, [sp, #40]	; 0x28
     660:	e6b5      	b.n	3ce <__vsnprintf+0x86>
/home/hsk/Desktop/devel/tee-tpm-hyp/optee_os/lib/libutils/ext/snprintk.c:329
     662:	980a      	ldr	r0, [sp, #40]	; 0x28
     664:	240a      	movs	r4, #10
/home/hsk/Desktop/devel/tee-tpm-hyp/optee_os/lib/libutils/ext/snprintk.c:330
     666:	f812 8b01 	ldrb.w	r8, [r2], #1
/home/hsk/Desktop/devel/tee-tpm-hyp/optee_os/lib/libutils/ext/snprintk.c:329
     66a:	fb04 1100 	mla	r1, r4, r0, r1
     66e:	910a      	str	r1, [sp, #40]	; 0x28
/home/hsk/Desktop/devel/tee-tpm-hyp/optee_os/lib/libutils/ext/snprintk.c:328
     670:	f1a8 0130 	sub.w	r1, r8, #48	; 0x30
     674:	2909      	cmp	r1, #9
     676:	d9f4      	bls.n	662 <__vsnprintf+0x31a>
     678:	e6ad      	b.n	3d6 <__vsnprintf+0x8e>
/home/hsk/Desktop/devel/tee-tpm-hyp/optee_os/lib/libutils/ext/snprintk.c:327
     67a:	2100      	movs	r1, #0
     67c:	910a      	str	r1, [sp, #40]	; 0x28
     67e:	e7f7      	b.n	670 <__vsnprintf+0x328>
/home/hsk/Desktop/devel/tee-tpm-hyp/optee_os/lib/libutils/ext/snprintk.c:340
     680:	f446 6680 	orr.w	r6, r6, #1024	; 0x400
     684:	e6a3      	b.n	3ce <__vsnprintf+0x86>
/home/hsk/Desktop/devel/tee-tpm-hyp/optee_os/lib/libutils/ext/snprintk.c:358
     686:	9a0b      	ldr	r2, [sp, #44]	; 0x2c
     688:	7812      	ldrb	r2, [r2, #0]
     68a:	2a6c      	cmp	r2, #108	; 0x6c
     68c:	d105      	bne.n	69a <__vsnprintf+0x352>
     68e:	9a0b      	ldr	r2, [sp, #44]	; 0x2c
     690:	3201      	adds	r2, #1
     692:	920b      	str	r2, [sp, #44]	; 0x2c
/home/hsk/Desktop/devel/tee-tpm-hyp/optee_os/lib/libutils/ext/snprintk.c:366
     694:	f046 0620 	orr.w	r6, r6, #32
     698:	e699      	b.n	3ce <__vsnprintf+0x86>
/home/hsk/Desktop/devel/tee-tpm-hyp/optee_os/lib/libutils/ext/snprintk.c:362
     69a:	f046 0610 	orr.w	r6, r6, #16
     69e:	e696      	b.n	3ce <__vsnprintf+0x86>
/home/hsk/Desktop/devel/tee-tpm-hyp/optee_os/lib/libutils/ext/snprintk.c:369
     6a0:	f446 7680 	orr.w	r6, r6, #256	; 0x100
     6a4:	e693      	b.n	3ce <__vsnprintf+0x86>
/home/hsk/Desktop/devel/tee-tpm-hyp/optee_os/lib/libutils/ext/snprintk.c:372
     6a6:	f446 7600 	orr.w	r6, r6, #512	; 0x200
     6aa:	e690      	b.n	3ce <__vsnprintf+0x86>
/home/hsk/Desktop/devel/tee-tpm-hyp/optee_os/lib/libutils/ext/snprintk.c:375
     6ac:	f10d 0a78 	add.w	sl, sp, #120	; 0x78
/home/hsk/Desktop/devel/tee-tpm-hyp/optee_os/lib/libutils/ext/snprintk.c:285
     6b0:	f04f 0900 	mov.w	r9, #0
/home/hsk/Desktop/devel/tee-tpm-hyp/optee_os/lib/libutils/ext/snprintk.c:375
     6b4:	f103 0b04 	add.w	fp, r3, #4
/home/hsk/Desktop/devel/tee-tpm-hyp/optee_os/lib/libutils/ext/snprintk.c:377
     6b8:	4648      	mov	r0, r9
/home/hsk/Desktop/devel/tee-tpm-hyp/optee_os/lib/libutils/ext/snprintk.c:375
     6ba:	681b      	ldr	r3, [r3, #0]
     6bc:	f80a 3d28 	strb.w	r3, [sl, #-40]!
/home/hsk/Desktop/devel/tee-tpm-hyp/optee_os/lib/libutils/ext/snprintk.c:376
     6c0:	2301      	movs	r3, #1
     6c2:	930a      	str	r3, [sp, #40]	; 0x28
/home/hsk/Desktop/devel/tee-tpm-hyp/optee_os/lib/libutils/ext/snprintk.c:565
     6c4:	9b0a      	ldr	r3, [sp, #40]	; 0x28
     6c6:	4283      	cmp	r3, r0
     6c8:	bfb8      	it	lt
     6ca:	4603      	movlt	r3, r0
/home/hsk/Desktop/devel/tee-tpm-hyp/optee_os/lib/libutils/ext/snprintk.c:566
     6cc:	f1b9 0f00 	cmp.w	r9, #0
     6d0:	f000 8156 	beq.w	980 <__vsnprintf+0x638>
/home/hsk/Desktop/devel/tee-tpm-hyp/optee_os/lib/libutils/ext/snprintk.c:567
     6d4:	3301      	adds	r3, #1
/home/hsk/Desktop/devel/tee-tpm-hyp/optee_os/lib/libutils/ext/snprintk.c:572
     6d6:	9a0d      	ldr	r2, [sp, #52]	; 0x34
     6d8:	990c      	ldr	r1, [sp, #48]	; 0x30
     6da:	429a      	cmp	r2, r3
     6dc:	bfb8      	it	lt
     6de:	461a      	movlt	r2, r3
     6e0:	4411      	add	r1, r2
/home/hsk/Desktop/devel/tee-tpm-hyp/optee_os/lib/libutils/ext/snprintk.c:575
     6e2:	f240 4204 	movw	r2, #1028	; 0x404
/home/hsk/Desktop/devel/tee-tpm-hyp/optee_os/lib/libutils/ext/snprintk.c:572
     6e6:	910c      	str	r1, [sp, #48]	; 0x30
/home/hsk/Desktop/devel/tee-tpm-hyp/optee_os/lib/libutils/ext/snprintk.c:575
     6e8:	ea16 0102 	ands.w	r1, r6, r2
     6ec:	d105      	bne.n	6fa <__vsnprintf+0x3b2>
/home/hsk/Desktop/devel/tee-tpm-hyp/optee_os/lib/libutils/ext/snprintk.c:576
     6ee:	9a0d      	ldr	r2, [sp, #52]	; 0x34
/home/hsk/Desktop/devel/tee-tpm-hyp/optee_os/lib/libutils/ext/snprintk.c:578
     6f0:	2420      	movs	r4, #32
/home/hsk/Desktop/devel/tee-tpm-hyp/optee_os/lib/libutils/ext/snprintk.c:576
     6f2:	1ad2      	subs	r2, r2, r3
/home/hsk/Desktop/devel/tee-tpm-hyp/optee_os/lib/libutils/ext/snprintk.c:577
     6f4:	2a00      	cmp	r2, #0
     6f6:	f300 8147 	bgt.w	988 <__vsnprintf+0x640>
/home/hsk/Desktop/devel/tee-tpm-hyp/optee_os/lib/libutils/ext/snprintk.c:582
     6fa:	f1b9 0f00 	cmp.w	r9, #0
     6fe:	f000 8153 	beq.w	9a8 <__vsnprintf+0x660>
/home/hsk/Desktop/devel/tee-tpm-hyp/optee_os/lib/libutils/ext/snprintk.c:583
     702:	2f00      	cmp	r7, #0
     704:	f040 8148 	bne.w	998 <__vsnprintf+0x650>
/home/hsk/Desktop/devel/tee-tpm-hyp/optee_os/lib/libutils/ext/snprintk.c:586
     708:	2700      	movs	r7, #0
/home/hsk/Desktop/devel/tee-tpm-hyp/optee_os/lib/libutils/ext/snprintk.c:590
     70a:	f5b1 6f80 	cmp.w	r1, #1024	; 0x400
     70e:	d105      	bne.n	71c <__vsnprintf+0x3d4>
/home/hsk/Desktop/devel/tee-tpm-hyp/optee_os/lib/libutils/ext/snprintk.c:591
     710:	9a0d      	ldr	r2, [sp, #52]	; 0x34
/home/hsk/Desktop/devel/tee-tpm-hyp/optee_os/lib/libutils/ext/snprintk.c:593
     712:	2130      	movs	r1, #48	; 0x30
/home/hsk/Desktop/devel/tee-tpm-hyp/optee_os/lib/libutils/ext/snprintk.c:591
     714:	1ad2      	subs	r2, r2, r3
/home/hsk/Desktop/devel/tee-tpm-hyp/optee_os/lib/libutils/ext/snprintk.c:592
     716:	2a00      	cmp	r2, #0
     718:	f300 815e 	bgt.w	9d8 <__vsnprintf+0x690>
/home/hsk/Desktop/devel/tee-tpm-hyp/optee_os/lib/libutils/ext/snprintk.c:597
     71c:	9a0a      	ldr	r2, [sp, #40]	; 0x28
     71e:	1a80      	subs	r0, r0, r2
/home/hsk/Desktop/devel/tee-tpm-hyp/optee_os/lib/libutils/ext/snprintk.c:599
     720:	2230      	movs	r2, #48	; 0x30
/home/hsk/Desktop/devel/tee-tpm-hyp/optee_os/lib/libutils/ext/snprintk.c:598
     722:	2800      	cmp	r0, #0
     724:	f300 8160 	bgt.w	9e8 <__vsnprintf+0x6a0>
     728:	2200      	movs	r2, #0
/home/hsk/Desktop/devel/tee-tpm-hyp/optee_os/lib/libutils/ext/snprintk.c:602
     72a:	990a      	ldr	r1, [sp, #40]	; 0x28
     72c:	428a      	cmp	r2, r1
     72e:	f040 8163 	bne.w	9f8 <__vsnprintf+0x6b0>
/home/hsk/Desktop/devel/tee-tpm-hyp/optee_os/lib/libutils/ext/snprintk.c:605
     732:	0772      	lsls	r2, r6, #29
     734:	f57f ae19 	bpl.w	36a <__vsnprintf+0x22>
/home/hsk/Desktop/devel/tee-tpm-hyp/optee_os/lib/libutils/ext/snprintk.c:606
     738:	9a0d      	ldr	r2, [sp, #52]	; 0x34
     73a:	1ad3      	subs	r3, r2, r3
/home/hsk/Desktop/devel/tee-tpm-hyp/optee_os/lib/libutils/ext/snprintk.c:608
     73c:	2220      	movs	r2, #32
/home/hsk/Desktop/devel/tee-tpm-hyp/optee_os/lib/libutils/ext/snprintk.c:607
     73e:	2b00      	cmp	r3, #0
     740:	f77f ae13 	ble.w	36a <__vsnprintf+0x22>
/home/hsk/Desktop/devel/tee-tpm-hyp/optee_os/lib/libutils/ext/snprintk.c:608
     744:	b127      	cbz	r7, 750 <__vsnprintf+0x408>
     746:	990e      	ldr	r1, [sp, #56]	; 0x38
     748:	42b9      	cmp	r1, r7
     74a:	d901      	bls.n	750 <__vsnprintf+0x408>
     74c:	703a      	strb	r2, [r7, #0]
     74e:	3701      	adds	r7, #1
     750:	3b01      	subs	r3, #1
     752:	e7f4      	b.n	73e <__vsnprintf+0x3f6>
/home/hsk/Desktop/devel/tee-tpm-hyp/optee_os/lib/libutils/ext/snprintk.c:380
     754:	f046 0610 	orr.w	r6, r6, #16
/home/hsk/Desktop/devel/tee-tpm-hyp/optee_os/lib/libutils/ext/snprintk.c:384
     758:	0631      	lsls	r1, r6, #24
     75a:	d517      	bpl.n	78c <__vsnprintf+0x444>
     75c:	3307      	adds	r3, #7
     75e:	f023 0307 	bic.w	r3, r3, #7
     762:	f103 0b08 	add.w	fp, r3, #8
     766:	e9d3 4500 	ldrd	r4, r5, [r3]
/home/hsk/Desktop/devel/tee-tpm-hyp/optee_os/lib/libutils/ext/snprintk.c:385
     76a:	2c00      	cmp	r4, #0
     76c:	f175 0300 	sbcs.w	r3, r5, #0
     770:	da04      	bge.n	77c <__vsnprintf+0x434>
/home/hsk/Desktop/devel/tee-tpm-hyp/optee_os/lib/libutils/ext/snprintk.c:386
     772:	4264      	negs	r4, r4
/home/hsk/Desktop/devel/tee-tpm-hyp/optee_os/lib/libutils/ext/snprintk.c:387
     774:	f04f 092d 	mov.w	r9, #45	; 0x2d
/home/hsk/Desktop/devel/tee-tpm-hyp/optee_os/lib/libutils/ext/snprintk.c:386
     778:	eb65 0545 	sbc.w	r5, r5, r5, lsl #1
/home/hsk/Desktop/devel/tee-tpm-hyp/optee_os/lib/libutils/ext/snprintk.c:488
     77c:	9b0a      	ldr	r3, [sp, #40]	; 0x28
     77e:	3301      	adds	r3, #1
     780:	f040 80d8 	bne.w	934 <__vsnprintf+0x5ec>
/home/hsk/Desktop/devel/tee-tpm-hyp/optee_os/lib/libutils/ext/snprintk.c:508
     784:	f10d 0375 	add.w	r3, sp, #117	; 0x75
     788:	9311      	str	r3, [sp, #68]	; 0x44
     78a:	e0eb      	b.n	964 <__vsnprintf+0x61c>
/home/hsk/Desktop/devel/tee-tpm-hyp/optee_os/lib/libutils/ext/snprintk.c:384
     78c:	05f2      	lsls	r2, r6, #23
     78e:	d504      	bpl.n	79a <__vsnprintf+0x452>
     790:	f103 0b04 	add.w	fp, r3, #4
     794:	681c      	ldr	r4, [r3, #0]
     796:	17e5      	asrs	r5, r4, #31
     798:	e7e7      	b.n	76a <__vsnprintf+0x422>
     79a:	05b5      	lsls	r5, r6, #22
     79c:	d4f8      	bmi.n	790 <__vsnprintf+0x448>
     79e:	06b4      	lsls	r4, r6, #26
     7a0:	d4dc      	bmi.n	75c <__vsnprintf+0x414>
     7a2:	f103 0b04 	add.w	fp, r3, #4
     7a6:	06f0      	lsls	r0, r6, #27
     7a8:	d4f4      	bmi.n	794 <__vsnprintf+0x44c>
     7aa:	f016 0f40 	tst.w	r6, #64	; 0x40
     7ae:	681c      	ldr	r4, [r3, #0]
     7b0:	d0f1      	beq.n	796 <__vsnprintf+0x44e>
     7b2:	b224      	sxth	r4, r4
     7b4:	e7ef      	b.n	796 <__vsnprintf+0x44e>
     7b6:	469b      	mov	fp, r3
/home/hsk/Desktop/devel/tee-tpm-hyp/optee_os/lib/libutils/ext/snprintk.c:392
     7b8:	0631      	lsls	r1, r6, #24
     7ba:	f85b 3b04 	ldr.w	r3, [fp], #4
     7be:	d505      	bpl.n	7cc <__vsnprintf+0x484>
/home/hsk/Desktop/devel/tee-tpm-hyp/optee_os/lib/libutils/ext/snprintk.c:399
     7c0:	9a0c      	ldr	r2, [sp, #48]	; 0x30
     7c2:	4610      	mov	r0, r2
     7c4:	17d1      	asrs	r1, r2, #31
     7c6:	e9c3 0100 	strd	r0, r1, [r3]
     7ca:	e5ce      	b.n	36a <__vsnprintf+0x22>
/home/hsk/Desktop/devel/tee-tpm-hyp/optee_os/lib/libutils/ext/snprintk.c:394
     7cc:	05f2      	lsls	r2, r6, #23
     7ce:	d502      	bpl.n	7d6 <__vsnprintf+0x48e>
/home/hsk/Desktop/devel/tee-tpm-hyp/optee_os/lib/libutils/ext/snprintk.c:405
     7d0:	9a0c      	ldr	r2, [sp, #48]	; 0x30
     7d2:	601a      	str	r2, [r3, #0]
     7d4:	e5c9      	b.n	36a <__vsnprintf+0x22>
/home/hsk/Desktop/devel/tee-tpm-hyp/optee_os/lib/libutils/ext/snprintk.c:396
     7d6:	05b5      	lsls	r5, r6, #22
     7d8:	d4fa      	bmi.n	7d0 <__vsnprintf+0x488>
/home/hsk/Desktop/devel/tee-tpm-hyp/optee_os/lib/libutils/ext/snprintk.c:398
     7da:	06b4      	lsls	r4, r6, #26
     7dc:	d4f0      	bmi.n	7c0 <__vsnprintf+0x478>
/home/hsk/Desktop/devel/tee-tpm-hyp/optee_os/lib/libutils/ext/snprintk.c:400
     7de:	06f0      	lsls	r0, r6, #27
     7e0:	d4f6      	bmi.n	7d0 <__vsnprintf+0x488>
/home/hsk/Desktop/devel/tee-tpm-hyp/optee_os/lib/libutils/ext/snprintk.c:402
     7e2:	0671      	lsls	r1, r6, #25
     7e4:	d5f4      	bpl.n	7d0 <__vsnprintf+0x488>
/home/hsk/Desktop/devel/tee-tpm-hyp/optee_os/lib/libutils/ext/snprintk.c:403
     7e6:	9a0c      	ldr	r2, [sp, #48]	; 0x30
     7e8:	801a      	strh	r2, [r3, #0]
     7ea:	e5be      	b.n	36a <__vsnprintf+0x22>
/home/hsk/Desktop/devel/tee-tpm-hyp/optee_os/lib/libutils/ext/snprintk.c:411
     7ec:	05f5      	lsls	r5, r6, #23
     7ee:	d503      	bpl.n	7f8 <__vsnprintf+0x4b0>
     7f0:	f103 0b04 	add.w	fp, r3, #4
     7f4:	681c      	ldr	r4, [r3, #0]
     7f6:	e00b      	b.n	810 <__vsnprintf+0x4c8>
     7f8:	05b4      	lsls	r4, r6, #22
     7fa:	d4f9      	bmi.n	7f0 <__vsnprintf+0x4a8>
     7fc:	06b0      	lsls	r0, r6, #26
     7fe:	f53f ae43 	bmi.w	488 <__vsnprintf+0x140>
     802:	f103 0b04 	add.w	fp, r3, #4
     806:	06f1      	lsls	r1, r6, #27
     808:	d4f4      	bmi.n	7f4 <__vsnprintf+0x4ac>
     80a:	0672      	lsls	r2, r6, #25
     80c:	d5f2      	bpl.n	7f4 <__vsnprintf+0x4ac>
     80e:	881c      	ldrh	r4, [r3, #0]
     810:	2500      	movs	r5, #0
     812:	e640      	b.n	496 <__vsnprintf+0x14e>
     814:	469b      	mov	fp, r3
/home/hsk/Desktop/devel/tee-tpm-hyp/optee_os/lib/libutils/ext/snprintk.c:415
     816:	9b13      	ldr	r3, [sp, #76]	; 0x4c
     818:	f85b 4b04 	ldr.w	r4, [fp], #4
     81c:	2b00      	cmp	r3, #0
     81e:	d02b      	beq.n	878 <__vsnprintf+0x530>
     820:	9b0b      	ldr	r3, [sp, #44]	; 0x2c
     822:	781b      	ldrb	r3, [r3, #0]
     824:	2b55      	cmp	r3, #85	; 0x55
     826:	d127      	bne.n	878 <__vsnprintf+0x530>
     828:	9b0b      	ldr	r3, [sp, #44]	; 0x2c
     82a:	785b      	ldrb	r3, [r3, #1]
     82c:	2b6c      	cmp	r3, #108	; 0x6c
     82e:	d123      	bne.n	878 <__vsnprintf+0x530>
/home/hsk/Desktop/devel/tee-tpm-hyp/optee_os/lib/libutils/ext/snprintk.c:420
     830:	9b0b      	ldr	r3, [sp, #44]	; 0x2c
uuid2str():
/home/hsk/Desktop/devel/tee-tpm-hyp/optee_os/lib/libutils/ext/snprintk.c:223
     832:	f10d 0a50 	add.w	sl, sp, #80	; 0x50
     836:	4a80      	ldr	r2, [pc, #512]	; (a38 <__vsnprintf+0x6f0>)
     838:	2125      	movs	r1, #37	; 0x25
kprintf():
/home/hsk/Desktop/devel/tee-tpm-hyp/optee_os/lib/libutils/ext/snprintk.c:420
     83a:	3302      	adds	r3, #2
     83c:	930b      	str	r3, [sp, #44]	; 0x2c
uuid2str():
/home/hsk/Desktop/devel/tee-tpm-hyp/optee_os/lib/libutils/ext/snprintk.c:223
     83e:	7be3      	ldrb	r3, [r4, #15]
     840:	447a      	add	r2, pc
     842:	9309      	str	r3, [sp, #36]	; 0x24
     844:	4650      	mov	r0, sl
     846:	7ba3      	ldrb	r3, [r4, #14]
     848:	9308      	str	r3, [sp, #32]
     84a:	7b63      	ldrb	r3, [r4, #13]
     84c:	9307      	str	r3, [sp, #28]
     84e:	7b23      	ldrb	r3, [r4, #12]
     850:	9306      	str	r3, [sp, #24]
     852:	7ae3      	ldrb	r3, [r4, #11]
     854:	9305      	str	r3, [sp, #20]
     856:	7aa3      	ldrb	r3, [r4, #10]
     858:	9304      	str	r3, [sp, #16]
     85a:	7a63      	ldrb	r3, [r4, #9]
     85c:	9303      	str	r3, [sp, #12]
     85e:	7a23      	ldrb	r3, [r4, #8]
     860:	9302      	str	r3, [sp, #8]
     862:	88e3      	ldrh	r3, [r4, #6]
     864:	9301      	str	r3, [sp, #4]
     866:	88a3      	ldrh	r3, [r4, #4]
     868:	9300      	str	r3, [sp, #0]
     86a:	6823      	ldr	r3, [r4, #0]
     86c:	f000 f8f1 	bl	a52 <snprintk>
kprintf():
/home/hsk/Desktop/devel/tee-tpm-hyp/optee_os/lib/libutils/ext/snprintk.c:460
     870:	900a      	str	r0, [sp, #40]	; 0x28
/home/hsk/Desktop/devel/tee-tpm-hyp/optee_os/lib/libutils/ext/snprintk.c:285
     872:	2000      	movs	r0, #0
/home/hsk/Desktop/devel/tee-tpm-hyp/optee_os/lib/libutils/ext/snprintk.c:461
     874:	4681      	mov	r9, r0
     876:	e725      	b.n	6c4 <__vsnprintf+0x37c>
/home/hsk/Desktop/devel/tee-tpm-hyp/optee_os/lib/libutils/ext/snprintk.c:437
     878:	4b70      	ldr	r3, [pc, #448]	; (a3c <__vsnprintf+0x6f4>)
/home/hsk/Desktop/devel/tee-tpm-hyp/optee_os/lib/libutils/ext/snprintk.c:435
     87a:	2500      	movs	r5, #0
/home/hsk/Desktop/devel/tee-tpm-hyp/optee_os/lib/libutils/ext/snprintk.c:438
     87c:	f046 0602 	orr.w	r6, r6, #2
/home/hsk/Desktop/devel/tee-tpm-hyp/optee_os/lib/libutils/ext/snprintk.c:439
     880:	f04f 0878 	mov.w	r8, #120	; 0x78
/home/hsk/Desktop/devel/tee-tpm-hyp/optee_os/lib/libutils/ext/snprintk.c:437
     884:	447b      	add	r3, pc
     886:	3311      	adds	r3, #17
     888:	930f      	str	r3, [sp, #60]	; 0x3c
/home/hsk/Desktop/devel/tee-tpm-hyp/optee_os/lib/libutils/ext/snprintk.c:488
     88a:	9b0a      	ldr	r3, [sp, #40]	; 0x28
     88c:	3301      	adds	r3, #1
     88e:	f47f ae8c 	bne.w	5aa <__vsnprintf+0x262>
     892:	f04f 0900 	mov.w	r9, #0
/home/hsk/Desktop/devel/tee-tpm-hyp/optee_os/lib/libutils/ext/snprintk.c:523
     896:	f10d 0a75 	add.w	sl, sp, #117	; 0x75
/home/hsk/Desktop/devel/tee-tpm-hyp/optee_os/lib/libutils/ext/snprintk.c:525
     89a:	f004 030f 	and.w	r3, r4, #15
     89e:	9a0f      	ldr	r2, [sp, #60]	; 0x3c
     8a0:	5cd3      	ldrb	r3, [r2, r3]
/home/hsk/Desktop/devel/tee-tpm-hyp/optee_os/lib/libutils/ext/snprintk.c:526
     8a2:	092a      	lsrs	r2, r5, #4
/home/hsk/Desktop/devel/tee-tpm-hyp/optee_os/lib/libutils/ext/snprintk.c:525
     8a4:	f80a 3d01 	strb.w	r3, [sl, #-1]!
/home/hsk/Desktop/devel/tee-tpm-hyp/optee_os/lib/libutils/ext/snprintk.c:526
     8a8:	0923      	lsrs	r3, r4, #4
     8aa:	ea43 7305 	orr.w	r3, r3, r5, lsl #28
     8ae:	4615      	mov	r5, r2
     8b0:	461c      	mov	r4, r3
/home/hsk/Desktop/devel/tee-tpm-hyp/optee_os/lib/libutils/ext/snprintk.c:527
     8b2:	ea54 0305 	orrs.w	r3, r4, r5
     8b6:	d1f0      	bne.n	89a <__vsnprintf+0x552>
     8b8:	e6a7      	b.n	60a <__vsnprintf+0x2c2>
/home/hsk/Desktop/devel/tee-tpm-hyp/optee_os/lib/libutils/ext/snprintk.c:460
     8ba:	4650      	mov	r0, sl
     8bc:	f006 ff75 	bl	77aa <strlen>
     8c0:	e7d6      	b.n	870 <__vsnprintf+0x528>
/home/hsk/Desktop/devel/tee-tpm-hyp/optee_os/lib/libutils/ext/snprintk.c:464
     8c2:	f046 0610 	orr.w	r6, r6, #16
     8c6:	e647      	b.n	558 <__vsnprintf+0x210>
/home/hsk/Desktop/devel/tee-tpm-hyp/optee_os/lib/libutils/ext/snprintk.c:467
     8c8:	f416 7980 	ands.w	r9, r6, #256	; 0x100
     8cc:	d004      	beq.n	8d8 <__vsnprintf+0x590>
     8ce:	681c      	ldr	r4, [r3, #0]
     8d0:	f103 0b04 	add.w	fp, r3, #4
     8d4:	2500      	movs	r5, #0
     8d6:	e64a      	b.n	56e <__vsnprintf+0x226>
     8d8:	f416 7200 	ands.w	r2, r6, #512	; 0x200
     8dc:	d004      	beq.n	8e8 <__vsnprintf+0x5a0>
     8de:	f103 0b04 	add.w	fp, r3, #4
     8e2:	681c      	ldr	r4, [r3, #0]
     8e4:	2500      	movs	r5, #0
     8e6:	e749      	b.n	77c <__vsnprintf+0x434>
     8e8:	f016 0920 	ands.w	r9, r6, #32
     8ec:	f47f ae38 	bne.w	560 <__vsnprintf+0x218>
     8f0:	f103 0b04 	add.w	fp, r3, #4
     8f4:	f016 0210 	ands.w	r2, r6, #16
     8f8:	d1f3      	bne.n	8e2 <__vsnprintf+0x59a>
     8fa:	f016 0940 	ands.w	r9, r6, #64	; 0x40
     8fe:	d0f0      	beq.n	8e2 <__vsnprintf+0x59a>
     900:	881c      	ldrh	r4, [r3, #0]
     902:	e7e7      	b.n	8d4 <__vsnprintf+0x58c>
/home/hsk/Desktop/devel/tee-tpm-hyp/optee_os/lib/libutils/ext/snprintk.c:474
     904:	4a4e      	ldr	r2, [pc, #312]	; (a40 <__vsnprintf+0x6f8>)
     906:	447a      	add	r2, pc
     908:	3211      	adds	r2, #17
     90a:	e636      	b.n	57a <__vsnprintf+0x232>
/home/hsk/Desktop/devel/tee-tpm-hyp/optee_os/lib/libutils/ext/snprintk.c:475
     90c:	05f0      	lsls	r0, r6, #23
     90e:	d503      	bpl.n	918 <__vsnprintf+0x5d0>
     910:	f103 0b04 	add.w	fp, r3, #4
     914:	681c      	ldr	r4, [r3, #0]
     916:	e00b      	b.n	930 <__vsnprintf+0x5e8>
     918:	05b1      	lsls	r1, r6, #22
     91a:	d4f9      	bmi.n	910 <__vsnprintf+0x5c8>
     91c:	06b2      	lsls	r2, r6, #26
     91e:	f53f ae30 	bmi.w	582 <__vsnprintf+0x23a>
     922:	f103 0b04 	add.w	fp, r3, #4
     926:	06f5      	lsls	r5, r6, #27
     928:	d4f4      	bmi.n	914 <__vsnprintf+0x5cc>
     92a:	0674      	lsls	r4, r6, #25
     92c:	d5f2      	bpl.n	914 <__vsnprintf+0x5cc>
     92e:	881c      	ldrh	r4, [r3, #0]
     930:	2500      	movs	r5, #0
     932:	e62d      	b.n	590 <__vsnprintf+0x248>
/home/hsk/Desktop/devel/tee-tpm-hyp/optee_os/lib/libutils/ext/snprintk.c:488
     934:	2301      	movs	r3, #1
     936:	e63b      	b.n	5b0 <__vsnprintf+0x268>
/home/hsk/Desktop/devel/tee-tpm-hyp/optee_os/lib/libutils/ext/snprintk.c:508
     938:	4653      	mov	r3, sl
     93a:	e64c      	b.n	5d6 <__vsnprintf+0x28e>
/home/hsk/Desktop/devel/tee-tpm-hyp/optee_os/lib/libutils/ext/snprintk.c:517
     93c:	4620      	mov	r0, r4
     93e:	4629      	mov	r1, r5
     940:	220a      	movs	r2, #10
     942:	2300      	movs	r3, #0
     944:	f000 e89e 	blx	a84 <__aeabi_uldivmod>
     948:	9b11      	ldr	r3, [sp, #68]	; 0x44
     94a:	3230      	adds	r2, #48	; 0x30
/home/hsk/Desktop/devel/tee-tpm-hyp/optee_os/lib/libutils/ext/snprintk.c:518
     94c:	4620      	mov	r0, r4
     94e:	4629      	mov	r1, r5
/home/hsk/Desktop/devel/tee-tpm-hyp/optee_os/lib/libutils/ext/snprintk.c:517
     950:	f803 2c01 	strb.w	r2, [r3, #-1]
/home/hsk/Desktop/devel/tee-tpm-hyp/optee_os/lib/libutils/ext/snprintk.c:518
     954:	220a      	movs	r2, #10
     956:	2300      	movs	r3, #0
     958:	f000 e894 	blx	a84 <__aeabi_uldivmod>
     95c:	4604      	mov	r4, r0
     95e:	460d      	mov	r5, r1
     960:	f8cd a044 	str.w	sl, [sp, #68]	; 0x44
     964:	9b11      	ldr	r3, [sp, #68]	; 0x44
/home/hsk/Desktop/devel/tee-tpm-hyp/optee_os/lib/libutils/ext/snprintk.c:516
     966:	2d00      	cmp	r5, #0
     968:	bf08      	it	eq
     96a:	2c0a      	cmpeq	r4, #10
     96c:	f103 3aff 	add.w	sl, r3, #4294967295	; 0xffffffff
     970:	d2e4      	bcs.n	93c <__vsnprintf+0x5f4>
/home/hsk/Desktop/devel/tee-tpm-hyp/optee_os/lib/libutils/ext/snprintk.c:520
     972:	3430      	adds	r4, #48	; 0x30
     974:	f803 4c01 	strb.w	r4, [r3, #-1]
     978:	e647      	b.n	60a <__vsnprintf+0x2c2>
/home/hsk/Desktop/devel/tee-tpm-hyp/optee_os/lib/libutils/ext/snprintk.c:496
     97a:	f10d 0a75 	add.w	sl, sp, #117	; 0x75
     97e:	e644      	b.n	60a <__vsnprintf+0x2c2>
/home/hsk/Desktop/devel/tee-tpm-hyp/optee_os/lib/libutils/ext/snprintk.c:568
     980:	07b5      	lsls	r5, r6, #30
/home/hsk/Desktop/devel/tee-tpm-hyp/optee_os/lib/libutils/ext/snprintk.c:569
     982:	bf48      	it	mi
     984:	3302      	addmi	r3, #2
     986:	e6a6      	b.n	6d6 <__vsnprintf+0x38e>
/home/hsk/Desktop/devel/tee-tpm-hyp/optee_os/lib/libutils/ext/snprintk.c:578
     988:	b127      	cbz	r7, 994 <__vsnprintf+0x64c>
     98a:	9d0e      	ldr	r5, [sp, #56]	; 0x38
     98c:	42bd      	cmp	r5, r7
     98e:	d901      	bls.n	994 <__vsnprintf+0x64c>
     990:	703c      	strb	r4, [r7, #0]
     992:	3701      	adds	r7, #1
     994:	3a01      	subs	r2, #1
     996:	e6ad      	b.n	6f4 <__vsnprintf+0x3ac>
/home/hsk/Desktop/devel/tee-tpm-hyp/optee_os/lib/libutils/ext/snprintk.c:583
     998:	9a0e      	ldr	r2, [sp, #56]	; 0x38
     99a:	42ba      	cmp	r2, r7
     99c:	f67f aeb5 	bls.w	70a <__vsnprintf+0x3c2>
     9a0:	f887 9000 	strb.w	r9, [r7]
     9a4:	3701      	adds	r7, #1
     9a6:	e6b0      	b.n	70a <__vsnprintf+0x3c2>
/home/hsk/Desktop/devel/tee-tpm-hyp/optee_os/lib/libutils/ext/snprintk.c:584
     9a8:	07b4      	lsls	r4, r6, #30
     9aa:	f57f aeae 	bpl.w	70a <__vsnprintf+0x3c2>
/home/hsk/Desktop/devel/tee-tpm-hyp/optee_os/lib/libutils/ext/snprintk.c:585
     9ae:	2f00      	cmp	r7, #0
     9b0:	f43f aeaa 	beq.w	708 <__vsnprintf+0x3c0>
     9b4:	9a0e      	ldr	r2, [sp, #56]	; 0x38
     9b6:	42ba      	cmp	r2, r7
     9b8:	f67f aea7 	bls.w	70a <__vsnprintf+0x3c2>
     9bc:	2230      	movs	r2, #48	; 0x30
     9be:	703a      	strb	r2, [r7, #0]
/home/hsk/Desktop/devel/tee-tpm-hyp/optee_os/lib/libutils/ext/snprintk.c:586
     9c0:	1c7a      	adds	r2, r7, #1
     9c2:	f43f aea1 	beq.w	708 <__vsnprintf+0x3c0>
     9c6:	9c0e      	ldr	r4, [sp, #56]	; 0x38
     9c8:	4294      	cmp	r4, r2
     9ca:	d903      	bls.n	9d4 <__vsnprintf+0x68c>
     9cc:	f887 8001 	strb.w	r8, [r7, #1]
     9d0:	3702      	adds	r7, #2
     9d2:	e69a      	b.n	70a <__vsnprintf+0x3c2>
     9d4:	4617      	mov	r7, r2
     9d6:	e698      	b.n	70a <__vsnprintf+0x3c2>
/home/hsk/Desktop/devel/tee-tpm-hyp/optee_os/lib/libutils/ext/snprintk.c:593
     9d8:	b127      	cbz	r7, 9e4 <__vsnprintf+0x69c>
     9da:	9c0e      	ldr	r4, [sp, #56]	; 0x38
     9dc:	42bc      	cmp	r4, r7
     9de:	d901      	bls.n	9e4 <__vsnprintf+0x69c>
     9e0:	7039      	strb	r1, [r7, #0]
     9e2:	3701      	adds	r7, #1
     9e4:	3a01      	subs	r2, #1
     9e6:	e696      	b.n	716 <__vsnprintf+0x3ce>
/home/hsk/Desktop/devel/tee-tpm-hyp/optee_os/lib/libutils/ext/snprintk.c:599
     9e8:	b127      	cbz	r7, 9f4 <__vsnprintf+0x6ac>
     9ea:	990e      	ldr	r1, [sp, #56]	; 0x38
     9ec:	42b9      	cmp	r1, r7
     9ee:	d901      	bls.n	9f4 <__vsnprintf+0x6ac>
     9f0:	703a      	strb	r2, [r7, #0]
     9f2:	3701      	adds	r7, #1
     9f4:	3801      	subs	r0, #1
     9f6:	e694      	b.n	722 <__vsnprintf+0x3da>
/home/hsk/Desktop/devel/tee-tpm-hyp/optee_os/lib/libutils/ext/snprintk.c:603
     9f8:	b13f      	cbz	r7, a0a <__vsnprintf+0x6c2>
     9fa:	990e      	ldr	r1, [sp, #56]	; 0x38
     9fc:	42b9      	cmp	r1, r7
     9fe:	d904      	bls.n	a0a <__vsnprintf+0x6c2>
     a00:	f81a 1002 	ldrb.w	r1, [sl, r2]
     a04:	3701      	adds	r7, #1
     a06:	f807 1c01 	strb.w	r1, [r7, #-1]
     a0a:	3201      	adds	r2, #1
     a0c:	e68d      	b.n	72a <__vsnprintf+0x3e2>
__vsnprintf():
/home/hsk/Desktop/devel/tee-tpm-hyp/optee_os/lib/libutils/ext/snprintk.c:148
     a0e:	990c      	ldr	r1, [sp, #48]	; 0x30
     a10:	5453      	strb	r3, [r2, r1]
/home/hsk/Desktop/devel/tee-tpm-hyp/optee_os/lib/libutils/ext/snprintk.c:150
     a12:	e4bf      	b.n	394 <__vsnprintf+0x4c>
kprintf():
/home/hsk/Desktop/devel/tee-tpm-hyp/optee_os/lib/libutils/ext/snprintk.c:489
     a14:	f426 6680 	bic.w	r6, r6, #1024	; 0x400
/home/hsk/Desktop/devel/tee-tpm-hyp/optee_os/lib/libutils/ext/snprintk.c:482
     a18:	f04f 0900 	mov.w	r9, #0
/home/hsk/Desktop/devel/tee-tpm-hyp/optee_os/lib/libutils/ext/snprintk.c:476
     a1c:	2302      	movs	r3, #2
     a1e:	e5cc      	b.n	5ba <__vsnprintf+0x272>
/home/hsk/Desktop/devel/tee-tpm-hyp/optee_os/lib/libutils/ext/snprintk.c:488
     a20:	9b0a      	ldr	r3, [sp, #40]	; 0x28
     a22:	3301      	adds	r3, #1
     a24:	d1f6      	bne.n	a14 <__vsnprintf+0x6cc>
     a26:	f04f 33ff 	mov.w	r3, #4294967295	; 0xffffffff
     a2a:	930a      	str	r3, [sp, #40]	; 0x28
     a2c:	e731      	b.n	892 <__vsnprintf+0x54a>
     a2e:	bf00      	nop
     a30:	000079bc 	.word	0x000079bc
     a34:	00007938 	.word	0x00007938
     a38:	00007699 	.word	0x00007699
     a3c:	0000762c 	.word	0x0000762c
     a40:	000075aa 	.word	0x000075aa

00000a44 <vsnprintk>:
vsnprintk():
/home/hsk/Desktop/devel/tee-tpm-hyp/optee_os/lib/libutils/ext/snprintk.c:129
     a44:	b513      	push	{r0, r1, r4, lr}
/home/hsk/Desktop/devel/tee-tpm-hyp/optee_os/lib/libutils/ext/snprintk.c:130
     a46:	2401      	movs	r4, #1
     a48:	9400      	str	r4, [sp, #0]
     a4a:	f7ff fc7d 	bl	348 <__vsnprintf>
/home/hsk/Desktop/devel/tee-tpm-hyp/optee_os/lib/libutils/ext/snprintk.c:131
     a4e:	b002      	add	sp, #8
     a50:	bd10      	pop	{r4, pc}

00000a52 <snprintk>:
snprintk():
/home/hsk/Desktop/devel/tee-tpm-hyp/optee_os/lib/libutils/ext/snprintk.c:112
     a52:	b40c      	push	{r2, r3}
     a54:	b507      	push	{r0, r1, r2, lr}
     a56:	ab04      	add	r3, sp, #16
     a58:	f853 2b04 	ldr.w	r2, [r3], #4
/home/hsk/Desktop/devel/tee-tpm-hyp/optee_os/lib/libutils/ext/snprintk.c:116
     a5c:	9301      	str	r3, [sp, #4]
/home/hsk/Desktop/devel/tee-tpm-hyp/optee_os/lib/libutils/ext/snprintk.c:117
     a5e:	f7ff fff1 	bl	a44 <vsnprintk>
/home/hsk/Desktop/devel/tee-tpm-hyp/optee_os/lib/libutils/ext/snprintk.c:121
     a62:	b003      	add	sp, #12
     a64:	f85d eb04 	ldr.w	lr, [sp], #4
     a68:	b002      	add	sp, #8
     a6a:	4770      	bx	lr

00000a6c <__aeabi_ldivmod>:
__aeabi_ldivmod():
/home/hsk/Desktop/devel/tee-tpm-hyp/optee_os/lib/libutils/isoc/arch/arm/arm32_aeabi_ldivmod_a32.S:24
     a6c:	e92d5000 	push	{ip, lr}
/home/hsk/Desktop/devel/tee-tpm-hyp/optee_os/lib/libutils/isoc/arch/arm/arm32_aeabi_ldivmod_a32.S:26
     a70:	e92d000f 	push	{r0, r1, r2, r3}
/home/hsk/Desktop/devel/tee-tpm-hyp/optee_os/lib/libutils/isoc/arch/arm/arm32_aeabi_ldivmod_a32.S:28
     a74:	e1a0000d 	mov	r0, sp
/home/hsk/Desktop/devel/tee-tpm-hyp/optee_os/lib/libutils/isoc/arch/arm/arm32_aeabi_ldivmod_a32.S:29
     a78:	fa001b6c 	blx	7830 <__l_divmod>
/home/hsk/Desktop/devel/tee-tpm-hyp/optee_os/lib/libutils/isoc/arch/arm/arm32_aeabi_ldivmod_a32.S:30
     a7c:	e8bd000f 	pop	{r0, r1, r2, r3}
/home/hsk/Desktop/devel/tee-tpm-hyp/optee_os/lib/libutils/isoc/arch/arm/arm32_aeabi_ldivmod_a32.S:31
     a80:	e8bd9000 	pop	{ip, pc}

00000a84 <__aeabi_uldivmod>:
__aeabi_uldivmod():
/home/hsk/Desktop/devel/tee-tpm-hyp/optee_os/lib/libutils/isoc/arch/arm/arm32_aeabi_ldivmod_a32.S:42
     a84:	e92d5000 	push	{ip, lr}
/home/hsk/Desktop/devel/tee-tpm-hyp/optee_os/lib/libutils/isoc/arch/arm/arm32_aeabi_ldivmod_a32.S:44
     a88:	e92d000f 	push	{r0, r1, r2, r3}
/home/hsk/Desktop/devel/tee-tpm-hyp/optee_os/lib/libutils/isoc/arch/arm/arm32_aeabi_ldivmod_a32.S:46
     a8c:	e1a0000d 	mov	r0, sp
/home/hsk/Desktop/devel/tee-tpm-hyp/optee_os/lib/libutils/isoc/arch/arm/arm32_aeabi_ldivmod_a32.S:47
     a90:	fb001b48 	blx	77ba <__ul_divmod>
/home/hsk/Desktop/devel/tee-tpm-hyp/optee_os/lib/libutils/isoc/arch/arm/arm32_aeabi_ldivmod_a32.S:48
     a94:	e8bd000f 	pop	{r0, r1, r2, r3}
/home/hsk/Desktop/devel/tee-tpm-hyp/optee_os/lib/libutils/isoc/arch/arm/arm32_aeabi_ldivmod_a32.S:49
     a98:	e8bd9000 	pop	{ip, pc}

00000a9c <trace_ext_puts>:
trace_ext_puts():
/home/hsk/Desktop/devel/tee-tpm-hyp/optee_os/lib/libutee/trace_ext.c:17
     a9c:	b510      	push	{r4, lr}
     a9e:	4604      	mov	r4, r0
/home/hsk/Desktop/devel/tee-tpm-hyp/optee_os/lib/libutee/trace_ext.c:18
     aa0:	f006 fe83 	bl	77aa <strlen>
     aa4:	4601      	mov	r1, r0
     aa6:	4620      	mov	r0, r4
/home/hsk/Desktop/devel/tee-tpm-hyp/optee_os/lib/libutee/trace_ext.c:19
     aa8:	e8bd 4010 	ldmia.w	sp!, {r4, lr}
/home/hsk/Desktop/devel/tee-tpm-hyp/optee_os/lib/libutee/trace_ext.c:18
     aac:	f006 bfb8 	b.w	7a20 <__utee_log_from_thumb>

00000ab0 <trace_ext_get_thread_id>:
trace_ext_get_thread_id():
/home/hsk/Desktop/devel/tee-tpm-hyp/optee_os/lib/libutee/trace_ext.c:24
     ab0:	f04f 30ff 	mov.w	r0, #4294967295	; 0xffffffff
     ab4:	4770      	bx	lr

00000ab6 <printf>:
printf():
/home/hsk/Desktop/devel/tee-tpm-hyp/optee_os/lib/libutee/trace_ext.c:32
     ab6:	b40f      	push	{r0, r1, r2, r3}
     ab8:	b530      	push	{r4, r5, lr}
     aba:	b0c3      	sub	sp, #268	; 0x10c
/home/hsk/Desktop/devel/tee-tpm-hyp/optee_os/lib/libutee/trace_ext.c:37
     abc:	f7ff fb20 	bl	100 <trace_get_level>
     ac0:	2800      	cmp	r0, #0
     ac2:	dd13      	ble.n	aec <printf+0x36>
/home/hsk/Desktop/devel/tee-tpm-hyp/optee_os/lib/libutee/trace_ext.c:41
     ac4:	ad02      	add	r5, sp, #8
/home/hsk/Desktop/devel/tee-tpm-hyp/optee_os/lib/libutee/trace_ext.c:40
     ac6:	ab47      	add	r3, sp, #284	; 0x11c
/home/hsk/Desktop/devel/tee-tpm-hyp/optee_os/lib/libutee/trace_ext.c:41
     ac8:	9a46      	ldr	r2, [sp, #280]	; 0x118
     aca:	f44f 7180 	mov.w	r1, #256	; 0x100
     ace:	4628      	mov	r0, r5
/home/hsk/Desktop/devel/tee-tpm-hyp/optee_os/lib/libutee/trace_ext.c:40
     ad0:	9301      	str	r3, [sp, #4]
/home/hsk/Desktop/devel/tee-tpm-hyp/optee_os/lib/libutee/trace_ext.c:41
     ad2:	f006 ff32 	bl	793a <vsnprintf>
/home/hsk/Desktop/devel/tee-tpm-hyp/optee_os/lib/libutee/trace_ext.c:44
     ad6:	1e04      	subs	r4, r0, #0
     ad8:	db02      	blt.n	ae0 <printf+0x2a>
/home/hsk/Desktop/devel/tee-tpm-hyp/optee_os/lib/libutee/trace_ext.c:47
     ada:	4628      	mov	r0, r5
     adc:	f7ff ffde 	bl	a9c <trace_ext_puts>
/home/hsk/Desktop/devel/tee-tpm-hyp/optee_os/lib/libutee/trace_ext.c:50
     ae0:	4620      	mov	r0, r4
     ae2:	b043      	add	sp, #268	; 0x10c
     ae4:	e8bd 4030 	ldmia.w	sp!, {r4, r5, lr}
     ae8:	b004      	add	sp, #16
     aea:	4770      	bx	lr
/home/hsk/Desktop/devel/tee-tpm-hyp/optee_os/lib/libutee/trace_ext.c:38
     aec:	2400      	movs	r4, #0
     aee:	e7f7      	b.n	ae0 <printf+0x2a>

00000af0 <puts>:
puts():
/home/hsk/Desktop/devel/tee-tpm-hyp/optee_os/lib/libutee/trace_ext.c:53
     af0:	b510      	push	{r4, lr}
     af2:	4604      	mov	r4, r0
/home/hsk/Desktop/devel/tee-tpm-hyp/optee_os/lib/libutee/trace_ext.c:54
     af4:	f7ff fb04 	bl	100 <trace_get_level>
     af8:	2800      	cmp	r0, #0
     afa:	dd06      	ble.n	b0a <puts+0x1a>
/home/hsk/Desktop/devel/tee-tpm-hyp/optee_os/lib/libutee/trace_ext.c:55
     afc:	4620      	mov	r0, r4
     afe:	f7ff ffcd 	bl	a9c <trace_ext_puts>
/home/hsk/Desktop/devel/tee-tpm-hyp/optee_os/lib/libutee/trace_ext.c:56
     b02:	4803      	ldr	r0, [pc, #12]	; (b10 <puts+0x20>)
     b04:	4478      	add	r0, pc
     b06:	f7ff ffc9 	bl	a9c <trace_ext_puts>
/home/hsk/Desktop/devel/tee-tpm-hyp/optee_os/lib/libutee/trace_ext.c:59
     b0a:	2001      	movs	r0, #1
     b0c:	bd10      	pop	{r4, pc}
     b0e:	bf00      	nop
     b10:	00007a97 	.word	0x00007a97

00000b14 <putchar>:
putchar():
/home/hsk/Desktop/devel/tee-tpm-hyp/optee_os/lib/libutee/trace_ext.c:62
     b14:	b513      	push	{r0, r1, r4, lr}
/home/hsk/Desktop/devel/tee-tpm-hyp/optee_os/lib/libutee/trace_ext.c:63
     b16:	2300      	movs	r3, #0
/home/hsk/Desktop/devel/tee-tpm-hyp/optee_os/lib/libutee/trace_ext.c:62
     b18:	4604      	mov	r4, r0
/home/hsk/Desktop/devel/tee-tpm-hyp/optee_os/lib/libutee/trace_ext.c:63
     b1a:	f88d 0004 	strb.w	r0, [sp, #4]
     b1e:	f88d 3005 	strb.w	r3, [sp, #5]
/home/hsk/Desktop/devel/tee-tpm-hyp/optee_os/lib/libutee/trace_ext.c:65
     b22:	f7ff faed 	bl	100 <trace_get_level>
     b26:	2800      	cmp	r0, #0
     b28:	dd02      	ble.n	b30 <putchar+0x1c>
/home/hsk/Desktop/devel/tee-tpm-hyp/optee_os/lib/libutee/trace_ext.c:66
     b2a:	a801      	add	r0, sp, #4
     b2c:	f7ff ffb6 	bl	a9c <trace_ext_puts>
/home/hsk/Desktop/devel/tee-tpm-hyp/optee_os/lib/libutee/trace_ext.c:73
     b30:	b2e0      	uxtb	r0, r4
     b32:	b002      	add	sp, #8
     b34:	bd10      	pop	{r4, pc}
     b36:	bf00      	nop

00000b38 <tee_buffer_update>:
tee_buffer_update():
/home/hsk/Desktop/devel/tee-tpm-hyp/optee_os/lib/libutee/tee_api_operations.c:852
     b38:	e92d 4ff0 	stmdb	sp!, {r4, r5, r6, r7, r8, r9, sl, fp, lr}
     b3c:	4604      	mov	r4, r0
     b3e:	461d      	mov	r5, r3
     b40:	b087      	sub	sp, #28
/home/hsk/Desktop/devel/tee-tpm-hyp/optee_os/lib/libutee/tee_api_operations.c:864
     b42:	4690      	mov	r8, r2
/home/hsk/Desktop/devel/tee-tpm-hyp/optee_os/lib/libutee/tee_api_operations.c:852
     b44:	9103      	str	r1, [sp, #12]
/home/hsk/Desktop/devel/tee-tpm-hyp/optee_os/lib/libutee/tee_api_operations.c:864
     b46:	b962      	cbnz	r2, b62 <tee_buffer_update+0x2a>
/home/hsk/Desktop/devel/tee-tpm-hyp/optee_os/lib/libutee/tee_api_operations.c:865
     b48:	b93b      	cbnz	r3, b5a <tee_buffer_update+0x22>
/home/hsk/Desktop/devel/tee-tpm-hyp/optee_os/lib/libutee/tee_api_operations.c:858
     b4a:	2600      	movs	r6, #0
/home/hsk/Desktop/devel/tee-tpm-hyp/optee_os/lib/libutee/tee_api_operations.c:940
     b4c:	9b11      	ldr	r3, [sp, #68]	; 0x44
     b4e:	2000      	movs	r0, #0
     b50:	e9c3 6000 	strd	r6, r0, [r3]
/home/hsk/Desktop/devel/tee-tpm-hyp/optee_os/lib/libutee/tee_api_operations.c:942
     b54:	b007      	add	sp, #28
     b56:	e8bd 8ff0 	ldmia.w	sp!, {r4, r5, r6, r7, r8, r9, sl, fp, pc}
/home/hsk/Desktop/devel/tee-tpm-hyp/optee_os/lib/libutee/tee_api_operations.c:866
     b5a:	4610      	mov	r0, r2
     b5c:	f006 fedc 	bl	7918 <TEE_Panic>
     b60:	e7f3      	b.n	b4a <tee_buffer_update+0x12>
/home/hsk/Desktop/devel/tee-tpm-hyp/optee_os/lib/libutee/tee_api_operations.c:870
     b62:	f890 9030 	ldrb.w	r9, [r0, #48]	; 0x30
     b66:	6b46      	ldr	r6, [r0, #52]	; 0x34
     b68:	f1b9 0f00 	cmp.w	r9, #0
     b6c:	d06d      	beq.n	c4a <tee_buffer_update+0x112>
/home/hsk/Desktop/devel/tee-tpm-hyp/optee_os/lib/libutee/tee_api_operations.c:871
     b6e:	ea4f 0a46 	mov.w	sl, r6, lsl #1
/home/hsk/Desktop/devel/tee-tpm-hyp/optee_os/lib/libutee/tee_api_operations.c:872
     b72:	f04f 0901 	mov.w	r9, #1
/home/hsk/Desktop/devel/tee-tpm-hyp/optee_os/lib/libutee/tee_api_operations.c:878
     b76:	6ba0      	ldr	r0, [r4, #56]	; 0x38
/home/hsk/Desktop/devel/tee-tpm-hyp/optee_os/lib/libutee/tee_api_operations.c:857
     b78:	9b11      	ldr	r3, [sp, #68]	; 0x44
     b7a:	f8d3 b000 	ldr.w	fp, [r3]
/home/hsk/Desktop/devel/tee-tpm-hyp/optee_os/lib/libutee/tee_api_operations.c:878
     b7e:	b1b8      	cbz	r0, bb0 <tee_buffer_update+0x78>
/home/hsk/Desktop/devel/tee-tpm-hyp/optee_os/lib/libutee/tee_api_operations.c:880
     b80:	42b0      	cmp	r0, r6
     b82:	d264      	bcs.n	c4e <tee_buffer_update+0x116>
/home/hsk/Desktop/devel/tee-tpm-hyp/optee_os/lib/libutee/tee_api_operations.c:881
     b84:	1a36      	subs	r6, r6, r0
/home/hsk/Desktop/devel/tee-tpm-hyp/optee_os/lib/libutee/tee_api_operations.c:884
     b86:	6ae3      	ldr	r3, [r4, #44]	; 0x2c
/home/hsk/Desktop/devel/tee-tpm-hyp/optee_os/lib/libutee/tee_api_operations.c:883
     b88:	42ae      	cmp	r6, r5
     b8a:	bf28      	it	cs
     b8c:	462e      	movcs	r6, r5
/home/hsk/Desktop/devel/tee-tpm-hyp/optee_os/lib/libutee/tee_api_operations.c:884
     b8e:	4641      	mov	r1, r8
     b90:	4632      	mov	r2, r6
     b92:	4418      	add	r0, r3
     b94:	f006 fee7 	bl	7966 <memcpy>
/home/hsk/Desktop/devel/tee-tpm-hyp/optee_os/lib/libutee/tee_api_operations.c:885
     b98:	6ba3      	ldr	r3, [r4, #56]	; 0x38
/home/hsk/Desktop/devel/tee-tpm-hyp/optee_os/lib/libutee/tee_api_operations.c:888
     b9a:	6b61      	ldr	r1, [r4, #52]	; 0x34
/home/hsk/Desktop/devel/tee-tpm-hyp/optee_os/lib/libutee/tee_api_operations.c:885
     b9c:	4433      	add	r3, r6
     b9e:	63a3      	str	r3, [r4, #56]	; 0x38
/home/hsk/Desktop/devel/tee-tpm-hyp/optee_os/lib/libutee/tee_api_operations.c:888
     ba0:	fbb3 f2f1 	udiv	r2, r3, r1
     ba4:	fb01 3312 	mls	r3, r1, r2, r3
     ba8:	2b00      	cmp	r3, #0
     baa:	d1ce      	bne.n	b4a <tee_buffer_update+0x12>
/home/hsk/Desktop/devel/tee-tpm-hyp/optee_os/lib/libutee/tee_api_operations.c:886
     bac:	44b0      	add	r8, r6
/home/hsk/Desktop/devel/tee-tpm-hyp/optee_os/lib/libutee/tee_api_operations.c:887
     bae:	1bad      	subs	r5, r5, r6
/home/hsk/Desktop/devel/tee-tpm-hyp/optee_os/lib/libutee/tee_api_operations.c:893
     bb0:	6ba6      	ldr	r6, [r4, #56]	; 0x38
/home/hsk/Desktop/devel/tee-tpm-hyp/optee_os/lib/libutee/tee_api_operations.c:857
     bb2:	465a      	mov	r2, fp
     bb4:	44d1      	add	r9, sl
/home/hsk/Desktop/devel/tee-tpm-hyp/optee_os/lib/libutee/tee_api_operations.c:893
     bb6:	b32e      	cbz	r6, c04 <tee_buffer_update+0xcc>
/home/hsk/Desktop/devel/tee-tpm-hyp/optee_os/lib/libutee/tee_api_operations.c:894 (discriminator 1)
     bb8:	1971      	adds	r1, r6, r5
/home/hsk/Desktop/devel/tee-tpm-hyp/optee_os/lib/libutee/tee_api_operations.c:893 (discriminator 1)
     bba:	4549      	cmp	r1, r9
     bbc:	d35b      	bcc.n	c76 <tee_buffer_update+0x13e>
/home/hsk/Desktop/devel/tee-tpm-hyp/optee_os/lib/libutee/tee_api_operations.c:895
     bbe:	6b63      	ldr	r3, [r4, #52]	; 0x34
/home/hsk/Desktop/devel/tee-tpm-hyp/optee_os/lib/libutee/tee_api_operations.c:899
     bc0:	6be0      	ldr	r0, [r4, #60]	; 0x3c
/home/hsk/Desktop/devel/tee-tpm-hyp/optee_os/lib/libutee/tee_api_operations.c:895
     bc2:	1e5f      	subs	r7, r3, #1
     bc4:	425b      	negs	r3, r3
     bc6:	eba7 070a 	sub.w	r7, r7, sl
/home/hsk/Desktop/devel/tee-tpm-hyp/optee_os/lib/libutee/tee_api_operations.c:898
     bca:	f8cd b010 	str.w	fp, [sp, #16]
/home/hsk/Desktop/devel/tee-tpm-hyp/optee_os/lib/libutee/tee_api_operations.c:895
     bce:	440f      	add	r7, r1
/home/hsk/Desktop/devel/tee-tpm-hyp/optee_os/lib/libutee/tee_api_operations.c:899
     bd0:	6ae1      	ldr	r1, [r4, #44]	; 0x2c
/home/hsk/Desktop/devel/tee-tpm-hyp/optee_os/lib/libutee/tee_api_operations.c:895
     bd2:	401f      	ands	r7, r3
/home/hsk/Desktop/devel/tee-tpm-hyp/optee_os/lib/libutee/tee_api_operations.c:898
     bd4:	2300      	movs	r3, #0
/home/hsk/Desktop/devel/tee-tpm-hyp/optee_os/lib/libutee/tee_api_operations.c:897
     bd6:	42b7      	cmp	r7, r6
/home/hsk/Desktop/devel/tee-tpm-hyp/optee_os/lib/libutee/tee_api_operations.c:898
     bd8:	9305      	str	r3, [sp, #20]
/home/hsk/Desktop/devel/tee-tpm-hyp/optee_os/lib/libutee/tee_api_operations.c:897
     bda:	bf28      	it	cs
     bdc:	4637      	movcs	r7, r6
/home/hsk/Desktop/devel/tee-tpm-hyp/optee_os/lib/libutee/tee_api_operations.c:899
     bde:	ab04      	add	r3, sp, #16
     be0:	463a      	mov	r2, r7
     be2:	9300      	str	r3, [sp, #0]
     be4:	9e03      	ldr	r6, [sp, #12]
     be6:	9b10      	ldr	r3, [sp, #64]	; 0x40
     be8:	47b0      	blx	r6
/home/hsk/Desktop/devel/tee-tpm-hyp/optee_os/lib/libutee/tee_api_operations.c:900
     bea:	b108      	cbz	r0, bf0 <tee_buffer_update+0xb8>
/home/hsk/Desktop/devel/tee-tpm-hyp/optee_os/lib/libutee/tee_api_operations.c:901
     bec:	f006 fe94 	bl	7918 <TEE_Panic>
/home/hsk/Desktop/devel/tee-tpm-hyp/optee_os/lib/libutee/tee_api_operations.c:905
     bf0:	6ba3      	ldr	r3, [r4, #56]	; 0x38
/home/hsk/Desktop/devel/tee-tpm-hyp/optee_os/lib/libutee/tee_api_operations.c:902
     bf2:	9e04      	ldr	r6, [sp, #16]
/home/hsk/Desktop/devel/tee-tpm-hyp/optee_os/lib/libutee/tee_api_operations.c:905
     bf4:	1bdb      	subs	r3, r3, r7
     bf6:	63a3      	str	r3, [r4, #56]	; 0x38
/home/hsk/Desktop/devel/tee-tpm-hyp/optee_os/lib/libutee/tee_api_operations.c:906
     bf8:	bb63      	cbnz	r3, c54 <tee_buffer_update+0x11c>
/home/hsk/Desktop/devel/tee-tpm-hyp/optee_os/lib/libutee/tee_api_operations.c:902
     bfa:	9b10      	ldr	r3, [sp, #64]	; 0x40
/home/hsk/Desktop/devel/tee-tpm-hyp/optee_os/lib/libutee/tee_api_operations.c:903
     bfc:	ebab 0206 	sub.w	r2, fp, r6
/home/hsk/Desktop/devel/tee-tpm-hyp/optee_os/lib/libutee/tee_api_operations.c:902
     c00:	4433      	add	r3, r6
     c02:	9310      	str	r3, [sp, #64]	; 0x40
/home/hsk/Desktop/devel/tee-tpm-hyp/optee_os/lib/libutee/tee_api_operations.c:917
     c04:	454d      	cmp	r5, r9
     c06:	d32b      	bcc.n	c60 <tee_buffer_update+0x128>
     c08:	6b63      	ldr	r3, [r4, #52]	; 0x34
/home/hsk/Desktop/devel/tee-tpm-hyp/optee_os/lib/libutee/tee_api_operations.c:919
     c0a:	6821      	ldr	r1, [r4, #0]
     c0c:	4f1e      	ldr	r7, [pc, #120]	; (c88 <tee_buffer_update+0x150>)
     c0e:	4258      	negs	r0, r3
     c10:	42b9      	cmp	r1, r7
     c12:	d132      	bne.n	c7a <tee_buffer_update+0x142>
/home/hsk/Desktop/devel/tee-tpm-hyp/optee_os/lib/libutee/tee_api_operations.c:920
     c14:	3b01      	subs	r3, #1
     c16:	eba3 0a0a 	sub.w	sl, r3, sl
     c1a:	eb0a 0105 	add.w	r1, sl, r5
     c1e:	ea01 0a00 	and.w	sl, r1, r0
/home/hsk/Desktop/devel/tee-tpm-hyp/optee_os/lib/libutee/tee_api_operations.c:924
     c22:	2300      	movs	r3, #0
     c24:	9204      	str	r2, [sp, #16]
     c26:	9305      	str	r3, [sp, #20]
/home/hsk/Desktop/devel/tee-tpm-hyp/optee_os/lib/libutee/tee_api_operations.c:925
     c28:	4652      	mov	r2, sl
     c2a:	ab04      	add	r3, sp, #16
     c2c:	4641      	mov	r1, r8
     c2e:	9300      	str	r3, [sp, #0]
     c30:	6be0      	ldr	r0, [r4, #60]	; 0x3c
     c32:	9b10      	ldr	r3, [sp, #64]	; 0x40
     c34:	9f03      	ldr	r7, [sp, #12]
     c36:	47b8      	blx	r7
/home/hsk/Desktop/devel/tee-tpm-hyp/optee_os/lib/libutee/tee_api_operations.c:926
     c38:	b108      	cbz	r0, c3e <tee_buffer_update+0x106>
/home/hsk/Desktop/devel/tee-tpm-hyp/optee_os/lib/libutee/tee_api_operations.c:927
     c3a:	f006 fe6d 	bl	7918 <TEE_Panic>
/home/hsk/Desktop/devel/tee-tpm-hyp/optee_os/lib/libutee/tee_api_operations.c:932
     c3e:	9b04      	ldr	r3, [sp, #16]
/home/hsk/Desktop/devel/tee-tpm-hyp/optee_os/lib/libutee/tee_api_operations.c:928
     c40:	44d0      	add	r8, sl
/home/hsk/Desktop/devel/tee-tpm-hyp/optee_os/lib/libutee/tee_api_operations.c:929
     c42:	eba5 050a 	sub.w	r5, r5, sl
/home/hsk/Desktop/devel/tee-tpm-hyp/optee_os/lib/libutee/tee_api_operations.c:932
     c46:	441e      	add	r6, r3
     c48:	e00a      	b.n	c60 <tee_buffer_update+0x128>
     c4a:	46b2      	mov	sl, r6
     c4c:	e793      	b.n	b76 <tee_buffer_update+0x3e>
/home/hsk/Desktop/devel/tee-tpm-hyp/optee_os/lib/libutee/tee_api_operations.c:883
     c4e:	ebaa 0600 	sub.w	r6, sl, r0
     c52:	e798      	b.n	b86 <tee_buffer_update+0x4e>
/home/hsk/Desktop/devel/tee-tpm-hyp/optee_os/lib/libutee/tee_api_operations.c:910
     c54:	6ae0      	ldr	r0, [r4, #44]	; 0x2c
     c56:	ebaa 0207 	sub.w	r2, sl, r7
     c5a:	19c1      	adds	r1, r0, r7
     c5c:	f006 fe83 	bl	7966 <memcpy>
/home/hsk/Desktop/devel/tee-tpm-hyp/optee_os/lib/libutee/tee_api_operations.c:936
     c60:	6ba3      	ldr	r3, [r4, #56]	; 0x38
     c62:	462a      	mov	r2, r5
     c64:	6ae0      	ldr	r0, [r4, #44]	; 0x2c
     c66:	4641      	mov	r1, r8
     c68:	4418      	add	r0, r3
     c6a:	f006 fe7c 	bl	7966 <memcpy>
/home/hsk/Desktop/devel/tee-tpm-hyp/optee_os/lib/libutee/tee_api_operations.c:937
     c6e:	6ba3      	ldr	r3, [r4, #56]	; 0x38
     c70:	441d      	add	r5, r3
     c72:	63a5      	str	r5, [r4, #56]	; 0x38
     c74:	e76a      	b.n	b4c <tee_buffer_update+0x14>
/home/hsk/Desktop/devel/tee-tpm-hyp/optee_os/lib/libutee/tee_api_operations.c:858
     c76:	2600      	movs	r6, #0
     c78:	e7c4      	b.n	c04 <tee_buffer_update+0xcc>
/home/hsk/Desktop/devel/tee-tpm-hyp/optee_os/lib/libutee/tee_api_operations.c:922
     c7a:	eba3 0a0a 	sub.w	sl, r3, sl
     c7e:	44aa      	add	sl, r5
     c80:	ea0a 0a00 	and.w	sl, sl, r0
     c84:	e7cd      	b.n	c22 <tee_buffer_update+0xea>
     c86:	bf00      	nop
     c88:	10000310 	.word	0x10000310

00000c8c <TEE_FreeOperation>:
TEE_FreeOperation():
/home/hsk/Desktop/devel/tee-tpm-hyp/optee_os/lib/libutee/tee_api_operations.c:351
     c8c:	b510      	push	{r4, lr}
/home/hsk/Desktop/devel/tee-tpm-hyp/optee_os/lib/libutee/tee_api_operations.c:354
     c8e:	4604      	mov	r4, r0
     c90:	b908      	cbnz	r0, c96 <TEE_FreeOperation+0xa>
/home/hsk/Desktop/devel/tee-tpm-hyp/optee_os/lib/libutee/tee_api_operations.c:355
     c92:	f006 fe41 	bl	7918 <TEE_Panic>
/home/hsk/Desktop/devel/tee-tpm-hyp/optee_os/lib/libutee/tee_api_operations.c:362
     c96:	6be0      	ldr	r0, [r4, #60]	; 0x3c
     c98:	f001 ebea 	blx	2470 <utee_cryp_state_free>
/home/hsk/Desktop/devel/tee-tpm-hyp/optee_os/lib/libutee/tee_api_operations.c:363
     c9c:	b108      	cbz	r0, ca2 <TEE_FreeOperation+0x16>
/home/hsk/Desktop/devel/tee-tpm-hyp/optee_os/lib/libutee/tee_api_operations.c:364
     c9e:	f006 fe3b 	bl	7918 <TEE_Panic>
/home/hsk/Desktop/devel/tee-tpm-hyp/optee_os/lib/libutee/tee_api_operations.c:366
     ca2:	6ae0      	ldr	r0, [r4, #44]	; 0x2c
     ca4:	f001 feea 	bl	2a7c <TEE_Free>
/home/hsk/Desktop/devel/tee-tpm-hyp/optee_os/lib/libutee/tee_api_operations.c:367
     ca8:	4620      	mov	r0, r4
/home/hsk/Desktop/devel/tee-tpm-hyp/optee_os/lib/libutee/tee_api_operations.c:368
     caa:	e8bd 4010 	ldmia.w	sp!, {r4, lr}
/home/hsk/Desktop/devel/tee-tpm-hyp/optee_os/lib/libutee/tee_api_operations.c:367
     cae:	f001 bee5 	b.w	2a7c <TEE_Free>

00000cb2 <TEE_AllocateOperation>:
TEE_AllocateOperation():
/home/hsk/Desktop/devel/tee-tpm-hyp/optee_os/lib/libutee/tee_api_operations.c:37
     cb2:	e92d 4ff0 	stmdb	sp!, {r4, r5, r6, r7, r8, r9, sl, fp, lr}
     cb6:	460c      	mov	r4, r1
     cb8:	4617      	mov	r7, r2
     cba:	b087      	sub	sp, #28
     cbc:	4699      	mov	r9, r3
/home/hsk/Desktop/devel/tee-tpm-hyp/optee_os/lib/libutee/tee_api_operations.c:46
     cbe:	9003      	str	r0, [sp, #12]
     cc0:	b908      	cbnz	r0, cc6 <TEE_AllocateOperation+0x14>
/home/hsk/Desktop/devel/tee-tpm-hyp/optee_os/lib/libutee/tee_api_operations.c:47
     cc2:	f006 fe29 	bl	7918 <TEE_Panic>
/home/hsk/Desktop/devel/tee-tpm-hyp/optee_os/lib/libutee/tee_api_operations.c:49
     cc6:	4bb6      	ldr	r3, [pc, #728]	; (fa0 <TEE_AllocateOperation+0x2ee>)
     cc8:	429c      	cmp	r4, r3
     cca:	f000 81c0 	beq.w	104e <TEE_AllocateOperation+0x39c>
/home/hsk/Desktop/devel/tee-tpm-hyp/optee_os/lib/libutee/tee_api_operations.c:53
     cce:	4bb5      	ldr	r3, [pc, #724]	; (fa4 <TEE_AllocateOperation+0x2f2>)
     cd0:	429c      	cmp	r4, r3
     cd2:	d068      	beq.n	da6 <TEE_AllocateOperation+0xf4>
     cd4:	d840      	bhi.n	d58 <TEE_AllocateOperation+0xa6>
     cd6:	4ab4      	ldr	r2, [pc, #720]	; (fa8 <TEE_AllocateOperation+0x2f6>)
     cd8:	4294      	cmp	r4, r2
     cda:	d055      	beq.n	d88 <TEE_AllocateOperation+0xd6>
     cdc:	d82e      	bhi.n	d3c <TEE_AllocateOperation+0x8a>
     cde:	f5a2 5287 	sub.w	r2, r2, #4320	; 0x10e0
     ce2:	3a10      	subs	r2, #16
     ce4:	4294      	cmp	r4, r2
     ce6:	d041      	beq.n	d6c <TEE_AllocateOperation+0xba>
     ce8:	f502 5280 	add.w	r2, r2, #4096	; 0x1000
     cec:	4294      	cmp	r4, r2
     cee:	d05f      	beq.n	db0 <TEE_AllocateOperation+0xfe>
/home/hsk/Desktop/devel/tee-tpm-hyp/optee_os/lib/libutee/tee_api_operations.c:108
     cf0:	4aae      	ldr	r2, [pc, #696]	; (fac <TEE_AllocateOperation+0x2fa>)
     cf2:	4294      	cmp	r4, r2
     cf4:	f000 80e6 	beq.w	ec4 <TEE_AllocateOperation+0x212>
     cf8:	f200 80cf 	bhi.w	e9a <TEE_AllocateOperation+0x1e8>
     cfc:	4bac      	ldr	r3, [pc, #688]	; (fb0 <TEE_AllocateOperation+0x2fe>)
     cfe:	429c      	cmp	r4, r3
     d00:	d076      	beq.n	df0 <TEE_AllocateOperation+0x13e>
     d02:	f200 8087 	bhi.w	e14 <TEE_AllocateOperation+0x162>
     d06:	4bab      	ldr	r3, [pc, #684]	; (fb4 <TEE_AllocateOperation+0x302>)
     d08:	429c      	cmp	r4, r3
     d0a:	f000 818e 	beq.w	102a <TEE_AllocateOperation+0x378>
     d0e:	d864      	bhi.n	dda <TEE_AllocateOperation+0x128>
     d10:	f46f 71ff 	mvn.w	r1, #510	; 0x1fe
     d14:	440b      	add	r3, r1
     d16:	429c      	cmp	r4, r3
     d18:	d854      	bhi.n	dc4 <TEE_AllocateOperation+0x112>
     d1a:	3b01      	subs	r3, #1
     d1c:	429c      	cmp	r4, r3
     d1e:	d209      	bcs.n	d34 <TEE_AllocateOperation+0x82>
     d20:	f5a3 7380 	sub.w	r3, r3, #256	; 0x100
     d24:	429c      	cmp	r4, r3
     d26:	d338      	bcc.n	d9a <TEE_AllocateOperation+0xe8>
     d28:	3301      	adds	r3, #1
     d2a:	429c      	cmp	r4, r3
     d2c:	d902      	bls.n	d34 <TEE_AllocateOperation+0x82>
     d2e:	3302      	adds	r3, #2
     d30:	429c      	cmp	r4, r3
     d32:	d132      	bne.n	d9a <TEE_AllocateOperation+0xe8>
     d34:	f04f 0800 	mov.w	r8, #0
/home/hsk/Desktop/devel/tee-tpm-hyp/optee_os/lib/libutee/tee_api_operations.c:44
     d38:	4646      	mov	r6, r8
     d3a:	e179      	b.n	1030 <TEE_AllocateOperation+0x37e>
/home/hsk/Desktop/devel/tee-tpm-hyp/optee_os/lib/libutee/tee_api_operations.c:53
     d3c:	4a9e      	ldr	r2, [pc, #632]	; (fb8 <TEE_AllocateOperation+0x306>)
     d3e:	4294      	cmp	r4, r2
     d40:	d02d      	beq.n	d9e <TEE_AllocateOperation+0xec>
     d42:	f502 6271 	add.w	r2, r2, #3856	; 0xf10
     d46:	4294      	cmp	r4, r2
     d48:	d035      	beq.n	db6 <TEE_AllocateOperation+0x104>
     d4a:	f5a2 5280 	sub.w	r2, r2, #4096	; 0x1000
     d4e:	4294      	cmp	r4, r2
     d50:	d1ce      	bne.n	cf0 <TEE_AllocateOperation+0x3e>
/home/hsk/Desktop/devel/tee-tpm-hyp/optee_os/lib/libutee/tee_api_operations.c:87
     d52:	f5b9 7f80 	cmp.w	r9, #256	; 0x100
     d56:	e00b      	b.n	d70 <TEE_AllocateOperation+0xbe>
/home/hsk/Desktop/devel/tee-tpm-hyp/optee_os/lib/libutee/tee_api_operations.c:53
     d58:	4a98      	ldr	r2, [pc, #608]	; (fbc <TEE_AllocateOperation+0x30a>)
     d5a:	4294      	cmp	r4, r2
     d5c:	d028      	beq.n	db0 <TEE_AllocateOperation+0xfe>
     d5e:	d809      	bhi.n	d74 <TEE_AllocateOperation+0xc2>
     d60:	4a97      	ldr	r2, [pc, #604]	; (fc0 <TEE_AllocateOperation+0x30e>)
     d62:	4294      	cmp	r4, r2
     d64:	d02a      	beq.n	dbc <TEE_AllocateOperation+0x10a>
     d66:	4a97      	ldr	r2, [pc, #604]	; (fc4 <TEE_AllocateOperation+0x312>)
     d68:	4294      	cmp	r4, r2
     d6a:	d1c1      	bne.n	cf0 <TEE_AllocateOperation+0x3e>
/home/hsk/Desktop/devel/tee-tpm-hyp/optee_os/lib/libutee/tee_api_operations.c:75
     d6c:	f1b9 0fc0 	cmp.w	r9, #192	; 0xc0
/home/hsk/Desktop/devel/tee-tpm-hyp/optee_os/lib/libutee/tee_api_operations.c:99
     d70:	d0be      	beq.n	cf0 <TEE_AllocateOperation+0x3e>
     d72:	e012      	b.n	d9a <TEE_AllocateOperation+0xe8>
/home/hsk/Desktop/devel/tee-tpm-hyp/optee_os/lib/libutee/tee_api_operations.c:53
     d74:	4a94      	ldr	r2, [pc, #592]	; (fc8 <TEE_AllocateOperation+0x316>)
     d76:	4294      	cmp	r4, r2
     d78:	d01d      	beq.n	db6 <TEE_AllocateOperation+0x104>
     d7a:	f502 5280 	add.w	r2, r2, #4096	; 0x1000
     d7e:	4294      	cmp	r4, r2
     d80:	d01c      	beq.n	dbc <TEE_AllocateOperation+0x10a>
     d82:	f5a2 5200 	sub.w	r2, r2, #8192	; 0x2000
     d86:	e7e2      	b.n	d4e <TEE_AllocateOperation+0x9c>
/home/hsk/Desktop/devel/tee-tpm-hyp/optee_os/lib/libutee/tee_api_operations.c:55
     d88:	f5a9 7300 	sub.w	r3, r9, #512	; 0x200
     d8c:	f5b3 7f00 	cmp.w	r3, #512	; 0x200
     d90:	d803      	bhi.n	d9a <TEE_AllocateOperation+0xe8>
/home/hsk/Desktop/devel/tee-tpm-hyp/optee_os/lib/libutee/tee_api_operations.c:59
     d92:	f019 0f3f 	tst.w	r9, #63	; 0x3f
     d96:	f000 8095 	beq.w	ec4 <TEE_AllocateOperation+0x212>
/home/hsk/Desktop/devel/tee-tpm-hyp/optee_os/lib/libutee/tee_api_operations.c:56
     d9a:	4e8c      	ldr	r6, [pc, #560]	; (fcc <TEE_AllocateOperation+0x31a>)
     d9c:	e1ad      	b.n	10fa <TEE_AllocateOperation+0x448>
/home/hsk/Desktop/devel/tee-tpm-hyp/optee_os/lib/libutee/tee_api_operations.c:64
     d9e:	f5b9 6f00 	cmp.w	r9, #2048	; 0x800
/home/hsk/Desktop/devel/tee-tpm-hyp/optee_os/lib/libutee/tee_api_operations.c:108
     da2:	d1fa      	bne.n	d9a <TEE_AllocateOperation+0xe8>
     da4:	e08e      	b.n	ec4 <TEE_AllocateOperation+0x212>
/home/hsk/Desktop/devel/tee-tpm-hyp/optee_os/lib/libutee/tee_api_operations.c:69
     da6:	f429 6380 	bic.w	r3, r9, #1024	; 0x400
     daa:	f5b3 6f00 	cmp.w	r3, #2048	; 0x800
     dae:	e7f8      	b.n	da2 <TEE_AllocateOperation+0xf0>
/home/hsk/Desktop/devel/tee-tpm-hyp/optee_os/lib/libutee/tee_api_operations.c:81
     db0:	f1b9 0fe0 	cmp.w	r9, #224	; 0xe0
     db4:	e7dc      	b.n	d70 <TEE_AllocateOperation+0xbe>
/home/hsk/Desktop/devel/tee-tpm-hyp/optee_os/lib/libutee/tee_api_operations.c:93
     db6:	f5b9 7fc0 	cmp.w	r9, #384	; 0x180
     dba:	e7d9      	b.n	d70 <TEE_AllocateOperation+0xbe>
/home/hsk/Desktop/devel/tee-tpm-hyp/optee_os/lib/libutee/tee_api_operations.c:99
     dbc:	f240 2209 	movw	r2, #521	; 0x209
     dc0:	4591      	cmp	r9, r2
     dc2:	e7d5      	b.n	d70 <TEE_AllocateOperation+0xbe>
/home/hsk/Desktop/devel/tee-tpm-hyp/optee_os/lib/libutee/tee_api_operations.c:108
     dc4:	4b82      	ldr	r3, [pc, #520]	; (fd0 <TEE_AllocateOperation+0x31e>)
     dc6:	429c      	cmp	r4, r3
     dc8:	d0b4      	beq.n	d34 <TEE_AllocateOperation+0x82>
     dca:	33fd      	adds	r3, #253	; 0xfd
     dcc:	429c      	cmp	r4, r3
     dce:	d1e4      	bne.n	d9a <TEE_AllocateOperation+0xe8>
     dd0:	f04f 0800 	mov.w	r8, #0
/home/hsk/Desktop/devel/tee-tpm-hyp/optee_os/lib/libutee/tee_api_operations.c:41
     dd4:	2301      	movs	r3, #1
/home/hsk/Desktop/devel/tee-tpm-hyp/optee_os/lib/libutee/tee_api_operations.c:44
     dd6:	4646      	mov	r6, r8
     dd8:	e130      	b.n	103c <TEE_AllocateOperation+0x38a>
/home/hsk/Desktop/devel/tee-tpm-hyp/optee_os/lib/libutee/tee_api_operations.c:108
     dda:	4b7e      	ldr	r3, [pc, #504]	; (fd4 <TEE_AllocateOperation+0x322>)
     ddc:	429c      	cmp	r4, r3
     dde:	d80f      	bhi.n	e00 <TEE_AllocateOperation+0x14e>
     de0:	3b01      	subs	r3, #1
     de2:	429c      	cmp	r4, r3
     de4:	d204      	bcs.n	df0 <TEE_AllocateOperation+0x13e>
     de6:	f104 4350 	add.w	r3, r4, #3489660928	; 0xd0000000
     dea:	3b01      	subs	r3, #1
     dec:	2b05      	cmp	r3, #5
     dee:	d8d4      	bhi.n	d9a <TEE_AllocateOperation+0xe8>
/home/hsk/Desktop/devel/tee-tpm-hyp/optee_os/lib/libutee/tee_api_operations.c:244
     df0:	2f04      	cmp	r7, #4
     df2:	d1d2      	bne.n	d9a <TEE_AllocateOperation+0xe8>
/home/hsk/Desktop/devel/tee-tpm-hyp/optee_os/lib/libutee/tee_api_operations.c:44
     df4:	2600      	movs	r6, #0
/home/hsk/Desktop/devel/tee-tpm-hyp/optee_os/lib/libutee/tee_api_operations.c:246
     df6:	2208      	movs	r2, #8
/home/hsk/Desktop/devel/tee-tpm-hyp/optee_os/lib/libutee/tee_api_operations.c:43
     df8:	46b2      	mov	sl, r6
/home/hsk/Desktop/devel/tee-tpm-hyp/optee_os/lib/libutee/tee_api_operations.c:41
     dfa:	2301      	movs	r3, #1
     dfc:	46b0      	mov	r8, r6
     dfe:	e13c      	b.n	107a <TEE_AllocateOperation+0x3c8>
/home/hsk/Desktop/devel/tee-tpm-hyp/optee_os/lib/libutee/tee_api_operations.c:108
     e00:	4b75      	ldr	r3, [pc, #468]	; (fd8 <TEE_AllocateOperation+0x326>)
     e02:	429c      	cmp	r4, r3
     e04:	d0f4      	beq.n	df0 <TEE_AllocateOperation+0x13e>
     e06:	d3c8      	bcc.n	d9a <TEE_AllocateOperation+0xe8>
     e08:	f104 4350 	add.w	r3, r4, #3489660928	; 0xd0000000
     e0c:	f5a3 63a2 	sub.w	r3, r3, #1296	; 0x510
     e10:	2b01      	cmp	r3, #1
     e12:	e7ec      	b.n	dee <TEE_AllocateOperation+0x13c>
     e14:	4b71      	ldr	r3, [pc, #452]	; (fdc <TEE_AllocateOperation+0x32a>)
     e16:	429c      	cmp	r4, r3
     e18:	d01a      	beq.n	e50 <TEE_AllocateOperation+0x19e>
     e1a:	d822      	bhi.n	e62 <TEE_AllocateOperation+0x1b0>
     e1c:	4b70      	ldr	r3, [pc, #448]	; (fe0 <TEE_AllocateOperation+0x32e>)
     e1e:	429c      	cmp	r4, r3
     e20:	d80e      	bhi.n	e40 <TEE_AllocateOperation+0x18e>
     e22:	f1b4 4fa0 	cmp.w	r4, #1342177280	; 0x50000000
     e26:	f200 811f 	bhi.w	1068 <TEE_AllocateOperation+0x3b6>
     e2a:	4b6e      	ldr	r3, [pc, #440]	; (fe4 <TEE_AllocateOperation+0x332>)
     e2c:	429c      	cmp	r4, r3
     e2e:	d081      	beq.n	d34 <TEE_AllocateOperation+0x82>
     e30:	f503 7380 	add.w	r3, r3, #256	; 0x100
     e34:	429c      	cmp	r4, r3
     e36:	d0cb      	beq.n	dd0 <TEE_AllocateOperation+0x11e>
     e38:	4b6b      	ldr	r3, [pc, #428]	; (fe8 <TEE_AllocateOperation+0x336>)
     e3a:	429c      	cmp	r4, r3
     e3c:	d1ad      	bne.n	d9a <TEE_AllocateOperation+0xe8>
     e3e:	e7d7      	b.n	df0 <TEE_AllocateOperation+0x13e>
     e40:	4b6a      	ldr	r3, [pc, #424]	; (fec <TEE_AllocateOperation+0x33a>)
     e42:	429c      	cmp	r4, r3
     e44:	f000 8106 	beq.w	1054 <TEE_AllocateOperation+0x3a2>
     e48:	f503 7380 	add.w	r3, r3, #256	; 0x100
     e4c:	429c      	cmp	r4, r3
     e4e:	d1a4      	bne.n	d9a <TEE_AllocateOperation+0xe8>
/home/hsk/Desktop/devel/tee-tpm-hyp/optee_os/lib/libutee/tee_api_operations.c:173
     e50:	2f00      	cmp	r7, #0
     e52:	f000 815e 	beq.w	1112 <TEE_AllocateOperation+0x460>
/home/hsk/Desktop/devel/tee-tpm-hyp/optee_os/lib/libutee/tee_api_operations.c:175
     e56:	2f01      	cmp	r7, #1
     e58:	d19f      	bne.n	d9a <TEE_AllocateOperation+0xe8>
/home/hsk/Desktop/devel/tee-tpm-hyp/optee_os/lib/libutee/tee_api_operations.c:44
     e5a:	2600      	movs	r6, #0
/home/hsk/Desktop/devel/tee-tpm-hyp/optee_os/lib/libutee/tee_api_operations.c:176
     e5c:	46ba      	mov	sl, r7
/home/hsk/Desktop/devel/tee-tpm-hyp/optee_os/lib/libutee/tee_api_operations.c:177
     e5e:	2204      	movs	r2, #4
     e60:	e7cb      	b.n	dfa <TEE_AllocateOperation+0x148>
/home/hsk/Desktop/devel/tee-tpm-hyp/optee_os/lib/libutee/tee_api_operations.c:108
     e62:	4b63      	ldr	r3, [pc, #396]	; (ff0 <TEE_AllocateOperation+0x33e>)
     e64:	429c      	cmp	r4, r3
     e66:	d0f3      	beq.n	e50 <TEE_AllocateOperation+0x19e>
     e68:	d80a      	bhi.n	e80 <TEE_AllocateOperation+0x1ce>
     e6a:	f5a3 1300 	sub.w	r3, r3, #2097152	; 0x200000
     e6e:	429c      	cmp	r4, r3
     e70:	d0ee      	beq.n	e50 <TEE_AllocateOperation+0x19e>
     e72:	f503 1380 	add.w	r3, r3, #1048576	; 0x100000
     e76:	429c      	cmp	r4, r3
     e78:	d0ea      	beq.n	e50 <TEE_AllocateOperation+0x19e>
     e7a:	f5a3 1300 	sub.w	r3, r3, #2097152	; 0x200000
     e7e:	e7e5      	b.n	e4c <TEE_AllocateOperation+0x19a>
     e80:	4b5c      	ldr	r3, [pc, #368]	; (ff4 <TEE_AllocateOperation+0x342>)
     e82:	429c      	cmp	r4, r3
     e84:	d01e      	beq.n	ec4 <TEE_AllocateOperation+0x212>
     e86:	d802      	bhi.n	e8e <TEE_AllocateOperation+0x1dc>
     e88:	f2a3 73ef 	subw	r3, r3, #2031	; 0x7ef
     e8c:	e003      	b.n	e96 <TEE_AllocateOperation+0x1e4>
     e8e:	4b5a      	ldr	r3, [pc, #360]	; (ff8 <TEE_AllocateOperation+0x346>)
     e90:	429c      	cmp	r4, r3
     e92:	d017      	beq.n	ec4 <TEE_AllocateOperation+0x212>
     e94:	33f0      	adds	r3, #240	; 0xf0
     e96:	429c      	cmp	r4, r3
     e98:	e783      	b.n	da2 <TEE_AllocateOperation+0xf0>
     e9a:	4a4a      	ldr	r2, [pc, #296]	; (fc4 <TEE_AllocateOperation+0x312>)
     e9c:	4294      	cmp	r4, r2
     e9e:	d065      	beq.n	f6c <TEE_AllocateOperation+0x2ba>
     ea0:	d844      	bhi.n	f2c <TEE_AllocateOperation+0x27a>
     ea2:	4a56      	ldr	r2, [pc, #344]	; (ffc <TEE_AllocateOperation+0x34a>)
     ea4:	4294      	cmp	r4, r2
     ea6:	d00d      	beq.n	ec4 <TEE_AllocateOperation+0x212>
     ea8:	d81e      	bhi.n	ee8 <TEE_AllocateOperation+0x236>
     eaa:	f5a2 52bf 	sub.w	r2, r2, #6112	; 0x17e0
     eae:	3a0f      	subs	r2, #15
     eb0:	4294      	cmp	r4, r2
     eb2:	d007      	beq.n	ec4 <TEE_AllocateOperation+0x212>
     eb4:	d810      	bhi.n	ed8 <TEE_AllocateOperation+0x226>
     eb6:	4b40      	ldr	r3, [pc, #256]	; (fb8 <TEE_AllocateOperation+0x306>)
     eb8:	429c      	cmp	r4, r3
     eba:	d003      	beq.n	ec4 <TEE_AllocateOperation+0x212>
     ebc:	f203 63ff 	addw	r3, r3, #1791	; 0x6ff
     ec0:	429c      	cmp	r4, r3
     ec2:	d1e1      	bne.n	e88 <TEE_AllocateOperation+0x1d6>
/home/hsk/Desktop/devel/tee-tpm-hyp/optee_os/lib/libutee/tee_api_operations.c:157
     ec4:	2f02      	cmp	r7, #2
     ec6:	f000 811f 	beq.w	1108 <TEE_AllocateOperation+0x456>
/home/hsk/Desktop/devel/tee-tpm-hyp/optee_os/lib/libutee/tee_api_operations.c:160
     eca:	2f03      	cmp	r7, #3
     ecc:	f47f af65 	bne.w	d9a <TEE_AllocateOperation+0xe8>
/home/hsk/Desktop/devel/tee-tpm-hyp/optee_os/lib/libutee/tee_api_operations.c:44
     ed0:	2600      	movs	r6, #0
/home/hsk/Desktop/devel/tee-tpm-hyp/optee_os/lib/libutee/tee_api_operations.c:161
     ed2:	2220      	movs	r2, #32
/home/hsk/Desktop/devel/tee-tpm-hyp/optee_os/lib/libutee/tee_api_operations.c:43
     ed4:	46b2      	mov	sl, r6
     ed6:	e790      	b.n	dfa <TEE_AllocateOperation+0x148>
/home/hsk/Desktop/devel/tee-tpm-hyp/optee_os/lib/libutee/tee_api_operations.c:108
     ed8:	4a49      	ldr	r2, [pc, #292]	; (1000 <TEE_AllocateOperation+0x34e>)
     eda:	4294      	cmp	r4, r2
     edc:	d0f2      	beq.n	ec4 <TEE_AllocateOperation+0x212>
     ede:	f602 0211 	addw	r2, r2, #2065	; 0x811
     ee2:	4294      	cmp	r4, r2
     ee4:	d1d7      	bne.n	e96 <TEE_AllocateOperation+0x1e4>
     ee6:	e7ed      	b.n	ec4 <TEE_AllocateOperation+0x212>
     ee8:	4b46      	ldr	r3, [pc, #280]	; (1004 <TEE_AllocateOperation+0x352>)
     eea:	429c      	cmp	r4, r3
     eec:	d0ea      	beq.n	ec4 <TEE_AllocateOperation+0x212>
     eee:	d810      	bhi.n	f12 <TEE_AllocateOperation+0x260>
     ef0:	f5a3 1300 	sub.w	r3, r3, #2097152	; 0x200000
     ef4:	f5a3 5300 	sub.w	r3, r3, #8192	; 0x2000
     ef8:	429c      	cmp	r4, r3
     efa:	d0e3      	beq.n	ec4 <TEE_AllocateOperation+0x212>
     efc:	f503 1380 	add.w	r3, r3, #1048576	; 0x100000
     f00:	f503 5380 	add.w	r3, r3, #4096	; 0x1000
     f04:	429c      	cmp	r4, r3
     f06:	d0dd      	beq.n	ec4 <TEE_AllocateOperation+0x212>
     f08:	f5a3 1343 	sub.w	r3, r3, #3194880	; 0x30c000
     f0c:	f5a3 5388 	sub.w	r3, r3, #4352	; 0x1100
     f10:	e7c1      	b.n	e96 <TEE_AllocateOperation+0x1e4>
     f12:	4b3d      	ldr	r3, [pc, #244]	; (1008 <TEE_AllocateOperation+0x356>)
     f14:	429c      	cmp	r4, r3
     f16:	d0d5      	beq.n	ec4 <TEE_AllocateOperation+0x212>
     f18:	4b3c      	ldr	r3, [pc, #240]	; (100c <TEE_AllocateOperation+0x35a>)
     f1a:	429c      	cmp	r4, r3
     f1c:	d026      	beq.n	f6c <TEE_AllocateOperation+0x2ba>
     f1e:	f1a3 637a 	sub.w	r3, r3, #262144000	; 0xfa00000
     f22:	f5a3 236a 	sub.w	r3, r3, #958464	; 0xea000
     f26:	f2a3 7302 	subw	r3, r3, #1794	; 0x702
     f2a:	e7b4      	b.n	e96 <TEE_AllocateOperation+0x1e4>
     f2c:	4b26      	ldr	r3, [pc, #152]	; (fc8 <TEE_AllocateOperation+0x316>)
     f2e:	429c      	cmp	r4, r3
     f30:	d01c      	beq.n	f6c <TEE_AllocateOperation+0x2ba>
     f32:	d824      	bhi.n	f7e <TEE_AllocateOperation+0x2cc>
     f34:	f5a3 53fc 	sub.w	r3, r3, #8064	; 0x1f80
     f38:	429c      	cmp	r4, r3
     f3a:	d80b      	bhi.n	f54 <TEE_AllocateOperation+0x2a2>
     f3c:	3b02      	subs	r3, #2
     f3e:	429c      	cmp	r4, r3
     f40:	d214      	bcs.n	f6c <TEE_AllocateOperation+0x2ba>
     f42:	f5a3 5380 	sub.w	r3, r3, #4096	; 0x1000
     f46:	429c      	cmp	r4, r3
     f48:	d010      	beq.n	f6c <TEE_AllocateOperation+0x2ba>
     f4a:	f603 7382 	addw	r3, r3, #3970	; 0xf82
     f4e:	429c      	cmp	r4, r3
     f50:	d00c      	beq.n	f6c <TEE_AllocateOperation+0x2ba>
     f52:	e722      	b.n	d9a <TEE_AllocateOperation+0xe8>
     f54:	4b2e      	ldr	r3, [pc, #184]	; (1010 <TEE_AllocateOperation+0x35e>)
     f56:	429c      	cmp	r4, r3
     f58:	d008      	beq.n	f6c <TEE_AllocateOperation+0x2ba>
     f5a:	f4ff af1e 	bcc.w	d9a <TEE_AllocateOperation+0xe8>
     f5e:	f104 4300 	add.w	r3, r4, #2147483648	; 0x80000000
     f62:	f5a3 5343 	sub.w	r3, r3, #12480	; 0x30c0
     f66:	2b01      	cmp	r3, #1
     f68:	f63f af17 	bhi.w	d9a <TEE_AllocateOperation+0xe8>
/home/hsk/Desktop/devel/tee-tpm-hyp/optee_os/lib/libutee/tee_api_operations.c:212
     f6c:	2f06      	cmp	r7, #6
     f6e:	f47f af14 	bne.w	d9a <TEE_AllocateOperation+0xe8>
/home/hsk/Desktop/devel/tee-tpm-hyp/optee_os/lib/libutee/tee_api_operations.c:44
     f72:	2600      	movs	r6, #0
/home/hsk/Desktop/devel/tee-tpm-hyp/optee_os/lib/libutee/tee_api_operations.c:214
     f74:	f04f 0a01 	mov.w	sl, #1
/home/hsk/Desktop/devel/tee-tpm-hyp/optee_os/lib/libutee/tee_api_operations.c:215
     f78:	2240      	movs	r2, #64	; 0x40
/home/hsk/Desktop/devel/tee-tpm-hyp/optee_os/lib/libutee/tee_api_operations.c:41
     f7a:	4653      	mov	r3, sl
     f7c:	e73e      	b.n	dfc <TEE_AllocateOperation+0x14a>
/home/hsk/Desktop/devel/tee-tpm-hyp/optee_os/lib/libutee/tee_api_operations.c:108
     f7e:	4b25      	ldr	r3, [pc, #148]	; (1014 <TEE_AllocateOperation+0x362>)
     f80:	429c      	cmp	r4, r3
     f82:	d849      	bhi.n	1018 <TEE_AllocateOperation+0x366>
     f84:	3b01      	subs	r3, #1
     f86:	429c      	cmp	r4, r3
     f88:	d2f0      	bcs.n	f6c <TEE_AllocateOperation+0x2ba>
     f8a:	f5a3 5380 	sub.w	r3, r3, #4096	; 0x1000
     f8e:	429c      	cmp	r4, r3
     f90:	f4ff af03 	bcc.w	d9a <TEE_AllocateOperation+0xe8>
     f94:	3301      	adds	r3, #1
     f96:	429c      	cmp	r4, r3
     f98:	d9e8      	bls.n	f6c <TEE_AllocateOperation+0x2ba>
     f9a:	f603 7381 	addw	r3, r3, #3969	; 0xf81
     f9e:	e7d6      	b.n	f4e <TEE_AllocateOperation+0x29c>
     fa0:	10000410 	.word	0x10000410
     fa4:	70004131 	.word	0x70004131
     fa8:	70002131 	.word	0x70002131
     fac:	70002830 	.word	0x70002830
     fb0:	30000513 	.word	0x30000513
     fb4:	10000310 	.word	0x10000310
     fb8:	70003131 	.word	0x70003131
     fbc:	80002042 	.word	0x80002042
     fc0:	70005041 	.word	0x70005041
     fc4:	80001042 	.word	0x80001042
     fc8:	80004042 	.word	0x80004042
     fcc:	ffff000a 	.word	0xffff000a
     fd0:	10000113 	.word	0x10000113
     fd4:	30000111 	.word	0x30000111
     fd8:	30000113 	.word	0x30000113
     fdc:	60210230 	.word	0x60210230
     fe0:	50000006 	.word	0x50000006
     fe4:	40000710 	.word	0x40000710
     fe8:	30000610 	.word	0x30000610
     fec:	60000030 	.word	0x60000030
     ff0:	60610230 	.word	0x60610230
     ff4:	70001830 	.word	0x70001830
     ff8:	70002041 	.word	0x70002041
     ffc:	70005830 	.word	0x70005830
    1000:	70004830 	.word	0x70004830
    1004:	70414930 	.word	0x70414930
    1008:	70616930 	.word	0x70616930
    100c:	80000032 	.word	0x80000032
    1010:	80003042 	.word	0x80003042
    1014:	800050c1 	.word	0x800050c1
    1018:	4b6f      	ldr	r3, [pc, #444]	; (11d8 <TEE_AllocateOperation+0x526>)
    101a:	429c      	cmp	r4, r3
    101c:	f4ff aebd 	bcc.w	d9a <TEE_AllocateOperation+0xe8>
    1020:	3301      	adds	r3, #1
    1022:	429c      	cmp	r4, r3
    1024:	d9a2      	bls.n	f6c <TEE_AllocateOperation+0x2ba>
    1026:	4b6d      	ldr	r3, [pc, #436]	; (11dc <TEE_AllocateOperation+0x52a>)
    1028:	e735      	b.n	e96 <TEE_AllocateOperation+0x1e4>
    102a:	f04f 0800 	mov.w	r8, #0
/home/hsk/Desktop/devel/tee-tpm-hyp/optee_os/lib/libutee/tee_api_operations.c:111
    102e:	2601      	movs	r6, #1
/home/hsk/Desktop/devel/tee-tpm-hyp/optee_os/lib/libutee/tee_api_operations.c:120
    1030:	b2e3      	uxtb	r3, r4
/home/hsk/Desktop/devel/tee-tpm-hyp/optee_os/lib/libutee/tee_api_operations.c:123
    1032:	2b10      	cmp	r3, #16
    1034:	f04f 0310 	mov.w	r3, #16
    1038:	bf18      	it	ne
    103a:	2308      	movne	r3, #8
/home/hsk/Desktop/devel/tee-tpm-hyp/optee_os/lib/libutee/tee_api_operations.c:127
    103c:	2f00      	cmp	r7, #0
    103e:	d060      	beq.n	1102 <TEE_AllocateOperation+0x450>
/home/hsk/Desktop/devel/tee-tpm-hyp/optee_os/lib/libutee/tee_api_operations.c:129
    1040:	2f01      	cmp	r7, #1
    1042:	f47f aeaa 	bne.w	d9a <TEE_AllocateOperation+0xe8>
/home/hsk/Desktop/devel/tee-tpm-hyp/optee_os/lib/libutee/tee_api_operations.c:43
    1046:	f04f 0a00 	mov.w	sl, #0
/home/hsk/Desktop/devel/tee-tpm-hyp/optee_os/lib/libutee/tee_api_operations.c:130
    104a:	2204      	movs	r2, #4
    104c:	e015      	b.n	107a <TEE_AllocateOperation+0x3c8>
/home/hsk/Desktop/devel/tee-tpm-hyp/optee_os/lib/libutee/tee_api_operations.c:50
    104e:	f44f 2800 	mov.w	r8, #524288	; 0x80000
    1052:	e7ec      	b.n	102e <TEE_AllocateOperation+0x37c>
/home/hsk/Desktop/devel/tee-tpm-hyp/optee_os/lib/libutee/tee_api_operations.c:184
    1054:	2f00      	cmp	r7, #0
    1056:	d062      	beq.n	111e <TEE_AllocateOperation+0x46c>
/home/hsk/Desktop/devel/tee-tpm-hyp/optee_os/lib/libutee/tee_api_operations.c:186
    1058:	2f01      	cmp	r7, #1
    105a:	f47f ae9e 	bne.w	d9a <TEE_AllocateOperation+0xe8>
/home/hsk/Desktop/devel/tee-tpm-hyp/optee_os/lib/libutee/tee_api_operations.c:44
    105e:	2600      	movs	r6, #0
/home/hsk/Desktop/devel/tee-tpm-hyp/optee_os/lib/libutee/tee_api_operations.c:187
    1060:	f04f 0a01 	mov.w	sl, #1
/home/hsk/Desktop/devel/tee-tpm-hyp/optee_os/lib/libutee/tee_api_operations.c:188
    1064:	2214      	movs	r2, #20
    1066:	e788      	b.n	f7a <TEE_AllocateOperation+0x2c8>
/home/hsk/Desktop/devel/tee-tpm-hyp/optee_os/lib/libutee/tee_api_operations.c:224
    1068:	2f05      	cmp	r7, #5
    106a:	f47f ae96 	bne.w	d9a <TEE_AllocateOperation+0xe8>
/home/hsk/Desktop/devel/tee-tpm-hyp/optee_os/lib/libutee/tee_api_operations.c:44
    106e:	2600      	movs	r6, #0
/home/hsk/Desktop/devel/tee-tpm-hyp/optee_os/lib/libutee/tee_api_operations.c:41
    1070:	2301      	movs	r3, #1
/home/hsk/Desktop/devel/tee-tpm-hyp/optee_os/lib/libutee/tee_api_operations.c:43
    1072:	46b2      	mov	sl, r6
/home/hsk/Desktop/devel/tee-tpm-hyp/optee_os/lib/libutee/tee_api_operations.c:228
    1074:	4632      	mov	r2, r6
/home/hsk/Desktop/devel/tee-tpm-hyp/optee_os/lib/libutee/tee_api_operations.c:227
    1076:	f44f 2880 	mov.w	r8, #262144	; 0x40000
/home/hsk/Desktop/devel/tee-tpm-hyp/optee_os/lib/libutee/tee_api_operations.c:253
    107a:	2100      	movs	r1, #0
    107c:	2044      	movs	r0, #68	; 0x44
    107e:	9205      	str	r2, [sp, #20]
    1080:	9304      	str	r3, [sp, #16]
    1082:	f001 fcd4 	bl	2a2e <TEE_Malloc>
/home/hsk/Desktop/devel/tee-tpm-hyp/optee_os/lib/libutee/tee_api_operations.c:254
    1086:	4605      	mov	r5, r0
    1088:	2800      	cmp	r0, #0
    108a:	f000 80a0 	beq.w	11ce <TEE_AllocateOperation+0x51c>
/home/hsk/Desktop/devel/tee-tpm-hyp/optee_os/lib/libutee/tee_api_operations.c:260
    108e:	4953      	ldr	r1, [pc, #332]	; (11dc <TEE_AllocateOperation+0x52a>)
/home/hsk/Desktop/devel/tee-tpm-hyp/optee_os/lib/libutee/tee_api_operations.c:258
    1090:	ea4f 7b14 	mov.w	fp, r4, lsr #28
/home/hsk/Desktop/devel/tee-tpm-hyp/optee_os/lib/libutee/tee_api_operations.c:257
    1094:	6004      	str	r4, [r0, #0]
/home/hsk/Desktop/devel/tee-tpm-hyp/optee_os/lib/libutee/tee_api_operations.c:260
    1096:	428c      	cmp	r4, r1
    1098:	9b04      	ldr	r3, [sp, #16]
    109a:	9a05      	ldr	r2, [sp, #20]
    109c:	d044      	beq.n	1128 <TEE_AllocateOperation+0x476>
/home/hsk/Desktop/devel/tee-tpm-hyp/optee_os/lib/libutee/tee_api_operations.c:258
    109e:	f8c0 b004 	str.w	fp, [r0, #4]
/home/hsk/Desktop/devel/tee-tpm-hyp/optee_os/lib/libutee/tee_api_operations.c:263
    10a2:	60af      	str	r7, [r5, #8]
/home/hsk/Desktop/devel/tee-tpm-hyp/optee_os/lib/libutee/tee_api_operations.c:268
    10a4:	2b01      	cmp	r3, #1
/home/hsk/Desktop/devel/tee-tpm-hyp/optee_os/lib/libutee/tee_api_operations.c:264
    10a6:	f8c5 9010 	str.w	r9, [r5, #16]
/home/hsk/Desktop/devel/tee-tpm-hyp/optee_os/lib/libutee/tee_api_operations.c:265
    10aa:	61aa      	str	r2, [r5, #24]
/home/hsk/Desktop/devel/tee-tpm-hyp/optee_os/lib/libutee/tee_api_operations.c:266
    10ac:	f8c5 801c 	str.w	r8, [r5, #28]
/home/hsk/Desktop/devel/tee-tpm-hyp/optee_os/lib/libutee/tee_api_operations.c:268
    10b0:	d13d      	bne.n	112e <TEE_AllocateOperation+0x47c>
/home/hsk/Desktop/devel/tee-tpm-hyp/optee_os/lib/libutee/tee_api_operations.c:281
    10b2:	636b      	str	r3, [r5, #52]	; 0x34
/home/hsk/Desktop/devel/tee-tpm-hyp/optee_os/lib/libutee/tee_api_operations.c:284
    10b4:	f1bb 0f05 	cmp.w	fp, #5
/home/hsk/Desktop/devel/tee-tpm-hyp/optee_os/lib/libutee/tee_api_operations.c:282
    10b8:	f885 6030 	strb.w	r6, [r5, #48]	; 0x30
/home/hsk/Desktop/devel/tee-tpm-hyp/optee_os/lib/libutee/tee_api_operations.c:284
    10bc:	d14b      	bne.n	1156 <TEE_AllocateOperation+0x4a4>
/home/hsk/Desktop/devel/tee-tpm-hyp/optee_os/lib/libutee/tee_api_operations.c:308
    10be:	f105 033c 	add.w	r3, r5, #60	; 0x3c
    10c2:	9300      	str	r3, [sp, #0]
    10c4:	4639      	mov	r1, r7
    10c6:	4620      	mov	r0, r4
    10c8:	6a6b      	ldr	r3, [r5, #36]	; 0x24
    10ca:	6a2a      	ldr	r2, [r5, #32]
    10cc:	f001 e9ba 	blx	2444 <utee_cryp_state_alloc>
/home/hsk/Desktop/devel/tee-tpm-hyp/optee_os/lib/libutee/tee_api_operations.c:310
    10d0:	4606      	mov	r6, r0
    10d2:	2800      	cmp	r0, #0
    10d4:	d164      	bne.n	11a0 <TEE_AllocateOperation+0x4ee>
/home/hsk/Desktop/devel/tee-tpm-hyp/optee_os/lib/libutee/tee_api_operations.c:318
    10d6:	f1bb 0f05 	cmp.w	fp, #5
    10da:	d10a      	bne.n	10f2 <TEE_AllocateOperation+0x440>
/home/hsk/Desktop/devel/tee-tpm-hyp/optee_os/lib/libutee/tee_api_operations.c:319
    10dc:	4602      	mov	r2, r0
    10de:	4601      	mov	r1, r0
    10e0:	6be8      	ldr	r0, [r5, #60]	; 0x3c
    10e2:	f001 e9d0 	blx	2484 <utee_hash_init>
/home/hsk/Desktop/devel/tee-tpm-hyp/optee_os/lib/libutee/tee_api_operations.c:320
    10e6:	2800      	cmp	r0, #0
    10e8:	d173      	bne.n	11d2 <TEE_AllocateOperation+0x520>
/home/hsk/Desktop/devel/tee-tpm-hyp/optee_os/lib/libutee/tee_api_operations.c:323
    10ea:	69eb      	ldr	r3, [r5, #28]
    10ec:	f443 3300 	orr.w	r3, r3, #131072	; 0x20000
    10f0:	61eb      	str	r3, [r5, #28]
/home/hsk/Desktop/devel/tee-tpm-hyp/optee_os/lib/libutee/tee_api_operations.c:326
    10f2:	2300      	movs	r3, #0
    10f4:	62ab      	str	r3, [r5, #40]	; 0x28
/home/hsk/Desktop/devel/tee-tpm-hyp/optee_os/lib/libutee/tee_api_operations.c:328
    10f6:	9b03      	ldr	r3, [sp, #12]
    10f8:	601d      	str	r5, [r3, #0]
/home/hsk/Desktop/devel/tee-tpm-hyp/optee_os/lib/libutee/tee_api_operations.c:348
    10fa:	4630      	mov	r0, r6
    10fc:	b007      	add	sp, #28
    10fe:	e8bd 8ff0 	ldmia.w	sp!, {r4, r5, r6, r7, r8, r9, sl, fp, pc}
/home/hsk/Desktop/devel/tee-tpm-hyp/optee_os/lib/libutee/tee_api_operations.c:43
    1102:	46ba      	mov	sl, r7
/home/hsk/Desktop/devel/tee-tpm-hyp/optee_os/lib/libutee/tee_api_operations.c:128
    1104:	2202      	movs	r2, #2
    1106:	e7b8      	b.n	107a <TEE_AllocateOperation+0x3c8>
/home/hsk/Desktop/devel/tee-tpm-hyp/optee_os/lib/libutee/tee_api_operations.c:44
    1108:	2600      	movs	r6, #0
/home/hsk/Desktop/devel/tee-tpm-hyp/optee_os/lib/libutee/tee_api_operations.c:158
    110a:	f04f 0a01 	mov.w	sl, #1
/home/hsk/Desktop/devel/tee-tpm-hyp/optee_os/lib/libutee/tee_api_operations.c:159
    110e:	2210      	movs	r2, #16
    1110:	e733      	b.n	f7a <TEE_AllocateOperation+0x2c8>
    1112:	46b8      	mov	r8, r7
/home/hsk/Desktop/devel/tee-tpm-hyp/optee_os/lib/libutee/tee_api_operations.c:44
    1114:	463e      	mov	r6, r7
/home/hsk/Desktop/devel/tee-tpm-hyp/optee_os/lib/libutee/tee_api_operations.c:43
    1116:	46ba      	mov	sl, r7
/home/hsk/Desktop/devel/tee-tpm-hyp/optee_os/lib/libutee/tee_api_operations.c:174
    1118:	2202      	movs	r2, #2
/home/hsk/Desktop/devel/tee-tpm-hyp/optee_os/lib/libutee/tee_api_operations.c:41
    111a:	2301      	movs	r3, #1
    111c:	e7ad      	b.n	107a <TEE_AllocateOperation+0x3c8>
    111e:	46b8      	mov	r8, r7
/home/hsk/Desktop/devel/tee-tpm-hyp/optee_os/lib/libutee/tee_api_operations.c:44
    1120:	463e      	mov	r6, r7
/home/hsk/Desktop/devel/tee-tpm-hyp/optee_os/lib/libutee/tee_api_operations.c:43
    1122:	46ba      	mov	sl, r7
/home/hsk/Desktop/devel/tee-tpm-hyp/optee_os/lib/libutee/tee_api_operations.c:185
    1124:	2222      	movs	r2, #34	; 0x22
    1126:	e7f8      	b.n	111a <TEE_AllocateOperation+0x468>
/home/hsk/Desktop/devel/tee-tpm-hyp/optee_os/lib/libutee/tee_api_operations.c:261
    1128:	2107      	movs	r1, #7
    112a:	6041      	str	r1, [r0, #4]
    112c:	e7b9      	b.n	10a2 <TEE_AllocateOperation+0x3f0>
/home/hsk/Desktop/devel/tee-tpm-hyp/optee_os/lib/libutee/tee_api_operations.c:271
    112e:	b186      	cbz	r6, 1152 <TEE_AllocateOperation+0x4a0>
/home/hsk/Desktop/devel/tee-tpm-hyp/optee_os/lib/libutee/tee_api_operations.c:272
    1130:	0058      	lsls	r0, r3, #1
/home/hsk/Desktop/devel/tee-tpm-hyp/optee_os/lib/libutee/tee_api_operations.c:274
    1132:	f04f 4100 	mov.w	r1, #2147483648	; 0x80000000
    1136:	9304      	str	r3, [sp, #16]
    1138:	f001 fc79 	bl	2a2e <TEE_Malloc>
/home/hsk/Desktop/devel/tee-tpm-hyp/optee_os/lib/libutee/tee_api_operations.c:276
    113c:	9b04      	ldr	r3, [sp, #16]
/home/hsk/Desktop/devel/tee-tpm-hyp/optee_os/lib/libutee/tee_api_operations.c:274
    113e:	62e8      	str	r0, [r5, #44]	; 0x2c
/home/hsk/Desktop/devel/tee-tpm-hyp/optee_os/lib/libutee/tee_api_operations.c:276
    1140:	2800      	cmp	r0, #0
    1142:	d1b6      	bne.n	10b2 <TEE_AllocateOperation+0x400>
/home/hsk/Desktop/devel/tee-tpm-hyp/optee_os/lib/libutee/tee_api_operations.c:277
    1144:	4e26      	ldr	r6, [pc, #152]	; (11e0 <TEE_AllocateOperation+0x52e>)
/home/hsk/Desktop/devel/tee-tpm-hyp/optee_os/lib/libutee/tee_api_operations.c:336
    1146:	6beb      	ldr	r3, [r5, #60]	; 0x3c
    1148:	b3a3      	cbz	r3, 11b4 <TEE_AllocateOperation+0x502>
/home/hsk/Desktop/devel/tee-tpm-hyp/optee_os/lib/libutee/tee_api_operations.c:337
    114a:	4628      	mov	r0, r5
    114c:	f7ff fd9e 	bl	c8c <TEE_FreeOperation>
    1150:	e7d3      	b.n	10fa <TEE_AllocateOperation+0x448>
    1152:	4618      	mov	r0, r3
    1154:	e7ed      	b.n	1132 <TEE_AllocateOperation+0x480>
/home/hsk/Desktop/devel/tee-tpm-hyp/optee_os/lib/libutee/tee_api_operations.c:286
    1156:	f1ba 0f00 	cmp.w	sl, #0
    115a:	f04f 4220 	mov.w	r2, #2684354560	; 0xa0000000
    115e:	f04f 4321 	mov.w	r3, #2701131776	; 0xa1000000
    1162:	fa5f f884 	uxtb.w	r8, r4
    1166:	bf08      	it	eq
    1168:	4613      	moveq	r3, r2
    116a:	ea48 0803 	orr.w	r8, r8, r3
/home/hsk/Desktop/devel/tee-tpm-hyp/optee_os/lib/libutee/tee_api_operations.c:293
    116e:	69eb      	ldr	r3, [r5, #28]
    1170:	031a      	lsls	r2, r3, #12
    1172:	d501      	bpl.n	1178 <TEE_AllocateOperation+0x4c6>
/home/hsk/Desktop/devel/tee-tpm-hyp/optee_os/lib/libutee/tee_api_operations.c:294
    1174:	ea4f 0959 	mov.w	r9, r9, lsr #1
/home/hsk/Desktop/devel/tee-tpm-hyp/optee_os/lib/libutee/tee_api_operations.c:296
    1178:	f105 0220 	add.w	r2, r5, #32
    117c:	4649      	mov	r1, r9
    117e:	4640      	mov	r0, r8
    1180:	f001 fd74 	bl	2c6c <TEE_AllocateTransientObject>
/home/hsk/Desktop/devel/tee-tpm-hyp/optee_os/lib/libutee/tee_api_operations.c:297
    1184:	4606      	mov	r6, r0
    1186:	b958      	cbnz	r0, 11a0 <TEE_AllocateOperation+0x4ee>
/home/hsk/Desktop/devel/tee-tpm-hyp/optee_os/lib/libutee/tee_api_operations.c:300
    1188:	69eb      	ldr	r3, [r5, #28]
    118a:	031b      	lsls	r3, r3, #12
    118c:	d597      	bpl.n	10be <TEE_AllocateOperation+0x40c>
/home/hsk/Desktop/devel/tee-tpm-hyp/optee_os/lib/libutee/tee_api_operations.c:301
    118e:	f105 0224 	add.w	r2, r5, #36	; 0x24
    1192:	4649      	mov	r1, r9
    1194:	4640      	mov	r0, r8
    1196:	f001 fd69 	bl	2c6c <TEE_AllocateTransientObject>
/home/hsk/Desktop/devel/tee-tpm-hyp/optee_os/lib/libutee/tee_api_operations.c:303
    119a:	4606      	mov	r6, r0
    119c:	2800      	cmp	r0, #0
    119e:	d08e      	beq.n	10be <TEE_AllocateOperation+0x40c>
/home/hsk/Desktop/devel/tee-tpm-hyp/optee_os/lib/libutee/tee_api_operations.c:332
    11a0:	4b0f      	ldr	r3, [pc, #60]	; (11e0 <TEE_AllocateOperation+0x52e>)
    11a2:	429e      	cmp	r6, r3
    11a4:	d0ce      	beq.n	1144 <TEE_AllocateOperation+0x492>
/home/hsk/Desktop/devel/tee-tpm-hyp/optee_os/lib/libutee/tee_api_operations.c:332 (discriminator 1)
    11a6:	4b0f      	ldr	r3, [pc, #60]	; (11e4 <TEE_AllocateOperation+0x532>)
    11a8:	429e      	cmp	r6, r3
    11aa:	d0cc      	beq.n	1146 <TEE_AllocateOperation+0x494>
/home/hsk/Desktop/devel/tee-tpm-hyp/optee_os/lib/libutee/tee_api_operations.c:334
    11ac:	4630      	mov	r0, r6
    11ae:	f006 fbb3 	bl	7918 <TEE_Panic>
    11b2:	e7c8      	b.n	1146 <TEE_AllocateOperation+0x494>
/home/hsk/Desktop/devel/tee-tpm-hyp/optee_os/lib/libutee/tee_api_operations.c:339
    11b4:	6ae8      	ldr	r0, [r5, #44]	; 0x2c
    11b6:	f001 fc61 	bl	2a7c <TEE_Free>
/home/hsk/Desktop/devel/tee-tpm-hyp/optee_os/lib/libutee/tee_api_operations.c:340
    11ba:	6a28      	ldr	r0, [r5, #32]
    11bc:	f001 fd6e 	bl	2c9c <TEE_FreeTransientObject>
/home/hsk/Desktop/devel/tee-tpm-hyp/optee_os/lib/libutee/tee_api_operations.c:341
    11c0:	6a68      	ldr	r0, [r5, #36]	; 0x24
    11c2:	f001 fd6b 	bl	2c9c <TEE_FreeTransientObject>
/home/hsk/Desktop/devel/tee-tpm-hyp/optee_os/lib/libutee/tee_api_operations.c:342
    11c6:	4628      	mov	r0, r5
    11c8:	f001 fc58 	bl	2a7c <TEE_Free>
    11cc:	e795      	b.n	10fa <TEE_AllocateOperation+0x448>
/home/hsk/Desktop/devel/tee-tpm-hyp/optee_os/lib/libutee/tee_api_operations.c:255
    11ce:	4e04      	ldr	r6, [pc, #16]	; (11e0 <TEE_AllocateOperation+0x52e>)
    11d0:	e793      	b.n	10fa <TEE_AllocateOperation+0x448>
/home/hsk/Desktop/devel/tee-tpm-hyp/optee_os/lib/libutee/tee_api_operations.c:330
    11d2:	4606      	mov	r6, r0
    11d4:	e7e4      	b.n	11a0 <TEE_AllocateOperation+0x4ee>
    11d6:	bf00      	nop
    11d8:	800060c0 	.word	0x800060c0
    11dc:	f0000830 	.word	0xf0000830
    11e0:	ffff000c 	.word	0xffff000c
    11e4:	ffff000a 	.word	0xffff000a

000011e8 <TEE_GetOperationInfo>:
TEE_GetOperationInfo():
/home/hsk/Desktop/devel/tee-tpm-hyp/optee_os/lib/libutee/tee_api_operations.c:372
    11e8:	b538      	push	{r3, r4, r5, lr}
    11ea:	460c      	mov	r4, r1
/home/hsk/Desktop/devel/tee-tpm-hyp/optee_os/lib/libutee/tee_api_operations.c:373
    11ec:	4605      	mov	r5, r0
    11ee:	b908      	cbnz	r0, 11f4 <TEE_GetOperationInfo+0xc>
/home/hsk/Desktop/devel/tee-tpm-hyp/optee_os/lib/libutee/tee_api_operations.c:374
    11f0:	f006 fb92 	bl	7918 <TEE_Panic>
/home/hsk/Desktop/devel/tee-tpm-hyp/optee_os/lib/libutee/tee_api_operations.c:376
    11f4:	b914      	cbnz	r4, 11fc <TEE_GetOperationInfo+0x14>
/home/hsk/Desktop/devel/tee-tpm-hyp/optee_os/lib/libutee/tee_api_operations.c:377
    11f6:	4620      	mov	r0, r4
    11f8:	f006 fb8e 	bl	7918 <TEE_Panic>
/home/hsk/Desktop/devel/tee-tpm-hyp/optee_os/lib/libutee/tee_api_operations.c:379
    11fc:	cd0f      	ldmia	r5!, {r0, r1, r2, r3}
    11fe:	c40f      	stmia	r4!, {r0, r1, r2, r3}
    1200:	e895 000f 	ldmia.w	r5, {r0, r1, r2, r3}
    1204:	e884 000f 	stmia.w	r4, {r0, r1, r2, r3}
/home/hsk/Desktop/devel/tee-tpm-hyp/optee_os/lib/libutee/tee_api_operations.c:380
    1208:	bd38      	pop	{r3, r4, r5, pc}

0000120a <TEE_GetOperationInfoMultiple>:
TEE_GetOperationInfoMultiple():
/home/hsk/Desktop/devel/tee-tpm-hyp/optee_os/lib/libutee/tee_api_operations.c:385
    120a:	b5f0      	push	{r4, r5, r6, r7, lr}
    120c:	460c      	mov	r4, r1
/home/hsk/Desktop/devel/tee-tpm-hyp/optee_os/lib/libutee/tee_api_operations.c:392
    120e:	4605      	mov	r5, r0
/home/hsk/Desktop/devel/tee-tpm-hyp/optee_os/lib/libutee/tee_api_operations.c:385
    1210:	b08f      	sub	sp, #60	; 0x3c
/home/hsk/Desktop/devel/tee-tpm-hyp/optee_os/lib/libutee/tee_api_operations.c:392
    1212:	2800      	cmp	r0, #0
    1214:	d04a      	beq.n	12ac <TEE_GetOperationInfoMultiple+0xa2>
/home/hsk/Desktop/devel/tee-tpm-hyp/optee_os/lib/libutee/tee_api_operations.c:397
    1216:	2900      	cmp	r1, #0
    1218:	d048      	beq.n	12ac <TEE_GetOperationInfoMultiple+0xa2>
/home/hsk/Desktop/devel/tee-tpm-hyp/optee_os/lib/libutee/tee_api_operations.c:402
    121a:	2a00      	cmp	r2, #0
    121c:	d046      	beq.n	12ac <TEE_GetOperationInfoMultiple+0xa2>
/home/hsk/Desktop/devel/tee-tpm-hyp/optee_os/lib/libutee/tee_api_operations.c:407
    121e:	6817      	ldr	r7, [r2, #0]
    1220:	3f20      	subs	r7, #32
    1222:	08ff      	lsrs	r7, r7, #3
/home/hsk/Desktop/devel/tee-tpm-hyp/optee_os/lib/libutee/tee_api_operations.c:410
    1224:	2f02      	cmp	r7, #2
    1226:	d841      	bhi.n	12ac <TEE_GetOperationInfoMultiple+0xa2>
/home/hsk/Desktop/devel/tee-tpm-hyp/optee_os/lib/libutee/tee_api_operations.c:416
    1228:	69c3      	ldr	r3, [r0, #28]
    122a:	031b      	lsls	r3, r3, #12
    122c:	d505      	bpl.n	123a <TEE_GetOperationInfoMultiple+0x30>
/home/hsk/Desktop/devel/tee-tpm-hyp/optee_os/lib/libutee/tee_api_operations.c:417
    122e:	2f02      	cmp	r7, #2
    1230:	d004      	beq.n	123c <TEE_GetOperationInfoMultiple+0x32>
/home/hsk/Desktop/devel/tee-tpm-hyp/optee_os/lib/libutee/tee_api_operations.c:419
    1232:	4e21      	ldr	r6, [pc, #132]	; (12b8 <TEE_GetOperationInfoMultiple+0xae>)
/home/hsk/Desktop/devel/tee-tpm-hyp/optee_os/lib/libutee/tee_api_operations.c:476
    1234:	4630      	mov	r0, r6
    1236:	b00f      	add	sp, #60	; 0x3c
    1238:	bdf0      	pop	{r4, r5, r6, r7, pc}
/home/hsk/Desktop/devel/tee-tpm-hyp/optee_os/lib/libutee/tee_api_operations.c:424 (discriminator 1)
    123a:	b30f      	cbz	r7, 1280 <TEE_GetOperationInfoMultiple+0x76>
/home/hsk/Desktop/devel/tee-tpm-hyp/optee_os/lib/libutee/tee_api_operations.c:425
    123c:	2300      	movs	r3, #0
/home/hsk/Desktop/devel/tee-tpm-hyp/optee_os/lib/libutee/tee_api_operations.c:424
    123e:	2f02      	cmp	r7, #2
/home/hsk/Desktop/devel/tee-tpm-hyp/optee_os/lib/libutee/tee_api_operations.c:425
    1240:	6223      	str	r3, [r4, #32]
/home/hsk/Desktop/devel/tee-tpm-hyp/optee_os/lib/libutee/tee_api_operations.c:426
    1242:	6263      	str	r3, [r4, #36]	; 0x24
/home/hsk/Desktop/devel/tee-tpm-hyp/optee_os/lib/libutee/tee_api_operations.c:424
    1244:	d11a      	bne.n	127c <TEE_GetOperationInfoMultiple+0x72>
/home/hsk/Desktop/devel/tee-tpm-hyp/optee_os/lib/libutee/tee_api_operations.c:425
    1246:	62a3      	str	r3, [r4, #40]	; 0x28
/home/hsk/Desktop/devel/tee-tpm-hyp/optee_os/lib/libutee/tee_api_operations.c:430
    1248:	a907      	add	r1, sp, #28
/home/hsk/Desktop/devel/tee-tpm-hyp/optee_os/lib/libutee/tee_api_operations.c:426
    124a:	62e3      	str	r3, [r4, #44]	; 0x2c
/home/hsk/Desktop/devel/tee-tpm-hyp/optee_os/lib/libutee/tee_api_operations.c:430
    124c:	6a68      	ldr	r0, [r5, #36]	; 0x24
    124e:	f001 fc53 	bl	2af8 <TEE_GetObjectInfo1>
/home/hsk/Desktop/devel/tee-tpm-hyp/optee_os/lib/libutee/tee_api_operations.c:432
    1252:	4606      	mov	r6, r0
    1254:	b970      	cbnz	r0, 1274 <TEE_GetOperationInfoMultiple+0x6a>
/home/hsk/Desktop/devel/tee-tpm-hyp/optee_os/lib/libutee/tee_api_operations.c:435
    1256:	9b08      	ldr	r3, [sp, #32]
    1258:	62a3      	str	r3, [r4, #40]	; 0x28
/home/hsk/Desktop/devel/tee-tpm-hyp/optee_os/lib/libutee/tee_api_operations.c:437
    125a:	69ab      	ldr	r3, [r5, #24]
    125c:	62e3      	str	r3, [r4, #44]	; 0x2c
/home/hsk/Desktop/devel/tee-tpm-hyp/optee_os/lib/libutee/tee_api_operations.c:442
    125e:	4669      	mov	r1, sp
    1260:	6a28      	ldr	r0, [r5, #32]
    1262:	f001 fc49 	bl	2af8 <TEE_GetObjectInfo1>
/home/hsk/Desktop/devel/tee-tpm-hyp/optee_os/lib/libutee/tee_api_operations.c:444
    1266:	4606      	mov	r6, r0
    1268:	b1d8      	cbz	r0, 12a2 <TEE_GetOperationInfoMultiple+0x98>
/home/hsk/Desktop/devel/tee-tpm-hyp/optee_os/lib/libutee/tee_api_operations.c:445
    126a:	2f02      	cmp	r7, #2
    126c:	d102      	bne.n	1274 <TEE_GetOperationInfoMultiple+0x6a>
/home/hsk/Desktop/devel/tee-tpm-hyp/optee_os/lib/libutee/tee_api_operations.c:447
    126e:	2300      	movs	r3, #0
    1270:	62a3      	str	r3, [r4, #40]	; 0x28
/home/hsk/Desktop/devel/tee-tpm-hyp/optee_os/lib/libutee/tee_api_operations.c:449
    1272:	62e3      	str	r3, [r4, #44]	; 0x2c
/home/hsk/Desktop/devel/tee-tpm-hyp/optee_os/lib/libutee/tee_api_operations.c:471
    1274:	4b10      	ldr	r3, [pc, #64]	; (12b8 <TEE_GetOperationInfoMultiple+0xae>)
    1276:	429e      	cmp	r6, r3
    1278:	d0db      	beq.n	1232 <TEE_GetOperationInfoMultiple+0x28>
    127a:	e018      	b.n	12ae <TEE_GetOperationInfoMultiple+0xa4>
/home/hsk/Desktop/devel/tee-tpm-hyp/optee_os/lib/libutee/tee_api_operations.c:441
    127c:	2f00      	cmp	r7, #0
    127e:	d1ee      	bne.n	125e <TEE_GetOperationInfoMultiple+0x54>
/home/hsk/Desktop/devel/tee-tpm-hyp/optee_os/lib/libutee/tee_api_operations.c:461
    1280:	682b      	ldr	r3, [r5, #0]
/home/hsk/Desktop/devel/tee-tpm-hyp/optee_os/lib/libutee/tee_api_operations.c:468
    1282:	2600      	movs	r6, #0
/home/hsk/Desktop/devel/tee-tpm-hyp/optee_os/lib/libutee/tee_api_operations.c:461
    1284:	6023      	str	r3, [r4, #0]
/home/hsk/Desktop/devel/tee-tpm-hyp/optee_os/lib/libutee/tee_api_operations.c:462
    1286:	686b      	ldr	r3, [r5, #4]
    1288:	6063      	str	r3, [r4, #4]
/home/hsk/Desktop/devel/tee-tpm-hyp/optee_os/lib/libutee/tee_api_operations.c:463
    128a:	68ab      	ldr	r3, [r5, #8]
    128c:	60a3      	str	r3, [r4, #8]
/home/hsk/Desktop/devel/tee-tpm-hyp/optee_os/lib/libutee/tee_api_operations.c:464
    128e:	68eb      	ldr	r3, [r5, #12]
    1290:	60e3      	str	r3, [r4, #12]
/home/hsk/Desktop/devel/tee-tpm-hyp/optee_os/lib/libutee/tee_api_operations.c:465
    1292:	692b      	ldr	r3, [r5, #16]
    1294:	6123      	str	r3, [r4, #16]
/home/hsk/Desktop/devel/tee-tpm-hyp/optee_os/lib/libutee/tee_api_operations.c:466
    1296:	69eb      	ldr	r3, [r5, #28]
    1298:	6163      	str	r3, [r4, #20]
/home/hsk/Desktop/devel/tee-tpm-hyp/optee_os/lib/libutee/tee_api_operations.c:467
    129a:	6aab      	ldr	r3, [r5, #40]	; 0x28
    129c:	61a3      	str	r3, [r4, #24]
/home/hsk/Desktop/devel/tee-tpm-hyp/optee_os/lib/libutee/tee_api_operations.c:468
    129e:	61e7      	str	r7, [r4, #28]
    12a0:	e7c8      	b.n	1234 <TEE_GetOperationInfoMultiple+0x2a>
/home/hsk/Desktop/devel/tee-tpm-hyp/optee_os/lib/libutee/tee_api_operations.c:454
    12a2:	9b01      	ldr	r3, [sp, #4]
    12a4:	6223      	str	r3, [r4, #32]
/home/hsk/Desktop/devel/tee-tpm-hyp/optee_os/lib/libutee/tee_api_operations.c:456
    12a6:	69ab      	ldr	r3, [r5, #24]
    12a8:	6263      	str	r3, [r4, #36]	; 0x24
    12aa:	e7e9      	b.n	1280 <TEE_GetOperationInfoMultiple+0x76>
/home/hsk/Desktop/devel/tee-tpm-hyp/optee_os/lib/libutee/tee_api_operations.c:393
    12ac:	4e03      	ldr	r6, [pc, #12]	; (12bc <TEE_GetOperationInfoMultiple+0xb2>)
/home/hsk/Desktop/devel/tee-tpm-hyp/optee_os/lib/libutee/tee_api_operations.c:473
    12ae:	4630      	mov	r0, r6
    12b0:	f006 fb32 	bl	7918 <TEE_Panic>
/home/hsk/Desktop/devel/tee-tpm-hyp/optee_os/lib/libutee/tee_api_operations.c:475
    12b4:	e7be      	b.n	1234 <TEE_GetOperationInfoMultiple+0x2a>
    12b6:	bf00      	nop
    12b8:	ffff0010 	.word	0xffff0010
    12bc:	ffff0006 	.word	0xffff0006

000012c0 <TEE_ResetOperation>:
TEE_ResetOperation():
/home/hsk/Desktop/devel/tee-tpm-hyp/optee_os/lib/libutee/tee_api_operations.c:479
    12c0:	b510      	push	{r4, lr}
/home/hsk/Desktop/devel/tee-tpm-hyp/optee_os/lib/libutee/tee_api_operations.c:482
    12c2:	4604      	mov	r4, r0
    12c4:	b908      	cbnz	r0, 12ca <TEE_ResetOperation+0xa>
/home/hsk/Desktop/devel/tee-tpm-hyp/optee_os/lib/libutee/tee_api_operations.c:483
    12c6:	f006 fb27 	bl	7918 <TEE_Panic>
/home/hsk/Desktop/devel/tee-tpm-hyp/optee_os/lib/libutee/tee_api_operations.c:485
    12ca:	69e0      	ldr	r0, [r4, #28]
    12cc:	f410 2080 	ands.w	r0, r0, #262144	; 0x40000
    12d0:	d101      	bne.n	12d6 <TEE_ResetOperation+0x16>
/home/hsk/Desktop/devel/tee-tpm-hyp/optee_os/lib/libutee/tee_api_operations.c:486
    12d2:	f006 fb21 	bl	7918 <TEE_Panic>
/home/hsk/Desktop/devel/tee-tpm-hyp/optee_os/lib/libutee/tee_api_operations.c:490
    12d6:	6863      	ldr	r3, [r4, #4]
/home/hsk/Desktop/devel/tee-tpm-hyp/optee_os/lib/libutee/tee_api_operations.c:488
    12d8:	2200      	movs	r2, #0
    12da:	62a2      	str	r2, [r4, #40]	; 0x28
/home/hsk/Desktop/devel/tee-tpm-hyp/optee_os/lib/libutee/tee_api_operations.c:490
    12dc:	2b05      	cmp	r3, #5
    12de:	d10b      	bne.n	12f8 <TEE_ResetOperation+0x38>
/home/hsk/Desktop/devel/tee-tpm-hyp/optee_os/lib/libutee/tee_api_operations.c:491
    12e0:	4611      	mov	r1, r2
    12e2:	6be0      	ldr	r0, [r4, #60]	; 0x3c
    12e4:	f001 e8ce 	blx	2484 <utee_hash_init>
/home/hsk/Desktop/devel/tee-tpm-hyp/optee_os/lib/libutee/tee_api_operations.c:492
    12e8:	b108      	cbz	r0, 12ee <TEE_ResetOperation+0x2e>
/home/hsk/Desktop/devel/tee-tpm-hyp/optee_os/lib/libutee/tee_api_operations.c:493
    12ea:	f006 fb15 	bl	7918 <TEE_Panic>
/home/hsk/Desktop/devel/tee-tpm-hyp/optee_os/lib/libutee/tee_api_operations.c:494
    12ee:	69e3      	ldr	r3, [r4, #28]
    12f0:	f443 3300 	orr.w	r3, r3, #131072	; 0x20000
/home/hsk/Desktop/devel/tee-tpm-hyp/optee_os/lib/libutee/tee_api_operations.c:496
    12f4:	61e3      	str	r3, [r4, #28]
/home/hsk/Desktop/devel/tee-tpm-hyp/optee_os/lib/libutee/tee_api_operations.c:498
    12f6:	bd10      	pop	{r4, pc}
/home/hsk/Desktop/devel/tee-tpm-hyp/optee_os/lib/libutee/tee_api_operations.c:496
    12f8:	69e3      	ldr	r3, [r4, #28]
    12fa:	f423 3300 	bic.w	r3, r3, #131072	; 0x20000
    12fe:	e7f9      	b.n	12f4 <TEE_ResetOperation+0x34>

00001300 <TEE_SetOperationKey>:
TEE_SetOperationKey():
/home/hsk/Desktop/devel/tee-tpm-hyp/optee_os/lib/libutee/tee_api_operations.c:502
    1300:	b5f0      	push	{r4, r5, r6, r7, lr}
    1302:	460e      	mov	r6, r1
/home/hsk/Desktop/devel/tee-tpm-hyp/optee_os/lib/libutee/tee_api_operations.c:507
    1304:	4604      	mov	r4, r0
/home/hsk/Desktop/devel/tee-tpm-hyp/optee_os/lib/libutee/tee_api_operations.c:502
    1306:	b089      	sub	sp, #36	; 0x24
/home/hsk/Desktop/devel/tee-tpm-hyp/optee_os/lib/libutee/tee_api_operations.c:507
    1308:	b920      	cbnz	r0, 1314 <TEE_SetOperationKey+0x14>
/home/hsk/Desktop/devel/tee-tpm-hyp/optee_os/lib/libutee/tee_api_operations.c:519
    130a:	4d1e      	ldr	r5, [pc, #120]	; (1384 <TEE_SetOperationKey+0x84>)
/home/hsk/Desktop/devel/tee-tpm-hyp/optee_os/lib/libutee/tee_api_operations.c:571
    130c:	4628      	mov	r0, r5
    130e:	f006 fb03 	bl	7918 <TEE_Panic>
/home/hsk/Desktop/devel/tee-tpm-hyp/optee_os/lib/libutee/tee_api_operations.c:573
    1312:	e02d      	b.n	1370 <TEE_SetOperationKey+0x70>
/home/hsk/Desktop/devel/tee-tpm-hyp/optee_os/lib/libutee/tee_api_operations.c:512
    1314:	6a83      	ldr	r3, [r0, #40]	; 0x28
    1316:	2b00      	cmp	r3, #0
    1318:	d1f7      	bne.n	130a <TEE_SetOperationKey+0xa>
/home/hsk/Desktop/devel/tee-tpm-hyp/optee_os/lib/libutee/tee_api_operations.c:517
    131a:	b919      	cbnz	r1, 1324 <TEE_SetOperationKey+0x24>
/home/hsk/Desktop/devel/tee-tpm-hyp/optee_os/lib/libutee/tee_api_operations.c:519
    131c:	6a00      	ldr	r0, [r0, #32]
    131e:	f001 fcd5 	bl	2ccc <TEE_ResetTransientObject>
    1322:	e7f2      	b.n	130a <TEE_SetOperationKey+0xa>
/home/hsk/Desktop/devel/tee-tpm-hyp/optee_os/lib/libutee/tee_api_operations.c:525
    1324:	6843      	ldr	r3, [r0, #4]
    1326:	2b05      	cmp	r3, #5
    1328:	d0ef      	beq.n	130a <TEE_SetOperationKey+0xa>
/home/hsk/Desktop/devel/tee-tpm-hyp/optee_os/lib/libutee/tee_api_operations.c:531
    132a:	69c3      	ldr	r3, [r0, #28]
    132c:	031b      	lsls	r3, r3, #12
    132e:	d4ec      	bmi.n	130a <TEE_SetOperationKey+0xa>
/home/hsk/Desktop/devel/tee-tpm-hyp/optee_os/lib/libutee/tee_api_operations.c:537
    1330:	a901      	add	r1, sp, #4
    1332:	4630      	mov	r0, r6
    1334:	f001 fbe0 	bl	2af8 <TEE_GetObjectInfo1>
/home/hsk/Desktop/devel/tee-tpm-hyp/optee_os/lib/libutee/tee_api_operations.c:539
    1338:	4605      	mov	r5, r0
    133a:	b9e0      	cbnz	r0, 1376 <TEE_SetOperationKey+0x76>
/home/hsk/Desktop/devel/tee-tpm-hyp/optee_os/lib/libutee/tee_api_operations.c:543
    133c:	69a3      	ldr	r3, [r4, #24]
    133e:	9a04      	ldr	r2, [sp, #16]
    1340:	4393      	bics	r3, r2
    1342:	d1e2      	bne.n	130a <TEE_SetOperationKey+0xa>
/home/hsk/Desktop/devel/tee-tpm-hyp/optee_os/lib/libutee/tee_api_operations.c:549
    1344:	9f02      	ldr	r7, [sp, #8]
    1346:	6923      	ldr	r3, [r4, #16]
    1348:	42bb      	cmp	r3, r7
    134a:	d3de      	bcc.n	130a <TEE_SetOperationKey+0xa>
/home/hsk/Desktop/devel/tee-tpm-hyp/optee_os/lib/libutee/tee_api_operations.c:556
    134c:	6a20      	ldr	r0, [r4, #32]
    134e:	f001 fcbd 	bl	2ccc <TEE_ResetTransientObject>
/home/hsk/Desktop/devel/tee-tpm-hyp/optee_os/lib/libutee/tee_api_operations.c:557
    1352:	69e3      	ldr	r3, [r4, #28]
/home/hsk/Desktop/devel/tee-tpm-hyp/optee_os/lib/libutee/tee_api_operations.c:559
    1354:	4631      	mov	r1, r6
    1356:	6a20      	ldr	r0, [r4, #32]
/home/hsk/Desktop/devel/tee-tpm-hyp/optee_os/lib/libutee/tee_api_operations.c:557
    1358:	f423 2380 	bic.w	r3, r3, #262144	; 0x40000
    135c:	61e3      	str	r3, [r4, #28]
/home/hsk/Desktop/devel/tee-tpm-hyp/optee_os/lib/libutee/tee_api_operations.c:559
    135e:	f001 fd27 	bl	2db0 <TEE_CopyObjectAttributes1>
/home/hsk/Desktop/devel/tee-tpm-hyp/optee_os/lib/libutee/tee_api_operations.c:560
    1362:	4605      	mov	r5, r0
    1364:	b938      	cbnz	r0, 1376 <TEE_SetOperationKey+0x76>
/home/hsk/Desktop/devel/tee-tpm-hyp/optee_os/lib/libutee/tee_api_operations.c:563
    1366:	69e3      	ldr	r3, [r4, #28]
/home/hsk/Desktop/devel/tee-tpm-hyp/optee_os/lib/libutee/tee_api_operations.c:565
    1368:	6167      	str	r7, [r4, #20]
/home/hsk/Desktop/devel/tee-tpm-hyp/optee_os/lib/libutee/tee_api_operations.c:563
    136a:	f443 2380 	orr.w	r3, r3, #262144	; 0x40000
    136e:	61e3      	str	r3, [r4, #28]
/home/hsk/Desktop/devel/tee-tpm-hyp/optee_os/lib/libutee/tee_api_operations.c:574
    1370:	4628      	mov	r0, r5
    1372:	b009      	add	sp, #36	; 0x24
    1374:	bdf0      	pop	{r4, r5, r6, r7, pc}
/home/hsk/Desktop/devel/tee-tpm-hyp/optee_os/lib/libutee/tee_api_operations.c:568
    1376:	4b04      	ldr	r3, [pc, #16]	; (1388 <TEE_SetOperationKey+0x88>)
    1378:	429d      	cmp	r5, r3
    137a:	d0f9      	beq.n	1370 <TEE_SetOperationKey+0x70>
/home/hsk/Desktop/devel/tee-tpm-hyp/optee_os/lib/libutee/tee_api_operations.c:569
    137c:	4b03      	ldr	r3, [pc, #12]	; (138c <TEE_SetOperationKey+0x8c>)
    137e:	429d      	cmp	r5, r3
    1380:	d0f6      	beq.n	1370 <TEE_SetOperationKey+0x70>
    1382:	e7c3      	b.n	130c <TEE_SetOperationKey+0xc>
    1384:	ffff0006 	.word	0xffff0006
    1388:	f0100001 	.word	0xf0100001
    138c:	f0100003 	.word	0xf0100003

00001390 <TEE_SetOperationKey2>:
TEE_SetOperationKey2():
/home/hsk/Desktop/devel/tee-tpm-hyp/optee_os/lib/libutee/tee_api_operations.c:578
    1390:	e92d 41f0 	stmdb	sp!, {r4, r5, r6, r7, r8, lr}
    1394:	4688      	mov	r8, r1
    1396:	4616      	mov	r6, r2
    1398:	b08e      	sub	sp, #56	; 0x38
/home/hsk/Desktop/devel/tee-tpm-hyp/optee_os/lib/libutee/tee_api_operations.c:584
    139a:	4604      	mov	r4, r0
    139c:	b130      	cbz	r0, 13ac <TEE_SetOperationKey2+0x1c>
/home/hsk/Desktop/devel/tee-tpm-hyp/optee_os/lib/libutee/tee_api_operations.c:589
    139e:	6a83      	ldr	r3, [r0, #40]	; 0x28
    13a0:	b923      	cbnz	r3, 13ac <TEE_SetOperationKey2+0x1c>
/home/hsk/Desktop/devel/tee-tpm-hyp/optee_os/lib/libutee/tee_api_operations.c:598
    13a2:	b129      	cbz	r1, 13b0 <TEE_SetOperationKey2+0x20>
/home/hsk/Desktop/devel/tee-tpm-hyp/optee_os/lib/libutee/tee_api_operations.c:598 (discriminator 1)
    13a4:	b952      	cbnz	r2, 13bc <TEE_SetOperationKey2+0x2c>
/home/hsk/Desktop/devel/tee-tpm-hyp/optee_os/lib/libutee/tee_api_operations.c:604
    13a6:	6a60      	ldr	r0, [r4, #36]	; 0x24
    13a8:	f001 fc90 	bl	2ccc <TEE_ResetTransientObject>
/home/hsk/Desktop/devel/tee-tpm-hyp/optee_os/lib/libutee/tee_api_operations.c:578
    13ac:	4d31      	ldr	r5, [pc, #196]	; (1474 <TEE_SetOperationKey2+0xe4>)
    13ae:	e05c      	b.n	146a <TEE_SetOperationKey2+0xda>
/home/hsk/Desktop/devel/tee-tpm-hyp/optee_os/lib/libutee/tee_api_operations.c:601
    13b0:	6a00      	ldr	r0, [r0, #32]
    13b2:	f001 fc8b 	bl	2ccc <TEE_ResetTransientObject>
/home/hsk/Desktop/devel/tee-tpm-hyp/optee_os/lib/libutee/tee_api_operations.c:603
    13b6:	2e00      	cmp	r6, #0
    13b8:	d1f8      	bne.n	13ac <TEE_SetOperationKey2+0x1c>
    13ba:	e7f4      	b.n	13a6 <TEE_SetOperationKey2+0x16>
/home/hsk/Desktop/devel/tee-tpm-hyp/optee_os/lib/libutee/tee_api_operations.c:610
    13bc:	6843      	ldr	r3, [r0, #4]
    13be:	2b05      	cmp	r3, #5
    13c0:	d0f4      	beq.n	13ac <TEE_SetOperationKey2+0x1c>
/home/hsk/Desktop/devel/tee-tpm-hyp/optee_os/lib/libutee/tee_api_operations.c:616
    13c2:	69c3      	ldr	r3, [r0, #28]
    13c4:	031b      	lsls	r3, r3, #12
    13c6:	d5f1      	bpl.n	13ac <TEE_SetOperationKey2+0x1c>
/home/hsk/Desktop/devel/tee-tpm-hyp/optee_os/lib/libutee/tee_api_operations.c:622
    13c8:	4669      	mov	r1, sp
    13ca:	4640      	mov	r0, r8
    13cc:	f001 fb94 	bl	2af8 <TEE_GetObjectInfo1>
/home/hsk/Desktop/devel/tee-tpm-hyp/optee_os/lib/libutee/tee_api_operations.c:624
    13d0:	4605      	mov	r5, r0
    13d2:	2800      	cmp	r0, #0
    13d4:	d13d      	bne.n	1452 <TEE_SetOperationKey2+0xc2>
/home/hsk/Desktop/devel/tee-tpm-hyp/optee_os/lib/libutee/tee_api_operations.c:628
    13d6:	69a3      	ldr	r3, [r4, #24]
    13d8:	9a03      	ldr	r2, [sp, #12]
    13da:	4393      	bics	r3, r2
    13dc:	d1e6      	bne.n	13ac <TEE_SetOperationKey2+0x1c>
/home/hsk/Desktop/devel/tee-tpm-hyp/optee_os/lib/libutee/tee_api_operations.c:634
    13de:	a907      	add	r1, sp, #28
    13e0:	4630      	mov	r0, r6
    13e2:	f001 fb89 	bl	2af8 <TEE_GetObjectInfo1>
/home/hsk/Desktop/devel/tee-tpm-hyp/optee_os/lib/libutee/tee_api_operations.c:636
    13e6:	4605      	mov	r5, r0
    13e8:	b138      	cbz	r0, 13fa <TEE_SetOperationKey2+0x6a>
/home/hsk/Desktop/devel/tee-tpm-hyp/optee_os/lib/libutee/tee_api_operations.c:637
    13ea:	4b23      	ldr	r3, [pc, #140]	; (1478 <TEE_SetOperationKey2+0xe8>)
    13ec:	429d      	cmp	r5, r3
    13ee:	d133      	bne.n	1458 <TEE_SetOperationKey2+0xc8>
/home/hsk/Desktop/devel/tee-tpm-hyp/optee_os/lib/libutee/tee_api_operations.c:578
    13f0:	4d22      	ldr	r5, [pc, #136]	; (147c <TEE_SetOperationKey2+0xec>)
/home/hsk/Desktop/devel/tee-tpm-hyp/optee_os/lib/libutee/tee_api_operations.c:699
    13f2:	4628      	mov	r0, r5
    13f4:	b00e      	add	sp, #56	; 0x38
    13f6:	e8bd 81f0 	ldmia.w	sp!, {r4, r5, r6, r7, r8, pc}
/home/hsk/Desktop/devel/tee-tpm-hyp/optee_os/lib/libutee/tee_api_operations.c:643
    13fa:	69a3      	ldr	r3, [r4, #24]
    13fc:	9a0a      	ldr	r2, [sp, #40]	; 0x28
    13fe:	4393      	bics	r3, r2
    1400:	d1d4      	bne.n	13ac <TEE_SetOperationKey2+0x1c>
/home/hsk/Desktop/devel/tee-tpm-hyp/optee_os/lib/libutee/tee_api_operations.c:653
    1402:	6822      	ldr	r2, [r4, #0]
    1404:	4b1e      	ldr	r3, [pc, #120]	; (1480 <TEE_SetOperationKey2+0xf0>)
    1406:	9f01      	ldr	r7, [sp, #4]
    1408:	429a      	cmp	r2, r3
    140a:	d102      	bne.n	1412 <TEE_SetOperationKey2+0x82>
/home/hsk/Desktop/devel/tee-tpm-hyp/optee_os/lib/libutee/tee_api_operations.c:653 (discriminator 1)
    140c:	9b08      	ldr	r3, [sp, #32]
    140e:	42bb      	cmp	r3, r7
    1410:	d1cc      	bne.n	13ac <TEE_SetOperationKey2+0x1c>
/home/hsk/Desktop/devel/tee-tpm-hyp/optee_os/lib/libutee/tee_api_operations.c:660
    1412:	6923      	ldr	r3, [r4, #16]
    1414:	42bb      	cmp	r3, r7
    1416:	d3c9      	bcc.n	13ac <TEE_SetOperationKey2+0x1c>
/home/hsk/Desktop/devel/tee-tpm-hyp/optee_os/lib/libutee/tee_api_operations.c:671
    1418:	6a20      	ldr	r0, [r4, #32]
    141a:	f001 fc57 	bl	2ccc <TEE_ResetTransientObject>
/home/hsk/Desktop/devel/tee-tpm-hyp/optee_os/lib/libutee/tee_api_operations.c:672
    141e:	6a60      	ldr	r0, [r4, #36]	; 0x24
    1420:	f001 fc54 	bl	2ccc <TEE_ResetTransientObject>
/home/hsk/Desktop/devel/tee-tpm-hyp/optee_os/lib/libutee/tee_api_operations.c:673
    1424:	69e3      	ldr	r3, [r4, #28]
/home/hsk/Desktop/devel/tee-tpm-hyp/optee_os/lib/libutee/tee_api_operations.c:675
    1426:	4641      	mov	r1, r8
    1428:	6a20      	ldr	r0, [r4, #32]
/home/hsk/Desktop/devel/tee-tpm-hyp/optee_os/lib/libutee/tee_api_operations.c:673
    142a:	f423 2380 	bic.w	r3, r3, #262144	; 0x40000
    142e:	61e3      	str	r3, [r4, #28]
/home/hsk/Desktop/devel/tee-tpm-hyp/optee_os/lib/libutee/tee_api_operations.c:675
    1430:	f001 fcbe 	bl	2db0 <TEE_CopyObjectAttributes1>
/home/hsk/Desktop/devel/tee-tpm-hyp/optee_os/lib/libutee/tee_api_operations.c:676
    1434:	4605      	mov	r5, r0
    1436:	b960      	cbnz	r0, 1452 <TEE_SetOperationKey2+0xc2>
/home/hsk/Desktop/devel/tee-tpm-hyp/optee_os/lib/libutee/tee_api_operations.c:679
    1438:	4631      	mov	r1, r6
    143a:	6a60      	ldr	r0, [r4, #36]	; 0x24
    143c:	f001 fcb8 	bl	2db0 <TEE_CopyObjectAttributes1>
/home/hsk/Desktop/devel/tee-tpm-hyp/optee_os/lib/libutee/tee_api_operations.c:680
    1440:	4605      	mov	r5, r0
    1442:	2800      	cmp	r0, #0
    1444:	d1d1      	bne.n	13ea <TEE_SetOperationKey2+0x5a>
/home/hsk/Desktop/devel/tee-tpm-hyp/optee_os/lib/libutee/tee_api_operations.c:686
    1446:	69e3      	ldr	r3, [r4, #28]
/home/hsk/Desktop/devel/tee-tpm-hyp/optee_os/lib/libutee/tee_api_operations.c:688
    1448:	6167      	str	r7, [r4, #20]
/home/hsk/Desktop/devel/tee-tpm-hyp/optee_os/lib/libutee/tee_api_operations.c:686
    144a:	f443 2380 	orr.w	r3, r3, #262144	; 0x40000
    144e:	61e3      	str	r3, [r4, #28]
    1450:	e7cf      	b.n	13f2 <TEE_SetOperationKey2+0x62>
/home/hsk/Desktop/devel/tee-tpm-hyp/optee_os/lib/libutee/tee_api_operations.c:691
    1452:	4b09      	ldr	r3, [pc, #36]	; (1478 <TEE_SetOperationKey2+0xe8>)
    1454:	429d      	cmp	r5, r3
    1456:	d0cc      	beq.n	13f2 <TEE_SetOperationKey2+0x62>
/home/hsk/Desktop/devel/tee-tpm-hyp/optee_os/lib/libutee/tee_api_operations.c:692
    1458:	4b08      	ldr	r3, [pc, #32]	; (147c <TEE_SetOperationKey2+0xec>)
    145a:	429d      	cmp	r5, r3
    145c:	d0c8      	beq.n	13f0 <TEE_SetOperationKey2+0x60>
/home/hsk/Desktop/devel/tee-tpm-hyp/optee_os/lib/libutee/tee_api_operations.c:693
    145e:	3301      	adds	r3, #1
    1460:	429d      	cmp	r5, r3
    1462:	d0c6      	beq.n	13f2 <TEE_SetOperationKey2+0x62>
/home/hsk/Desktop/devel/tee-tpm-hyp/optee_os/lib/libutee/tee_api_operations.c:694
    1464:	3301      	adds	r3, #1
    1466:	429d      	cmp	r5, r3
    1468:	d0c3      	beq.n	13f2 <TEE_SetOperationKey2+0x62>
/home/hsk/Desktop/devel/tee-tpm-hyp/optee_os/lib/libutee/tee_api_operations.c:696
    146a:	4628      	mov	r0, r5
    146c:	f006 fa54 	bl	7918 <TEE_Panic>
/home/hsk/Desktop/devel/tee-tpm-hyp/optee_os/lib/libutee/tee_api_operations.c:698
    1470:	e7bf      	b.n	13f2 <TEE_SetOperationKey2+0x62>
    1472:	bf00      	nop
    1474:	ffff0006 	.word	0xffff0006
    1478:	f0100001 	.word	0xf0100001
    147c:	f0100002 	.word	0xf0100002
    1480:	10000410 	.word	0x10000410

00001484 <TEE_CopyOperation>:
TEE_CopyOperation():
/home/hsk/Desktop/devel/tee-tpm-hyp/optee_os/lib/libutee/tee_api_operations.c:702
    1484:	b538      	push	{r3, r4, r5, lr}
    1486:	460c      	mov	r4, r1
/home/hsk/Desktop/devel/tee-tpm-hyp/optee_os/lib/libutee/tee_api_operations.c:705
    1488:	4605      	mov	r5, r0
    148a:	b100      	cbz	r0, 148e <TEE_CopyOperation+0xa>
/home/hsk/Desktop/devel/tee-tpm-hyp/optee_os/lib/libutee/tee_api_operations.c:705 (discriminator 1)
    148c:	b911      	cbnz	r1, 1494 <TEE_CopyOperation+0x10>
/home/hsk/Desktop/devel/tee-tpm-hyp/optee_os/lib/libutee/tee_api_operations.c:706
    148e:	2000      	movs	r0, #0
    1490:	f006 fa42 	bl	7918 <TEE_Panic>
/home/hsk/Desktop/devel/tee-tpm-hyp/optee_os/lib/libutee/tee_api_operations.c:707
    1494:	682a      	ldr	r2, [r5, #0]
    1496:	6823      	ldr	r3, [r4, #0]
    1498:	429a      	cmp	r2, r3
    149a:	d002      	beq.n	14a2 <TEE_CopyOperation+0x1e>
/home/hsk/Desktop/devel/tee-tpm-hyp/optee_os/lib/libutee/tee_api_operations.c:708
    149c:	2000      	movs	r0, #0
    149e:	f006 fa3b 	bl	7918 <TEE_Panic>
/home/hsk/Desktop/devel/tee-tpm-hyp/optee_os/lib/libutee/tee_api_operations.c:709
    14a2:	6863      	ldr	r3, [r4, #4]
    14a4:	2b05      	cmp	r3, #5
    14a6:	d00a      	beq.n	14be <TEE_CopyOperation+0x3a>
    14a8:	69e3      	ldr	r3, [r4, #28]
/home/hsk/Desktop/devel/tee-tpm-hyp/optee_os/lib/libutee/tee_api_operations.c:713
    14aa:	f413 2280 	ands.w	r2, r3, #262144	; 0x40000
    14ae:	d030      	beq.n	1512 <TEE_CopyOperation+0x8e>
/home/hsk/Desktop/devel/tee-tpm-hyp/optee_os/lib/libutee/tee_api_operations.c:714
    14b0:	6a21      	ldr	r1, [r4, #32]
/home/hsk/Desktop/devel/tee-tpm-hyp/optee_os/lib/libutee/tee_api_operations.c:715
    14b2:	6a62      	ldr	r2, [r4, #36]	; 0x24
/home/hsk/Desktop/devel/tee-tpm-hyp/optee_os/lib/libutee/tee_api_operations.c:720
    14b4:	4628      	mov	r0, r5
/home/hsk/Desktop/devel/tee-tpm-hyp/optee_os/lib/libutee/tee_api_operations.c:718
    14b6:	031b      	lsls	r3, r3, #12
    14b8:	d42d      	bmi.n	1516 <TEE_CopyOperation+0x92>
/home/hsk/Desktop/devel/tee-tpm-hyp/optee_os/lib/libutee/tee_api_operations.c:720
    14ba:	f7ff ff21 	bl	1300 <TEE_SetOperationKey>
/home/hsk/Desktop/devel/tee-tpm-hyp/optee_os/lib/libutee/tee_api_operations.c:725
    14be:	69e3      	ldr	r3, [r4, #28]
    14c0:	61eb      	str	r3, [r5, #28]
/home/hsk/Desktop/devel/tee-tpm-hyp/optee_os/lib/libutee/tee_api_operations.c:726
    14c2:	6963      	ldr	r3, [r4, #20]
    14c4:	616b      	str	r3, [r5, #20]
/home/hsk/Desktop/devel/tee-tpm-hyp/optee_os/lib/libutee/tee_api_operations.c:727
    14c6:	6aa3      	ldr	r3, [r4, #40]	; 0x28
    14c8:	62ab      	str	r3, [r5, #40]	; 0x28
/home/hsk/Desktop/devel/tee-tpm-hyp/optee_os/lib/libutee/tee_api_operations.c:729
    14ca:	f895 2030 	ldrb.w	r2, [r5, #48]	; 0x30
    14ce:	f894 3030 	ldrb.w	r3, [r4, #48]	; 0x30
    14d2:	429a      	cmp	r2, r3
    14d4:	d103      	bne.n	14de <TEE_CopyOperation+0x5a>
/home/hsk/Desktop/devel/tee-tpm-hyp/optee_os/lib/libutee/tee_api_operations.c:729 (discriminator 1)
    14d6:	6b6a      	ldr	r2, [r5, #52]	; 0x34
    14d8:	6b63      	ldr	r3, [r4, #52]	; 0x34
    14da:	429a      	cmp	r2, r3
    14dc:	d002      	beq.n	14e4 <TEE_CopyOperation+0x60>
/home/hsk/Desktop/devel/tee-tpm-hyp/optee_os/lib/libutee/tee_api_operations.c:731
    14de:	2000      	movs	r0, #0
    14e0:	f006 fa1a 	bl	7918 <TEE_Panic>
/home/hsk/Desktop/devel/tee-tpm-hyp/optee_os/lib/libutee/tee_api_operations.c:733
    14e4:	6ae8      	ldr	r0, [r5, #44]	; 0x2c
    14e6:	6ae3      	ldr	r3, [r4, #44]	; 0x2c
    14e8:	b1c0      	cbz	r0, 151c <TEE_CopyOperation+0x98>
/home/hsk/Desktop/devel/tee-tpm-hyp/optee_os/lib/libutee/tee_api_operations.c:734
    14ea:	b913      	cbnz	r3, 14f2 <TEE_CopyOperation+0x6e>
/home/hsk/Desktop/devel/tee-tpm-hyp/optee_os/lib/libutee/tee_api_operations.c:735
    14ec:	4618      	mov	r0, r3
    14ee:	f006 fa13 	bl	7918 <TEE_Panic>
/home/hsk/Desktop/devel/tee-tpm-hyp/optee_os/lib/libutee/tee_api_operations.c:737
    14f2:	6ba2      	ldr	r2, [r4, #56]	; 0x38
    14f4:	6ae1      	ldr	r1, [r4, #44]	; 0x2c
    14f6:	6ae8      	ldr	r0, [r5, #44]	; 0x2c
    14f8:	f006 fa35 	bl	7966 <memcpy>
/home/hsk/Desktop/devel/tee-tpm-hyp/optee_os/lib/libutee/tee_api_operations.c:738
    14fc:	6ba3      	ldr	r3, [r4, #56]	; 0x38
    14fe:	63ab      	str	r3, [r5, #56]	; 0x38
/home/hsk/Desktop/devel/tee-tpm-hyp/optee_os/lib/libutee/tee_api_operations.c:743
    1500:	6be1      	ldr	r1, [r4, #60]	; 0x3c
    1502:	6be8      	ldr	r0, [r5, #60]	; 0x3c
    1504:	f000 efaa 	blx	245c <utee_cryp_state_copy>
/home/hsk/Desktop/devel/tee-tpm-hyp/optee_os/lib/libutee/tee_api_operations.c:744
    1508:	b168      	cbz	r0, 1526 <TEE_CopyOperation+0xa2>
/home/hsk/Desktop/devel/tee-tpm-hyp/optee_os/lib/libutee/tee_api_operations.c:746
    150a:	e8bd 4038 	ldmia.w	sp!, {r3, r4, r5, lr}
/home/hsk/Desktop/devel/tee-tpm-hyp/optee_os/lib/libutee/tee_api_operations.c:745
    150e:	f006 ba03 	b.w	7918 <TEE_Panic>
/home/hsk/Desktop/devel/tee-tpm-hyp/optee_os/lib/libutee/tee_api_operations.c:710
    1512:	4611      	mov	r1, r2
    1514:	e7ce      	b.n	14b4 <TEE_CopyOperation+0x30>
/home/hsk/Desktop/devel/tee-tpm-hyp/optee_os/lib/libutee/tee_api_operations.c:722
    1516:	f7ff ff3b 	bl	1390 <TEE_SetOperationKey2>
    151a:	e7d0      	b.n	14be <TEE_CopyOperation+0x3a>
/home/hsk/Desktop/devel/tee-tpm-hyp/optee_os/lib/libutee/tee_api_operations.c:739
    151c:	2b00      	cmp	r3, #0
    151e:	d0ef      	beq.n	1500 <TEE_CopyOperation+0x7c>
/home/hsk/Desktop/devel/tee-tpm-hyp/optee_os/lib/libutee/tee_api_operations.c:740
    1520:	f006 f9fa 	bl	7918 <TEE_Panic>
    1524:	e7ec      	b.n	1500 <TEE_CopyOperation+0x7c>
/home/hsk/Desktop/devel/tee-tpm-hyp/optee_os/lib/libutee/tee_api_operations.c:746
    1526:	bd38      	pop	{r3, r4, r5, pc}

00001528 <TEE_DigestUpdate>:
TEE_DigestUpdate():
/home/hsk/Desktop/devel/tee-tpm-hyp/optee_os/lib/libutee/tee_api_operations.c:768
    1528:	b570      	push	{r4, r5, r6, lr}
    152a:	460d      	mov	r5, r1
    152c:	4616      	mov	r6, r2
/home/hsk/Desktop/devel/tee-tpm-hyp/optee_os/lib/libutee/tee_api_operations.c:771
    152e:	4604      	mov	r4, r0
    1530:	b110      	cbz	r0, 1538 <TEE_DigestUpdate+0x10>
/home/hsk/Desktop/devel/tee-tpm-hyp/optee_os/lib/libutee/tee_api_operations.c:771 (discriminator 1)
    1532:	6843      	ldr	r3, [r0, #4]
    1534:	2b05      	cmp	r3, #5
    1536:	d002      	beq.n	153e <TEE_DigestUpdate+0x16>
/home/hsk/Desktop/devel/tee-tpm-hyp/optee_os/lib/libutee/tee_api_operations.c:773
    1538:	2000      	movs	r0, #0
    153a:	f006 f9ed 	bl	7918 <TEE_Panic>
/home/hsk/Desktop/devel/tee-tpm-hyp/optee_os/lib/libutee/tee_api_operations.c:775
    153e:	2301      	movs	r3, #1
/home/hsk/Desktop/devel/tee-tpm-hyp/optee_os/lib/libutee/tee_api_operations.c:777
    1540:	4632      	mov	r2, r6
/home/hsk/Desktop/devel/tee-tpm-hyp/optee_os/lib/libutee/tee_api_operations.c:775
    1542:	62a3      	str	r3, [r4, #40]	; 0x28
/home/hsk/Desktop/devel/tee-tpm-hyp/optee_os/lib/libutee/tee_api_operations.c:777
    1544:	4629      	mov	r1, r5
    1546:	6be0      	ldr	r0, [r4, #60]	; 0x3c
    1548:	f000 efa6 	blx	2498 <utee_hash_update>
/home/hsk/Desktop/devel/tee-tpm-hyp/optee_os/lib/libutee/tee_api_operations.c:778
    154c:	b118      	cbz	r0, 1556 <TEE_DigestUpdate+0x2e>
/home/hsk/Desktop/devel/tee-tpm-hyp/optee_os/lib/libutee/tee_api_operations.c:780
    154e:	e8bd 4070 	ldmia.w	sp!, {r4, r5, r6, lr}
/home/hsk/Desktop/devel/tee-tpm-hyp/optee_os/lib/libutee/tee_api_operations.c:779
    1552:	f006 b9e1 	b.w	7918 <TEE_Panic>
/home/hsk/Desktop/devel/tee-tpm-hyp/optee_os/lib/libutee/tee_api_operations.c:780
    1556:	bd70      	pop	{r4, r5, r6, pc}

00001558 <TEE_DigestDoFinal>:
TEE_DigestDoFinal():
/home/hsk/Desktop/devel/tee-tpm-hyp/optee_os/lib/libutee/tee_api_operations.c:784
    1558:	b530      	push	{r4, r5, lr}
/home/hsk/Desktop/devel/tee-tpm-hyp/optee_os/lib/libutee/tee_api_operations.c:788
    155a:	4605      	mov	r5, r0
/home/hsk/Desktop/devel/tee-tpm-hyp/optee_os/lib/libutee/tee_api_operations.c:784
    155c:	b085      	sub	sp, #20
    155e:	9c08      	ldr	r4, [sp, #32]
/home/hsk/Desktop/devel/tee-tpm-hyp/optee_os/lib/libutee/tee_api_operations.c:788
    1560:	b328      	cbz	r0, 15ae <TEE_DigestDoFinal+0x56>
/home/hsk/Desktop/devel/tee-tpm-hyp/optee_os/lib/libutee/tee_api_operations.c:788 (discriminator 1)
    1562:	b901      	cbnz	r1, 1566 <TEE_DigestDoFinal+0xe>
/home/hsk/Desktop/devel/tee-tpm-hyp/optee_os/lib/libutee/tee_api_operations.c:789
    1564:	bb1a      	cbnz	r2, 15ae <TEE_DigestDoFinal+0x56>
/home/hsk/Desktop/devel/tee-tpm-hyp/optee_os/lib/libutee/tee_api_operations.c:789 (discriminator 1)
    1566:	b313      	cbz	r3, 15ae <TEE_DigestDoFinal+0x56>
/home/hsk/Desktop/devel/tee-tpm-hyp/optee_os/lib/libutee/tee_api_operations.c:790
    1568:	b30c      	cbz	r4, 15ae <TEE_DigestDoFinal+0x56>
/home/hsk/Desktop/devel/tee-tpm-hyp/optee_os/lib/libutee/tee_api_operations.c:791
    156a:	6868      	ldr	r0, [r5, #4]
    156c:	2805      	cmp	r0, #5
    156e:	d11e      	bne.n	15ae <TEE_DigestDoFinal+0x56>
/home/hsk/Desktop/devel/tee-tpm-hyp/optee_os/lib/libutee/tee_api_operations.c:797
    1570:	6820      	ldr	r0, [r4, #0]
    1572:	9002      	str	r0, [sp, #8]
    1574:	2000      	movs	r0, #0
    1576:	9003      	str	r0, [sp, #12]
/home/hsk/Desktop/devel/tee-tpm-hyp/optee_os/lib/libutee/tee_api_operations.c:798
    1578:	a802      	add	r0, sp, #8
    157a:	9000      	str	r0, [sp, #0]
    157c:	6be8      	ldr	r0, [r5, #60]	; 0x3c
    157e:	f000 ef96 	blx	24ac <utee_hash_final>
/home/hsk/Desktop/devel/tee-tpm-hyp/optee_os/lib/libutee/tee_api_operations.c:799
    1582:	9b02      	ldr	r3, [sp, #8]
    1584:	6023      	str	r3, [r4, #0]
/home/hsk/Desktop/devel/tee-tpm-hyp/optee_os/lib/libutee/tee_api_operations.c:800
    1586:	4604      	mov	r4, r0
    1588:	b9b0      	cbnz	r0, 15b8 <TEE_DigestDoFinal+0x60>
init_hash_operation():
/home/hsk/Desktop/devel/tee-tpm-hyp/optee_os/lib/libutee/tee_api_operations.c:759
    158a:	4602      	mov	r2, r0
    158c:	4601      	mov	r1, r0
    158e:	6be8      	ldr	r0, [r5, #60]	; 0x3c
    1590:	f000 ef78 	blx	2484 <utee_hash_init>
/home/hsk/Desktop/devel/tee-tpm-hyp/optee_os/lib/libutee/tee_api_operations.c:760
    1594:	b108      	cbz	r0, 159a <TEE_DigestDoFinal+0x42>
/home/hsk/Desktop/devel/tee-tpm-hyp/optee_os/lib/libutee/tee_api_operations.c:761
    1596:	f006 f9bf 	bl	7918 <TEE_Panic>
/home/hsk/Desktop/devel/tee-tpm-hyp/optee_os/lib/libutee/tee_api_operations.c:763
    159a:	69eb      	ldr	r3, [r5, #28]
/home/hsk/Desktop/devel/tee-tpm-hyp/optee_os/lib/libutee/tee_api_operations.c:762
    159c:	2200      	movs	r2, #0
    159e:	63aa      	str	r2, [r5, #56]	; 0x38
/home/hsk/Desktop/devel/tee-tpm-hyp/optee_os/lib/libutee/tee_api_operations.c:763
    15a0:	f443 3300 	orr.w	r3, r3, #131072	; 0x20000
TEE_DigestDoFinal():
/home/hsk/Desktop/devel/tee-tpm-hyp/optee_os/lib/libutee/tee_api_operations.c:806
    15a4:	62aa      	str	r2, [r5, #40]	; 0x28
init_hash_operation():
/home/hsk/Desktop/devel/tee-tpm-hyp/optee_os/lib/libutee/tee_api_operations.c:763
    15a6:	61eb      	str	r3, [r5, #28]
TEE_DigestDoFinal():
/home/hsk/Desktop/devel/tee-tpm-hyp/optee_os/lib/libutee/tee_api_operations.c:814
    15a8:	4620      	mov	r0, r4
    15aa:	b005      	add	sp, #20
    15ac:	bd30      	pop	{r4, r5, pc}
/home/hsk/Desktop/devel/tee-tpm-hyp/optee_os/lib/libutee/tee_api_operations.c:793
    15ae:	4c04      	ldr	r4, [pc, #16]	; (15c0 <TEE_DigestDoFinal+0x68>)
/home/hsk/Desktop/devel/tee-tpm-hyp/optee_os/lib/libutee/tee_api_operations.c:811
    15b0:	4620      	mov	r0, r4
    15b2:	f006 f9b1 	bl	7918 <TEE_Panic>
/home/hsk/Desktop/devel/tee-tpm-hyp/optee_os/lib/libutee/tee_api_operations.c:813
    15b6:	e7f7      	b.n	15a8 <TEE_DigestDoFinal+0x50>
/home/hsk/Desktop/devel/tee-tpm-hyp/optee_os/lib/libutee/tee_api_operations.c:809
    15b8:	4b02      	ldr	r3, [pc, #8]	; (15c4 <TEE_DigestDoFinal+0x6c>)
    15ba:	4298      	cmp	r0, r3
    15bc:	d0f4      	beq.n	15a8 <TEE_DigestDoFinal+0x50>
    15be:	e7f7      	b.n	15b0 <TEE_DigestDoFinal+0x58>
    15c0:	ffff0006 	.word	0xffff0006
    15c4:	ffff0010 	.word	0xffff0010

000015c8 <TEE_CipherInit>:
TEE_CipherInit():
/home/hsk/Desktop/devel/tee-tpm-hyp/optee_os/lib/libutee/tee_api_operations.c:820
    15c8:	b570      	push	{r4, r5, r6, lr}
    15ca:	460d      	mov	r5, r1
    15cc:	4616      	mov	r6, r2
/home/hsk/Desktop/devel/tee-tpm-hyp/optee_os/lib/libutee/tee_api_operations.c:823
    15ce:	4604      	mov	r4, r0
    15d0:	b908      	cbnz	r0, 15d6 <TEE_CipherInit+0xe>
/home/hsk/Desktop/devel/tee-tpm-hyp/optee_os/lib/libutee/tee_api_operations.c:824
    15d2:	f006 f9a1 	bl	7918 <TEE_Panic>
/home/hsk/Desktop/devel/tee-tpm-hyp/optee_os/lib/libutee/tee_api_operations.c:826
    15d6:	6863      	ldr	r3, [r4, #4]
    15d8:	2b01      	cmp	r3, #1
    15da:	d002      	beq.n	15e2 <TEE_CipherInit+0x1a>
/home/hsk/Desktop/devel/tee-tpm-hyp/optee_os/lib/libutee/tee_api_operations.c:827
    15dc:	2000      	movs	r0, #0
    15de:	f006 f99b 	bl	7918 <TEE_Panic>
/home/hsk/Desktop/devel/tee-tpm-hyp/optee_os/lib/libutee/tee_api_operations.c:829
    15e2:	69e3      	ldr	r3, [r4, #28]
    15e4:	035b      	lsls	r3, r3, #13
    15e6:	d501      	bpl.n	15ec <TEE_CipherInit+0x24>
/home/hsk/Desktop/devel/tee-tpm-hyp/optee_os/lib/libutee/tee_api_operations.c:829 (discriminator 1)
    15e8:	6a23      	ldr	r3, [r4, #32]
    15ea:	b913      	cbnz	r3, 15f2 <TEE_CipherInit+0x2a>
/home/hsk/Desktop/devel/tee-tpm-hyp/optee_os/lib/libutee/tee_api_operations.c:831
    15ec:	2000      	movs	r0, #0
    15ee:	f006 f993 	bl	7918 <TEE_Panic>
/home/hsk/Desktop/devel/tee-tpm-hyp/optee_os/lib/libutee/tee_api_operations.c:833
    15f2:	6aa3      	ldr	r3, [r4, #40]	; 0x28
    15f4:	b113      	cbz	r3, 15fc <TEE_CipherInit+0x34>
/home/hsk/Desktop/devel/tee-tpm-hyp/optee_os/lib/libutee/tee_api_operations.c:834
    15f6:	4620      	mov	r0, r4
    15f8:	f7ff fe62 	bl	12c0 <TEE_ResetOperation>
/home/hsk/Desktop/devel/tee-tpm-hyp/optee_os/lib/libutee/tee_api_operations.c:836
    15fc:	2301      	movs	r3, #1
/home/hsk/Desktop/devel/tee-tpm-hyp/optee_os/lib/libutee/tee_api_operations.c:838
    15fe:	4632      	mov	r2, r6
/home/hsk/Desktop/devel/tee-tpm-hyp/optee_os/lib/libutee/tee_api_operations.c:836
    1600:	62a3      	str	r3, [r4, #40]	; 0x28
/home/hsk/Desktop/devel/tee-tpm-hyp/optee_os/lib/libutee/tee_api_operations.c:838
    1602:	4629      	mov	r1, r5
    1604:	6be0      	ldr	r0, [r4, #60]	; 0x3c
    1606:	f000 ef5e 	blx	24c4 <utee_cipher_init>
/home/hsk/Desktop/devel/tee-tpm-hyp/optee_os/lib/libutee/tee_api_operations.c:839
    160a:	b108      	cbz	r0, 1610 <TEE_CipherInit+0x48>
/home/hsk/Desktop/devel/tee-tpm-hyp/optee_os/lib/libutee/tee_api_operations.c:840
    160c:	f006 f984 	bl	7918 <TEE_Panic>
/home/hsk/Desktop/devel/tee-tpm-hyp/optee_os/lib/libutee/tee_api_operations.c:842
    1610:	2300      	movs	r3, #0
    1612:	63a3      	str	r3, [r4, #56]	; 0x38
/home/hsk/Desktop/devel/tee-tpm-hyp/optee_os/lib/libutee/tee_api_operations.c:843
    1614:	69e3      	ldr	r3, [r4, #28]
    1616:	f443 3300 	orr.w	r3, r3, #131072	; 0x20000
    161a:	61e3      	str	r3, [r4, #28]
/home/hsk/Desktop/devel/tee-tpm-hyp/optee_os/lib/libutee/tee_api_operations.c:844
    161c:	bd70      	pop	{r4, r5, r6, pc}

0000161e <TEE_CipherUpdate>:
TEE_CipherUpdate():
/home/hsk/Desktop/devel/tee-tpm-hyp/optee_os/lib/libutee/tee_api_operations.c:946
    161e:	b5f0      	push	{r4, r5, r6, r7, lr}
    1620:	4f36      	ldr	r7, [pc, #216]	; (16fc <TEE_CipherUpdate+0xde>)
    1622:	b087      	sub	sp, #28
    1624:	447f      	add	r7, pc
    1626:	9d0c      	ldr	r5, [sp, #48]	; 0x30
/home/hsk/Desktop/devel/tee-tpm-hyp/optee_os/lib/libutee/tee_api_operations.c:951
    1628:	2800      	cmp	r0, #0
    162a:	d060      	beq.n	16ee <TEE_CipherUpdate+0xd0>
/home/hsk/Desktop/devel/tee-tpm-hyp/optee_os/lib/libutee/tee_api_operations.c:951 (discriminator 1)
    162c:	b909      	cbnz	r1, 1632 <TEE_CipherUpdate+0x14>
/home/hsk/Desktop/devel/tee-tpm-hyp/optee_os/lib/libutee/tee_api_operations.c:952
    162e:	2a00      	cmp	r2, #0
    1630:	d15d      	bne.n	16ee <TEE_CipherUpdate+0xd0>
/home/hsk/Desktop/devel/tee-tpm-hyp/optee_os/lib/libutee/tee_api_operations.c:952 (discriminator 1)
    1632:	2d00      	cmp	r5, #0
    1634:	d05b      	beq.n	16ee <TEE_CipherUpdate+0xd0>
/home/hsk/Desktop/devel/tee-tpm-hyp/optee_os/lib/libutee/tee_api_operations.c:953
    1636:	b913      	cbnz	r3, 163e <TEE_CipherUpdate+0x20>
/home/hsk/Desktop/devel/tee-tpm-hyp/optee_os/lib/libutee/tee_api_operations.c:954
    1638:	682c      	ldr	r4, [r5, #0]
    163a:	2c00      	cmp	r4, #0
    163c:	d157      	bne.n	16ee <TEE_CipherUpdate+0xd0>
/home/hsk/Desktop/devel/tee-tpm-hyp/optee_os/lib/libutee/tee_api_operations.c:959
    163e:	6844      	ldr	r4, [r0, #4]
    1640:	2c01      	cmp	r4, #1
    1642:	d154      	bne.n	16ee <TEE_CipherUpdate+0xd0>
/home/hsk/Desktop/devel/tee-tpm-hyp/optee_os/lib/libutee/tee_api_operations.c:964
    1644:	69c4      	ldr	r4, [r0, #28]
    1646:	03a4      	lsls	r4, r4, #14
    1648:	d551      	bpl.n	16ee <TEE_CipherUpdate+0xd0>
/home/hsk/Desktop/devel/tee-tpm-hyp/optee_os/lib/libutee/tee_api_operations.c:969
    164a:	6a84      	ldr	r4, [r0, #40]	; 0x28
    164c:	2c01      	cmp	r4, #1
    164e:	d14e      	bne.n	16ee <TEE_CipherUpdate+0xd0>
/home/hsk/Desktop/devel/tee-tpm-hyp/optee_os/lib/libutee/tee_api_operations.c:974
    1650:	b929      	cbnz	r1, 165e <TEE_CipherUpdate+0x40>
/home/hsk/Desktop/devel/tee-tpm-hyp/optee_os/lib/libutee/tee_api_operations.c:974 (discriminator 1)
    1652:	b922      	cbnz	r2, 165e <TEE_CipherUpdate+0x40>
/home/hsk/Desktop/devel/tee-tpm-hyp/optee_os/lib/libutee/tee_api_operations.c:976
    1654:	4614      	mov	r4, r2
/home/hsk/Desktop/devel/tee-tpm-hyp/optee_os/lib/libutee/tee_api_operations.c:975
    1656:	602a      	str	r2, [r5, #0]
/home/hsk/Desktop/devel/tee-tpm-hyp/optee_os/lib/libutee/tee_api_operations.c:1025
    1658:	4620      	mov	r0, r4
    165a:	b007      	add	sp, #28
    165c:	bdf0      	pop	{r4, r5, r6, r7, pc}
/home/hsk/Desktop/devel/tee-tpm-hyp/optee_os/lib/libutee/tee_api_operations.c:981
    165e:	6b46      	ldr	r6, [r0, #52]	; 0x34
    1660:	2e01      	cmp	r6, #1
    1662:	d916      	bls.n	1692 <TEE_CipherUpdate+0x74>
/home/hsk/Desktop/devel/tee-tpm-hyp/optee_os/lib/libutee/tee_api_operations.c:982
    1664:	6b84      	ldr	r4, [r0, #56]	; 0x38
    1666:	4414      	add	r4, r2
    1668:	fbb4 f4f6 	udiv	r4, r4, r6
    166c:	4374      	muls	r4, r6
/home/hsk/Desktop/devel/tee-tpm-hyp/optee_os/lib/libutee/tee_api_operations.c:987
    166e:	f890 c030 	ldrb.w	ip, [r0, #48]	; 0x30
    1672:	f1bc 0f00 	cmp.w	ip, #0
    1676:	d005      	beq.n	1684 <TEE_CipherUpdate+0x66>
/home/hsk/Desktop/devel/tee-tpm-hyp/optee_os/lib/libutee/tee_api_operations.c:988
    1678:	ea4f 0c46 	mov.w	ip, r6, lsl #1
    167c:	45a4      	cmp	ip, r4
    167e:	d20a      	bcs.n	1696 <TEE_CipherUpdate+0x78>
/home/hsk/Desktop/devel/tee-tpm-hyp/optee_os/lib/libutee/tee_api_operations.c:989
    1680:	eba4 040c 	sub.w	r4, r4, ip
/home/hsk/Desktop/devel/tee-tpm-hyp/optee_os/lib/libutee/tee_api_operations.c:998
    1684:	f8d5 c000 	ldr.w	ip, [r5]
    1688:	45a4      	cmp	ip, r4
    168a:	d206      	bcs.n	169a <TEE_CipherUpdate+0x7c>
/home/hsk/Desktop/devel/tee-tpm-hyp/optee_os/lib/libutee/tee_api_operations.c:999
    168c:	602c      	str	r4, [r5, #0]
/home/hsk/Desktop/devel/tee-tpm-hyp/optee_os/lib/libutee/tee_api_operations.c:1000
    168e:	4c19      	ldr	r4, [pc, #100]	; (16f4 <TEE_CipherUpdate+0xd6>)
    1690:	e7e2      	b.n	1658 <TEE_CipherUpdate+0x3a>
    1692:	4614      	mov	r4, r2
    1694:	e7eb      	b.n	166e <TEE_CipherUpdate+0x50>
/home/hsk/Desktop/devel/tee-tpm-hyp/optee_os/lib/libutee/tee_api_operations.c:991
    1696:	2400      	movs	r4, #0
    1698:	e7f4      	b.n	1684 <TEE_CipherUpdate+0x66>
/home/hsk/Desktop/devel/tee-tpm-hyp/optee_os/lib/libutee/tee_api_operations.c:1004
    169a:	2400      	movs	r4, #0
    169c:	f8cd c010 	str.w	ip, [sp, #16]
    16a0:	9405      	str	r4, [sp, #20]
/home/hsk/Desktop/devel/tee-tpm-hyp/optee_os/lib/libutee/tee_api_operations.c:1005
    16a2:	2e01      	cmp	r6, #1
    16a4:	d916      	bls.n	16d4 <TEE_CipherUpdate+0xb6>
/home/hsk/Desktop/devel/tee-tpm-hyp/optee_os/lib/libutee/tee_api_operations.c:1006
    16a6:	4c16      	ldr	r4, [pc, #88]	; (1700 <TEE_CipherUpdate+0xe2>)
    16a8:	593c      	ldr	r4, [r7, r4]
    16aa:	9403      	str	r4, [sp, #12]
    16ac:	ac04      	add	r4, sp, #16
    16ae:	e9cd 3400 	strd	r3, r4, [sp]
    16b2:	4613      	mov	r3, r2
    16b4:	460a      	mov	r2, r1
    16b6:	9903      	ldr	r1, [sp, #12]
    16b8:	f7ff fa3e 	bl	b38 <tee_buffer_update>
/home/hsk/Desktop/devel/tee-tpm-hyp/optee_os/lib/libutee/tee_api_operations.c:1010
    16bc:	4604      	mov	r4, r0
/home/hsk/Desktop/devel/tee-tpm-hyp/optee_os/lib/libutee/tee_api_operations.c:1017
    16be:	9b04      	ldr	r3, [sp, #16]
    16c0:	602b      	str	r3, [r5, #0]
/home/hsk/Desktop/devel/tee-tpm-hyp/optee_os/lib/libutee/tee_api_operations.c:1020
    16c2:	2c00      	cmp	r4, #0
    16c4:	d0c8      	beq.n	1658 <TEE_CipherUpdate+0x3a>
/home/hsk/Desktop/devel/tee-tpm-hyp/optee_os/lib/libutee/tee_api_operations.c:1020 (discriminator 1)
    16c6:	4b0b      	ldr	r3, [pc, #44]	; (16f4 <TEE_CipherUpdate+0xd6>)
    16c8:	429c      	cmp	r4, r3
    16ca:	d0c5      	beq.n	1658 <TEE_CipherUpdate+0x3a>
/home/hsk/Desktop/devel/tee-tpm-hyp/optee_os/lib/libutee/tee_api_operations.c:1022
    16cc:	4620      	mov	r0, r4
    16ce:	f006 f923 	bl	7918 <TEE_Panic>
/home/hsk/Desktop/devel/tee-tpm-hyp/optee_os/lib/libutee/tee_api_operations.c:1024
    16d2:	e7c1      	b.n	1658 <TEE_CipherUpdate+0x3a>
/home/hsk/Desktop/devel/tee-tpm-hyp/optee_os/lib/libutee/tee_api_operations.c:1009
    16d4:	b12a      	cbz	r2, 16e2 <TEE_CipherUpdate+0xc4>
/home/hsk/Desktop/devel/tee-tpm-hyp/optee_os/lib/libutee/tee_api_operations.c:1010
    16d6:	ac04      	add	r4, sp, #16
    16d8:	9400      	str	r4, [sp, #0]
    16da:	6bc0      	ldr	r0, [r0, #60]	; 0x3c
    16dc:	f000 eefc 	blx	24d8 <utee_cipher_update>
    16e0:	e7ec      	b.n	16bc <TEE_CipherUpdate+0x9e>
/home/hsk/Desktop/devel/tee-tpm-hyp/optee_os/lib/libutee/tee_api_operations.c:1014
    16e2:	2000      	movs	r0, #0
    16e4:	2100      	movs	r1, #0
/home/hsk/Desktop/devel/tee-tpm-hyp/optee_os/lib/libutee/tee_api_operations.c:1013
    16e6:	4614      	mov	r4, r2
/home/hsk/Desktop/devel/tee-tpm-hyp/optee_os/lib/libutee/tee_api_operations.c:1014
    16e8:	e9cd 0104 	strd	r0, r1, [sp, #16]
    16ec:	e7e7      	b.n	16be <TEE_CipherUpdate+0xa0>
/home/hsk/Desktop/devel/tee-tpm-hyp/optee_os/lib/libutee/tee_api_operations.c:955
    16ee:	4c02      	ldr	r4, [pc, #8]	; (16f8 <TEE_CipherUpdate+0xda>)
    16f0:	e7ec      	b.n	16cc <TEE_CipherUpdate+0xae>
    16f2:	bf00      	nop
    16f4:	ffff0010 	.word	0xffff0010
    16f8:	ffff0006 	.word	0xffff0006
    16fc:	00007c38 	.word	0x00007c38
    1700:	0000002c 	.word	0x0000002c

00001704 <TEE_CipherDoFinal>:
TEE_CipherDoFinal():
/home/hsk/Desktop/devel/tee-tpm-hyp/optee_os/lib/libutee/tee_api_operations.c:1030
    1704:	e92d 43f0 	stmdb	sp!, {r4, r5, r6, r7, r8, r9, lr}
    1708:	4698      	mov	r8, r3
    170a:	4c3f      	ldr	r4, [pc, #252]	; (1808 <TEE_CipherDoFinal+0x104>)
    170c:	b087      	sub	sp, #28
/home/hsk/Desktop/devel/tee-tpm-hyp/optee_os/lib/libutee/tee_api_operations.c:1037
    170e:	4605      	mov	r5, r0
/home/hsk/Desktop/devel/tee-tpm-hyp/optee_os/lib/libutee/tee_api_operations.c:1030
    1710:	447c      	add	r4, pc
    1712:	9f0e      	ldr	r7, [sp, #56]	; 0x38
/home/hsk/Desktop/devel/tee-tpm-hyp/optee_os/lib/libutee/tee_api_operations.c:1037
    1714:	2800      	cmp	r0, #0
    1716:	d068      	beq.n	17ea <TEE_CipherDoFinal+0xe6>
/home/hsk/Desktop/devel/tee-tpm-hyp/optee_os/lib/libutee/tee_api_operations.c:1037 (discriminator 1)
    1718:	b909      	cbnz	r1, 171e <TEE_CipherDoFinal+0x1a>
/home/hsk/Desktop/devel/tee-tpm-hyp/optee_os/lib/libutee/tee_api_operations.c:1038
    171a:	2a00      	cmp	r2, #0
    171c:	d165      	bne.n	17ea <TEE_CipherDoFinal+0xe6>
/home/hsk/Desktop/devel/tee-tpm-hyp/optee_os/lib/libutee/tee_api_operations.c:1038 (discriminator 1)
    171e:	2f00      	cmp	r7, #0
    1720:	d063      	beq.n	17ea <TEE_CipherDoFinal+0xe6>
/home/hsk/Desktop/devel/tee-tpm-hyp/optee_os/lib/libutee/tee_api_operations.c:1039
    1722:	f1b8 0f00 	cmp.w	r8, #0
    1726:	d102      	bne.n	172e <TEE_CipherDoFinal+0x2a>
/home/hsk/Desktop/devel/tee-tpm-hyp/optee_os/lib/libutee/tee_api_operations.c:1040
    1728:	683b      	ldr	r3, [r7, #0]
    172a:	2b00      	cmp	r3, #0
    172c:	d15d      	bne.n	17ea <TEE_CipherDoFinal+0xe6>
/home/hsk/Desktop/devel/tee-tpm-hyp/optee_os/lib/libutee/tee_api_operations.c:1045
    172e:	686b      	ldr	r3, [r5, #4]
    1730:	2b01      	cmp	r3, #1
    1732:	d15a      	bne.n	17ea <TEE_CipherDoFinal+0xe6>
/home/hsk/Desktop/devel/tee-tpm-hyp/optee_os/lib/libutee/tee_api_operations.c:1050
    1734:	69eb      	ldr	r3, [r5, #28]
    1736:	039b      	lsls	r3, r3, #14
    1738:	d557      	bpl.n	17ea <TEE_CipherDoFinal+0xe6>
/home/hsk/Desktop/devel/tee-tpm-hyp/optee_os/lib/libutee/tee_api_operations.c:1055
    173a:	6aab      	ldr	r3, [r5, #40]	; 0x28
    173c:	2b01      	cmp	r3, #1
    173e:	d154      	bne.n	17ea <TEE_CipherDoFinal+0xe6>
/home/hsk/Desktop/devel/tee-tpm-hyp/optee_os/lib/libutee/tee_api_operations.c:1064
    1740:	682b      	ldr	r3, [r5, #0]
    1742:	f423 7380 	bic.w	r3, r3, #256	; 0x100
    1746:	f103 4070 	add.w	r0, r3, #4026531840	; 0xf0000000
    174a:	3810      	subs	r0, #16
    174c:	2801      	cmp	r0, #1
    174e:	6b68      	ldr	r0, [r5, #52]	; 0x34
    1750:	d902      	bls.n	1758 <TEE_CipherDoFinal+0x54>
/home/hsk/Desktop/devel/tee-tpm-hyp/optee_os/lib/libutee/tee_api_operations.c:1067 (discriminator 1)
    1752:	4e2a      	ldr	r6, [pc, #168]	; (17fc <TEE_CipherDoFinal+0xf8>)
    1754:	42b3      	cmp	r3, r6
    1756:	d107      	bne.n	1768 <TEE_CipherDoFinal+0x64>
/home/hsk/Desktop/devel/tee-tpm-hyp/optee_os/lib/libutee/tee_api_operations.c:1070
    1758:	6bab      	ldr	r3, [r5, #56]	; 0x38
    175a:	4413      	add	r3, r2
    175c:	fbb3 f6f0 	udiv	r6, r3, r0
    1760:	fb00 3316 	mls	r3, r0, r6, r3
    1764:	2b00      	cmp	r3, #0
    1766:	d140      	bne.n	17ea <TEE_CipherDoFinal+0xe6>
/home/hsk/Desktop/devel/tee-tpm-hyp/optee_os/lib/libutee/tee_api_operations.c:1082
    1768:	2801      	cmp	r0, #1
    176a:	d90b      	bls.n	1784 <TEE_CipherDoFinal+0x80>
/home/hsk/Desktop/devel/tee-tpm-hyp/optee_os/lib/libutee/tee_api_operations.c:1083
    176c:	6bab      	ldr	r3, [r5, #56]	; 0x38
    176e:	4413      	add	r3, r2
/home/hsk/Desktop/devel/tee-tpm-hyp/optee_os/lib/libutee/tee_api_operations.c:1087
    1770:	f8d7 c000 	ldr.w	ip, [r7]
    1774:	459c      	cmp	ip, r3
    1776:	d207      	bcs.n	1788 <TEE_CipherDoFinal+0x84>
/home/hsk/Desktop/devel/tee-tpm-hyp/optee_os/lib/libutee/tee_api_operations.c:1089
    1778:	4c21      	ldr	r4, [pc, #132]	; (1800 <TEE_CipherDoFinal+0xfc>)
/home/hsk/Desktop/devel/tee-tpm-hyp/optee_os/lib/libutee/tee_api_operations.c:1088
    177a:	603b      	str	r3, [r7, #0]
/home/hsk/Desktop/devel/tee-tpm-hyp/optee_os/lib/libutee/tee_api_operations.c:1126
    177c:	4620      	mov	r0, r4
    177e:	b007      	add	sp, #28
    1780:	e8bd 83f0 	ldmia.w	sp!, {r4, r5, r6, r7, r8, r9, pc}
    1784:	4613      	mov	r3, r2
    1786:	e7f3      	b.n	1770 <TEE_CipherDoFinal+0x6c>
/home/hsk/Desktop/devel/tee-tpm-hyp/optee_os/lib/libutee/tee_api_operations.c:1093
    1788:	2600      	movs	r6, #0
/home/hsk/Desktop/devel/tee-tpm-hyp/optee_os/lib/libutee/tee_api_operations.c:1094
    178a:	2801      	cmp	r0, #1
/home/hsk/Desktop/devel/tee-tpm-hyp/optee_os/lib/libutee/tee_api_operations.c:1093
    178c:	e9cd c604 	strd	ip, r6, [sp, #16]
    1790:	f10d 0910 	add.w	r9, sp, #16
/home/hsk/Desktop/devel/tee-tpm-hyp/optee_os/lib/libutee/tee_api_operations.c:1094
    1794:	d925      	bls.n	17e2 <TEE_CipherDoFinal+0xde>
/home/hsk/Desktop/devel/tee-tpm-hyp/optee_os/lib/libutee/tee_api_operations.c:1095
    1796:	4b1d      	ldr	r3, [pc, #116]	; (180c <TEE_CipherDoFinal+0x108>)
    1798:	4628      	mov	r0, r5
    179a:	58e3      	ldr	r3, [r4, r3]
    179c:	9303      	str	r3, [sp, #12]
    179e:	4613      	mov	r3, r2
    17a0:	e9cd 8900 	strd	r8, r9, [sp]
    17a4:	460a      	mov	r2, r1
    17a6:	9903      	ldr	r1, [sp, #12]
    17a8:	f7ff f9c6 	bl	b38 <tee_buffer_update>
/home/hsk/Desktop/devel/tee-tpm-hyp/optee_os/lib/libutee/tee_api_operations.c:1097
    17ac:	4604      	mov	r4, r0
    17ae:	bb08      	cbnz	r0, 17f4 <TEE_CipherDoFinal+0xf0>
/home/hsk/Desktop/devel/tee-tpm-hyp/optee_os/lib/libutee/tee_api_operations.c:1103
    17b0:	683b      	ldr	r3, [r7, #0]
/home/hsk/Desktop/devel/tee-tpm-hyp/optee_os/lib/libutee/tee_api_operations.c:1104
    17b2:	f8cd 9000 	str.w	r9, [sp]
/home/hsk/Desktop/devel/tee-tpm-hyp/optee_os/lib/libutee/tee_api_operations.c:1100
    17b6:	9e04      	ldr	r6, [sp, #16]
/home/hsk/Desktop/devel/tee-tpm-hyp/optee_os/lib/libutee/tee_api_operations.c:1104
    17b8:	6baa      	ldr	r2, [r5, #56]	; 0x38
    17ba:	6ae9      	ldr	r1, [r5, #44]	; 0x2c
/home/hsk/Desktop/devel/tee-tpm-hyp/optee_os/lib/libutee/tee_api_operations.c:1103
    17bc:	1b9b      	subs	r3, r3, r6
    17be:	e9cd 3004 	strd	r3, r0, [sp, #16]
/home/hsk/Desktop/devel/tee-tpm-hyp/optee_os/lib/libutee/tee_api_operations.c:1104
    17c2:	eb08 0306 	add.w	r3, r8, r6
/home/hsk/Desktop/devel/tee-tpm-hyp/optee_os/lib/libutee/tee_api_operations.c:1107
    17c6:	6be8      	ldr	r0, [r5, #60]	; 0x3c
    17c8:	f000 ee92 	blx	24f0 <utee_cipher_final>
    17cc:	4604      	mov	r4, r0
/home/hsk/Desktop/devel/tee-tpm-hyp/optee_os/lib/libutee/tee_api_operations.c:1110
    17ce:	b988      	cbnz	r0, 17f4 <TEE_CipherDoFinal+0xf0>
/home/hsk/Desktop/devel/tee-tpm-hyp/optee_os/lib/libutee/tee_api_operations.c:1113
    17d0:	9b04      	ldr	r3, [sp, #16]
    17d2:	441e      	add	r6, r3
/home/hsk/Desktop/devel/tee-tpm-hyp/optee_os/lib/libutee/tee_api_operations.c:1114
    17d4:	603e      	str	r6, [r7, #0]
/home/hsk/Desktop/devel/tee-tpm-hyp/optee_os/lib/libutee/tee_api_operations.c:1118
    17d6:	62a8      	str	r0, [r5, #40]	; 0x28
/home/hsk/Desktop/devel/tee-tpm-hyp/optee_os/lib/libutee/tee_api_operations.c:1116
    17d8:	69eb      	ldr	r3, [r5, #28]
    17da:	f423 3300 	bic.w	r3, r3, #131072	; 0x20000
    17de:	61eb      	str	r3, [r5, #28]
    17e0:	e7cc      	b.n	177c <TEE_CipherDoFinal+0x78>
/home/hsk/Desktop/devel/tee-tpm-hyp/optee_os/lib/libutee/tee_api_operations.c:1107
    17e2:	f8cd 9000 	str.w	r9, [sp]
    17e6:	4643      	mov	r3, r8
    17e8:	e7ed      	b.n	17c6 <TEE_CipherDoFinal+0xc2>
/home/hsk/Desktop/devel/tee-tpm-hyp/optee_os/lib/libutee/tee_api_operations.c:1041
    17ea:	4c06      	ldr	r4, [pc, #24]	; (1804 <TEE_CipherDoFinal+0x100>)
/home/hsk/Desktop/devel/tee-tpm-hyp/optee_os/lib/libutee/tee_api_operations.c:1123
    17ec:	4620      	mov	r0, r4
    17ee:	f006 f893 	bl	7918 <TEE_Panic>
/home/hsk/Desktop/devel/tee-tpm-hyp/optee_os/lib/libutee/tee_api_operations.c:1125
    17f2:	e7c3      	b.n	177c <TEE_CipherDoFinal+0x78>
/home/hsk/Desktop/devel/tee-tpm-hyp/optee_os/lib/libutee/tee_api_operations.c:1121
    17f4:	4b02      	ldr	r3, [pc, #8]	; (1800 <TEE_CipherDoFinal+0xfc>)
    17f6:	429c      	cmp	r4, r3
    17f8:	d0c0      	beq.n	177c <TEE_CipherDoFinal+0x78>
    17fa:	e7f7      	b.n	17ec <TEE_CipherDoFinal+0xe8>
    17fc:	10000013 	.word	0x10000013
    1800:	ffff0010 	.word	0xffff0010
    1804:	ffff0006 	.word	0xffff0006
    1808:	00007b4c 	.word	0x00007b4c
    180c:	0000002c 	.word	0x0000002c

00001810 <TEE_MACInit>:
TEE_MACInit():
/home/hsk/Desktop/devel/tee-tpm-hyp/optee_os/lib/libutee/tee_api_operations.c:1131
    1810:	b570      	push	{r4, r5, r6, lr}
    1812:	460d      	mov	r5, r1
    1814:	4616      	mov	r6, r2
/home/hsk/Desktop/devel/tee-tpm-hyp/optee_os/lib/libutee/tee_api_operations.c:1132
    1816:	4604      	mov	r4, r0
    1818:	b908      	cbnz	r0, 181e <TEE_MACInit+0xe>
/home/hsk/Desktop/devel/tee-tpm-hyp/optee_os/lib/libutee/tee_api_operations.c:1133
    181a:	f006 f87d 	bl	7918 <TEE_Panic>
/home/hsk/Desktop/devel/tee-tpm-hyp/optee_os/lib/libutee/tee_api_operations.c:1135
    181e:	6863      	ldr	r3, [r4, #4]
    1820:	2b03      	cmp	r3, #3
    1822:	d002      	beq.n	182a <TEE_MACInit+0x1a>
/home/hsk/Desktop/devel/tee-tpm-hyp/optee_os/lib/libutee/tee_api_operations.c:1136
    1824:	2000      	movs	r0, #0
    1826:	f006 f877 	bl	7918 <TEE_Panic>
/home/hsk/Desktop/devel/tee-tpm-hyp/optee_os/lib/libutee/tee_api_operations.c:1138
    182a:	69e3      	ldr	r3, [r4, #28]
    182c:	035b      	lsls	r3, r3, #13
    182e:	d501      	bpl.n	1834 <TEE_MACInit+0x24>
/home/hsk/Desktop/devel/tee-tpm-hyp/optee_os/lib/libutee/tee_api_operations.c:1138 (discriminator 1)
    1830:	6a23      	ldr	r3, [r4, #32]
    1832:	b913      	cbnz	r3, 183a <TEE_MACInit+0x2a>
/home/hsk/Desktop/devel/tee-tpm-hyp/optee_os/lib/libutee/tee_api_operations.c:1140
    1834:	2000      	movs	r0, #0
    1836:	f006 f86f 	bl	7918 <TEE_Panic>
/home/hsk/Desktop/devel/tee-tpm-hyp/optee_os/lib/libutee/tee_api_operations.c:1142
    183a:	6aa3      	ldr	r3, [r4, #40]	; 0x28
    183c:	b113      	cbz	r3, 1844 <TEE_MACInit+0x34>
/home/hsk/Desktop/devel/tee-tpm-hyp/optee_os/lib/libutee/tee_api_operations.c:1143
    183e:	4620      	mov	r0, r4
    1840:	f7ff fd3e 	bl	12c0 <TEE_ResetOperation>
/home/hsk/Desktop/devel/tee-tpm-hyp/optee_os/lib/libutee/tee_api_operations.c:1145
    1844:	2301      	movs	r3, #1
init_hash_operation():
/home/hsk/Desktop/devel/tee-tpm-hyp/optee_os/lib/libutee/tee_api_operations.c:759
    1846:	4632      	mov	r2, r6
TEE_MACInit():
/home/hsk/Desktop/devel/tee-tpm-hyp/optee_os/lib/libutee/tee_api_operations.c:1145
    1848:	62a3      	str	r3, [r4, #40]	; 0x28
init_hash_operation():
/home/hsk/Desktop/devel/tee-tpm-hyp/optee_os/lib/libutee/tee_api_operations.c:759
    184a:	4629      	mov	r1, r5
    184c:	6be0      	ldr	r0, [r4, #60]	; 0x3c
    184e:	f000 ee1a 	blx	2484 <utee_hash_init>
/home/hsk/Desktop/devel/tee-tpm-hyp/optee_os/lib/libutee/tee_api_operations.c:760
    1852:	b108      	cbz	r0, 1858 <TEE_MACInit+0x48>
/home/hsk/Desktop/devel/tee-tpm-hyp/optee_os/lib/libutee/tee_api_operations.c:761
    1854:	f006 f860 	bl	7918 <TEE_Panic>
/home/hsk/Desktop/devel/tee-tpm-hyp/optee_os/lib/libutee/tee_api_operations.c:762
    1858:	2300      	movs	r3, #0
    185a:	63a3      	str	r3, [r4, #56]	; 0x38
/home/hsk/Desktop/devel/tee-tpm-hyp/optee_os/lib/libutee/tee_api_operations.c:763
    185c:	69e3      	ldr	r3, [r4, #28]
    185e:	f443 3300 	orr.w	r3, r3, #131072	; 0x20000
    1862:	61e3      	str	r3, [r4, #28]
TEE_MACInit():
/home/hsk/Desktop/devel/tee-tpm-hyp/optee_os/lib/libutee/tee_api_operations.c:1148
    1864:	bd70      	pop	{r4, r5, r6, pc}

00001866 <TEE_MACUpdate>:
TEE_MACUpdate():
/home/hsk/Desktop/devel/tee-tpm-hyp/optee_os/lib/libutee/tee_api_operations.c:1152
    1866:	b570      	push	{r4, r5, r6, lr}
    1868:	460d      	mov	r5, r1
    186a:	4616      	mov	r6, r2
/home/hsk/Desktop/devel/tee-tpm-hyp/optee_os/lib/libutee/tee_api_operations.c:1155
    186c:	4604      	mov	r4, r0
    186e:	b108      	cbz	r0, 1874 <TEE_MACUpdate+0xe>
/home/hsk/Desktop/devel/tee-tpm-hyp/optee_os/lib/libutee/tee_api_operations.c:1155 (discriminator 1)
    1870:	b919      	cbnz	r1, 187a <TEE_MACUpdate+0x14>
/home/hsk/Desktop/devel/tee-tpm-hyp/optee_os/lib/libutee/tee_api_operations.c:1155 (discriminator 2)
    1872:	b112      	cbz	r2, 187a <TEE_MACUpdate+0x14>
/home/hsk/Desktop/devel/tee-tpm-hyp/optee_os/lib/libutee/tee_api_operations.c:1156
    1874:	2000      	movs	r0, #0
    1876:	f006 f84f 	bl	7918 <TEE_Panic>
/home/hsk/Desktop/devel/tee-tpm-hyp/optee_os/lib/libutee/tee_api_operations.c:1158
    187a:	6863      	ldr	r3, [r4, #4]
    187c:	2b03      	cmp	r3, #3
    187e:	d002      	beq.n	1886 <TEE_MACUpdate+0x20>
/home/hsk/Desktop/devel/tee-tpm-hyp/optee_os/lib/libutee/tee_api_operations.c:1159
    1880:	2000      	movs	r0, #0
    1882:	f006 f849 	bl	7918 <TEE_Panic>
/home/hsk/Desktop/devel/tee-tpm-hyp/optee_os/lib/libutee/tee_api_operations.c:1161
    1886:	69e0      	ldr	r0, [r4, #28]
    1888:	f410 3000 	ands.w	r0, r0, #131072	; 0x20000
    188c:	d101      	bne.n	1892 <TEE_MACUpdate+0x2c>
/home/hsk/Desktop/devel/tee-tpm-hyp/optee_os/lib/libutee/tee_api_operations.c:1162
    188e:	f006 f843 	bl	7918 <TEE_Panic>
/home/hsk/Desktop/devel/tee-tpm-hyp/optee_os/lib/libutee/tee_api_operations.c:1164
    1892:	6aa3      	ldr	r3, [r4, #40]	; 0x28
    1894:	2b01      	cmp	r3, #1
    1896:	d002      	beq.n	189e <TEE_MACUpdate+0x38>
/home/hsk/Desktop/devel/tee-tpm-hyp/optee_os/lib/libutee/tee_api_operations.c:1165
    1898:	2000      	movs	r0, #0
    189a:	f006 f83d 	bl	7918 <TEE_Panic>
/home/hsk/Desktop/devel/tee-tpm-hyp/optee_os/lib/libutee/tee_api_operations.c:1167
    189e:	4632      	mov	r2, r6
    18a0:	4629      	mov	r1, r5
    18a2:	6be0      	ldr	r0, [r4, #60]	; 0x3c
    18a4:	f000 edf8 	blx	2498 <utee_hash_update>
/home/hsk/Desktop/devel/tee-tpm-hyp/optee_os/lib/libutee/tee_api_operations.c:1168
    18a8:	b118      	cbz	r0, 18b2 <TEE_MACUpdate+0x4c>
/home/hsk/Desktop/devel/tee-tpm-hyp/optee_os/lib/libutee/tee_api_operations.c:1170
    18aa:	e8bd 4070 	ldmia.w	sp!, {r4, r5, r6, lr}
/home/hsk/Desktop/devel/tee-tpm-hyp/optee_os/lib/libutee/tee_api_operations.c:1169
    18ae:	f006 b833 	b.w	7918 <TEE_Panic>
/home/hsk/Desktop/devel/tee-tpm-hyp/optee_os/lib/libutee/tee_api_operations.c:1170
    18b2:	bd70      	pop	{r4, r5, r6, pc}

000018b4 <TEE_MACComputeFinal>:
TEE_MACComputeFinal():
/home/hsk/Desktop/devel/tee-tpm-hyp/optee_os/lib/libutee/tee_api_operations.c:1175
    18b4:	b530      	push	{r4, r5, lr}
/home/hsk/Desktop/devel/tee-tpm-hyp/optee_os/lib/libutee/tee_api_operations.c:1179
    18b6:	4605      	mov	r5, r0
/home/hsk/Desktop/devel/tee-tpm-hyp/optee_os/lib/libutee/tee_api_operations.c:1175
    18b8:	b085      	sub	sp, #20
    18ba:	9c08      	ldr	r4, [sp, #32]
/home/hsk/Desktop/devel/tee-tpm-hyp/optee_os/lib/libutee/tee_api_operations.c:1179
    18bc:	b308      	cbz	r0, 1902 <TEE_MACComputeFinal+0x4e>
/home/hsk/Desktop/devel/tee-tpm-hyp/optee_os/lib/libutee/tee_api_operations.c:1179 (discriminator 1)
    18be:	b901      	cbnz	r1, 18c2 <TEE_MACComputeFinal+0xe>
/home/hsk/Desktop/devel/tee-tpm-hyp/optee_os/lib/libutee/tee_api_operations.c:1180
    18c0:	b9fa      	cbnz	r2, 1902 <TEE_MACComputeFinal+0x4e>
/home/hsk/Desktop/devel/tee-tpm-hyp/optee_os/lib/libutee/tee_api_operations.c:1180 (discriminator 1)
    18c2:	b1f3      	cbz	r3, 1902 <TEE_MACComputeFinal+0x4e>
/home/hsk/Desktop/devel/tee-tpm-hyp/optee_os/lib/libutee/tee_api_operations.c:1181
    18c4:	b1ec      	cbz	r4, 1902 <TEE_MACComputeFinal+0x4e>
/home/hsk/Desktop/devel/tee-tpm-hyp/optee_os/lib/libutee/tee_api_operations.c:1187
    18c6:	6868      	ldr	r0, [r5, #4]
    18c8:	2803      	cmp	r0, #3
    18ca:	d11a      	bne.n	1902 <TEE_MACComputeFinal+0x4e>
/home/hsk/Desktop/devel/tee-tpm-hyp/optee_os/lib/libutee/tee_api_operations.c:1192
    18cc:	69e8      	ldr	r0, [r5, #28]
    18ce:	0380      	lsls	r0, r0, #14
    18d0:	d517      	bpl.n	1902 <TEE_MACComputeFinal+0x4e>
/home/hsk/Desktop/devel/tee-tpm-hyp/optee_os/lib/libutee/tee_api_operations.c:1197
    18d2:	6aa8      	ldr	r0, [r5, #40]	; 0x28
    18d4:	2801      	cmp	r0, #1
    18d6:	d114      	bne.n	1902 <TEE_MACComputeFinal+0x4e>
/home/hsk/Desktop/devel/tee-tpm-hyp/optee_os/lib/libutee/tee_api_operations.c:1202
    18d8:	6820      	ldr	r0, [r4, #0]
    18da:	9002      	str	r0, [sp, #8]
    18dc:	2000      	movs	r0, #0
    18de:	9003      	str	r0, [sp, #12]
/home/hsk/Desktop/devel/tee-tpm-hyp/optee_os/lib/libutee/tee_api_operations.c:1203
    18e0:	a802      	add	r0, sp, #8
    18e2:	9000      	str	r0, [sp, #0]
    18e4:	6be8      	ldr	r0, [r5, #60]	; 0x3c
    18e6:	f000 ede2 	blx	24ac <utee_hash_final>
/home/hsk/Desktop/devel/tee-tpm-hyp/optee_os/lib/libutee/tee_api_operations.c:1204
    18ea:	9b02      	ldr	r3, [sp, #8]
    18ec:	6023      	str	r3, [r4, #0]
/home/hsk/Desktop/devel/tee-tpm-hyp/optee_os/lib/libutee/tee_api_operations.c:1205
    18ee:	4604      	mov	r4, r0
    18f0:	b960      	cbnz	r0, 190c <TEE_MACComputeFinal+0x58>
/home/hsk/Desktop/devel/tee-tpm-hyp/optee_os/lib/libutee/tee_api_operations.c:1208
    18f2:	69eb      	ldr	r3, [r5, #28]
/home/hsk/Desktop/devel/tee-tpm-hyp/optee_os/lib/libutee/tee_api_operations.c:1210
    18f4:	62a8      	str	r0, [r5, #40]	; 0x28
/home/hsk/Desktop/devel/tee-tpm-hyp/optee_os/lib/libutee/tee_api_operations.c:1208
    18f6:	f423 3300 	bic.w	r3, r3, #131072	; 0x20000
    18fa:	61eb      	str	r3, [r5, #28]
/home/hsk/Desktop/devel/tee-tpm-hyp/optee_os/lib/libutee/tee_api_operations.c:1218
    18fc:	4620      	mov	r0, r4
    18fe:	b005      	add	sp, #20
    1900:	bd30      	pop	{r4, r5, pc}
/home/hsk/Desktop/devel/tee-tpm-hyp/optee_os/lib/libutee/tee_api_operations.c:1183
    1902:	4c04      	ldr	r4, [pc, #16]	; (1914 <TEE_MACComputeFinal+0x60>)
/home/hsk/Desktop/devel/tee-tpm-hyp/optee_os/lib/libutee/tee_api_operations.c:1215
    1904:	4620      	mov	r0, r4
    1906:	f006 f807 	bl	7918 <TEE_Panic>
/home/hsk/Desktop/devel/tee-tpm-hyp/optee_os/lib/libutee/tee_api_operations.c:1217
    190a:	e7f7      	b.n	18fc <TEE_MACComputeFinal+0x48>
/home/hsk/Desktop/devel/tee-tpm-hyp/optee_os/lib/libutee/tee_api_operations.c:1213
    190c:	4b02      	ldr	r3, [pc, #8]	; (1918 <TEE_MACComputeFinal+0x64>)
    190e:	4298      	cmp	r0, r3
    1910:	d0f4      	beq.n	18fc <TEE_MACComputeFinal+0x48>
    1912:	e7f7      	b.n	1904 <TEE_MACComputeFinal+0x50>
    1914:	ffff0006 	.word	0xffff0006
    1918:	ffff0010 	.word	0xffff0010

0000191c <TEE_MACCompareFinal>:
TEE_MACCompareFinal():
/home/hsk/Desktop/devel/tee-tpm-hyp/optee_os/lib/libutee/tee_api_operations.c:1223
    191c:	b5f0      	push	{r4, r5, r6, r7, lr}
    191e:	461f      	mov	r7, r3
/home/hsk/Desktop/devel/tee-tpm-hyp/optee_os/lib/libutee/tee_api_operations.c:1226
    1920:	2340      	movs	r3, #64	; 0x40
/home/hsk/Desktop/devel/tee-tpm-hyp/optee_os/lib/libutee/tee_api_operations.c:1223
    1922:	b095      	sub	sp, #84	; 0x54
    1924:	4605      	mov	r5, r0
/home/hsk/Desktop/devel/tee-tpm-hyp/optee_os/lib/libutee/tee_api_operations.c:1226
    1926:	9303      	str	r3, [sp, #12]
/home/hsk/Desktop/devel/tee-tpm-hyp/optee_os/lib/libutee/tee_api_operations.c:1228
    1928:	6843      	ldr	r3, [r0, #4]
    192a:	2b03      	cmp	r3, #3
    192c:	d11d      	bne.n	196a <TEE_MACCompareFinal+0x4e>
/home/hsk/Desktop/devel/tee-tpm-hyp/optee_os/lib/libutee/tee_api_operations.c:1233
    192e:	69c3      	ldr	r3, [r0, #28]
    1930:	039b      	lsls	r3, r3, #14
    1932:	d51a      	bpl.n	196a <TEE_MACCompareFinal+0x4e>
/home/hsk/Desktop/devel/tee-tpm-hyp/optee_os/lib/libutee/tee_api_operations.c:1238
    1934:	6a83      	ldr	r3, [r0, #40]	; 0x28
    1936:	2b01      	cmp	r3, #1
    1938:	d117      	bne.n	196a <TEE_MACCompareFinal+0x4e>
/home/hsk/Desktop/devel/tee-tpm-hyp/optee_os/lib/libutee/tee_api_operations.c:1243
    193a:	ae04      	add	r6, sp, #16
    193c:	ab03      	add	r3, sp, #12
    193e:	9300      	str	r3, [sp, #0]
    1940:	4633      	mov	r3, r6
    1942:	f7ff ffb7 	bl	18b4 <TEE_MACComputeFinal>
/home/hsk/Desktop/devel/tee-tpm-hyp/optee_os/lib/libutee/tee_api_operations.c:1245
    1946:	4604      	mov	r4, r0
    1948:	b9a0      	cbnz	r0, 1974 <TEE_MACCompareFinal+0x58>
/home/hsk/Desktop/devel/tee-tpm-hyp/optee_os/lib/libutee/tee_api_operations.c:1248
    194a:	9a03      	ldr	r2, [sp, #12]
    194c:	9b1a      	ldr	r3, [sp, #104]	; 0x68
    194e:	429a      	cmp	r2, r3
    1950:	d003      	beq.n	195a <TEE_MACCompareFinal+0x3e>
/home/hsk/Desktop/devel/tee-tpm-hyp/optee_os/lib/libutee/tee_api_operations.c:1249
    1952:	4c0a      	ldr	r4, [pc, #40]	; (197c <TEE_MACCompareFinal+0x60>)
/home/hsk/Desktop/devel/tee-tpm-hyp/optee_os/lib/libutee/tee_api_operations.c:1266
    1954:	4620      	mov	r0, r4
    1956:	b015      	add	sp, #84	; 0x54
    1958:	bdf0      	pop	{r4, r5, r6, r7, pc}
/home/hsk/Desktop/devel/tee-tpm-hyp/optee_os/lib/libutee/tee_api_operations.c:1253
    195a:	4631      	mov	r1, r6
    195c:	4638      	mov	r0, r7
    195e:	f006 f82e 	bl	79be <buf_compare_ct>
    1962:	2800      	cmp	r0, #0
    1964:	d1f5      	bne.n	1952 <TEE_MACCompareFinal+0x36>
/home/hsk/Desktop/devel/tee-tpm-hyp/optee_os/lib/libutee/tee_api_operations.c:1258
    1966:	62ac      	str	r4, [r5, #40]	; 0x28
    1968:	e7f4      	b.n	1954 <TEE_MACCompareFinal+0x38>
/home/hsk/Desktop/devel/tee-tpm-hyp/optee_os/lib/libutee/tee_api_operations.c:1229
    196a:	4c05      	ldr	r4, [pc, #20]	; (1980 <TEE_MACCompareFinal+0x64>)
/home/hsk/Desktop/devel/tee-tpm-hyp/optee_os/lib/libutee/tee_api_operations.c:1263
    196c:	4620      	mov	r0, r4
    196e:	f005 ffd3 	bl	7918 <TEE_Panic>
/home/hsk/Desktop/devel/tee-tpm-hyp/optee_os/lib/libutee/tee_api_operations.c:1265
    1972:	e7ef      	b.n	1954 <TEE_MACCompareFinal+0x38>
/home/hsk/Desktop/devel/tee-tpm-hyp/optee_os/lib/libutee/tee_api_operations.c:1261
    1974:	4b01      	ldr	r3, [pc, #4]	; (197c <TEE_MACCompareFinal+0x60>)
    1976:	4298      	cmp	r0, r3
    1978:	d0eb      	beq.n	1952 <TEE_MACCompareFinal+0x36>
    197a:	e7f7      	b.n	196c <TEE_MACCompareFinal+0x50>
    197c:	ffff3071 	.word	0xffff3071
    1980:	ffff0006 	.word	0xffff0006

00001984 <TEE_AEInit>:
TEE_AEInit():
/home/hsk/Desktop/devel/tee-tpm-hyp/optee_os/lib/libutee/tee_api_operations.c:1273
    1984:	b573      	push	{r0, r1, r4, r5, r6, lr}
/home/hsk/Desktop/devel/tee-tpm-hyp/optee_os/lib/libutee/tee_api_operations.c:1276
    1986:	4605      	mov	r5, r0
    1988:	b320      	cbz	r0, 19d4 <TEE_AEInit+0x50>
/home/hsk/Desktop/devel/tee-tpm-hyp/optee_os/lib/libutee/tee_api_operations.c:1276 (discriminator 1)
    198a:	b319      	cbz	r1, 19d4 <TEE_AEInit+0x50>
/home/hsk/Desktop/devel/tee-tpm-hyp/optee_os/lib/libutee/tee_api_operations.c:1281
    198c:	6840      	ldr	r0, [r0, #4]
    198e:	2804      	cmp	r0, #4
    1990:	d120      	bne.n	19d4 <TEE_AEInit+0x50>
/home/hsk/Desktop/devel/tee-tpm-hyp/optee_os/lib/libutee/tee_api_operations.c:1286
    1992:	6aa8      	ldr	r0, [r5, #40]	; 0x28
    1994:	b9f0      	cbnz	r0, 19d4 <TEE_AEInit+0x50>
/home/hsk/Desktop/devel/tee-tpm-hyp/optee_os/lib/libutee/tee_api_operations.c:1297
    1996:	682c      	ldr	r4, [r5, #0]
    1998:	4813      	ldr	r0, [pc, #76]	; (19e8 <TEE_AEInit+0x64>)
    199a:	4284      	cmp	r4, r0
    199c:	d109      	bne.n	19b2 <TEE_AEInit+0x2e>
/home/hsk/Desktop/devel/tee-tpm-hyp/optee_os/lib/libutee/tee_api_operations.c:1301
    199e:	f1a3 0060 	sub.w	r0, r3, #96	; 0x60
    19a2:	2820      	cmp	r0, #32
    19a4:	d903      	bls.n	19ae <TEE_AEInit+0x2a>
/home/hsk/Desktop/devel/tee-tpm-hyp/optee_os/lib/libutee/tee_api_operations.c:1302
    19a6:	4c11      	ldr	r4, [pc, #68]	; (19ec <TEE_AEInit+0x68>)
/home/hsk/Desktop/devel/tee-tpm-hyp/optee_os/lib/libutee/tee_api_operations.c:1321
    19a8:	4620      	mov	r0, r4
    19aa:	b002      	add	sp, #8
    19ac:	bd70      	pop	{r4, r5, r6, pc}
/home/hsk/Desktop/devel/tee-tpm-hyp/optee_os/lib/libutee/tee_api_operations.c:1301 (discriminator 1)
    19ae:	0758      	lsls	r0, r3, #29
    19b0:	d1f9      	bne.n	19a6 <TEE_AEInit+0x22>
/home/hsk/Desktop/devel/tee-tpm-hyp/optee_os/lib/libutee/tee_api_operations.c:1307
    19b2:	08de      	lsrs	r6, r3, #3
    19b4:	9b07      	ldr	r3, [sp, #28]
    19b6:	9301      	str	r3, [sp, #4]
    19b8:	9b06      	ldr	r3, [sp, #24]
    19ba:	9300      	str	r3, [sp, #0]
    19bc:	4633      	mov	r3, r6
    19be:	6be8      	ldr	r0, [r5, #60]	; 0x3c
    19c0:	f000 ee06 	blx	25d0 <utee_authenc_init>
/home/hsk/Desktop/devel/tee-tpm-hyp/optee_os/lib/libutee/tee_api_operations.c:1309
    19c4:	4604      	mov	r4, r0
    19c6:	b950      	cbnz	r0, 19de <TEE_AEInit+0x5a>
/home/hsk/Desktop/devel/tee-tpm-hyp/optee_os/lib/libutee/tee_api_operations.c:1313
    19c8:	69eb      	ldr	r3, [r5, #28]
/home/hsk/Desktop/devel/tee-tpm-hyp/optee_os/lib/libutee/tee_api_operations.c:1312
    19ca:	642e      	str	r6, [r5, #64]	; 0x40
/home/hsk/Desktop/devel/tee-tpm-hyp/optee_os/lib/libutee/tee_api_operations.c:1313
    19cc:	f443 3300 	orr.w	r3, r3, #131072	; 0x20000
    19d0:	61eb      	str	r3, [r5, #28]
    19d2:	e7e9      	b.n	19a8 <TEE_AEInit+0x24>
/home/hsk/Desktop/devel/tee-tpm-hyp/optee_os/lib/libutee/tee_api_operations.c:1277
    19d4:	4c06      	ldr	r4, [pc, #24]	; (19f0 <TEE_AEInit+0x6c>)
/home/hsk/Desktop/devel/tee-tpm-hyp/optee_os/lib/libutee/tee_api_operations.c:1318
    19d6:	4620      	mov	r0, r4
    19d8:	f005 ff9e 	bl	7918 <TEE_Panic>
/home/hsk/Desktop/devel/tee-tpm-hyp/optee_os/lib/libutee/tee_api_operations.c:1320
    19dc:	e7e4      	b.n	19a8 <TEE_AEInit+0x24>
/home/hsk/Desktop/devel/tee-tpm-hyp/optee_os/lib/libutee/tee_api_operations.c:1316
    19de:	4b03      	ldr	r3, [pc, #12]	; (19ec <TEE_AEInit+0x68>)
    19e0:	4298      	cmp	r0, r3
    19e2:	d0e0      	beq.n	19a6 <TEE_AEInit+0x22>
    19e4:	e7f7      	b.n	19d6 <TEE_AEInit+0x52>
    19e6:	bf00      	nop
    19e8:	40000810 	.word	0x40000810
    19ec:	ffff000a 	.word	0xffff000a
    19f0:	ffff0006 	.word	0xffff0006

000019f4 <TEE_AEUpdateAAD>:
TEE_AEUpdateAAD():
/home/hsk/Desktop/devel/tee-tpm-hyp/optee_os/lib/libutee/tee_api_operations.c:1325
    19f4:	b570      	push	{r4, r5, r6, lr}
    19f6:	460d      	mov	r5, r1
    19f8:	4616      	mov	r6, r2
/home/hsk/Desktop/devel/tee-tpm-hyp/optee_os/lib/libutee/tee_api_operations.c:1328
    19fa:	4604      	mov	r4, r0
    19fc:	b108      	cbz	r0, 1a02 <TEE_AEUpdateAAD+0xe>
/home/hsk/Desktop/devel/tee-tpm-hyp/optee_os/lib/libutee/tee_api_operations.c:1328 (discriminator 1)
    19fe:	b919      	cbnz	r1, 1a08 <TEE_AEUpdateAAD+0x14>
/home/hsk/Desktop/devel/tee-tpm-hyp/optee_os/lib/libutee/tee_api_operations.c:1329
    1a00:	b112      	cbz	r2, 1a08 <TEE_AEUpdateAAD+0x14>
/home/hsk/Desktop/devel/tee-tpm-hyp/optee_os/lib/libutee/tee_api_operations.c:1330
    1a02:	2000      	movs	r0, #0
    1a04:	f005 ff88 	bl	7918 <TEE_Panic>
/home/hsk/Desktop/devel/tee-tpm-hyp/optee_os/lib/libutee/tee_api_operations.c:1332
    1a08:	6863      	ldr	r3, [r4, #4]
    1a0a:	2b04      	cmp	r3, #4
    1a0c:	d002      	beq.n	1a14 <TEE_AEUpdateAAD+0x20>
/home/hsk/Desktop/devel/tee-tpm-hyp/optee_os/lib/libutee/tee_api_operations.c:1333
    1a0e:	2000      	movs	r0, #0
    1a10:	f005 ff82 	bl	7918 <TEE_Panic>
/home/hsk/Desktop/devel/tee-tpm-hyp/optee_os/lib/libutee/tee_api_operations.c:1335
    1a14:	69e0      	ldr	r0, [r4, #28]
    1a16:	f410 3000 	ands.w	r0, r0, #131072	; 0x20000
    1a1a:	d101      	bne.n	1a20 <TEE_AEUpdateAAD+0x2c>
/home/hsk/Desktop/devel/tee-tpm-hyp/optee_os/lib/libutee/tee_api_operations.c:1336
    1a1c:	f005 ff7c 	bl	7918 <TEE_Panic>
/home/hsk/Desktop/devel/tee-tpm-hyp/optee_os/lib/libutee/tee_api_operations.c:1338
    1a20:	4632      	mov	r2, r6
    1a22:	4629      	mov	r1, r5
    1a24:	6be0      	ldr	r0, [r4, #60]	; 0x3c
    1a26:	f000 ede0 	blx	25e8 <utee_authenc_update_aad>
/home/hsk/Desktop/devel/tee-tpm-hyp/optee_os/lib/libutee/tee_api_operations.c:1340
    1a2a:	2301      	movs	r3, #1
    1a2c:	62a3      	str	r3, [r4, #40]	; 0x28
/home/hsk/Desktop/devel/tee-tpm-hyp/optee_os/lib/libutee/tee_api_operations.c:1342
    1a2e:	b118      	cbz	r0, 1a38 <TEE_AEUpdateAAD+0x44>
/home/hsk/Desktop/devel/tee-tpm-hyp/optee_os/lib/libutee/tee_api_operations.c:1344
    1a30:	e8bd 4070 	ldmia.w	sp!, {r4, r5, r6, lr}
/home/hsk/Desktop/devel/tee-tpm-hyp/optee_os/lib/libutee/tee_api_operations.c:1343
    1a34:	f005 bf70 	b.w	7918 <TEE_Panic>
/home/hsk/Desktop/devel/tee-tpm-hyp/optee_os/lib/libutee/tee_api_operations.c:1344
    1a38:	bd70      	pop	{r4, r5, r6, pc}

00001a3a <TEE_AEUpdate>:
TEE_AEUpdate():
/home/hsk/Desktop/devel/tee-tpm-hyp/optee_os/lib/libutee/tee_api_operations.c:1348
    1a3a:	b5f0      	push	{r4, r5, r6, r7, lr}
/home/hsk/Desktop/devel/tee-tpm-hyp/optee_os/lib/libutee/tee_api_operations.c:1353
    1a3c:	4605      	mov	r5, r0
/home/hsk/Desktop/devel/tee-tpm-hyp/optee_os/lib/libutee/tee_api_operations.c:1348
    1a3e:	4f30      	ldr	r7, [pc, #192]	; (1b00 <TEE_AEUpdate+0xc6>)
    1a40:	b087      	sub	sp, #28
    1a42:	447f      	add	r7, pc
    1a44:	9e0c      	ldr	r6, [sp, #48]	; 0x30
/home/hsk/Desktop/devel/tee-tpm-hyp/optee_os/lib/libutee/tee_api_operations.c:1353
    1a46:	2800      	cmp	r0, #0
    1a48:	d04c      	beq.n	1ae4 <TEE_AEUpdate+0xaa>
/home/hsk/Desktop/devel/tee-tpm-hyp/optee_os/lib/libutee/tee_api_operations.c:1353 (discriminator 1)
    1a4a:	b909      	cbnz	r1, 1a50 <TEE_AEUpdate+0x16>
/home/hsk/Desktop/devel/tee-tpm-hyp/optee_os/lib/libutee/tee_api_operations.c:1354
    1a4c:	2a00      	cmp	r2, #0
    1a4e:	d149      	bne.n	1ae4 <TEE_AEUpdate+0xaa>
/home/hsk/Desktop/devel/tee-tpm-hyp/optee_os/lib/libutee/tee_api_operations.c:1354 (discriminator 1)
    1a50:	2e00      	cmp	r6, #0
    1a52:	d047      	beq.n	1ae4 <TEE_AEUpdate+0xaa>
/home/hsk/Desktop/devel/tee-tpm-hyp/optee_os/lib/libutee/tee_api_operations.c:1355
    1a54:	b913      	cbnz	r3, 1a5c <TEE_AEUpdate+0x22>
/home/hsk/Desktop/devel/tee-tpm-hyp/optee_os/lib/libutee/tee_api_operations.c:1356
    1a56:	6830      	ldr	r0, [r6, #0]
    1a58:	2800      	cmp	r0, #0
    1a5a:	d143      	bne.n	1ae4 <TEE_AEUpdate+0xaa>
/home/hsk/Desktop/devel/tee-tpm-hyp/optee_os/lib/libutee/tee_api_operations.c:1361
    1a5c:	6868      	ldr	r0, [r5, #4]
    1a5e:	2804      	cmp	r0, #4
    1a60:	d140      	bne.n	1ae4 <TEE_AEUpdate+0xaa>
/home/hsk/Desktop/devel/tee-tpm-hyp/optee_os/lib/libutee/tee_api_operations.c:1366
    1a62:	69e8      	ldr	r0, [r5, #28]
    1a64:	0380      	lsls	r0, r0, #14
    1a66:	d53d      	bpl.n	1ae4 <TEE_AEUpdate+0xaa>
/home/hsk/Desktop/devel/tee-tpm-hyp/optee_os/lib/libutee/tee_api_operations.c:1371
    1a68:	b919      	cbnz	r1, 1a72 <TEE_AEUpdate+0x38>
/home/hsk/Desktop/devel/tee-tpm-hyp/optee_os/lib/libutee/tee_api_operations.c:1371 (discriminator 1)
    1a6a:	b912      	cbnz	r2, 1a72 <TEE_AEUpdate+0x38>
/home/hsk/Desktop/devel/tee-tpm-hyp/optee_os/lib/libutee/tee_api_operations.c:1372
    1a6c:	6032      	str	r2, [r6, #0]
/home/hsk/Desktop/devel/tee-tpm-hyp/optee_os/lib/libutee/tee_api_operations.c:1414
    1a6e:	2400      	movs	r4, #0
    1a70:	e00e      	b.n	1a90 <TEE_AEUpdate+0x56>
/home/hsk/Desktop/devel/tee-tpm-hyp/optee_os/lib/libutee/tee_api_operations.c:1382
    1a72:	6b6c      	ldr	r4, [r5, #52]	; 0x34
    1a74:	2c01      	cmp	r4, #1
    1a76:	d90e      	bls.n	1a96 <TEE_AEUpdate+0x5c>
/home/hsk/Desktop/devel/tee-tpm-hyp/optee_os/lib/libutee/tee_api_operations.c:1383
    1a78:	6ba8      	ldr	r0, [r5, #56]	; 0x38
    1a7a:	f1c4 0c00 	rsb	ip, r4, #0
    1a7e:	4410      	add	r0, r2
    1a80:	ea00 000c 	and.w	r0, r0, ip
/home/hsk/Desktop/devel/tee-tpm-hyp/optee_os/lib/libutee/tee_api_operations.c:1389
    1a84:	f8d6 c000 	ldr.w	ip, [r6]
    1a88:	4584      	cmp	ip, r0
    1a8a:	d206      	bcs.n	1a9a <TEE_AEUpdate+0x60>
/home/hsk/Desktop/devel/tee-tpm-hyp/optee_os/lib/libutee/tee_api_operations.c:1391
    1a8c:	4c1a      	ldr	r4, [pc, #104]	; (1af8 <TEE_AEUpdate+0xbe>)
/home/hsk/Desktop/devel/tee-tpm-hyp/optee_os/lib/libutee/tee_api_operations.c:1390
    1a8e:	6030      	str	r0, [r6, #0]
/home/hsk/Desktop/devel/tee-tpm-hyp/optee_os/lib/libutee/tee_api_operations.c:1422
    1a90:	4620      	mov	r0, r4
    1a92:	b007      	add	sp, #28
    1a94:	bdf0      	pop	{r4, r5, r6, r7, pc}
    1a96:	4610      	mov	r0, r2
    1a98:	e7f4      	b.n	1a84 <TEE_AEUpdate+0x4a>
/home/hsk/Desktop/devel/tee-tpm-hyp/optee_os/lib/libutee/tee_api_operations.c:1395
    1a9a:	2000      	movs	r0, #0
    1a9c:	f8cd c010 	str.w	ip, [sp, #16]
    1aa0:	9005      	str	r0, [sp, #20]
/home/hsk/Desktop/devel/tee-tpm-hyp/optee_os/lib/libutee/tee_api_operations.c:1396
    1aa2:	2c01      	cmp	r4, #1
    1aa4:	d912      	bls.n	1acc <TEE_AEUpdate+0x92>
/home/hsk/Desktop/devel/tee-tpm-hyp/optee_os/lib/libutee/tee_api_operations.c:1397
    1aa6:	4817      	ldr	r0, [pc, #92]	; (1b04 <TEE_AEUpdate+0xca>)
    1aa8:	5838      	ldr	r0, [r7, r0]
    1aaa:	9003      	str	r0, [sp, #12]
    1aac:	a804      	add	r0, sp, #16
    1aae:	9300      	str	r3, [sp, #0]
    1ab0:	4613      	mov	r3, r2
    1ab2:	9001      	str	r0, [sp, #4]
    1ab4:	460a      	mov	r2, r1
    1ab6:	4628      	mov	r0, r5
    1ab8:	9903      	ldr	r1, [sp, #12]
    1aba:	f7ff f83d 	bl	b38 <tee_buffer_update>
/home/hsk/Desktop/devel/tee-tpm-hyp/optee_os/lib/libutee/tee_api_operations.c:1401
    1abe:	4604      	mov	r4, r0
/home/hsk/Desktop/devel/tee-tpm-hyp/optee_os/lib/libutee/tee_api_operations.c:1409
    1ac0:	b9a8      	cbnz	r0, 1aee <TEE_AEUpdate+0xb4>
/home/hsk/Desktop/devel/tee-tpm-hyp/optee_os/lib/libutee/tee_api_operations.c:1412
    1ac2:	9b04      	ldr	r3, [sp, #16]
    1ac4:	6033      	str	r3, [r6, #0]
/home/hsk/Desktop/devel/tee-tpm-hyp/optee_os/lib/libutee/tee_api_operations.c:1414
    1ac6:	2301      	movs	r3, #1
    1ac8:	62ab      	str	r3, [r5, #40]	; 0x28
    1aca:	e7d0      	b.n	1a6e <TEE_AEUpdate+0x34>
/home/hsk/Desktop/devel/tee-tpm-hyp/optee_os/lib/libutee/tee_api_operations.c:1400
    1acc:	b12a      	cbz	r2, 1ada <TEE_AEUpdate+0xa0>
/home/hsk/Desktop/devel/tee-tpm-hyp/optee_os/lib/libutee/tee_api_operations.c:1401
    1ace:	a804      	add	r0, sp, #16
    1ad0:	9000      	str	r0, [sp, #0]
    1ad2:	6be8      	ldr	r0, [r5, #60]	; 0x3c
    1ad4:	f000 ed92 	blx	25fc <utee_authenc_update_payload>
    1ad8:	e7f1      	b.n	1abe <TEE_AEUpdate+0x84>
/home/hsk/Desktop/devel/tee-tpm-hyp/optee_os/lib/libutee/tee_api_operations.c:1405
    1ada:	2200      	movs	r2, #0
    1adc:	2300      	movs	r3, #0
    1ade:	e9cd 2304 	strd	r2, r3, [sp, #16]
    1ae2:	e7ee      	b.n	1ac2 <TEE_AEUpdate+0x88>
/home/hsk/Desktop/devel/tee-tpm-hyp/optee_os/lib/libutee/tee_api_operations.c:1357
    1ae4:	4c05      	ldr	r4, [pc, #20]	; (1afc <TEE_AEUpdate+0xc2>)
/home/hsk/Desktop/devel/tee-tpm-hyp/optee_os/lib/libutee/tee_api_operations.c:1419
    1ae6:	4620      	mov	r0, r4
    1ae8:	f005 ff16 	bl	7918 <TEE_Panic>
/home/hsk/Desktop/devel/tee-tpm-hyp/optee_os/lib/libutee/tee_api_operations.c:1421
    1aec:	e7d0      	b.n	1a90 <TEE_AEUpdate+0x56>
/home/hsk/Desktop/devel/tee-tpm-hyp/optee_os/lib/libutee/tee_api_operations.c:1417
    1aee:	4b02      	ldr	r3, [pc, #8]	; (1af8 <TEE_AEUpdate+0xbe>)
    1af0:	4298      	cmp	r0, r3
    1af2:	d0cd      	beq.n	1a90 <TEE_AEUpdate+0x56>
    1af4:	e7f7      	b.n	1ae6 <TEE_AEUpdate+0xac>
    1af6:	bf00      	nop
    1af8:	ffff0010 	.word	0xffff0010
    1afc:	ffff0006 	.word	0xffff0006
    1b00:	0000781a 	.word	0x0000781a
    1b04:	00000014 	.word	0x00000014

00001b08 <TEE_AEEncryptFinal>:
TEE_AEEncryptFinal():
/home/hsk/Desktop/devel/tee-tpm-hyp/optee_os/lib/libutee/tee_api_operations.c:1428
    1b08:	e92d 4ff0 	stmdb	sp!, {r4, r5, r6, r7, r8, r9, sl, fp, lr}
    1b0c:	4698      	mov	r8, r3
    1b0e:	f8df c108 	ldr.w	ip, [pc, #264]	; 1c18 <TEE_AEEncryptFinal+0x110>
    1b12:	b08b      	sub	sp, #44	; 0x2c
/home/hsk/Desktop/devel/tee-tpm-hyp/optee_os/lib/libutee/tee_api_operations.c:1436
    1b14:	4604      	mov	r4, r0
/home/hsk/Desktop/devel/tee-tpm-hyp/optee_os/lib/libutee/tee_api_operations.c:1428
    1b16:	44fc      	add	ip, pc
    1b18:	9e14      	ldr	r6, [sp, #80]	; 0x50
    1b1a:	f8dd b054 	ldr.w	fp, [sp, #84]	; 0x54
    1b1e:	9f16      	ldr	r7, [sp, #88]	; 0x58
/home/hsk/Desktop/devel/tee-tpm-hyp/optee_os/lib/libutee/tee_api_operations.c:1436
    1b20:	2800      	cmp	r0, #0
    1b22:	d068      	beq.n	1bf6 <TEE_AEEncryptFinal+0xee>
/home/hsk/Desktop/devel/tee-tpm-hyp/optee_os/lib/libutee/tee_api_operations.c:1436 (discriminator 1)
    1b24:	b909      	cbnz	r1, 1b2a <TEE_AEEncryptFinal+0x22>
/home/hsk/Desktop/devel/tee-tpm-hyp/optee_os/lib/libutee/tee_api_operations.c:1437
    1b26:	2a00      	cmp	r2, #0
    1b28:	d165      	bne.n	1bf6 <TEE_AEEncryptFinal+0xee>
/home/hsk/Desktop/devel/tee-tpm-hyp/optee_os/lib/libutee/tee_api_operations.c:1437 (discriminator 1)
    1b2a:	2e00      	cmp	r6, #0
    1b2c:	d063      	beq.n	1bf6 <TEE_AEEncryptFinal+0xee>
/home/hsk/Desktop/devel/tee-tpm-hyp/optee_os/lib/libutee/tee_api_operations.c:1438
    1b2e:	f1b8 0f00 	cmp.w	r8, #0
    1b32:	d102      	bne.n	1b3a <TEE_AEEncryptFinal+0x32>
/home/hsk/Desktop/devel/tee-tpm-hyp/optee_os/lib/libutee/tee_api_operations.c:1439
    1b34:	6833      	ldr	r3, [r6, #0]
    1b36:	2b00      	cmp	r3, #0
    1b38:	d15d      	bne.n	1bf6 <TEE_AEEncryptFinal+0xee>
/home/hsk/Desktop/devel/tee-tpm-hyp/optee_os/lib/libutee/tee_api_operations.c:1439 (discriminator 1)
    1b3a:	f1bb 0f00 	cmp.w	fp, #0
    1b3e:	d05a      	beq.n	1bf6 <TEE_AEEncryptFinal+0xee>
/home/hsk/Desktop/devel/tee-tpm-hyp/optee_os/lib/libutee/tee_api_operations.c:1440
    1b40:	2f00      	cmp	r7, #0
    1b42:	d058      	beq.n	1bf6 <TEE_AEEncryptFinal+0xee>
/home/hsk/Desktop/devel/tee-tpm-hyp/optee_os/lib/libutee/tee_api_operations.c:1445
    1b44:	6863      	ldr	r3, [r4, #4]
    1b46:	2b04      	cmp	r3, #4
    1b48:	d155      	bne.n	1bf6 <TEE_AEEncryptFinal+0xee>
/home/hsk/Desktop/devel/tee-tpm-hyp/optee_os/lib/libutee/tee_api_operations.c:1450
    1b4a:	69e3      	ldr	r3, [r4, #28]
    1b4c:	039b      	lsls	r3, r3, #14
    1b4e:	d552      	bpl.n	1bf6 <TEE_AEEncryptFinal+0xee>
/home/hsk/Desktop/devel/tee-tpm-hyp/optee_os/lib/libutee/tee_api_operations.c:1465
    1b50:	6ba3      	ldr	r3, [r4, #56]	; 0x38
/home/hsk/Desktop/devel/tee-tpm-hyp/optee_os/lib/libutee/tee_api_operations.c:1466
    1b52:	6830      	ldr	r0, [r6, #0]
/home/hsk/Desktop/devel/tee-tpm-hyp/optee_os/lib/libutee/tee_api_operations.c:1465
    1b54:	4413      	add	r3, r2
    1b56:	f8df 90b4 	ldr.w	r9, [pc, #180]	; 1c0c <TEE_AEEncryptFinal+0x104>
/home/hsk/Desktop/devel/tee-tpm-hyp/optee_os/lib/libutee/tee_api_operations.c:1466
    1b5a:	4298      	cmp	r0, r3
    1b5c:	d20b      	bcs.n	1b76 <TEE_AEEncryptFinal+0x6e>
/home/hsk/Desktop/devel/tee-tpm-hyp/optee_os/lib/libutee/tee_api_operations.c:1468
    1b5e:	4648      	mov	r0, r9
/home/hsk/Desktop/devel/tee-tpm-hyp/optee_os/lib/libutee/tee_api_operations.c:1467
    1b60:	6033      	str	r3, [r6, #0]
/home/hsk/Desktop/devel/tee-tpm-hyp/optee_os/lib/libutee/tee_api_operations.c:1471
    1b62:	683b      	ldr	r3, [r7, #0]
    1b64:	6c25      	ldr	r5, [r4, #64]	; 0x40
    1b66:	42ab      	cmp	r3, r5
    1b68:	d207      	bcs.n	1b7a <TEE_AEEncryptFinal+0x72>
/home/hsk/Desktop/devel/tee-tpm-hyp/optee_os/lib/libutee/tee_api_operations.c:1472
    1b6a:	603d      	str	r5, [r7, #0]
    1b6c:	4b27      	ldr	r3, [pc, #156]	; (1c0c <TEE_AEEncryptFinal+0x104>)
/home/hsk/Desktop/devel/tee-tpm-hyp/optee_os/lib/libutee/tee_api_operations.c:1517
    1b6e:	4618      	mov	r0, r3
    1b70:	b00b      	add	sp, #44	; 0x2c
    1b72:	e8bd 8ff0 	ldmia.w	sp!, {r4, r5, r6, r7, r8, r9, sl, fp, pc}
/home/hsk/Desktop/devel/tee-tpm-hyp/optee_os/lib/libutee/tee_api_operations.c:1463
    1b76:	4826      	ldr	r0, [pc, #152]	; (1c10 <TEE_AEEncryptFinal+0x108>)
    1b78:	e7f3      	b.n	1b62 <TEE_AEEncryptFinal+0x5a>
/home/hsk/Desktop/devel/tee-tpm-hyp/optee_os/lib/libutee/tee_api_operations.c:1476
    1b7a:	4548      	cmp	r0, r9
    1b7c:	d0f6      	beq.n	1b6c <TEE_AEEncryptFinal+0x64>
/home/hsk/Desktop/devel/tee-tpm-hyp/optee_os/lib/libutee/tee_api_operations.c:1479
    1b7e:	2500      	movs	r5, #0
    1b80:	e9cd 3508 	strd	r3, r5, [sp, #32]
/home/hsk/Desktop/devel/tee-tpm-hyp/optee_os/lib/libutee/tee_api_operations.c:1480
    1b84:	6833      	ldr	r3, [r6, #0]
    1b86:	f10d 0a18 	add.w	sl, sp, #24
    1b8a:	e9cd 3506 	strd	r3, r5, [sp, #24]
/home/hsk/Desktop/devel/tee-tpm-hyp/optee_os/lib/libutee/tee_api_operations.c:1481
    1b8e:	6b63      	ldr	r3, [r4, #52]	; 0x34
    1b90:	2b01      	cmp	r3, #1
    1b92:	d92a      	bls.n	1bea <TEE_AEEncryptFinal+0xe2>
/home/hsk/Desktop/devel/tee-tpm-hyp/optee_os/lib/libutee/tee_api_operations.c:1482
    1b94:	4b21      	ldr	r3, [pc, #132]	; (1c1c <TEE_AEEncryptFinal+0x114>)
    1b96:	4620      	mov	r0, r4
    1b98:	f85c 3003 	ldr.w	r3, [ip, r3]
    1b9c:	9305      	str	r3, [sp, #20]
    1b9e:	4613      	mov	r3, r2
    1ba0:	e9cd 8a00 	strd	r8, sl, [sp]
    1ba4:	460a      	mov	r2, r1
    1ba6:	9905      	ldr	r1, [sp, #20]
    1ba8:	f7fe ffc6 	bl	b38 <tee_buffer_update>
/home/hsk/Desktop/devel/tee-tpm-hyp/optee_os/lib/libutee/tee_api_operations.c:1484
    1bac:	4603      	mov	r3, r0
    1bae:	bb48      	cbnz	r0, 1c04 <TEE_AEEncryptFinal+0xfc>
/home/hsk/Desktop/devel/tee-tpm-hyp/optee_os/lib/libutee/tee_api_operations.c:1487
    1bb0:	9d06      	ldr	r5, [sp, #24]
/home/hsk/Desktop/devel/tee-tpm-hyp/optee_os/lib/libutee/tee_api_operations.c:1491
    1bb2:	ab08      	add	r3, sp, #32
/home/hsk/Desktop/devel/tee-tpm-hyp/optee_os/lib/libutee/tee_api_operations.c:1490
    1bb4:	6832      	ldr	r2, [r6, #0]
/home/hsk/Desktop/devel/tee-tpm-hyp/optee_os/lib/libutee/tee_api_operations.c:1491
    1bb6:	9302      	str	r3, [sp, #8]
    1bb8:	eb08 0305 	add.w	r3, r8, r5
    1bbc:	e9cd ab00 	strd	sl, fp, [sp]
/home/hsk/Desktop/devel/tee-tpm-hyp/optee_os/lib/libutee/tee_api_operations.c:1490
    1bc0:	1b52      	subs	r2, r2, r5
    1bc2:	e9cd 2006 	strd	r2, r0, [sp, #24]
/home/hsk/Desktop/devel/tee-tpm-hyp/optee_os/lib/libutee/tee_api_operations.c:1491
    1bc6:	6ae1      	ldr	r1, [r4, #44]	; 0x2c
    1bc8:	6ba2      	ldr	r2, [r4, #56]	; 0x38
/home/hsk/Desktop/devel/tee-tpm-hyp/optee_os/lib/libutee/tee_api_operations.c:1496
    1bca:	6be0      	ldr	r0, [r4, #60]	; 0x3c
    1bcc:	f000 ed22 	blx	2614 <utee_authenc_enc_final>
/home/hsk/Desktop/devel/tee-tpm-hyp/optee_os/lib/libutee/tee_api_operations.c:1500
    1bd0:	9a08      	ldr	r2, [sp, #32]
/home/hsk/Desktop/devel/tee-tpm-hyp/optee_os/lib/libutee/tee_api_operations.c:1496
    1bd2:	4603      	mov	r3, r0
/home/hsk/Desktop/devel/tee-tpm-hyp/optee_os/lib/libutee/tee_api_operations.c:1500
    1bd4:	603a      	str	r2, [r7, #0]
/home/hsk/Desktop/devel/tee-tpm-hyp/optee_os/lib/libutee/tee_api_operations.c:1501
    1bd6:	b9a8      	cbnz	r0, 1c04 <TEE_AEEncryptFinal+0xfc>
/home/hsk/Desktop/devel/tee-tpm-hyp/optee_os/lib/libutee/tee_api_operations.c:1504
    1bd8:	9a06      	ldr	r2, [sp, #24]
    1bda:	4415      	add	r5, r2
/home/hsk/Desktop/devel/tee-tpm-hyp/optee_os/lib/libutee/tee_api_operations.c:1505
    1bdc:	6035      	str	r5, [r6, #0]
/home/hsk/Desktop/devel/tee-tpm-hyp/optee_os/lib/libutee/tee_api_operations.c:1509
    1bde:	62a0      	str	r0, [r4, #40]	; 0x28
/home/hsk/Desktop/devel/tee-tpm-hyp/optee_os/lib/libutee/tee_api_operations.c:1507
    1be0:	69e2      	ldr	r2, [r4, #28]
    1be2:	f422 3200 	bic.w	r2, r2, #131072	; 0x20000
    1be6:	61e2      	str	r2, [r4, #28]
    1be8:	e7c1      	b.n	1b6e <TEE_AEEncryptFinal+0x66>
/home/hsk/Desktop/devel/tee-tpm-hyp/optee_os/lib/libutee/tee_api_operations.c:1496
    1bea:	ab08      	add	r3, sp, #32
    1bec:	e9cd ab00 	strd	sl, fp, [sp]
    1bf0:	9302      	str	r3, [sp, #8]
    1bf2:	4643      	mov	r3, r8
    1bf4:	e7e9      	b.n	1bca <TEE_AEEncryptFinal+0xc2>
/home/hsk/Desktop/devel/tee-tpm-hyp/optee_os/lib/libutee/tee_api_operations.c:1441
    1bf6:	4b07      	ldr	r3, [pc, #28]	; (1c14 <TEE_AEEncryptFinal+0x10c>)
/home/hsk/Desktop/devel/tee-tpm-hyp/optee_os/lib/libutee/tee_api_operations.c:1514
    1bf8:	4618      	mov	r0, r3
    1bfa:	9305      	str	r3, [sp, #20]
    1bfc:	f005 fe8c 	bl	7918 <TEE_Panic>
/home/hsk/Desktop/devel/tee-tpm-hyp/optee_os/lib/libutee/tee_api_operations.c:1516
    1c00:	9b05      	ldr	r3, [sp, #20]
    1c02:	e7b4      	b.n	1b6e <TEE_AEEncryptFinal+0x66>
/home/hsk/Desktop/devel/tee-tpm-hyp/optee_os/lib/libutee/tee_api_operations.c:1512
    1c04:	454b      	cmp	r3, r9
    1c06:	d0b1      	beq.n	1b6c <TEE_AEEncryptFinal+0x64>
    1c08:	e7f6      	b.n	1bf8 <TEE_AEEncryptFinal+0xf0>
    1c0a:	bf00      	nop
    1c0c:	ffff0010 	.word	0xffff0010
    1c10:	ffff0000 	.word	0xffff0000
    1c14:	ffff0006 	.word	0xffff0006
    1c18:	00007746 	.word	0x00007746
    1c1c:	00000014 	.word	0x00000014

00001c20 <TEE_AEDecryptFinal>:
TEE_AEDecryptFinal():
/home/hsk/Desktop/devel/tee-tpm-hyp/optee_os/lib/libutee/tee_api_operations.c:1523
    1c20:	e92d 4ff0 	stmdb	sp!, {r4, r5, r6, r7, r8, r9, sl, fp, lr}
    1c24:	4699      	mov	r9, r3
    1c26:	4c3e      	ldr	r4, [pc, #248]	; (1d20 <TEE_AEDecryptFinal+0x100>)
    1c28:	b089      	sub	sp, #36	; 0x24
/home/hsk/Desktop/devel/tee-tpm-hyp/optee_os/lib/libutee/tee_api_operations.c:1530
    1c2a:	4605      	mov	r5, r0
/home/hsk/Desktop/devel/tee-tpm-hyp/optee_os/lib/libutee/tee_api_operations.c:1523
    1c2c:	447c      	add	r4, pc
    1c2e:	9f12      	ldr	r7, [sp, #72]	; 0x48
    1c30:	f8dd b04c 	ldr.w	fp, [sp, #76]	; 0x4c
    1c34:	f8dd 8050 	ldr.w	r8, [sp, #80]	; 0x50
/home/hsk/Desktop/devel/tee-tpm-hyp/optee_os/lib/libutee/tee_api_operations.c:1530
    1c38:	2800      	cmp	r0, #0
    1c3a:	d068      	beq.n	1d0e <TEE_AEDecryptFinal+0xee>
/home/hsk/Desktop/devel/tee-tpm-hyp/optee_os/lib/libutee/tee_api_operations.c:1530 (discriminator 1)
    1c3c:	b909      	cbnz	r1, 1c42 <TEE_AEDecryptFinal+0x22>
/home/hsk/Desktop/devel/tee-tpm-hyp/optee_os/lib/libutee/tee_api_operations.c:1531
    1c3e:	2a00      	cmp	r2, #0
    1c40:	d165      	bne.n	1d0e <TEE_AEDecryptFinal+0xee>
/home/hsk/Desktop/devel/tee-tpm-hyp/optee_os/lib/libutee/tee_api_operations.c:1531 (discriminator 1)
    1c42:	2f00      	cmp	r7, #0
    1c44:	d063      	beq.n	1d0e <TEE_AEDecryptFinal+0xee>
/home/hsk/Desktop/devel/tee-tpm-hyp/optee_os/lib/libutee/tee_api_operations.c:1532
    1c46:	f1b9 0f00 	cmp.w	r9, #0
    1c4a:	d102      	bne.n	1c52 <TEE_AEDecryptFinal+0x32>
/home/hsk/Desktop/devel/tee-tpm-hyp/optee_os/lib/libutee/tee_api_operations.c:1533
    1c4c:	683b      	ldr	r3, [r7, #0]
    1c4e:	2b00      	cmp	r3, #0
    1c50:	d15d      	bne.n	1d0e <TEE_AEDecryptFinal+0xee>
/home/hsk/Desktop/devel/tee-tpm-hyp/optee_os/lib/libutee/tee_api_operations.c:1533 (discriminator 1)
    1c52:	f1bb 0f00 	cmp.w	fp, #0
    1c56:	d102      	bne.n	1c5e <TEE_AEDecryptFinal+0x3e>
/home/hsk/Desktop/devel/tee-tpm-hyp/optee_os/lib/libutee/tee_api_operations.c:1534
    1c58:	f1b8 0f00 	cmp.w	r8, #0
    1c5c:	d157      	bne.n	1d0e <TEE_AEDecryptFinal+0xee>
/home/hsk/Desktop/devel/tee-tpm-hyp/optee_os/lib/libutee/tee_api_operations.c:1539
    1c5e:	686b      	ldr	r3, [r5, #4]
    1c60:	2b04      	cmp	r3, #4
    1c62:	d154      	bne.n	1d0e <TEE_AEDecryptFinal+0xee>
/home/hsk/Desktop/devel/tee-tpm-hyp/optee_os/lib/libutee/tee_api_operations.c:1544
    1c64:	69eb      	ldr	r3, [r5, #28]
    1c66:	039b      	lsls	r3, r3, #14
    1c68:	d551      	bpl.n	1d0e <TEE_AEDecryptFinal+0xee>
/home/hsk/Desktop/devel/tee-tpm-hyp/optee_os/lib/libutee/tee_api_operations.c:1554
    1c6a:	6bab      	ldr	r3, [r5, #56]	; 0x38
/home/hsk/Desktop/devel/tee-tpm-hyp/optee_os/lib/libutee/tee_api_operations.c:1555
    1c6c:	6838      	ldr	r0, [r7, #0]
/home/hsk/Desktop/devel/tee-tpm-hyp/optee_os/lib/libutee/tee_api_operations.c:1554
    1c6e:	4413      	add	r3, r2
/home/hsk/Desktop/devel/tee-tpm-hyp/optee_os/lib/libutee/tee_api_operations.c:1555
    1c70:	4298      	cmp	r0, r3
    1c72:	d205      	bcs.n	1c80 <TEE_AEDecryptFinal+0x60>
/home/hsk/Desktop/devel/tee-tpm-hyp/optee_os/lib/libutee/tee_api_operations.c:1557
    1c74:	4c27      	ldr	r4, [pc, #156]	; (1d14 <TEE_AEDecryptFinal+0xf4>)
/home/hsk/Desktop/devel/tee-tpm-hyp/optee_os/lib/libutee/tee_api_operations.c:1556
    1c76:	603b      	str	r3, [r7, #0]
/home/hsk/Desktop/devel/tee-tpm-hyp/optee_os/lib/libutee/tee_api_operations.c:1602
    1c78:	4620      	mov	r0, r4
    1c7a:	b009      	add	sp, #36	; 0x24
    1c7c:	e8bd 8ff0 	ldmia.w	sp!, {r4, r5, r6, r7, r8, r9, sl, fp, pc}
/home/hsk/Desktop/devel/tee-tpm-hyp/optee_os/lib/libutee/tee_api_operations.c:1562
    1c80:	6b6b      	ldr	r3, [r5, #52]	; 0x34
/home/hsk/Desktop/devel/tee-tpm-hyp/optee_os/lib/libutee/tee_api_operations.c:1561
    1c82:	2600      	movs	r6, #0
    1c84:	f10d 0a18 	add.w	sl, sp, #24
    1c88:	e9cd 0606 	strd	r0, r6, [sp, #24]
/home/hsk/Desktop/devel/tee-tpm-hyp/optee_os/lib/libutee/tee_api_operations.c:1562
    1c8c:	2b01      	cmp	r3, #1
    1c8e:	d938      	bls.n	1d02 <TEE_AEDecryptFinal+0xe2>
/home/hsk/Desktop/devel/tee-tpm-hyp/optee_os/lib/libutee/tee_api_operations.c:1563
    1c90:	4b24      	ldr	r3, [pc, #144]	; (1d24 <TEE_AEDecryptFinal+0x104>)
    1c92:	4628      	mov	r0, r5
    1c94:	58e3      	ldr	r3, [r4, r3]
    1c96:	9305      	str	r3, [sp, #20]
    1c98:	4613      	mov	r3, r2
    1c9a:	e9cd 9a00 	strd	r9, sl, [sp]
    1c9e:	460a      	mov	r2, r1
    1ca0:	9905      	ldr	r1, [sp, #20]
    1ca2:	f7fe ff49 	bl	b38 <tee_buffer_update>
/home/hsk/Desktop/devel/tee-tpm-hyp/optee_os/lib/libutee/tee_api_operations.c:1565
    1ca6:	4604      	mov	r4, r0
    1ca8:	bb08      	cbnz	r0, 1cee <TEE_AEDecryptFinal+0xce>
/home/hsk/Desktop/devel/tee-tpm-hyp/optee_os/lib/libutee/tee_api_operations.c:1571
    1caa:	683b      	ldr	r3, [r7, #0]
/home/hsk/Desktop/devel/tee-tpm-hyp/optee_os/lib/libutee/tee_api_operations.c:1572
    1cac:	f8cd 8008 	str.w	r8, [sp, #8]
    1cb0:	e9cd ab00 	strd	sl, fp, [sp]
/home/hsk/Desktop/devel/tee-tpm-hyp/optee_os/lib/libutee/tee_api_operations.c:1568
    1cb4:	9e06      	ldr	r6, [sp, #24]
/home/hsk/Desktop/devel/tee-tpm-hyp/optee_os/lib/libutee/tee_api_operations.c:1572
    1cb6:	6baa      	ldr	r2, [r5, #56]	; 0x38
    1cb8:	6ae9      	ldr	r1, [r5, #44]	; 0x2c
/home/hsk/Desktop/devel/tee-tpm-hyp/optee_os/lib/libutee/tee_api_operations.c:1571
    1cba:	1b9b      	subs	r3, r3, r6
    1cbc:	e9cd 3006 	strd	r3, r0, [sp, #24]
/home/hsk/Desktop/devel/tee-tpm-hyp/optee_os/lib/libutee/tee_api_operations.c:1572
    1cc0:	eb09 0306 	add.w	r3, r9, r6
/home/hsk/Desktop/devel/tee-tpm-hyp/optee_os/lib/libutee/tee_api_operations.c:1577
    1cc4:	6be8      	ldr	r0, [r5, #60]	; 0x3c
    1cc6:	f000 ecb2 	blx	262c <utee_authenc_dec_final>
    1cca:	4604      	mov	r4, r0
/home/hsk/Desktop/devel/tee-tpm-hyp/optee_os/lib/libutee/tee_api_operations.c:1581
    1ccc:	b978      	cbnz	r0, 1cee <TEE_AEDecryptFinal+0xce>
/home/hsk/Desktop/devel/tee-tpm-hyp/optee_os/lib/libutee/tee_api_operations.c:1585
